  Mon Sep 27 2021  9:39                                                Page 1


                     ***************************************
                     **      WDC 65C816 Macro Assembler   **
                     **                                   **
                     **     Version 1.00- Aug 10 2021    **
                     ***************************************

     1                        ;:ts=8
     2             00000001   R0	equ	1
     3             00000005   R1	equ	5
     4             00000009   R2	equ	9
     5             0000000D   R3	equ	13
     6                        	.file	"G:\devprojects\c256Foenix\fxos\FXOSWork
                    space\FXOS-Beta\src\diskio.c",0
     7                        ;/*-----------------------------------------------
                    ------------------------*/
     8                        ;/* Low level disk I/O module skeleton for FatFs  
                       (C)ChaN, 2019        */
     9                        ;/*-----------------------------------------------
                    ------------------------*/
    10                        ;/* If a working storage control module is availab
                    le, it should be        */
    11                        ;/* attached to the FatFs via a glue function rath
                    er than modifying it.   */
    12                        ;/* This is an example of glue functions to attach
                     various exsisting      */
    13                        ;/* storage control modules to the FatFs module wi
                    th a defined API.       */
    14                        ;/*-----------------------------------------------
                    ------------------------*/
    15                        ;#include 	"fxkernel.h"
    16                        	.file	"G:\devprojects\c256Foenix\fxos\FXOSWork
                    space\FXOS-Beta\src\fxkernel.h",0
    17                        	.file	"G:\devprojects\c256Foenix\fxos\FXOSWork
                    space\FXOS-Beta\src\fxos.h",0
    18                        	.file	"G:\devtools\WDCTools\wdc\Tools\include\
                    stdlib.h",0
    19                        	.file	"G:\devtools\WDCTools\wdc\Tools\include\
                    stddef.h",0
    20                        	.line	88
    21                        	.file	"G:\devtools\WDCTools\wdc\Tools\include\
                    stdlib.h",43
    22                        	.stag	fake1_,32,1
    23                        	.member	quot,0,5,8,16
    24                        	.member	rem,16,5,8,16
    25                        	.eos
    26                        	.stag	fake2_,64,2
    27                        	.member	quot,0,7,8,32
    28                        	.member	rem,32,7,8,32
    29                        	.eos
    30                        	.stag	int_sqrt,32,3
    31                        	.member	sqrt,0,16,8,16
    32                        	.member	frac,16,16,8,16
    33                        	.eos
    34                        	.line	205
    35                        	.file	"G:\devprojects\c256Foenix\fxos\FXOSWork
                    space\FXOS-Beta\src\fxos.h",4
    36                        	.file	"G:\devtools\WDCTools\wdc\Tools\include\
                    string.h",0
  Mon Sep 27 2021  9:39                                                Page 2


    37                        	.line	134
    38                        	.file	"G:\devprojects\c256Foenix\fxos\FXOSWork
                    space\FXOS-Beta\src\fxos.h",5
    39                        	.file	"G:\devtools\WDCTools\wdc\Tools\include\
                    ctype.h",0
    40                        	.line	103
    41                        	.file	"G:\devprojects\c256Foenix\fxos\FXOSWork
                    space\FXOS-Beta\src\fxos.h",6
    42                        	.file	"G:\devprojects\c256Foenix\fxos\FXOSWork
                    space\FXOS-Beta\src\fxtypes.h",0
    43                        	.stag	_fx_bytebits,8,4
    44                        	.member	b7,0,14,17,1
    45                        	.member	b6,1,14,17,1
    46                        	.member	b5,2,14,17,1
    47                        	.member	b4,3,14,17,1
    48                        	.member	b3,4,14,17,1
    49                        	.member	b2,5,14,17,1
    50                        	.member	b1,6,14,17,1
    51                        	.member	b0,7,14,17,1
    52                        	.eos
    53                        	.stag	_fx_node,384,5
    54                        	.member	type,0,14,8,8
    55                        	.member	Reserved0,8,14,8,8
    56                        	.member	data,16,129,8,32
    57                        	.member	last,48,138,8,32,5
    58                        	.member	next,80,138,8,32,5
    59                        	.member	name,112,110,8,0,32
    60                        	.member	Reserved1,368,16,8,16
    61                        	.eos
    62                        	.stag	_fx_nodelist,96,6
    63                        	.member	listhead,0,138,8,32,5
    64                        	.member	listData,32,129,8,32
    65                        	.member	deallocator,64,641,8,32
    66                        	.eos
    67                        	.stag	_fx_queue,80,7
    68                        	.member	count,0,5,8,16
    69                        	.member	front,16,138,8,32,5
    70                        	.member	rear,48,138,8,32,5
    71                        	.eos
    72                        	.stag	fake8_,32,8
    73                        	.member	subsystem,0,14,8,8
    74                        	.member	level,8,14,8,8
    75                        	.member	error,16,16,8,16
    76                        	.eos
    77                        	.stag	_fx_process_signal,16,9
    78                        	.member	cbSize,0,16,8,16
    79                        	.eos
    80                        	.stag	_fx_semaphore,16,10
    81                        	.member	reserved,0,5,8,16
    82                        	.eos
    83                        	.stag	_fx_fileBlock,552,11
    84                        	.member	openCount,0,16,8,16
    85                        	.member	lockCount,16,16,8,16
    86                        	.member	dirty,32,14,8,8
    87                        	.member	fileBuffer,40,110,8,0,64
    88                        	.eos
    89                        	.stag	_fx_irq_data,48,12
    90                        	.member	line,0,5,8,16
  Mon Sep 27 2021  9:39                                                Page 3


    91                        	.member	keycode,16,142,8,32
    92                        	.eos
    93                        	.stag	_task,48,13
    94                        	.member	SPL,0,14,8,8
    95                        	.member	SPH,8,14,8,8
    96                        	.member	pstack,16,142,8,32
    97                        	.eos
    98                        	.stag	_task_stack,32,14
    99                        	.member	SS,0,142,8,32
   100                        	.eos
   101                        	.stag	int_regs,104,15
   102                        	.member	PB,0,14,8,8
   103                        	.member	PH,8,14,8,8
   104                        	.member	PL,16,14,8,8
   105                        	.member	PP,24,14,8,8
   106                        	.member	DB,32,14,8,8
   107                        	.member	DH,40,14,8,8
   108                        	.member	DL,48,14,8,8
   109                        	.member	AH,56,14,8,8
   110                        	.member	AL,64,14,8,8
   111                        	.member	XH,72,14,8,8
   112                        	.member	XL,80,14,8,8
   113                        	.member	YH,88,14,8,8
   114                        	.member	YL,96,14,8,8
   115                        	.eos
   116                        	.stag	_fx_eventMessage,312,16
   117                        	.member	src,0,18,8,32
   118                        	.member	dest,32,18,8,32
   119                        	.member	type,64,16,8,16
   120                        	.member	hwnd,80,129,8,32
   121                        	.member	pheap,112,129,8,32
   122                        	.member	msgTime,144,18,8,32
   123                        	.member	data,176,110,8,0,16
   124                        	.member	attr,304,14,8,8
   125                        	.eos
   126                        	.stag	_fx_cmdMessage,312,17
   127                        	.member	src,0,18,8,32
   128                        	.member	dest,32,18,8,32
   129                        	.member	type,64,16,8,16
   130                        	.member	hwnd,80,129,8,32
   131                        	.member	pheap,112,129,8,32
   132                        	.member	msgTime,144,18,8,32
   133                        	.member	cmdCId,176,16,8,16
   134                        	.member	cmdMId,192,16,8,16
   135                        	.member	parameter1,208,18,8,32
   136                        	.member	parameter2,240,18,8,32
   137                        	.member	parameter3,272,18,8,32
   138                        	.member	attr,304,14,8,8
   139                        	.eos
   140                        	.stag	_fx_console_ctl,448,18
   141                        	.member	maxCols,0,5,8,16
   142                        	.member	maxRows,16,5,8,16
   143                        	.member	curX,32,5,8,16
   144                        	.member	curY,48,5,8,16
   145                        	.member	fgColor,64,5,8,16
   146                        	.member	bgColor,80,5,8,16
   147                        	.member	mode,96,14,8,8
   148                        	.member	kbBuffer,104,101,8,0,16
  Mon Sep 27 2021  9:39                                                Page 4


   149                        	.member	screenBuffer,360,142,8,32
   150                        	.member	desktopMode,392,14,8,8
   151                        	.member	lastMouseButton,400,5,8,16
   152                        	.member	lastMouseX,416,5,8,16
   153                        	.member	lastMouseY,432,5,8,16
   154                        	.eos
   155                        	.stag	_fx_desktop_ctl,392,19
   156                        	.member	desktopMode,0,14,8,8
   157                        	.member	cursorCtl,8,5,8,16
   158                        	.member	cursorState,24,5,8,16
   159                        	.member	backgroundColor,40,5,8,16
   160                        	.member	foregroundColor,56,5,8,16
   161                        	.member	menuMode,72,5,8,16
   162                        	.member	lastMouseButton,88,5,8,16
   163                        	.member	lastMouseX,104,5,8,16
   164                        	.member	lastMouseY,120,5,8,16
   165                        	.member	currentDiskName,136,142,8,32
   166                        	.member	diskNodes,168,129,8,32
   167                        	.member	titleNodes,200,129,8,32
   168                        	.member	menuNodes,232,129,8,32
   169                        	.member	iconNodes,264,129,8,32
   170                        	.member	windowNodes,296,129,8,32
   171                        	.member	fontNodes,328,129,8,32
   172                        	.member	wndProc,360,138,8,32,6
   173                        	.eos
   174                        	.stag	_fx_process,800,20
   175                        	.member	cbSize,0,5,8,16
   176                        	.member	procId,16,18,8,32
   177                        	.member	parentId,48,18,8,32
   178                        	.member	ctx,80,129,8,32
   179                        	.member	userId,112,16,8,16
   180                        	.member	status,128,16,8,16
   181                        	.member	foregroundActive,144,14,8,8
   182                        	.member	tls,152,1121,8,32,8
   183                        	.member	commandLine,408,142,8,32
   184                        	.member	semaphores,440,138,8,32,6
   185                        	.member	fileHandles,472,138,8,32,6
   186                        	.member	pathList,504,138,8,32,6
   187                        	.member	resources,536,138,8,32,6
   188                        	.member	timerAware,568,14,8,8
   189                        	.member	timerTicks,576,112,8,0,2
   190                        	.member	timerTickCount,608,112,8,0,2
   191                        	.member	kernelError,640,10,8,32,8
   192                        	.member	consoleCtl,672,138,8,32,18
   193                        	.member	desktopCtl,704,138,8,32,19
   194                        	.member	execProc,736,641,8,32
   195                        	.member	startupArgs,768,129,8,32
   196                        	.eos
   197                        	.stag	_fxProcessMessage,112,21
   198                        	.member	src,0,18,8,32
   199                        	.member	dest,32,18,8,32
   200                        	.member	type,64,16,8,16
   201                        	.member	processInfo,80,138,8,32,20
   202                        	.eos
   203                        	.stag	_k_key_state,112,22
   204                        	.member	scanCode,0,14,8,8
   205                        	.member	isShifted,8,14,8,8
   206                        	.member	isAlt,16,14,8,8
  Mon Sep 27 2021  9:39                                                Page 5


   207                        	.member	isExtended,24,14,8,8
   208                        	.member	isCapsLock,32,14,8,8
   209                        	.member	isNumLock,40,14,8,8
   210                        	.member	isScrollLock,48,14,8,8
   211                        	.member	keyChar,56,16,8,16
   212                        	.member	scanTime,72,18,8,32
   213                        	.member	ledStatus,104,14,8,8
   214                        	.eos
   215                        	.stag	_fx_property,384,23
   216                        	.member	name,0,110,8,0,16
   217                        	.member	value,128,110,8,0,32
   218                        	.eos
   219                        	.utag	_24bitPointer,32,24
   220                        	.member	address,0,142,11,32
   221                        	.member	bytes,0,110,11,0,4
   222                        	.eos
   223                        	.stag	_PointStruct,32,25
   224                        	.member	x,0,5,8,16
   225                        	.member	y,16,5,8,16
   226                        	.eos
   227                        	.stag	_RectStruct,112,26
   228                        	.member	x,0,5,8,16
   229                        	.member	y,16,5,8,16
   230                        	.member	z,32,18,8,32
   231                        	.member	width,64,5,8,16
   232                        	.member	height,80,5,8,16
   233                        	.member	attr,96,5,8,16
   234                        	.eos
   235                        	.stag	fake27_,96,27
   236                        	.member	name,0,142,8,32
   237                        	.member	topLeft,32,10,8,32,25
   238                        	.member	bottomRight,64,10,8,32,25
   239                        	.eos
   240                        	.stag	fake28_,112,28
   241                        	.member	x,0,5,8,16
   242                        	.member	y,16,5,8,16
   243                        	.member	z,32,5,8,16
   244                        	.member	width,48,5,8,16
   245                        	.member	height,64,5,8,16
   246                        	.member	data,80,18,8,32
   247                        	.eos
   248                        	.stag	_k_WindowClass,272,29
   249                        	.member	cbSize,0,16,8,16
   250                        	.member	style,16,16,8,16
   251                        	.member	styleEx,32,16,8,16
   252                        	.member	pWndProc,48,654,8,32
   253                        	.member	hInstance,80,129,8,32
   254                        	.member	hIcon,112,129,8,32
   255                        	.member	hCursor,144,129,8,32
   256                        	.member	hbrBackground,176,129,8,32
   257                        	.member	lpszMenuName,208,142,8,32
   258                        	.member	lpszClassName,240,142,8,32
   259                        	.eos
   260                        	.stag	_ClickableRect,152,30
   261                        	.member	area,0,10,8,112,26
   262                        	.member	z,112,18,8,32
   263                        	.member	enabled,144,14,8,8
   264                        	.eos
  Mon Sep 27 2021  9:39                                                Page 6


   265                        	.stag	_NCClickableRect,136,31
   266                        	.member	area,0,10,8,112,26
   267                        	.member	msgType,112,16,8,16
   268                        	.member	enabled,128,14,8,8
   269                        	.eos
   270                        	.stag	_DragData,216,32
   271                        	.member	area,0,10,8,112,26
   272                        	.member	xoffset,112,5,8,16
   273                        	.member	yoffset,128,5,8,16
   274                        	.member	msgType,144,16,8,16
   275                        	.member	ncAction,160,16,8,16
   276                        	.member	isDrag,176,14,8,8
   277                        	.member	isResize,184,14,8,8
   278                        	.member	canDrag,192,14,8,8
   279                        	.member	canDrop,200,14,8,8
   280                        	.member	didDrag,208,14,8,8
   281                        	.eos
   282                        	.stag	_k_WindowStruct,3904,33
   283                        	.member	cbSize,0,16,8,16
   284                        	.member	style,16,18,8,32
   285                        	.member	styleEx,48,18,8,32
   286                        	.member	win_id,80,5,8,16
   287                        	.member	win_x,96,5,8,16
   288                        	.member	win_y,112,5,8,16
   289                        	.member	win_width,128,5,8,16
   290                        	.member	win_height,144,5,8,16
   291                        	.member	win_xoffset,160,5,8,16
   292                        	.member	win_yoffset,176,5,8,16
   293                        	.member	win_cxoffset,192,5,8,16
   294                        	.member	win_cyoffset,208,5,8,16
   295                        	.member	wndRect,224,10,8,112,26
   296                        	.member	clientRect,336,10,8,112,26
   297                        	.member	nonclientGadgets,448,106,8,0,31,16
   298                        	.member	clickable,2624,129,8,32
   299                        	.member	win_title,2656,110,8,0,32
   300                        	.member	Reserved0,2912,16,8,16
   301                        	.member	win_class,2928,110,8,0,16
   302                        	.member	win_class_name,3056,110,8,0,32
   303                        	.member	nBitmapLayer,3312,16,8,16
   304                        	.member	bgRegion,3328,129,8,32
   305                        	.member	procid,3360,18,8,32
   306                        	.member	pWndClass,3392,138,8,32,29
   307                        	.member	pParentWindow,3424,129,8,32
   308                        	.member	hMenu,3456,129,8,32
   309                        	.member	hPointer,3488,129,8,32
   310                        	.member	hBackground,3520,129,8,32
   311                        	.member	pChildWindows,3552,138,8,32,6
   312                        	.member	pChildHitList,3584,138,8,32,6
   313                        	.member	isVisible,3616,14,8,8
   314                        	.member	windowData,3624,129,8,32
   315                        	.member	clientData,3656,1121,8,32,6
   316                        	.member	isClosed,3848,14,8,8
   317                        	.member	isClosing,3856,14,8,8
   318                        	.member	isDesktop,3864,14,8,8
   319                        	.member	clickableNode,3872,138,8,32,5
   320                        	.eos
   321                        	.stag	_k_WindowStructEx,3880,34
   322                        	.member	cbSize,0,16,8,16
  Mon Sep 27 2021  9:39                                                Page 7


   323                        	.member	style,16,18,8,32
   324                        	.member	styleEx,48,18,8,32
   325                        	.member	win_id,80,5,8,16
   326                        	.member	win_x,96,5,8,16
   327                        	.member	win_y,112,5,8,16
   328                        	.member	win_width,128,5,8,16
   329                        	.member	win_height,144,5,8,16
   330                        	.member	win_xoffset,160,5,8,16
   331                        	.member	win_yoffset,176,5,8,16
   332                        	.member	win_cxoffset,192,5,8,16
   333                        	.member	win_cyoffset,208,5,8,16
   334                        	.member	wndRect,224,10,8,112,26
   335                        	.member	clientRect,336,10,8,112,26
   336                        	.member	nonclientGadgets,448,106,8,0,31,16
   337                        	.member	clickable,2624,129,8,32
   338                        	.member	win_title,2656,110,8,0,32
   339                        	.member	Reserved0,2912,16,8,16
   340                        	.member	win_class,2928,110,8,0,16
   341                        	.member	nBitmapLayer,3056,16,8,16
   342                        	.member	procid,3072,18,8,32
   343                        	.member	pWndClass,3104,138,8,32,29
   344                        	.member	pParentWindow,3136,129,8,32
   345                        	.member	hMenu,3168,129,8,32
   346                        	.member	hPointer,3200,129,8,32
   347                        	.member	hBackground,3232,129,8,32
   348                        	.member	pChildWindows,3264,138,8,32,6
   349                        	.member	pChildHitList,3296,138,8,32,6
   350                        	.member	isVisible,3328,14,8,8
   351                        	.member	windowData,3336,129,8,32
   352                        	.member	clientData,3368,1121,8,32,4
   353                        	.member	isClosed,3496,14,8,8
   354                        	.member	hWnd,3504,129,8,32
   355                        	.member	localRect,3536,10,8,112,26
   356                        	.member	globalRect,3648,10,8,112,26
   357                        	.member	clientOffsetRect,3760,10,8,112,26
   358                        	.member	isDesktop,3872,14,8,8
   359                        	.eos
   360                        	.stag	_FontMetric,32,35
   361                        	.member	width,0,5,8,16
   362                        	.member	height,16,5,8,16
   363                        	.eos
   364                        	.stag	_MenuStruct,280,36
   365                        	.member	cx,0,5,8,16
   366                        	.member	cy,16,5,8,16
   367                        	.member	width,32,5,8,16
   368                        	.member	height,48,5,8,16
   369                        	.member	fcolor,64,14,8,8
   370                        	.member	bcolor,72,14,8,8
   371                        	.member	chromeLeft,80,14,8,8
   372                        	.member	chromeRight1,88,14,8,8
   373                        	.member	chromeRight2,96,14,8,8
   374                        	.member	hFont,104,129,8,32
   375                        	.member	itemId,136,16,8,16
   376                        	.member	pCaption,152,142,8,32
   377                        	.member	subMenus,184,138,8,32,6
   378                        	.member	pBackground,216,129,8,32
   379                        	.member	hWndOwner,248,129,8,32
   380                        	.eos
  Mon Sep 27 2021  9:39                                                Page 8


   381                        	.stag	fake37_,160,37
   382                        	.member	menuId,0,16,8,16
   383                        	.member	caption,16,142,8,32
   384                        	.member	rect,48,10,8,112,26
   385                        	.eos
   386                        	.stag	fake38_,5152,38
   387                        	.member	pParent,0,138,8,32,33
   388                        	.member	rect,32,10,8,112,26
   389                        	.member	captions,144,1134,8,32,24
   390                        	.member	chrome,912,110,8,0,24
   391                        	.member	ids,1104,112,8,0,24
   392                        	.member	clickable,1488,106,8,0,30,24
   393                        	.member	selected,5136,16,8,16
   394                        	.eos
   395                        	.stag	_fx_button_t,96,39
   396                        	.member	pCaption,0,142,8,32
   397                        	.member	cCaption,32,16,8,16
   398                        	.member	data,48,129,8,32
   399                        	.member	captionPixelWidth,80,16,8,16
   400                        	.eos
   401                        	.stag	_fx_scrollbar_t,240,40
   402                        	.member	min,0,16,8,16
   403                        	.member	max,16,16,8,16
   404                        	.member	increment,32,16,8,16
   405                        	.member	stopsize,48,16,8,16
   406                        	.member	location,64,5,8,16
   407                        	.member	state,80,5,8,16
   408                        	.member	rectThumb,96,10,8,112,26
   409                        	.member	data,208,129,8,32
   410                        	.eos
   411                        	.stag	_fx_listbox_t,240,41
   412                        	.member	pos,0,5,8,16
   413                        	.member	selected,16,16,8,16
   414                        	.member	offsetX,32,5,8,16
   415                        	.member	offsetY,48,5,8,16
   416                        	.member	inc,64,5,8,16
   417                        	.member	direction,80,5,8,16
   418                        	.member	top,96,5,8,16
   419                        	.member	bottom,112,5,8,16
   420                        	.member	indexTop,128,5,8,16
   421                        	.member	indexBottom,144,5,8,16
   422                        	.member	maxItems,160,16,8,16
   423                        	.member	fontSet,176,142,8,32
   424                        	.member	data,208,129,8,32
   425                        	.eos
   426                        	.stag	_fx_textbox_t,144,42
   427                        	.member	pos,0,5,8,16
   428                        	.member	selected,16,16,8,16
   429                        	.member	offsetX,32,5,8,16
   430                        	.member	offsetY,48,5,8,16
   431                        	.member	isShifted,64,14,8,8
   432                        	.member	cursorState,72,14,8,8
   433                        	.member	fontSet,80,142,8,32
   434                        	.member	data,112,129,8,32
   435                        	.eos
   436                        	.stag	_fx_msgbox_t,144,43
   437                        	.member	pos,0,5,8,16
   438                        	.member	selected,16,16,8,16
  Mon Sep 27 2021  9:39                                                Page 9


   439                        	.member	offsetX,32,5,8,16
   440                        	.member	offsetY,48,5,8,16
   441                        	.member	isShifted,64,14,8,8
   442                        	.member	cursorState,72,14,8,8
   443                        	.member	fontSet,80,142,8,32
   444                        	.member	data,112,129,8,32
   445                        	.eos
   446                        	.stag	_fx_menuAnchor_t,272,44
   447                        	.member	pCaption,0,142,8,32
   448                        	.member	renderLayoutX,32,16,8,16
   449                        	.member	renderLayoutY,48,16,8,16
   450                        	.member	captionPixelWidth,64,16,8,16
   451                        	.member	data,80,129,8,32
   452                        	.member	droppedWindow,112,138,8,32,33
   453                        	.member	bytes,144,110,8,0,16
   454                        	.eos
   455                        	.stag	_SubMenuStruct,64,45
   456                        	.member	caption,0,142,8,32
   457                        	.member	action,32,641,8,32
   458                        	.eos
   459                        	.stag	_SubMenuListStruct,40,46
   460                        	.member	cMenus,0,14,8,8
   461                        	.member	psubmenus,8,9354,8,32,45
   462                        	.eos
   463                        	.stag	_fx_ComBuffer,2080,47
   464                        	.member	cbSize,0,16,8,16
   465                        	.member	cbBuffer,16,16,8,16
   466                        	.member	buffer,32,110,8,0,256
   467                        	.eos
   468                        	.stag	_fx_resource_header,72,48
   469                        	.member	magic,0,110,8,0,4
   470                        	.member	major,32,14,8,8
   471                        	.member	minor,40,14,8,8
   472                        	.member	type,48,14,8,8
   473                        	.member	reserved,56,14,8,8
   474                        	.member	resheaderSize,64,14,8,8
   475                        	.eos
   476                        	.stag	_fx_resource_header_font,144,49
   477                        	.member	title,0,110,8,0,16
   478                        	.member	height,128,14,8,8
   479                        	.member	width,136,14,8,8
   480                        	.eos
   481                        	.stag	_fx_resource_string,32,50
   482                        	.member	locale,0,110,8,0,2
   483                        	.member	entries,16,16,8,16
   484                        	.eos
   485                        	.stag	_fx_resource_string_entry,40,51
   486                        	.member	index,0,16,8,16
   487                        	.member	length,16,16,8,16
   488                        	.member	data,32,14,8,8
   489                        	.eos
   490                        	.line	1064
   491                        	.file	"G:\devprojects\c256Foenix\fxos\FXOSWork
                    space\FXOS-Beta\src\fxos.h",8
   492                        	.file	"G:\devprojects\c256Foenix\fxos\FXOSWork
                    space\FXOS-Beta\src\fxstringtable.h",0
   493                        	.line	90
   494                        	.file	"G:\devprojects\c256Foenix\fxos\FXOSWork
  Mon Sep 27 2021  9:39                                                Page 10


                    space\FXOS-Beta\src\fxos.h",9
   495                        	.file	"G:\devprojects\c256Foenix\fxos\FXOSWork
                    space\FXOS-Beta\src\fxc256u.h",0
   496                        	.file	"G:\devprojects\c256Foenix\fxos\FXOSWork
                    space\FXOS-Beta\src\fxtypes.h",0
   497                        	.line	1064
   498                        	.file	"G:\devprojects\c256Foenix\fxos\FXOSWork
                    space\FXOS-Beta\src\fxc256u.h",5
   499                        	.file	"G:\devprojects\c256Foenix\fxos\FXOSWork
                    space\FXOS-Beta\src\fmx_vicky.h",0
   500                        	.file	"G:\devprojects\c256Foenix\fxos\FXOSWork
                    space\FXOS-Beta\src\fxtypes.h",0
   501                        	.line	1064
   502                        	.file	"G:\devprojects\c256Foenix\fxos\FXOSWork
                    space\FXOS-Beta\src\fmx_vicky.h",11
   503                        	.line	72
   504                        	.file	"G:\devprojects\c256Foenix\fxos\FXOSWork
                    space\FXOS-Beta\src\fxc256u.h",6
   505                        	.line	1963
   506                        	.file	"G:\devprojects\c256Foenix\fxos\FXOSWork
                    space\FXOS-Beta\src\fxos.h",16
   507                        	.file	"G:\devprojects\c256Foenix\fxos\FXOSWork
                    space\FXOS-Beta\src\fxkernel.h",0
   508                        	.line	475
   509                        	.file	"G:\devprojects\c256Foenix\fxos\FXOSWork
                    space\FXOS-Beta\src\fxos.h",22
   510                        	.file	"G:\devprojects\c256Foenix\fxos\FXOSWork
                    space\FXOS-Beta\src\fxconsole.h",0
   511                        	.file	"G:\devtools\WDCTools\wdc\Tools\include\
                    string.h",0
   512                        	.line	134
   513                        	.file	"G:\devprojects\c256Foenix\fxos\FXOSWork
                    space\FXOS-Beta\src\fxconsole.h",5
   514                        	.file	"G:\devtools\WDCTools\wdc\Tools\include\
                    stdlib.h",0
   515                        	.line	205
   516                        	.file	"G:\devprojects\c256Foenix\fxos\FXOSWork
                    space\FXOS-Beta\src\fxconsole.h",6
   517                        	.file	"G:\devprojects\c256Foenix\fxos\FXOSWork
                    space\FXOS-Beta\src\fxtypes.h",0
   518                        	.line	1064
   519                        	.file	"G:\devprojects\c256Foenix\fxos\FXOSWork
                    space\FXOS-Beta\src\fxconsole.h",7
   520                        	.file	"G:\devprojects\c256Foenix\fxos\FXOSWork
                    space\FXOS-Beta\src\fxc256u.h",0
   521                        	.line	1963
   522                        	.file	"G:\devprojects\c256Foenix\fxos\FXOSWork
                    space\FXOS-Beta\src\fxconsole.h",12
   523                        	.file	"G:\devprojects\c256Foenix\fxos\FXOSWork
                    space\FXOS-Beta\src\fxstring.h",0
   524                        	.file	"G:\devtools\WDCTools\wdc\Tools\include\
                    stdlib.h",0
   525                        	.line	205
   526                        	.file	"G:\devprojects\c256Foenix\fxos\FXOSWork
                    space\FXOS-Beta\src\fxstring.h",5
   527                        	.file	"G:\devtools\WDCTools\wdc\Tools\include\
                    string.h",0
   528                        	.line	134
  Mon Sep 27 2021  9:39                                                Page 11


   529                        	.file	"G:\devprojects\c256Foenix\fxos\FXOSWork
                    space\FXOS-Beta\src\fxstring.h",6
   530                        	.file	"G:\devprojects\c256Foenix\fxos\FXOSWork
                    space\FXOS-Beta\src\fxtypes.h",0
   531                        	.line	1064
   532                        	.file	"G:\devprojects\c256Foenix\fxos\FXOSWork
                    space\FXOS-Beta\src\fxstring.h",7
   533                        	.stag	_fx_string,64,52
   534                        	.member	size,0,16,8,16
   535                        	.member	pos,16,5,8,16
   536                        	.member	buffer,32,142,8,32
   537                        	.eos
   538                        	.line	141
   539                        	.file	"G:\devprojects\c256Foenix\fxos\FXOSWork
                    space\FXOS-Beta\src\fxconsole.h",17
   540                        	.file	"G:\devprojects\c256Foenix\fxos\FXOSWork
                    space\FXOS-Beta\src\fxeventmanager.h",0
   541                        	.file	"G:\devprojects\c256Foenix\fxos\FXOSWork
                    space\FXOS-Beta\src\fxos.h",0
   542                        	.line	30
   543                        	.file	"G:\devprojects\c256Foenix\fxos\FXOSWork
                    space\FXOS-Beta\src\fxeventmanager.h",5
   544                        	.file	"G:\devprojects\c256Foenix\fxos\FXOSWork
                    space\FXOS-Beta\src\fxexec.h",0
   545                        	.file	"G:\devprojects\c256Foenix\fxos\FXOSWork
                    space\FXOS-Beta\src\fxtypes.h",0
   546                        	.line	1064
   547                        	.file	"G:\devprojects\c256Foenix\fxos\FXOSWork
                    space\FXOS-Beta\src\fxexec.h",5
   548                        	.stag	_fxos_executive_vtable,128,53
   549                        	.member	Init,0,8833,8,32
   550                        	.member	Configure,32,656,8,32
   551                        	.member	Query,64,656,8,32
   552                        	.member	Uninit,96,641,8,32
   553                        	.eos
   554                        	.line	86
   555                        	.file	"G:\devprojects\c256Foenix\fxos\FXOSWork
                    space\FXOS-Beta\src\fxeventmanager.h",6
   556                        	.file	"G:\devprojects\c256Foenix\fxos\FXOSWork
                    space\FXOS-Beta\src\fxnode.h",0
   557                        	.file	"G:\devprojects\c256Foenix\fxos\FXOSWork
                    space\FXOS-Beta\src\fxtypes.h",0
   558                        	.line	1064
   559                        	.file	"G:\devprojects\c256Foenix\fxos\FXOSWork
                    space\FXOS-Beta\src\fxnode.h",11
   560                        	.line	118
   561                        	.file	"G:\devprojects\c256Foenix\fxos\FXOSWork
                    space\FXOS-Beta\src\fxeventmanager.h",7
   562                        	.file	"G:\devprojects\c256Foenix\fxos\FXOSWork
                    space\FXOS-Beta\src\fxconsole.h",0
   563                        	.line	208
   564                        	.file	"G:\devprojects\c256Foenix\fxos\FXOSWork
                    space\FXOS-Beta\src\fxeventmanager.h",8
   565                        	.file	"G:\devprojects\c256Foenix\fxos\FXOSWork
                    space\FXOS-Beta\src\fxwindowmanager.h",0
   566                        	.file	"G:\devprojects\c256Foenix\fxos\FXOSWork
                    space\FXOS-Beta\src\fxos.h",0
   567                        	.line	30
  Mon Sep 27 2021  9:39                                                Page 12


   568                        	.file	"G:\devprojects\c256Foenix\fxos\FXOSWork
                    space\FXOS-Beta\src\fxwindowmanager.h",5
   569                        	.file	"G:\devprojects\c256Foenix\fxos\FXOSWork
                    space\FXOS-Beta\src\fxmemorymanager.h",0
   570                        	.file	"G:\devprojects\c256Foenix\fxos\FXOSWork
                    space\FXOS-Beta\src\fxos.h",0
   571                        	.line	30
   572                        	.file	"G:\devprojects\c256Foenix\fxos\FXOSWork
                    space\FXOS-Beta\src\fxmemorymanager.h",5
   573                        	.file	"G:\devprojects\c256Foenix\fxos\FXOSWork
                    space\FXOS-Beta\src\umm_malloc_cfg.h",0
   574                        	.file	"G:\devprojects\c256Foenix\fxos\FXOSWork
                    space\FXOS-Beta\src\fxos_build_parameters.h",0
   575                        	.line	35
   576                        	.file	"G:\devprojects\c256Foenix\fxos\FXOSWork
                    space\FXOS-Beta\src\umm_malloc_cfg.h",8
   577                        	.stag	UMM_HEAP_INFO_t,256,54
   578                        	.member	totalEntries,0,18,8,32
   579                        	.member	usedEntries,32,18,8,32
   580                        	.member	freeEntries,64,18,8,32
   581                        	.member	totalBlocks,96,18,8,32
   582                        	.member	usedBlocks,128,18,8,32
   583                        	.member	freeBlocks,160,18,8,32
   584                        	.member	maxFreeContiguousBlocks,192,18,8,32
   585                        	.member	blockSize,224,18,8,32
   586                        	.eos
   587                        	.line	199
   588                        	.file	"G:\devprojects\c256Foenix\fxos\FXOSWork
                    space\FXOS-Beta\src\fxmemorymanager.h",6
   589                        	.file	"G:\devprojects\c256Foenix\fxos\FXOSWork
                    space\FXOS-Beta\src\umm_malloc.h",0
   590                        	.file	"G:\devprojects\c256Foenix\fxos\FXOSWork
                    space\FXOS-Beta\src\fxtypes.h",0
   591                        	.line	1064
   592                        	.file	"G:\devprojects\c256Foenix\fxos\FXOSWork
                    space\FXOS-Beta\src\umm_malloc.h",11
   593                        	.line	24
   594                        	.file	"G:\devprojects\c256Foenix\fxos\FXOSWork
                    space\FXOS-Beta\src\fxmemorymanager.h",7
   595                        	.stag	_fx_memory_map,2072,55
   596                        	.member	availableMemory,0,18,8,32
   597                        	.member	valid_segments,32,110,8,0,255
   598                        	.eos
   599                        	.stag	_fx_ipc_port,144,56
   600                        	.member	id,0,18,8,32
   601                        	.member	type,32,14,8,8
   602                        	.member	name,40,138,8,32,52
   603                        	.member	time,72,18,8,32
   604                        	.member	queue,104,138,8,32,7
   605                        	.member	reserved_1,136,14,8,8
   606                        	.eos
   607                        	.stag	_k_mem_alloc_header,80,57
   608                        	.member	user,0,14,8,8
   609                        	.member	attr,8,14,8,8
   610                        	.member	size,16,18,8,32
   611                        	.member	virtual,48,129,8,32
   612                        	.eos
   613                        	.line	129
  Mon Sep 27 2021  9:39                                                Page 13


   614                        	.file	"G:\devprojects\c256Foenix\fxos\FXOSWork
                    space\FXOS-Beta\src\fxwindowmanager.h",6
   615                        	.file	"G:\devprojects\c256Foenix\fxos\FXOSWork
                    space\FXOS-Beta\src\fxeventmanager.h",0
   616                        	.line	572
   617                        	.file	"G:\devprojects\c256Foenix\fxos\FXOSWork
                    space\FXOS-Beta\src\fxwindowmanager.h",7
   618                        	.file	"G:\devprojects\c256Foenix\fxos\FXOSWork
                    space\FXOS-Beta\src\fxgfx.h",0
   619                        	.file	"G:\devprojects\c256Foenix\fxos\FXOSWork
                    space\FXOS-Beta\src\fxfont.h",0
   620                        	.file	"G:\devprojects\c256Foenix\fxos\FXOSWork
                    space\FXOS-Beta\src\fxtypes.h",0
   621                        	.line	1064
   622                        	.file	"G:\devprojects\c256Foenix\fxos\FXOSWork
                    space\FXOS-Beta\src\fxfont.h",6
   623                        	.line	74
   624                        	.file	"G:\devprojects\c256Foenix\fxos\FXOSWork
                    space\FXOS-Beta\src\fxgfx.h",5
   625                        	.stag	_click_detected,64,58
   626                        	.member	window,0,138,8,32,33
   627                        	.member	handler,32,641,8,32
   628                        	.eos
   629                        	.stag	_current_palette_map,400,59
   630                        	.member	CUR_DESKTOP,0,5,8,16
   631                        	.member	CUR_BACKGROUND,16,5,8,16
   632                        	.member	CUR_FONT,32,5,8,16
   633                        	.member	CUR_SELECTED_FONT,48,5,8,16
   634                        	.member	CUR_HIGHLIGHT_COLOR,64,5,8,16
   635                        	.member	CUR_WINDOWFRAME,80,5,8,16
   636                        	.member	CUR_WINDOWBORDER,96,5,8,16
   637                        	.member	CUR_WINDOWSHADOW,112,5,8,16
   638                        	.member	CUR_MENU,128,5,8,16
   639                        	.member	CUR_GADGET,144,5,8,16
   640                        	.member	CUR_COLOR,160,101,8,0,15
   641                        	.eos
   642                        	.line	370
   643                        	.file	"G:\devprojects\c256Foenix\fxos\FXOSWork
                    space\FXOS-Beta\src\fxwindowmanager.h",8
   644                        	.stag	_fxos_winman_vtable,160,60
   645                        	.member	Events,0,641,8,32
   646                        	.member	ConfigureWindowManager,32,656,8,32
   647                        	.member	ProcessWindowEvent,64,8833,8,32
   648                        	.member	QueryWindowManager,96,656,8,32
   649                        	.member	DoWndProcs,128,641,8,32
   650                        	.eos
   651                        	.stag	fake61_,64,61
   652                        	.member	type,0,16,8,16
   653                        	.member	size,16,16,8,16
   654                        	.member	desktopAction,32,129,8,32
   655                        	.eos
   656                        	.stag	fake62_,96,62
   657                        	.member	type,0,16,8,16
   658                        	.member	caption,16,138,8,32,52
   659                        	.member	buttonType,48,16,8,16
   660                        	.member	x,64,5,8,16
   661                        	.member	y,80,5,8,16
   662                        	.eos
  Mon Sep 27 2021  9:39                                                Page 14


   663                        	.stag	_childMessage_t,64,63
   664                        	.member	msgType,0,16,8,16
   665                        	.member	msgData,16,129,8,32
   666                        	.member	dataSize,48,16,8,16
   667                        	.eos
   668                        	.line	594
   669                        	.file	"G:\devprojects\c256Foenix\fxos\FXOSWork
                    space\FXOS-Beta\src\fxeventmanager.h",9
   670                        	.stag	_fx_main_loopvars,16,64
   671                        	.member	dummy,0,5,8,16
   672                        	.eos
   673                        	.stag	_fxMouseMessageData,64,65
   674                        	.member	button1,0,14,8,8
   675                        	.member	button2,8,14,8,8
   676                        	.member	button3,16,14,8,8
   677                        	.member	button4,24,14,8,8
   678                        	.member	x,32,16,8,16
   679                        	.member	y,48,16,8,16
   680                        	.eos
   681                        	.utag	marshalled_data,32,66
   682                        	.member	byteValue,0,14,11,8
   683                        	.member	verbValue,0,110,11,0,2
   684                        	.member	intValue,0,16,11,16
   685                        	.member	longValue,0,18,11,32
   686                        	.member	pointerValue,0,129,11,32
   687                        	.eos
   688                        	.stag	_fx_eventProcess,64,67
   689                        	.member	process,0,138,8,32,20
   690                        	.member	eventProc,32,641,8,32
   691                        	.eos
   692                        	.stag	_mouse_msg_state,184,68
   693                        	.member	lastEvent,0,18,8,32
   694                        	.member	buttonLeftDown,32,14,8,8
   695                        	.member	lastLeftDown,40,18,8,32
   696                        	.member	buttonRightDown,72,14,8,8
   697                        	.member	lastRightDown,80,18,8,32
   698                        	.member	buttonMiddleDown,112,14,8,8
   699                        	.member	lastMiddleDown,120,18,8,32
   700                        	.member	lastX,152,16,8,16
   701                        	.member	lastY,168,16,8,16
   702                        	.eos
   703                        	.stag	_fxos_eventmanager_vtable,192,69
   704                        	.member	EventQueue,0,138,8,32,7
   705                        	.member	Init,32,8833,8,32
   706                        	.member	Run,64,656,8,32
   707                        	.member	Configure,96,656,8,32
   708                        	.member	Query,128,656,8,32
   709                        	.member	Uninit,160,641,8,32
   710                        	.eos
   711                        	.stag	_k_clipboard_data,168,70
   712                        	.member	type,0,14,8,8
   713                        	.member	readable,8,110,8,0,16
   714                        	.member	data,136,129,8,32
   715                        	.eos
   716                        	.line	572
   717                        	.file	"G:\devprojects\c256Foenix\fxos\FXOSWork
                    space\FXOS-Beta\src\fxconsole.h",18
   718                        	.stag	_fx_spinner_ctx,48,71
  Mon Sep 27 2021  9:39                                                Page 15


   719                        	.member	index,0,5,8,16
   720                        	.member	spinner,16,142,8,32
   721                        	.eos
   722                        	.stag	_fx_console_ctx,1144,72
   723                        	.member	lineBufferIndex,0,5,8,16
   724                        	.member	lineBuffer,16,110,8,0,128
   725                        	.member	isShifted,1040,14,8,8
   726                        	.member	userData,1048,129,8,32
   727                        	.member	screenBuffer,1080,129,8,32
   728                        	.member	Reserved1,1112,129,8,32
   729                        	.eos
   730                        	.stag	_token,64,73
   731                        	.member	type,0,5,8,16
   732                        	.member	depth,16,16,8,16
   733                        	.member	text,32,142,8,32
   734                        	.eos
   735                        	.stag	_command_args,64,74
   736                        	.member	proc,0,656,8,32
   737                        	.member	tokens,32,138,8,32,5
   738                        	.eos
   739                        	.line	208
   740                        	.file	"G:\devprojects\c256Foenix\fxos\FXOSWork
                    space\FXOS-Beta\src\fxos.h",23
   741                        	.file	"G:\devprojects\c256Foenix\fxos\FXOSWork
                    space\FXOS-Beta\src\fxstring.h",0
   742                        	.line	141
   743                        	.file	"G:\devprojects\c256Foenix\fxos\FXOSWork
                    space\FXOS-Beta\src\fxos.h",24
   744                        	.file	"G:\devprojects\c256Foenix\fxos\FXOSWork
                    space\FXOS-Beta\src\fxnode.h",0
   745                        	.line	118
   746                        	.file	"G:\devprojects\c256Foenix\fxos\FXOSWork
                    space\FXOS-Beta\src\fxos.h",25
   747                        	.file	"G:\devprojects\c256Foenix\fxos\FXOSWork
                    space\FXOS-Beta\src\ff/ff.h",0
   748                        	.file	"G:\devprojects\c256Foenix\fxos\FXOSWork
                    space\FXOS-Beta\src\ff/ffconf.h",0
   749                        	.line	298
   750                        	.file	"G:\devprojects\c256Foenix\fxos\FXOSWork
                    space\FXOS-Beta\src\ff/ff.h",29
   751                        	.file	"G:\devprojects\c256Foenix\fxos\FXOSWork
                    space\FXOS-Beta\src\fxtypes.h",0
   752                        	.line	1064
   753                        	.file	"G:\devprojects\c256Foenix\fxos\FXOSWork
                    space\FXOS-Beta\src\ff/ff.h",30
   754                        	.stag	fake75_,4504,75
   755                        	.member	fs_type,0,14,8,8
   756                        	.member	pdrv,8,14,8,8
   757                        	.member	n_fats,16,14,8,8
   758                        	.member	wflag,24,14,8,8
   759                        	.member	fsi_flag,32,14,8,8
   760                        	.member	id,40,5,8,16
   761                        	.member	n_rootdir,56,5,8,16
   762                        	.member	csize,72,5,8,16
   763                        	.member	lfnbuf,88,144,8,32
   764                        	.member	last_clst,120,18,8,32
   765                        	.member	free_clst,152,18,8,32
   766                        	.member	n_fatent,184,18,8,32
  Mon Sep 27 2021  9:39                                                Page 16


   767                        	.member	fsize,216,18,8,32
   768                        	.member	volbase,248,18,8,32
   769                        	.member	fatbase,280,18,8,32
   770                        	.member	dirbase,312,18,8,32
   771                        	.member	database,344,18,8,32
   772                        	.member	winsect,376,18,8,32
   773                        	.member	win,408,110,8,0,512
   774                        	.eos
   775                        	.stag	fake76_,128,76
   776                        	.member	fs,0,138,8,32,75
   777                        	.member	id,32,5,8,16
   778                        	.member	attr,48,14,8,8
   779                        	.member	stat,56,14,8,8
   780                        	.member	sclust,64,18,8,32
   781                        	.member	objsize,96,18,8,32
   782                        	.eos
   783                        	.stag	fake77_,4400,77
   784                        	.member	obj,0,10,8,128,76
   785                        	.member	flag,128,14,8,8
   786                        	.member	err,136,14,8,8
   787                        	.member	fptr,144,18,8,32
   788                        	.member	clust,176,18,8,32
   789                        	.member	sect,208,18,8,32
   790                        	.member	dir_sect,240,18,8,32
   791                        	.member	dir_ptr,272,142,8,32
   792                        	.member	buf,304,110,8,0,512
   793                        	.eos
   794                        	.stag	fake78_,416,78
   795                        	.member	obj,0,10,8,128,76
   796                        	.member	dptr,128,18,8,32
   797                        	.member	clust,160,18,8,32
   798                        	.member	sect,192,18,8,32
   799                        	.member	dir,224,142,8,32
   800                        	.member	fn,256,110,8,0,12
   801                        	.member	blk_ofs,352,18,8,32
   802                        	.member	pat,384,142,8,32
   803                        	.eos
   804                        	.stag	fake79_,2224,79
   805                        	.member	fsize,0,18,8,32
   806                        	.member	fdate,32,5,8,16
   807                        	.member	ftime,48,5,8,16
   808                        	.member	fattrib,64,14,8,8
   809                        	.member	altname,72,110,8,0,13
   810                        	.member	fname,176,110,8,0,256
   811                        	.eos
   812                        	.stag	fake80_,80,80
   813                        	.member	fmt,0,14,8,8
   814                        	.member	n_fat,8,14,8,8
   815                        	.member	align,16,16,8,16
   816                        	.member	n_root,32,16,8,16
   817                        	.member	au_size,48,18,8,32
   818                        	.eos
   819                        	.line	429
   820                        	.file	"G:\devprojects\c256Foenix\fxos\FXOSWork
                    space\FXOS-Beta\src\fxos.h",26
   821                        	.line	30
   822                        	.file	"G:\devprojects\c256Foenix\fxos\FXOSWork
                    space\FXOS-Beta\src\fxkernel.h",5
  Mon Sep 27 2021  9:39                                                Page 17


   823                        	.file	"G:\devprojects\c256Foenix\fxos\FXOSWork
                    space\FXOS-Beta\src\fxnode.h",0
   824                        	.line	118
   825                        	.file	"G:\devprojects\c256Foenix\fxos\FXOSWork
                    space\FXOS-Beta\src\fxkernel.h",6
   826                        	.stag	_fx_api_call_table,8192,81
   827                        	.member	call_table,0,1121,8,32,256
   828                        	.eos
   829                        	.stag	_fx_zero_page_irq_data,32,82
   830                        	.member	data,0,110,8,0,4
   831                        	.eos
   832                        	.stag	_fx_zero_page,720,83
   833                        	.member	fxos_mouse_byte_0,0,14,8,8
   834                        	.member	fxos_mouse_byte_1,8,14,8,8
   835                        	.member	fxos_mouse_byte_2,16,14,8,8
   836                        	.member	fxos_mouse_byte_t,24,14,8,8
   837                        	.member	fxos_mouse_byte_x_l,32,14,8,8
   838                        	.member	fxos_mouse_byte_x_h,40,14,8,8
   839                        	.member	fxos_mouse_byte_y_l,48,14,8,8
   840                        	.member	fxos_mouse_byte_y_h,56,14,8,8
   841                        	.member	fxos_key_byte_0,64,14,8,8
   842                        	.member	fxos_key_byte_1,72,14,8,8
   843                        	.member	fxos_key_byte_2,80,14,8,8
   844                        	.member	fxos_mouse_ctl,88,14,8,8
   845                        	.member	fxos_mouse_index,96,14,8,8
   846                        	.member	fxos_mouse_status,104,14,8,8
   847                        	.member	Endianness,112,16,8,16
   848                        	.member	VersionMajor,128,16,8,16
   849                        	.member	VersionMinor,144,16,8,16
   850                        	.member	VersionRelease,160,16,8,16
   851                        	.member	topMemory,176,18,8,32
   852                        	.member	bottomMemory,208,18,8,32
   853                        	.member	availableMemory,240,18,8,32
   854                        	.member	availableMemoryK,272,18,8,32
   855                        	.member	availableHeapMemory,304,18,8,32
   856                        	.member	availableHeapMemoryK,336,18,8,32
   857                        	.member	fxos_console_row,368,16,8,16
   858                        	.member	fxos_console_col,384,16,8,16
   859                        	.member	executive,400,129,8,32
   860                        	.member	eventmanager,432,129,8,32
   861                        	.member	devicemanager,464,129,8,32
   862                        	.member	windowmanager,496,129,8,32
   863                        	.member	fxos_kernel_api,528,138,8,32,81
   864                        	.member	fxos_dos_api,560,138,8,32,81
   865                        	.member	fxos_gfx_api,592,138,8,32,81
   866                        	.member	fxos_gui_api,624,138,8,32,81
   867                        	.member	fxos_con_api,656,138,8,32,81
   868                        	.member	fxos_reserved_2_api,688,138,8,32,81
   869                        	.eos
   870                        	.stag	_fx_environment,96,84
   871                        	.member	variables,0,142,8,32
   872                        	.member	reserved1,32,5,8,16
   873                        	.member	reserved2,48,5,8,16
   874                        	.member	reserved3,64,5,8,16
   875                        	.member	reserved4,80,5,8,16
   876                        	.eos
   877                        	.stag	_debug_byte_bits,8,85
   878                        	.member	bit7,0,14,17,1
  Mon Sep 27 2021  9:39                                                Page 18


   879                        	.member	bit6,1,14,17,1
   880                        	.member	bit5,2,14,17,1
   881                        	.member	bit4,3,14,17,1
   882                        	.member	bit3,4,14,17,1
   883                        	.member	bit2,5,14,17,1
   884                        	.member	bit1,6,14,17,1
   885                        	.member	bit0,7,14,17,1
   886                        	.eos
   887                        	.stag	_k_segmentheader,160,86
   888                        	.member	version_major,0,14,8,8
   889                        	.member	version_minor,8,14,8,8
   890                        	.member	length,16,5,8,16
   891                        	.member	segment_start_addr,32,7,8,32
   892                        	.member	segment_end_addr,64,7,8,32
   893                        	.member	segment_size,96,7,8,32
   894                        	.member	main_entry_addr,128,7,8,32
   895                        	.eos
   896                        	.stag	_fx_device_driver,776,87
   897                        	.member	name,0,110,8,0,32
   898                        	.member	version,256,110,8,0,16
   899                        	.member	hmajor,384,110,8,0,8
   900                        	.member	hminor,448,110,8,0,8
   901                        	.member	type,512,14,8,8
   902                        	.member	designation,520,110,8,0,6
   903                        	.member	irq_ctl,568,16,8,16
   904                        	.member	f_driver_irq,584,129,8,32
   905                        	.member	driver_context,616,129,8,32
   906                        	.member	f_driver_load,648,129,8,32
   907                        	.member	f_driver_read,680,129,8,32
   908                        	.member	f_driver_write,712,129,8,32
   909                        	.member	f_driver_unload,744,129,8,32
   910                        	.eos
   911                        	.stag	_fx_block_device_driver,808,88
   912                        	.member	name,0,110,8,0,32
   913                        	.member	version,256,110,8,0,16
   914                        	.member	hmajor,384,110,8,0,8
   915                        	.member	hminor,448,110,8,0,8
   916                        	.member	type,512,14,8,8
   917                        	.member	designation,520,110,8,0,6
   918                        	.member	irq_ctl,568,16,8,16
   919                        	.member	f_driver_irq,584,129,8,32
   920                        	.member	driver_context,616,129,8,32
   921                        	.member	f_driver_load,648,129,8,32
   922                        	.member	f_driver_read,680,129,8,32
   923                        	.member	f_driver_write,712,129,8,32
   924                        	.member	f_driver_unload,744,129,8,32
   925                        	.member	f_driver_command,776,129,8,32
   926                        	.eos
   927                        	.stag	_k_irq_chain,128,89
   928                        	.member	handlers,0,5217,8,32,4
   929                        	.eos
   930                        	.line	475
   931                        	.file	"G:\devprojects\c256Foenix\fxos\FXOSWork
                    space\FXOS-Beta\src\diskio.c",9
   932                        ;
   933                        ;#if defined(USE_FX256_FMX) || defined(USE_FX256_U
                    )
   934                        ;
  Mon Sep 27 2021  9:39                                                Page 19


   935                        ;
   936                        ;#include "ff/ff.h"			/* Obtai
                    ns integer types */
   937                        	.file	"G:\devprojects\c256Foenix\fxos\FXOSWork
                    space\FXOS-Beta\src\ff/ff.h",0
   938                        	.line	429
   939                        	.file	"G:\devprojects\c256Foenix\fxos\FXOSWork
                    space\FXOS-Beta\src\diskio.c",14
   940                        ;#include "diskio.h"		/* Declarations 
                    of disk functions */
   941                        	.file	"G:\devprojects\c256Foenix\fxos\FXOSWork
                    space\FXOS-Beta\src\diskio.h",0
   942                        	.line	85
   943                        	.file	"G:\devprojects\c256Foenix\fxos\FXOSWork
                    space\FXOS-Beta\src\diskio.c",15
   944                        ;#include "fxdos.h"
   945                        	.file	"G:\devprojects\c256Foenix\fxos\FXOSWork
                    space\FXOS-Beta\src\fxdos.h",0
   946                        	.file	"G:\devprojects\c256Foenix\fxos\FXOSWork
                    space\FXOS-Beta\src\fxtypes.h",0
   947                        	.line	1064
   948                        	.file	"G:\devprojects\c256Foenix\fxos\FXOSWork
                    space\FXOS-Beta\src\fxdos.h",5
   949                        	.file	"G:\devprojects\c256Foenix\fxos\FXOSWork
                    space\FXOS-Beta\src\ff/ff.h",0
   950                        	.line	429
   951                        	.file	"G:\devprojects\c256Foenix\fxos\FXOSWork
                    space\FXOS-Beta\src\fxdos.h",6
   952                        	.file	"G:\devprojects\c256Foenix\fxos\FXOSWork
                    space\FXOS-Beta\src\diskio.h",0
   953                        	.line	85
   954                        	.file	"G:\devprojects\c256Foenix\fxos\FXOSWork
                    space\FXOS-Beta\src\fxdos.h",7
   955                        	.stag	_fx_sd_direntry,256,90
   956                        	.member	filename,0,110,8,0,11
   957                        	.member	type,88,14,8,8
   958                        	.member	attrs,96,110,8,0,20
   959                        	.eos
   960                        	.stag	_fx_info,416,91
   961                        	.member	stgName,0,110,8,0,32
   962                        	.member	Reserved1,256,14,8,8
   963                        	.member	stgType,264,16,8,16
   964                        	.member	Reserved2,280,14,8,8
   965                        	.member	stgReserved,288,110,8,0,16
   966                        	.eos
   967                        	.stag	_fx_fileinfo,136,92
   968                        	.member	type,0,14,8,8
   969                        	.member	pFilename,8,142,8,32
   970                        	.member	lSize,40,18,8,32
   971                        	.member	lcreateDate,72,18,8,32
   972                        	.member	lchangeDate,104,18,8,32
   973                        	.eos
   974                        	.stag	_FX_FAT_DIR_INFO,256,93
   975                        	.member	DIR_Name,0,110,8,0,11
   976                        	.member	DIR_Attr,88,14,8,8
   977                        	.member	DIR_NTRes,96,14,8,8
   978                        	.member	DIR_CrtTimeTenth,104,14,8,8
   979                        	.member	DIR_CrtTime,112,16,8,16
  Mon Sep 27 2021  9:39                                                Page 20


   980                        	.member	DIR_CrtDate,128,16,8,16
   981                        	.member	DIR_LstAccDate,144,16,8,16
   982                        	.member	DIR_FstClusHI,160,16,8,16
   983                        	.member	DIR_WrtTime,176,16,8,16
   984                        	.member	DIR_WrtDate,192,16,8,16
   985                        	.member	DIR_FstClusLO,208,16,8,16
   986                        	.member	DIR_FileSize,224,18,8,32
   987                        	.eos
   988                        	.stag	fat_extBS_32,416,94
   989                        	.member	table_size_32,0,18,8,32
   990                        	.member	extended_flags,32,16,8,16
   991                        	.member	fat_version,48,16,8,16
   992                        	.member	root_cluster,64,18,8,32
   993                        	.member	fat_info,96,16,8,16
   994                        	.member	backup_BS_sector,112,16,8,16
   995                        	.member	reserved_0,128,110,8,0,12
   996                        	.member	drive_number,224,14,8,8
   997                        	.member	reserved_1,232,14,8,8
   998                        	.member	boot_signature,240,14,8,8
   999                        	.member	volume_id,248,16,8,16
  1000                        	.member	volume_label,264,110,8,0,11
  1001                        	.member	fat_type_label,352,110,8,0,8
  1002                        	.eos
  1003                        	.stag	fat_extBS_16,192,95
  1004                        	.member	bios_drive_num,0,14,8,8
  1005                        	.member	reserved1,8,14,8,8
  1006                        	.member	boot_signature,16,14,8,8
  1007                        	.member	volume_id,24,16,8,16
  1008                        	.member	volume_label,40,110,8,0,11
  1009                        	.member	fat_type_label,128,110,8,0,8
  1010                        	.eos
  1011                        	.stag	fat_BS,688,96
  1012                        	.member	bootjmp,0,110,8,0,3
  1013                        	.member	oem_name,24,110,8,0,8
  1014                        	.member	bytes_per_sector,88,16,8,16
  1015                        	.member	sectors_per_cluster,104,14,8,8
  1016                        	.member	reserved_sector_count,112,16,8,16
  1017                        	.member	table_count,128,14,8,8
  1018                        	.member	root_entry_count,136,16,8,16
  1019                        	.member	total_sectors_16,152,16,8,16
  1020                        	.member	media_type,168,14,8,8
  1021                        	.member	table_size_16,176,16,8,16
  1022                        	.member	sectors_per_track,192,16,8,16
  1023                        	.member	head_side_count,208,16,8,16
  1024                        	.member	hidden_sector_count,224,16,8,16
  1025                        	.member	total_sectors_32,240,16,8,16
  1026                        	.member	extended_section,256,110,8,0,54
  1027                        	.eos
  1028                        	.stag	__FATBootSector,928,97
  1029                        	.member	bootjmp,0,110,8,0,3
  1030                        	.member	oem_name,24,110,8,0,8
  1031                        	.member	bytes_per_sector,88,16,8,16
  1032                        	.member	sectors_per_cluster,104,14,8,8
  1033                        	.member	reserved_sector_count,112,16,8,16
  1034                        	.member	fat_table_count,128,14,8,8
  1035                        	.member	root_entry_count,136,16,8,16
  1036                        	.member	total_sectors_16,152,16,8,16
  1037                        	.member	media_type,168,14,8,8
  Mon Sep 27 2021  9:39                                                Page 21


  1038                        	.member	sectors_per_fat,176,16,8,16
  1039                        	.member	sectors_per_track,192,16,8,16
  1040                        	.member	head_side_count,208,16,8,16
  1041                        	.member	hidden_sector_count,224,18,8,32
  1042                        	.member	total_sectors_32,256,18,8,32
  1043                        	.member	drive_number,288,14,8,8
  1044                        	.member	reserved1,296,14,8,8
  1045                        	.member	boot_sig,304,14,8,8
  1046                        	.member	vol_id,312,18,8,32
  1047                        	.member	vol_name,344,110,8,0,11
  1048                        	.member	file_system_type,432,110,8,0,8
  1049                        	.member	extended_section,496,110,8,0,54
  1050                        	.eos
  1051                        	.stag	__PARTITIONTABLE,128,98
  1052                        	.member	first_byte,0,14,8,8
  1053                        	.member	start_chs,8,110,8,0,3
  1054                        	.member	partition_type,32,14,8,8
  1055                        	.member	end_chs,40,110,8,0,3
  1056                        	.member	start_sector,64,18,8,32
  1057                        	.member	length_sectors,96,18,8,32
  1058                        	.eos
  1059                        	.stag	fake99_,4096,99
  1060                        	.member	jmp,0,110,8,0,3
  1061                        	.member	oem,24,110,8,0,8
  1062                        	.member	sector_size,88,15,8,16
  1063                        	.member	sectors_per_cluster,104,14,8,8
  1064                        	.member	reserved_sectors,112,15,8,16
  1065                        	.member	number_ok_dos_fats,128,14,8,8
  1066                        	.member	root_dir_entries,136,15,8,16
  1067                        	.member	total_sectors_short,152,15,8,16
  1068                        	.member	media_descriptor,168,14,8,8
  1069                        	.member	fat_size_sectors,176,15,8,16
  1070                        	.member	sectors_per_track,192,15,8,16
  1071                        	.member	number_ok_dos_heads,208,15,8,16
  1072                        	.member	hidden_sectors,224,18,8,32
  1073                        	.member	total_sectors_long,256,18,8,32
  1074                        	.member	drive_number,288,14,8,8
  1075                        	.member	current_head,296,14,8,8
  1076                        	.member	boot_signature,304,14,8,8
  1077                        	.member	volume_id,312,18,8,32
  1078                        	.member	volume_label,344,110,8,0,11
  1079                        	.member	fs_type,432,110,8,0,8
  1080                        	.member	boot_code,496,110,8,0,448
  1081                        	.member	boot_sector_signature,4080,15,8,16
  1082                        	.eos
  1083                        	.stag	__FAT16ENTRY,256,100
  1084                        	.member	filename,0,110,8,0,8
  1085                        	.member	ext,64,110,8,0,3
  1086                        	.member	attributes,88,14,8,8
  1087                        	.member	reserved,96,110,8,0,10
  1088                        	.member	modify_time,176,16,8,16
  1089                        	.member	modify_date,192,16,8,16
  1090                        	.member	starting_cluster,208,16,8,16
  1091                        	.member	file_size,224,18,8,32
  1092                        	.eos
  1093                        	.stag	__FAT16ENTRYLONG,288,101
  1094                        	.member	filename,0,110,8,0,8
  1095                        	.member	ext,64,110,8,0,3
  Mon Sep 27 2021  9:39                                                Page 22


  1096                        	.member	attributes,88,14,8,8
  1097                        	.member	reserved,96,110,8,0,10
  1098                        	.member	modify_time,176,16,8,16
  1099                        	.member	modify_date,192,16,8,16
  1100                        	.member	starting_cluster,208,16,8,16
  1101                        	.member	file_size,224,18,8,32
  1102                        	.member	plongfileName,256,142,8,32
  1103                        	.eos
  1104                        	.stag	_LongFileName,256,102
  1105                        	.member	sequenceNo,0,14,8,8
  1106                        	.member	fileName_Part1,8,110,8,0,10
  1107                        	.member	fileattribute,88,14,8,8
  1108                        	.member	type,96,14,8,8
  1109                        	.member	checksum,104,14,8,8
  1110                        	.member	fileName_Part2,112,110,8,0,12
  1111                        	.member	fstclusLO,208,5,8,16
  1112                        	.member	fileName_Part3,224,110,8,0,4
  1113                        	.eos
  1114                        	.stag	_IDSECTOR,2048,103
  1115                        	.member	wGenConfig,0,16,8,16
  1116                        	.member	wNumCyls,16,16,8,16
  1117                        	.member	wReserved,32,16,8,16
  1118                        	.member	wNumHeads,48,16,8,16
  1119                        	.member	wBytesPerTrack,64,16,8,16
  1120                        	.member	wBytesPerSector,80,16,8,16
  1121                        	.member	wSectorsPerTrack,96,16,8,16
  1122                        	.member	wVendorUnique,112,112,8,0,3
  1123                        	.member	sSerialNumber,160,110,8,0,20
  1124                        	.member	wBufferType,320,16,8,16
  1125                        	.member	wBufferSize,336,16,8,16
  1126                        	.member	wECCSize,352,16,8,16
  1127                        	.member	sFirmwareRev,368,110,8,0,8
  1128                        	.member	sModelNumber,432,110,8,0,40
  1129                        	.member	wMoreVendorUnique,752,16,8,16
  1130                        	.member	wDoubleWordIO,768,16,8,16
  1131                        	.member	wCapabilities,784,16,8,16
  1132                        	.member	wReserved1,800,16,8,16
  1133                        	.member	wPIOTiming,816,16,8,16
  1134                        	.member	wDMATiming,832,16,8,16
  1135                        	.member	wBS,848,16,8,16
  1136                        	.member	wNumCurrentCyls,864,16,8,16
  1137                        	.member	wNumCurrentHeads,880,16,8,16
  1138                        	.member	wNumCurrentSectorsPerTrack,896,16,8,16
  1139                        	.member	ulCurrentSectorCapacity,912,18,8,32
  1140                        	.member	wMultSectorStuff,944,16,8,16
  1141                        	.member	ulTotalAddressableSectors,960,18,8,32
  1142                        	.member	wSingleWordDMA,992,16,8,16
  1143                        	.member	wMultiWordDMA,1008,16,8,16
  1144                        	.member	bReserved,1024,110,8,0,128
  1145                        	.eos
  1146                        	.stag	fake104_,16,104
  1147                        	.member	Reserved1,0,16,17,1
  1148                        	.member	Retired3,1,16,17,1
  1149                        	.member	ResponseIncomplete,2,16,17,1
  1150                        	.member	Retired2,3,16,17,3
  1151                        	.member	FixedDevice,6,16,17,1
  1152                        	.member	RemovableMedia,7,16,17,1
  1153                        	.member	Retired1,8,16,17,7
  Mon Sep 27 2021  9:39                                                Page 23


  1154                        	.member	DeviceType,15,16,17,1
  1155                        	.eos
  1156                        	.stag	fake105_,16,105
  1157                        	.member	FeatureSupported,0,16,17,1
  1158                        	.member	Reserved,1,16,17,15
  1159                        	.eos
  1160                        	.stag	fake106_,32,106
  1161                        	.member	CurrentLongPhysicalSectorAlignment,0,14,
                    17,2
  1162                        	.member	ReservedByte49,2,14,17,6
  1163                        	.member	DmaSupported,8,14,17,1
  1164                        	.member	LbaSupported,9,14,17,1
  1165                        	.member	IordyDisable,10,14,17,1
  1166                        	.member	IordySupported,11,14,17,1
  1167                        	.member	Reserved1,12,14,17,1
  1168                        	.member	StandybyTimerSupport,13,14,17,1
  1169                        	.member	Reserved2,14,14,17,2
  1170                        	.member	ReservedWord50,16,16,8,16
  1171                        	.eos
  1172                        	.stag	fake107_,16,107
  1173                        	.member	ZonedCapabilities,0,16,17,2
  1174                        	.member	NonVolatileWriteCache,2,16,17,1
  1175                        	.member	ExtendedUserAddressableSectorsSupported,
                    3,16,17,1
  1176                        	.member	DeviceEncryptsAllUserData,4,16,17,1
  1177                        	.member	ReadZeroAfterTrimSupported,5,16,17,1
  1178                        	.member	Optional28BitCommandsSupported,6,16,17,1
  1179                        	.member	IEEE1667,7,16,17,1
  1180                        	.member	DownloadMicrocodeDmaSupported,8,16,17,1
  1181                        	.member	SetMaxSetPasswordUnlockDmaSupported,9,16
                    ,17,1
  1182                        	.member	WriteBufferDmaSupported,10,16,17,1
  1183                        	.member	ReadBufferDmaSupported,11,16,17,1
  1184                        	.member	DeviceConfigIdentifySetDmaSupported,12,1
                    6,17,1
  1185                        	.member	LPSAERCSupported,13,16,17,1
  1186                        	.member	DeterministicReadAfterTrimSupported,14,1
                    6,17,1
  1187                        	.member	CFastSpecSupported,15,16,17,1
  1188                        	.eos
  1189                        	.stag	fake108_,32,108
  1190                        	.member	Reserved0,0,16,17,1
  1191                        	.member	SataGen1,1,16,17,1
  1192                        	.member	SataGen2,2,16,17,1
  1193                        	.member	SataGen3,3,16,17,1
  1194                        	.member	Reserved1,4,16,17,4
  1195                        	.member	NCQ,8,16,17,1
  1196                        	.member	HIPM,9,16,17,1
  1197                        	.member	PhyEvents,10,16,17,1
  1198                        	.member	NcqUnload,11,16,17,1
  1199                        	.member	NcqPriority,12,16,17,1
  1200                        	.member	HostAutoPS,13,16,17,1
  1201                        	.member	DeviceAutoPS,14,16,17,1
  1202                        	.member	ReadLogDMA,15,16,17,1
  1203                        	.member	Reserved2,16,16,17,1
  1204                        	.member	CurrentSpeed,17,16,17,3
  1205                        	.member	NcqStreaming,20,16,17,1
  1206                        	.member	NcqQueueMgmt,21,16,17,1
  Mon Sep 27 2021  9:39                                                Page 24


  1207                        	.member	NcqReceiveSend,22,16,17,1
  1208                        	.member	DEVSLPtoReducedPwrState,23,16,17,1
  1209                        	.member	Reserved3,24,16,17,8
  1210                        	.eos
  1211                        	.stag	fake109_,16,109
  1212                        	.member	Reserved0,0,16,17,1
  1213                        	.member	NonZeroOffsets,1,16,17,1
  1214                        	.member	DmaSetupAutoActivate,2,16,17,1
  1215                        	.member	DIPM,3,16,17,1
  1216                        	.member	InOrderData,4,16,17,1
  1217                        	.member	HardwareFeatureControl,5,16,17,1
  1218                        	.member	SoftwareSettingsPreservation,6,16,17,1
  1219                        	.member	NCQAutosense,7,16,17,1
  1220                        	.member	DEVSLP,8,16,17,1
  1221                        	.member	HybridInformation,9,16,17,1
  1222                        	.member	Reserved1,10,16,17,6
  1223                        	.eos
  1224                        	.stag	fake110_,16,110
  1225                        	.member	Reserved0,0,16,17,1
  1226                        	.member	NonZeroOffsets,1,16,17,1
  1227                        	.member	DmaSetupAutoActivate,2,16,17,1
  1228                        	.member	DIPM,3,16,17,1
  1229                        	.member	InOrderData,4,16,17,1
  1230                        	.member	HardwareFeatureControl,5,16,17,1
  1231                        	.member	SoftwareSettingsPreservation,6,16,17,1
  1232                        	.member	DeviceAutoPS,7,16,17,1
  1233                        	.member	DEVSLP,8,16,17,1
  1234                        	.member	HybridInformation,9,16,17,1
  1235                        	.member	Reserved1,10,16,17,6
  1236                        	.eos
  1237                        	.stag	fake111_,48,111
  1238                        	.member	SmartCommands,0,16,17,1
  1239                        	.member	SecurityMode,1,16,17,1
  1240                        	.member	RemovableMediaFeature,2,16,17,1
  1241                        	.member	PowerManagement,3,16,17,1
  1242                        	.member	Reserved1,4,16,17,1
  1243                        	.member	WriteCache,5,16,17,1
  1244                        	.member	LookAhead,6,16,17,1
  1245                        	.member	ReleaseInterrupt,7,16,17,1
  1246                        	.member	ServiceInterrupt,8,16,17,1
  1247                        	.member	DeviceReset,9,16,17,1
  1248                        	.member	HostProtectedArea,10,16,17,1
  1249                        	.member	Obsolete1,11,16,17,1
  1250                        	.member	WriteBuffer,12,16,17,1
  1251                        	.member	ReadBuffer,13,16,17,1
  1252                        	.member	Nop,14,16,17,1
  1253                        	.member	Obsolete2,15,16,17,1
  1254                        	.member	DownloadMicrocode,16,16,17,1
  1255                        	.member	DmaQueued,17,16,17,1
  1256                        	.member	Cfa,18,16,17,1
  1257                        	.member	AdvancedPm,19,16,17,1
  1258                        	.member	Msn,20,16,17,1
  1259                        	.member	PowerUpInStandby,21,16,17,1
  1260                        	.member	ManualPowerUp,22,16,17,1
  1261                        	.member	Reserved2,23,16,17,1
  1262                        	.member	SetMax,24,16,17,1
  1263                        	.member	Acoustics,25,16,17,1
  1264                        	.member	BigLba,26,16,17,1
  Mon Sep 27 2021  9:39                                                Page 25


  1265                        	.member	DeviceConfigOverlay,27,16,17,1
  1266                        	.member	FlushCache,28,16,17,1
  1267                        	.member	FlushCacheExt,29,16,17,1
  1268                        	.member	WordValid83,30,16,17,2
  1269                        	.member	SmartErrorLog,32,16,17,1
  1270                        	.member	SmartSelfTest,33,16,17,1
  1271                        	.member	MediaSerialNumber,34,16,17,1
  1272                        	.member	MediaCardPassThrough,35,16,17,1
  1273                        	.member	StreamingFeature,36,16,17,1
  1274                        	.member	GpLogging,37,16,17,1
  1275                        	.member	WriteFua,38,16,17,1
  1276                        	.member	WriteQueuedFua,39,16,17,1
  1277                        	.member	WWN64Bit,40,16,17,1
  1278                        	.member	URGReadStream,41,16,17,1
  1279                        	.member	URGWriteStream,42,16,17,1
  1280                        	.member	ReservedForTechReport,43,16,17,2
  1281                        	.member	IdleWithUnloadFeature,45,16,17,1
  1282                        	.member	WordValid,46,16,17,2
  1283                        	.eos
  1284                        	.stag	fake112_,48,112
  1285                        	.member	SmartCommands,0,16,17,1
  1286                        	.member	SecurityMode,1,16,17,1
  1287                        	.member	RemovableMediaFeature,2,16,17,1
  1288                        	.member	PowerManagement,3,16,17,1
  1289                        	.member	Reserved1,4,16,17,1
  1290                        	.member	WriteCache,5,16,17,1
  1291                        	.member	LookAhead,6,16,17,1
  1292                        	.member	ReleaseInterrupt,7,16,17,1
  1293                        	.member	ServiceInterrupt,8,16,17,1
  1294                        	.member	DeviceReset,9,16,17,1
  1295                        	.member	HostProtectedArea,10,16,17,1
  1296                        	.member	Obsolete1,11,16,17,1
  1297                        	.member	WriteBuffer,12,16,17,1
  1298                        	.member	ReadBuffer,13,16,17,1
  1299                        	.member	Nop,14,16,17,1
  1300                        	.member	Obsolete2,15,16,17,1
  1301                        	.member	DownloadMicrocode,16,16,17,1
  1302                        	.member	DmaQueued,17,16,17,1
  1303                        	.member	Cfa,18,16,17,1
  1304                        	.member	AdvancedPm,19,16,17,1
  1305                        	.member	Msn,20,16,17,1
  1306                        	.member	PowerUpInStandby,21,16,17,1
  1307                        	.member	ManualPowerUp,22,16,17,1
  1308                        	.member	Reserved2,23,16,17,1
  1309                        	.member	SetMax,24,16,17,1
  1310                        	.member	Acoustics,25,16,17,1
  1311                        	.member	BigLba,26,16,17,1
  1312                        	.member	DeviceConfigOverlay,27,16,17,1
  1313                        	.member	FlushCache,28,16,17,1
  1314                        	.member	FlushCacheExt,29,16,17,1
  1315                        	.member	Resrved3,30,16,17,1
  1316                        	.member	Words119_120Valid,31,16,17,1
  1317                        	.member	SmartErrorLog,32,16,17,1
  1318                        	.member	SmartSelfTest,33,16,17,1
  1319                        	.member	MediaSerialNumber,34,16,17,1
  1320                        	.member	MediaCardPassThrough,35,16,17,1
  1321                        	.member	StreamingFeature,36,16,17,1
  1322                        	.member	GpLogging,37,16,17,1
  Mon Sep 27 2021  9:39                                                Page 26


  1323                        	.member	WriteFua,38,16,17,1
  1324                        	.member	WriteQueuedFua,39,16,17,1
  1325                        	.member	WWN64Bit,40,16,17,1
  1326                        	.member	URGReadStream,41,16,17,1
  1327                        	.member	URGWriteStream,42,16,17,1
  1328                        	.member	ReservedForTechReport,43,16,17,2
  1329                        	.member	IdleWithUnloadFeature,45,16,17,1
  1330                        	.member	Reserved4,46,16,17,2
  1331                        	.eos
  1332                        	.stag	fake113_,16,113
  1333                        	.member	TimeRequired,0,16,17,15
  1334                        	.member	ExtendedTimeReported,15,16,17,1
  1335                        	.eos
  1336                        	.stag	fake114_,16,114
  1337                        	.member	TimeRequired,0,16,17,15
  1338                        	.member	ExtendedTimeReported,15,16,17,1
  1339                        	.eos
  1340                        	.stag	fake115_,16,115
  1341                        	.member	LogicalSectorsPerPhysicalSector,0,16,17,
                    4
  1342                        	.member	Reserved0,4,16,17,8
  1343                        	.member	LogicalSectorLongerThan256Words,12,16,17
                    ,1
  1344                        	.member	MultipleLogicalSectorsPerPhysicalSector,
                    13,16,17,1
  1345                        	.member	Reserved1,14,16,17,2
  1346                        	.eos
  1347                        	.stag	fake116_,16,116
  1348                        	.member	ReservedForDrqTechnicalReport,0,16,17,1
  1349                        	.member	WriteReadVerify,1,16,17,1
  1350                        	.member	WriteUncorrectableExt,2,16,17,1
  1351                        	.member	ReadWriteLogDmaExt,3,16,17,1
  1352                        	.member	DownloadMicrocodeMode3,4,16,17,1
  1353                        	.member	FreefallControl,5,16,17,1
  1354                        	.member	SenseDataReporting,6,16,17,1
  1355                        	.member	ExtendedPowerConditions,7,16,17,1
  1356                        	.member	Reserved0,8,16,17,6
  1357                        	.member	WordValid,14,16,17,2
  1358                        	.eos
  1359                        	.stag	fake117_,16,117
  1360                        	.member	ReservedForDrqTechnicalReport,0,16,17,1
  1361                        	.member	WriteReadVerify,1,16,17,1
  1362                        	.member	WriteUncorrectableExt,2,16,17,1
  1363                        	.member	ReadWriteLogDmaExt,3,16,17,1
  1364                        	.member	DownloadMicrocodeMode3,4,16,17,1
  1365                        	.member	FreefallControl,5,16,17,1
  1366                        	.member	SenseDataReporting,6,16,17,1
  1367                        	.member	ExtendedPowerConditions,7,16,17,1
  1368                        	.member	Reserved0,8,16,17,6
  1369                        	.member	Reserved1,14,16,17,2
  1370                        	.eos
  1371                        	.stag	fake118_,16,118
  1372                        	.member	SecuritySupported,0,16,17,1
  1373                        	.member	SecurityEnabled,1,16,17,1
  1374                        	.member	SecurityLocked,2,16,17,1
  1375                        	.member	SecurityFrozen,3,16,17,1
  1376                        	.member	SecurityCountExpired,4,16,17,1
  1377                        	.member	EnhancedSecurityEraseSupported,5,16,17,1
  Mon Sep 27 2021  9:39                                                Page 27


  1378                        	.member	Reserved0,6,16,17,2
  1379                        	.member	SecurityLevel,8,16,17,1
  1380                        	.member	Reserved1,9,16,17,7
  1381                        	.eos
  1382                        	.stag	fake119_,16,119
  1383                        	.member	MaximumCurrentInMA,0,16,17,12
  1384                        	.member	CfaPowerMode1Disabled,12,16,17,1
  1385                        	.member	CfaPowerMode1Required,13,16,17,1
  1386                        	.member	Reserved0,14,16,17,1
  1387                        	.member	Word160Supported,15,16,17,1
  1388                        	.eos
  1389                        	.stag	fake120_,16,120
  1390                        	.member	SupportsTrim,0,16,17,1
  1391                        	.member	Reserved0,1,16,17,15
  1392                        	.eos
  1393                        	.stag	fake121_,16,121
  1394                        	.member	Supported,0,16,17,1
  1395                        	.member	Reserved0,1,16,17,1
  1396                        	.member	WriteSameSuported,2,16,17,1
  1397                        	.member	ErrorRecoveryControlSupported,3,16,17,1
  1398                        	.member	FeatureControlSuported,4,16,17,1
  1399                        	.member	DataTablesSuported,5,16,17,1
  1400                        	.member	Reserved1,6,16,17,6
  1401                        	.member	VendorSpecific,12,16,17,4
  1402                        	.eos
  1403                        	.stag	fake122_,16,122
  1404                        	.member	AlignmentOfLogicalWithinPhysical,0,16,17
                    ,14
  1405                        	.member	Word209Supported,14,16,17,1
  1406                        	.member	Reserved0,15,16,17,1
  1407                        	.eos
  1408                        	.stag	fake123_,16,123
  1409                        	.member	NVCachePowerModeEnabled,0,16,17,1
  1410                        	.member	Reserved0,1,16,17,3
  1411                        	.member	NVCacheFeatureSetEnabled,4,16,17,1
  1412                        	.member	Reserved1,5,16,17,3
  1413                        	.member	NVCachePowerModeVersion,8,16,17,4
  1414                        	.member	NVCacheFeatureSetVersion,12,16,17,4
  1415                        	.eos
  1416                        	.stag	fake124_,16,124
  1417                        	.member	NVCacheEstimatedTimeToSpinUpInSeconds,0,
                    14,8,8
  1418                        	.member	Reserved,8,14,8,8
  1419                        	.eos
  1420                        	.stag	fake125_,16,125
  1421                        	.member	MajorVersion,0,16,17,12
  1422                        	.member	TransportType,12,16,17,4
  1423                        	.eos
  1424                        	.stag	_IDENTIFY_DEVICE_DATA,4096,126
  1425                        	.member	GeneralConfiguration,0,10,8,16,104
  1426                        	.member	NumCylinders,16,16,8,16
  1427                        	.member	SpecificConfiguration,32,16,8,16
  1428                        	.member	NumHeads,48,16,8,16
  1429                        	.member	Retired1Bytes,64,110,8,0,4
  1430                        	.member	NumSectorsPerTrack,96,16,8,16
  1431                        	.member	VendorUnique1Bytes,112,110,8,0,6
  1432                        	.member	SerialNumber,160,110,8,0,20
  1433                        	.member	Retired2,320,112,8,0,2
  Mon Sep 27 2021  9:39                                                Page 28


  1434                        	.member	Obsolete1,352,16,8,16
  1435                        	.member	FirmwareRevision,368,110,8,0,8
  1436                        	.member	ModelNumber,432,110,8,0,40
  1437                        	.member	MaximumBlockTransfer,752,14,8,8
  1438                        	.member	VendorUnique2,760,14,8,8
  1439                        	.member	TrustedComputing,768,10,8,16,105
  1440                        	.member	Capabilities,784,10,8,32,106
  1441                        	.member	ObsoleteWords51,816,112,8,0,2
  1442                        	.member	TranslationFieldsValid,848,16,17,3
  1443                        	.member	Reserved3,851,16,17,5
  1444                        	.member	FreeFallControlSensitivity,856,16,17,8
  1445                        	.member	NumberOfCurrentCylinders,864,16,8,16
  1446                        	.member	NumberOfCurrentHeads,880,16,8,16
  1447                        	.member	CurrentSectorsPerTrack,896,16,8,16
  1448                        	.member	CurrentSectorCapacity,912,18,8,32
  1449                        	.member	CurrentMultiSectorSetting,944,14,8,8
  1450                        	.member	MultiSectorSettingValid,952,14,17,1
  1451                        	.member	ReservedByte59,953,14,17,3
  1452                        	.member	SanitizeFeatureSupported,956,14,17,1
  1453                        	.member	CryptoScrambleExtCommandSupported,957,14
                    ,17,1
  1454                        	.member	OverwriteExtCommandSupported,958,14,17,1
  1455                        	.member	BlockEraseExtCommandSupported,959,14,17,
                    1
  1456                        	.member	UserAddressableSectors,960,18,8,32
  1457                        	.member	ObsoleteWord62,992,16,8,16
  1458                        	.member	MultiWordDMASupport,1008,16,17,8
  1459                        	.member	MultiWordDMAActive,1016,16,17,8
  1460                        	.member	AdvancedPIOModes,1024,16,17,8
  1461                        	.member	ReservedByte64,1032,16,17,8
  1462                        	.member	MinimumMWXferCycleTime,1040,16,8,16
  1463                        	.member	RecommendedMWXferCycleTime,1056,16,8,16
  1464                        	.member	MinimumPIOCycleTime,1072,16,8,16
  1465                        	.member	MinimumPIOCycleTimeIORDY,1088,16,8,16
  1466                        	.member	AdditionalSupported,1104,10,8,16,107
  1467                        	.member	ReservedWords70,1120,112,8,0,5
  1468                        	.member	QueueDepth,1200,16,17,5
  1469                        	.member	ReservedWord75,1205,16,17,11
  1470                        	.member	SerialAtaCapabilities,1216,10,8,32,108
  1471                        	.member	SerialAtaFeaturesSupported,1248,10,8,16,
                    109
  1472                        	.member	SerialAtaFeaturesEnabled,1264,10,8,16,11
                    0
  1473                        	.member	MajorRevision,1280,16,8,16
  1474                        	.member	MinorRevision,1296,16,8,16
  1475                        	.member	CommandSetSupport,1312,10,8,48,111
  1476                        	.member	CommandSetActive,1360,10,8,48,112
  1477                        	.member	UltraDMASupport,1408,16,17,8
  1478                        	.member	UltraDMAActive,1416,16,17,8
  1479                        	.member	NormalSecurityEraseUnit,1424,10,8,16,113
  1480                        	.member	EnhancedSecurityEraseUnit,1440,10,8,16,1
                    14
  1481                        	.member	CurrentAPMLevel,1456,16,17,8
  1482                        	.member	ReservedWord91,1464,16,17,8
  1483                        	.member	MasterPasswordID,1472,16,8,16
  1484                        	.member	HardwareResetResult,1488,16,8,16
  1485                        	.member	CurrentAcousticValue,1504,16,17,8
  1486                        	.member	RecommendedAcousticValue,1512,16,17,8
  Mon Sep 27 2021  9:39                                                Page 29


  1487                        	.member	StreamMinRequestSize,1520,16,8,16
  1488                        	.member	StreamingTransferTimeDMA,1536,16,8,16
  1489                        	.member	StreamingAccessLatencyDMAPIO,1552,16,8,1
                    6
  1490                        	.member	StreamingPerfGranularity,1568,18,8,32
  1491                        	.member	Max48BitLBA,1600,114,8,0,2
  1492                        	.member	StreamingTransferTime,1664,16,8,16
  1493                        	.member	DsmCap,1680,16,8,16
  1494                        	.member	PhysicalLogicalSectorSize,1696,10,8,16,1
                    15
  1495                        	.member	InterSeekDelay,1712,16,8,16
  1496                        	.member	WorldWideName,1728,112,8,0,4
  1497                        	.member	ReservedForWorldWideName128,1792,112,8,0
                    ,4
  1498                        	.member	ReservedForTlcTechnicalReport,1856,16,8,
                    16
  1499                        	.member	WordsPerLogicalSector,1872,112,8,0,2
  1500                        	.member	CommandSetSupportExt,1904,10,8,16,116
  1501                        	.member	CommandSetActiveExt,1920,10,8,16,117
  1502                        	.member	ReservedForExpandedSupportandActive,1936
                    ,112,8,0,6
  1503                        	.member	MsnSupport,2032,16,17,2
  1504                        	.member	ReservedWord127,2034,16,17,14
  1505                        	.member	SecurityStatus,2048,10,8,16,118
  1506                        	.member	ReservedWord129,2064,112,8,0,31
  1507                        	.member	CfaPowerMode1,2560,10,8,16,119
  1508                        	.member	ReservedForCfaWord161,2576,112,8,0,7
  1509                        	.member	NominalFormFactor,2688,16,17,4
  1510                        	.member	ReservedWord168,2692,16,17,12
  1511                        	.member	DataSetManagementFeature,2704,10,8,16,12
                    0
  1512                        	.member	AdditionalProductID,2720,112,8,0,4
  1513                        	.member	ReservedForCfaWord174,2784,112,8,0,2
  1514                        	.member	CurrentMediaSerialNumber,2816,112,8,0,30
  1515                        	.member	SCTCommandTransport,3296,10,8,16,121
  1516                        	.member	ReservedWord207,3312,112,8,0,2
  1517                        	.member	BlockAlignment,3344,10,8,16,122
  1518                        	.member	WriteReadVerifySectorCountMode3Only,3360
                    ,112,8,0,2
  1519                        	.member	WriteReadVerifySectorCountMode2Only,3392
                    ,112,8,0,2
  1520                        	.member	NVCacheCapabilities,3424,10,8,16,123
  1521                        	.member	NVCacheSizeLSW,3440,16,8,16
  1522                        	.member	NVCacheSizeMSW,3456,16,8,16
  1523                        	.member	NominalMediaRotationRate,3472,16,8,16
  1524                        	.member	ReservedWord218,3488,16,8,16
  1525                        	.member	NVCacheOptions,3504,10,8,16,124
  1526                        	.member	WriteReadVerifySectorCountMode,3520,16,1
                    7,8
  1527                        	.member	ReservedWord220,3528,16,17,8
  1528                        	.member	ReservedWord221,3536,16,8,16
  1529                        	.member	TransportMajorVersion,3552,10,8,16,125
  1530                        	.member	TransportMinorVersion,3568,16,8,16
  1531                        	.member	ReservedWord224,3584,112,8,0,6
  1532                        	.member	ExtendedNumberOfUserAddressableSectors,3
                    680,114,8,0,2
  1533                        	.member	MinBlocksPerDownloadMicrocodeMode03,3744
                    ,16,8,16
  Mon Sep 27 2021  9:39                                                Page 30


  1534                        	.member	MaxBlocksPerDownloadMicrocodeMode03,3760
                    ,16,8,16
  1535                        	.member	ReservedWord236,3776,112,8,0,19
  1536                        	.member	Signature,4080,16,17,8
  1537                        	.member	CheckSum,4088,16,17,8
  1538                        	.eos
  1539                        	.stag	_FXDosDevice,5744,127
  1540                        	.member	type,0,14,8,8
  1541                        	.member	initialized,8,14,8,8
  1542                        	.member	devdata,16,129,8,32
  1543                        	.member	devstatus,48,14,8,8
  1544                        	.member	bootSector,56,10,8,928,97
  1545                        	.member	partitionTable,984,10,8,128,98
  1546                        	.member	fileAllocationTable,1112,110,8,0,512
  1547                        	.member	bsOffset,5208,18,8,32
  1548                        	.member	rootDirSectors,5240,18,8,32
  1549                        	.member	root_entry_count,5272,5,8,16
  1550                        	.member	rootEntriesPerPage,5288,5,8,16
  1551                        	.member	sectors_per_cluster,5304,5,8,16
  1552                        	.member	firstDataSector,5320,18,8,32
  1553                        	.member	fatTableOffset,5352,18,8,32
  1554                        	.member	volume_name,5384,110,8,0,12
  1555                        	.member	root_volume_name,5480,110,8,0,12
  1556                        	.member	errorCode,5576,14,8,8
  1557                        	.member	pfInit,5584,641,8,32
  1558                        	.member	pfReset,5616,641,8,32
  1559                        	.member	pfUninit,5648,641,8,32
  1560                        	.member	pfReader,5680,654,8,32
  1561                        	.member	pfWriter,5712,654,8,32
  1562                        	.eos
  1563                        	.utag	item,32,128
  1564                        	.member	dir,0,138,11,32,78
  1565                        	.member	file,0,138,11,32,77
  1566                        	.member	fileInfo,0,138,11,32,79
  1567                        	.eos
  1568                        	.stag	_dos_handle,80,129
  1569                        	.member	fs,0,138,8,32,75
  1570                        	.member	fr,32,5,8,16
  1571                        	.member	path,48,142,8,32
  1572                        	.eos
  1573                        	.stag	fx_file,112,130
  1574                        	.member	fs,0,138,8,32,75
  1575                        	.member	fileInfo,32,138,8,32,79
  1576                        	.member	f,64,138,8,32,77
  1577                        	.member	fr,96,5,8,16
  1578                        	.eos
  1579                        	.line	812
  1580                        	.file	"G:\devprojects\c256Foenix\fxos\FXOSWork
                    space\FXOS-Beta\src\diskio.c",16
  1581                        ;
  1582                        ;
  1583                        ;static PFXDOSDEVICE diskioDevices[] = {NULL,NULL,
                    NULL,NULL,NULL,NULL};
  1584                        	data
  1585                        ~~diskioDevices:
  1586 00:0000: 00 00 00 00  	dl	$0,$0,$0,$0,$0,$0
       00:0004: 00 00 00 00 
       00:0008: 00 00 00 00 
  Mon Sep 27 2021  9:39                                                Page 31


       00:000C: 00 00 00 00 
       00:0010: 00 00 00 00 
       00:0014: 00 00 00 00 
  1587 00:0018:              	ends
  1588                        ;
  1589                        ;
  1590                        ;static CHAR fake_device_mbr[] = {0xEB,0x58,0x90,0
                    x57,0x49,0x4E,0x49,0x4D,0x41,0x47,0x45,0x00,0x02,0x02,0x01,0
                    x00,
  1591                        	data
  1592                        ~~fake_device_mbr:
  1593 00:0018: EB 58 90 57  	db	$EB,$58,$90,$57,$49,$4E,$49,$4D,$41,$47
       00:001C: 49 4E 49 4D 
       00:0020: 41 47 
  1594 00:0022: 45 00 02 02  	db	$45,$0,$2,$2,$1,$0
       00:0026: 01 00 
  1595                        ;		                     0x02,0x70,0x00,0x40
                    ,0x01,0xFD,0x01,0x00,0x08,0x00,0x01,0x00,0x00,0x00,0x00,0x00
                    ,
  1596 00:0028: 02 70 00 40  	db	$2,$70,$0,$40,$1,$FD,$1,$0,$8,$0
       00:002C: 01 FD 01 00 
       00:0030: 08 00 
  1597 00:0032: 01 00 00 00  	db	$1,$0,$0,$0,$0,$0
       00:0036: 00 00 
  1598                        ;							
                     0x00,0x00,0x00,0x00,0x00,0x00,0x29,0x26,0x3D,0x98,0x54,0x20
                    ,0x20,0x20,0x20,0x20,
  1599 00:0038: 00 00 00 00  	db	$0,$0,$0,$0,$0,$0,$29,$26,$3D,$98
       00:003C: 00 00 29 26 
       00:0040: 3D 98 
  1600 00:0042: 54 20 20 20  	db	$54,$20,$20,$20,$20,$20
       00:0046: 20 20 
  1601                        ;							
                     0x20,0x20,0x20,0x20,0x20,0x20,0x46,0x41,0x54,0x31,0x32,0x20
                    ,0x20,0x20,0x00,0x00,
  1602 00:0048: 20 20 20 20  	db	$20,$20,$20,$20,$20,$20,$46,$41,$54,$31
       00:004C: 20 20 46 41 
       00:0050: 54 31 
  1603 00:0052: 32 20 20 20  	db	$32,$20,$20,$20,$0,$0
       00:0056: 00 00 
  1604                        ;							
                     0x00,0x00,0x00,0x00,0x00,0x00,0x00,0x00,0x00,0x00,0x00,0x00
                    ,0x00,0x00,0x00,0x00,
  1605 00:0058: 00 00 00 00  	db	$0,$0,$0,$0,$0,$0,$0,$0,$0,$0
       00:005C: 00 00 00 00 
       00:0060: 00 00 
  1606 00:0062: 00 00 00 00  	db	$0,$0,$0,$0,$0,$0
       00:0066: 00 00 
  1607                        ;							
                     0x00,0x00,0x00,0x00,0x00,0x00,0x00,0x00,0x00,0x00,0xFA,0x33
                    ,0xC0,0x8E,0xD0,0xBC,
  1608 00:0068: 00 00 00 00  	db	$0,$0,$0,$0,$0,$0,$0,$0,$0,$0
       00:006C: 00 00 00 00 
       00:0070: 00 00 
  1609 00:0072: FA 33 C0 8E  	db	$FA,$33,$C0,$8E,$D0,$BC
       00:0076: D0 BC 
  1610                        ;							
                     0x00,0x7C,0xB8,0xB0,0x07,0x8E,0xD8,0x8E,0xC0,0xB9,0x00,0x01
  Mon Sep 27 2021  9:39                                                Page 32


                    ,0x8B,0xF1,0xBF,0x00,
  1611 00:0078: 00 7C B8 B0  	db	$0,$7C,$B8,$B0,$7,$8E,$D8,$8E,$C0,$B9
       00:007C: 07 8E D8 8E 
       00:0080: C0 B9 
  1612 00:0082: 00 01 8B F1  	db	$0,$1,$8B,$F1,$BF,$0
       00:0086: BF 00 
  1613                        ;							
                     0x03,0xF3,0xA5,0xB8,0xD0,0x07,0x50,0x8E,0xD8,0x8E,0xC0,0xB8
                    ,0x80,0x01,0x50,0xCB,
  1614 00:0088: 03 F3 A5 B8  	db	$3,$F3,$A5,$B8,$D0,$7,$50,$8E,$D8,$8E
       00:008C: D0 07 50 8E 
       00:0090: D8 8E 
  1615 00:0092: C0 B8 80 01  	db	$C0,$B8,$80,$1,$50,$CB
       00:0096: 50 CB 
  1616                        ;							
                     0xFB,0xBE,0x13,0x02,0xE8,0x3A,0x00,0xB8,0x01,0x02,0xB9,0x01
                    ,0x00,0xBA,0x80,0x00,
  1617 00:0098: FB BE 13 02  	db	$FB,$BE,$13,$2,$E8,$3A,$0,$B8,$1,$2
       00:009C: E8 3A 00 B8 
       00:00A0: 01 02 
  1618 00:00A2: B9 01 00 BA  	db	$B9,$1,$0,$BA,$80,$0
       00:00A6: 80 00 
  1619                        ;							
                     0x33,0xDB,0x8E,0xC3,0xBB,0x00,0x7C,0x06,0x53,0xCD,0x13,0x72
                    ,0x0A,0x26,0x81,0x3E,
  1620 00:00A8: 33 DB 8E C3  	db	$33,$DB,$8E,$C3,$BB,$0,$7C,$6,$53,$CD
       00:00AC: BB 00 7C 06 
       00:00B0: 53 CD 
  1621 00:00B2: 13 72 0A 26  	db	$13,$72,$A,$26,$81,$3E
       00:00B6: 81 3E 
  1622                        ;							
                     0xFE,0x7D,0x55,0xAA,0x75,0x01,0xCB,0xBE,0xD0,0x01,0xE8,0x14
                    ,0x00,0xB4,0x01,0xCD,
  1623 00:00B8: FE 7D 55 AA  	db	$FE,$7D,$55,$AA,$75,$1,$CB,$BE,$D0,$1
       00:00BC: 75 01 CB BE 
       00:00C0: D0 01 
  1624 00:00C2: E8 14 00 B4  	db	$E8,$14,$0,$B4,$1,$CD
       00:00C6: 01 CD 
  1625                        ;							
                     0x16,0x74,0x06,0x32,0xE4,0xCD,0x16,0xEB,0xF4,0x32,0xE4,0xCD
                    ,0x16,0x33,0xD2,0xCD,
  1626 00:00C8: 16 74 06 32  	db	$16,$74,$6,$32,$E4,$CD,$16,$EB,$F4,$32
       00:00CC: E4 CD 16 EB 
       00:00D0: F4 32 
  1627 00:00D2: E4 CD 16 33  	db	$E4,$CD,$16,$33,$D2,$CD
       00:00D6: D2 CD 
  1628                        ;							
                     0x19,0xFC,0xAC,0x0A,0xC0,0x74,0x08,0x56,0xB4,0x0E,0xCD,0x10
                    ,0x5E,0xEB,0xF3,0xC3,
  1629 00:00D8: 19 FC AC 0A  	db	$19,$FC,$AC,$A,$C0,$74,$8,$56,$B4,$E
       00:00DC: C0 74 08 56 
       00:00E0: B4 0E 
  1630 00:00E2: CD 10 5E EB  	db	$CD,$10,$5E,$EB,$F3,$C3
       00:00E6: F3 C3 
  1631                        ;							
                     0x43,0x61,0x6E,0x6E,0x6F,0x74,0x20,0x6C,0x6F,0x61,0x64,0x20
                    ,0x66,0x72,0x6F,0x6D,
  1632 00:00E8: 43 61 6E 6E  	db	$43,$61,$6E,$6E,$6F,$74,$20,$6C,$6F,$61
  Mon Sep 27 2021  9:39                                                Page 33


       00:00EC: 6F 74 20 6C 
       00:00F0: 6F 61 
  1633 00:00F2: 64 20 66 72  	db	$64,$20,$66,$72,$6F,$6D
       00:00F6: 6F 6D 
  1634                        ;							
                     0x20,0x68,0x61,0x72,0x64,0x64,0x69,0x73,0x6B,0x2E,0x0D,0x0A
                    ,0x49,0x6E,0x73,0x65,
  1635 00:00F8: 20 68 61 72  	db	$20,$68,$61,$72,$64,$64,$69,$73,$6B,$2E
       00:00FC: 64 64 69 73 
       00:0100: 6B 2E 
  1636 00:0102: 0D 0A 49 6E  	db	$D,$A,$49,$6E,$73,$65
       00:0106: 73 65 
  1637                        ;							
                     0x72,0x74,0x20,0x53,0x79,0x73,0x74,0x65,0x6D,0x64,0x69,0x73
                    ,0x6B,0x20,0x61,0x6E,
  1638 00:0108: 72 74 20 53  	db	$72,$74,$20,$53,$79,$73,$74,$65,$6D,$64
       00:010C: 79 73 74 65 
       00:0110: 6D 64 
  1639 00:0112: 69 73 6B 20  	db	$69,$73,$6B,$20,$61,$6E
       00:0116: 61 6E 
  1640                        ;							
                     0x64,0x20,0x70,0x72,0x65,0x73,0x73,0x20,0x61,0x6E,0x79,0x20
                    ,0x6B,0x65,0x79,0x2E,
  1641 00:0118: 64 20 70 72  	db	$64,$20,$70,$72,$65,$73,$73,$20,$61,$6E
       00:011C: 65 73 73 20 
       00:0120: 61 6E 
  1642 00:0122: 79 20 6B 65  	db	$79,$20,$6B,$65,$79,$2E
       00:0126: 79 2E 
  1643                        ;							
                     0x0D,0x0A,0x00,0x44,0x69,0x73,0x6B,0x20,0x66,0x6F,0x72,0x6D
                    ,0x61,0x74,0x74,0x65,
  1644 00:0128: 0D 0A 00 44  	db	$D,$A,$0,$44,$69,$73,$6B,$20,$66,$6F
       00:012C: 69 73 6B 20 
       00:0130: 66 6F 
  1645 00:0132: 72 6D 61 74  	db	$72,$6D,$61,$74,$74,$65
       00:0136: 74 65 
  1646                        ;							
                     0x64,0x20,0x77,0x69,0x74,0x68,0x20,0x57,0x69,0x6E,0x49,0x6D
                    ,0x61,0x67,0x65,0x20,
  1647 00:0138: 64 20 77 69  	db	$64,$20,$77,$69,$74,$68,$20,$57,$69,$6E
       00:013C: 74 68 20 57 
       00:0140: 69 6E 
  1648 00:0142: 49 6D 61 67  	db	$49,$6D,$61,$67,$65,$20
       00:0146: 65 20 
  1649                        ;							
                     0x36,0x2E,0x35,0x30,0x20,0x28,0x63,0x29,0x20,0x31,0x39,0x39
                    ,0x33,0x2D,0x32,0x30,
  1650 00:0148: 36 2E 35 30  	db	$36,$2E,$35,$30,$20,$28,$63,$29,$20,$31
       00:014C: 20 28 63 29 
       00:0150: 20 31 
  1651 00:0152: 39 39 33 2D  	db	$39,$39,$33,$2D,$32,$30
       00:0156: 32 30 
  1652                        ;							
                     0x30,0x34,0x20,0x47,0x69,0x6C,0x6C,0x65,0x73,0x20,0x56,0x6F
                    ,0x6C,0x6C,0x61,0x6E,
  1653 00:0158: 30 34 20 47  	db	$30,$34,$20,$47,$69,$6C,$6C,$65,$73,$20
       00:015C: 69 6C 6C 65 
       00:0160: 73 20 
  Mon Sep 27 2021  9:39                                                Page 34


  1654 00:0162: 56 6F 6C 6C  	db	$56,$6F,$6C,$6C,$61,$6E
       00:0166: 61 6E 
  1655                        ;							
                     0x74,0x0D,0x0A,0x73,0x65,0x65,0x20,0x68,0x74,0x74,0x70,0x3A
                    ,0x2F,0x2F,0x77,0x77,
  1656 00:0168: 74 0D 0A 73  	db	$74,$D,$A,$73,$65,$65,$20,$68,$74,$74
       00:016C: 65 65 20 68 
       00:0170: 74 74 
  1657 00:0172: 70 3A 2F 2F  	db	$70,$3A,$2F,$2F,$77,$77
       00:0176: 77 77 
  1658                        ;							
                     0x77,0x2E,0x77,0x69,0x6E,0x69,0x6D,0x61,0x67,0x65,0x2E,0x63
                    ,0x6F,0x6D,0x0D,0x0A,
  1659 00:0178: 77 2E 77 69  	db	$77,$2E,$77,$69,$6E,$69,$6D,$61,$67,$65
       00:017C: 6E 69 6D 61 
       00:0180: 67 65 
  1660 00:0182: 2E 63 6F 6D  	db	$2E,$63,$6F,$6D,$D,$A
       00:0186: 0D 0A 
  1661                        ;							
                     0x42,0x6F,0x6F,0x74,0x73,0x65,0x63,0x74,0x6F,0x72,0x20,0x66
                    ,0x72,0x6F,0x6D,0x20,
  1662 00:0188: 42 6F 6F 74  	db	$42,$6F,$6F,$74,$73,$65,$63,$74,$6F,$72
       00:018C: 73 65 63 74 
       00:0190: 6F 72 
  1663 00:0192: 20 66 72 6F  	db	$20,$66,$72,$6F,$6D,$20
       00:0196: 6D 20 
  1664                        ;							
                     0x43,0x2E,0x48,0x2E,0x20,0x48,0x6F,0x63,0x68,0x73,0x74,0x61
                    ,0x74,0x74,0x65,0x72,
  1665 00:0198: 43 2E 48 2E  	db	$43,$2E,$48,$2E,$20,$48,$6F,$63,$68,$73
       00:019C: 20 48 6F 63 
       00:01A0: 68 73 
  1666 00:01A2: 74 61 74 74  	db	$74,$61,$74,$74,$65,$72
       00:01A6: 65 72 
  1667                        ;							
                     0x0D,0x0A,0x0D,0x0A,0x4E,0x6F,0x20,0x53,0x79,0x73,0x74,0x65
                    ,0x6D,0x64,0x69,0x73,
  1668 00:01A8: 0D 0A 0D 0A  	db	$D,$A,$D,$A,$4E,$6F,$20,$53,$79,$73
       00:01AC: 4E 6F 20 53 
       00:01B0: 79 73 
  1669 00:01B2: 74 65 6D 64  	db	$74,$65,$6D,$64,$69,$73
       00:01B6: 69 73 
  1670                        ;							
                     0x6B,0x2E,0x20,0x42,0x6F,0x6F,0x74,0x69,0x6E,0x67,0x20,0x66
                    ,0x72,0x6F,0x6D,0x20,
  1671 00:01B8: 6B 2E 20 42  	db	$6B,$2E,$20,$42,$6F,$6F,$74,$69,$6E,$67
       00:01BC: 6F 6F 74 69 
       00:01C0: 6E 67 
  1672 00:01C2: 20 66 72 6F  	db	$20,$66,$72,$6F,$6D,$20
       00:01C6: 6D 20 
  1673                        ;							
                     0x68,0x61,0x72,0x64,0x64,0x69,0x73,0x6B,0x2E,0x0D,0x0A,0x00
                    ,0x00,0x00,0x00,0x00,
  1674 00:01C8: 68 61 72 64  	db	$68,$61,$72,$64,$64,$69,$73,$6B,$2E,$D
       00:01CC: 64 69 73 6B 
       00:01D0: 2E 0D 
  1675 00:01D2: 0A 00 00 00  	db	$A,$0,$0,$0,$0,$0
       00:01D6: 00 00 
  Mon Sep 27 2021  9:39                                                Page 35


  1676                        ;							
                     0x00,0x00,0x00,0x00,0x00,0x00,0x00,0x00,0x00,0x00,0x00,0x00
                    ,0x00,0x00,0x00,0x00,
  1677 00:01D8: 00 00 00 00  	db	$0,$0,$0,$0,$0,$0,$0,$0,$0,$0
       00:01DC: 00 00 00 00 
       00:01E0: 00 00 
  1678 00:01E2: 00 00 00 00  	db	$0,$0,$0,$0,$0,$0
       00:01E6: 00 00 
  1679                        ;							
                     0x00,0x00,0x00,0x00,0x00,0x00,0x00,0x00,0x00,0x00,0x00,0x00
                    ,0x00,0x00,0x00,0x00,
  1680 00:01E8: 00 00 00 00  	db	$0,$0,$0,$0,$0,$0,$0,$0,$0,$0
       00:01EC: 00 00 00 00 
       00:01F0: 00 00 
  1681 00:01F2: 00 00 00 00  	db	$0,$0,$0,$0,$0,$0
       00:01F6: 00 00 
  1682                        ;							
                     0x00,0x00,0x00,0x00,0x00,0x00,0x00,0x00,0x00,0x00,0x00,0x00
                    ,0x00,0x00,0x00,0x00,
  1683 00:01F8: 00 00 00 00  	db	$0,$0,$0,$0,$0,$0,$0,$0,$0,$0
       00:01FC: 00 00 00 00 
       00:0200: 00 00 
  1684 00:0202: 00 00 00 00  	db	$0,$0,$0,$0,$0,$0
       00:0206: 00 00 
  1685                        ;							
                     0x00,0x00,0x00,0x00,0x00,0x00,0x00,0x00,0x00,0x00,0x00,0x00
                    ,0x00,0x00,0x55,0xAA};
  1686 00:0208: 00 00 00 00  	db	$0,$0,$0,$0,$0,$0,$0,$0,$0,$0
       00:020C: 00 00 00 00 
       00:0210: 00 00 
  1687 00:0212: 00 00 00 00  	db	$0,$0,$0,$0,$55,$AA
       00:0216: 55 AA 
  1688 00:0218:              	ends
  1689                        ;
  1690                        ;static CHAR fake_device_0200[] = {0xFD,0xFF,0xFF,
                    0xFF,0x0F};
  1691                        	data
  1692                        ~~fake_device_0200:
  1693 00:0218: FD FF FF FF  	db	$FD,$FF,$FF,$FF,$F
       00:021C: 0F 
  1694 00:021D:              	ends
  1695                        ;static CHAR fake_device_0400[] = {0xFD,0xFF,0xFF,
                    0xFF,0x0F};
  1696                        	data
  1697                        ~~fake_device_0400:
  1698 00:021D: FD FF FF FF  	db	$FD,$FF,$FF,$FF,$F
       00:0221: 0F 
  1699 00:0222:              	ends
  1700                        ;
  1701                        ;
  1702                        ;static CHAR fake_device_0600[] =
  1703                        	data
  1704                        ~~fake_device_0600:
  1705                        ;                            {0x46,0x58,0x44,0x45,
                    0x56,0x49,0x43,0x45,0x20,0x20,0x20,0x08,0x00,0x00,0x00,0x00,
  1706 00:0222: 46 58 44 45  	db	$46,$58,$44,$45,$56,$49,$43,$45,$20,$20
       00:0226: 56 49 43 45 
       00:022A: 20 20 
  Mon Sep 27 2021  9:39                                                Page 36


  1707 00:022C: 20 08 00 00  	db	$20,$8,$0,$0,$0,$0
       00:0230: 00 00 
  1708                        ;       						
                     0x00,0x00,0x00,0x00,0x00,0x00,0x1C,0xBF,0xEB,0x52,0x00,0x00
                    ,0x00,0x00,0x00,0x00,
  1709 00:0232: 00 00 00 00  	db	$0,$0,$0,$0,$0,$0,$1C,$BF,$EB,$52
       00:0236: 00 00 1C BF 
       00:023A: EB 52 
  1710 00:023C: 00 00 00 00  	db	$0,$0,$0,$0,$0,$0
       00:0240: 00 00 
  1711                        ;       						
                     0x46,0x58,0x44,0x45,0x56,0x20,0x20,0x20,0x44,0x54,0x41,0x00
                    ,0x00,0x06,0x70,0xBF,
  1712 00:0242: 46 58 44 45  	db	$46,$58,$44,$45,$56,$20,$20,$20,$44,$54
       00:0246: 56 20 20 20 
       00:024A: 44 54 
  1713 00:024C: 41 00 00 06  	db	$41,$0,$0,$6,$70,$BF
       00:0250: 70 BF 
  1714                        ;       						
                     0xEB,0x52,0x00,0x00,0x00,0x00,0x71,0xBF,0xEB,0x52,0x02,0x00
                    ,0x08,0x00,0x00,0x00,
  1715 00:0252: EB 52 00 00  	db	$EB,$52,$0,$0,$0,$0,$71,$BF,$EB,$52
       00:0256: 00 00 71 BF 
       00:025A: EB 52 
  1716 00:025C: 02 00 08 00  	db	$2,$0,$8,$0,$0,$0
       00:0260: 00 00 
  1717                        ;       						
                     0x44,0x45,0x56,0x20,0x20,0x20,0x20,0x20,0x20,0x20,0x20,0x10
                    ,0x00,0x00,0x00,0x00,
  1718 00:0262: 44 45 56 20  	db	$44,$45,$56,$20,$20,$20,$20,$20,$20,$20
       00:0266: 20 20 20 20 
       00:026A: 20 20 
  1719 00:026C: 20 10 00 00  	db	$20,$10,$0,$0,$0,$0
       00:0270: 00 00 
  1720                        ;       						
                     0x00,0x00,0x00,0x00,0x00,0x00,0x62,0x4F,0xEC,0x52,0x03,0x00
                    ,0x00,0x00,0x00,0x00};
  1721 00:0272: 00 00 00 00  	db	$0,$0,$0,$0,$0,$0,$62,$4F,$EC,$52
       00:0276: 00 00 62 4F 
       00:027A: EC 52 
  1722 00:027C: 03 00 00 00  	db	$3,$0,$0,$0,$0,$0
       00:0280: 00 00 
  1723 00:0282:              	ends
  1724                        ;
  1725                        ;
  1726                        ;
  1727                        ;
  1728                        ;static CHAR fake_device_1400[] = {0x30,0x30,0x30,
                    0x30,0x30,0x30,0x30,0x30,0x00,0x00,0x00,0x00,0x00,0x00,0x00,
                    0x00};
  1729                        	data
  1730                        ~~fake_device_1400:
  1731 00:0282: 30 30 30 30  	db	$30,$30,$30,$30,$30,$30,$30,$30,$0,$0
       00:0286: 30 30 30 30 
       00:028A: 00 00 
  1732 00:028C: 00 00 00 00  	db	$0,$0,$0,$0,$0,$0
       00:0290: 00 00 
  1733 00:0292:              	ends
  Mon Sep 27 2021  9:39                                                Page 37


  1734                        ;
  1735                        ;static CHAR fake_device_1800[] = {0x2E,0x20,0x20,
                    0x20,0x20,0x20,0x20,0x20,0x20,0x20,0x20,0x10,0x00,0x00,0x00,
                    0x00,
  1736                        	data
  1737                        ~~fake_device_1800:
  1738 00:0292: 2E 20 20 20  	db	$2E,$20,$20,$20,$20,$20,$20,$20,$20,$20
       00:0296: 20 20 20 20 
       00:029A: 20 20 
  1739 00:029C: 20 10 00 00  	db	$20,$10,$0,$0,$0,$0
       00:02A0: 00 00 
  1740                        ;							
                    	  0x00,0x00,0x00,0x00,0x00,0x00,0x62,0x4F,0xEC,0x52,0x03
                    ,0x00,0x00,0x00,0x00,0x00,
  1741 00:02A2: 00 00 00 00  	db	$0,$0,$0,$0,$0,$0,$62,$4F,$EC,$52
       00:02A6: 00 00 62 4F 
       00:02AA: EC 52 
  1742 00:02AC: 03 00 00 00  	db	$3,$0,$0,$0,$0,$0
       00:02B0: 00 00 
  1743                        ;							
                    	  0x2E,0x2E,0x20,0x20,0x20,0x20,0x20,0x20,0x20,0x20,0x20
                    ,0x10,0x00,0x00,0x00,0x00,
  1744 00:02B2: 2E 2E 20 20  	db	$2E,$2E,$20,$20,$20,$20,$20,$20,$20,$20
       00:02B6: 20 20 20 20 
       00:02BA: 20 20 
  1745 00:02BC: 20 10 00 00  	db	$20,$10,$0,$0,$0,$0
       00:02C0: 00 00 
  1746                        ;							
                    	  0x00,0x00,0x00,0x00,0x00,0x00,0x62,0x4F,0xEC,0x52,0x00
                    ,0x00,0x00,0x00,0x00,0x00,
  1747 00:02C2: 00 00 00 00  	db	$0,$0,$0,$0,$0,$0,$62,$4F,$EC,$52
       00:02C6: 00 00 62 4F 
       00:02CA: EC 52 
  1748 00:02CC: 00 00 00 00  	db	$0,$0,$0,$0,$0,$0
       00:02D0: 00 00 
  1749                        ;							
                    	  0x44,0x45,0x56,0x31,0x33,0x20,0x20,0x20,0x20,0x20,0x20
                    ,0x00,0x08,0xBE,0x6A,0x47,
  1750 00:02D2: 44 45 56 31  	db	$44,$45,$56,$31,$33,$20,$20,$20,$20,$20
       00:02D6: 33 20 20 20 
       00:02DA: 20 20 
  1751 00:02DC: 20 00 08 BE  	db	$20,$0,$8,$BE,$6A,$47
       00:02E0: 6A 47 
  1752                        ;							
                    	  0xEC,0x52,0x00,0x00,0x00,0x00,0xF2,0x3E,0xEC,0x52,0x00
                    ,0x00,0x00,0x00,0x00,0x00,
  1753 00:02E2: EC 52 00 00  	db	$EC,$52,$0,$0,$0,$0,$F2,$3E,$EC,$52
       00:02E6: 00 00 F2 3E 
       00:02EA: EC 52 
  1754 00:02EC: 00 00 00 00  	db	$0,$0,$0,$0,$0,$0
       00:02F0: 00 00 
  1755                        ;							
                    	  0x44,0x45,0x56,0x31,0x34,0x20,0x20,0x20,0x20,0x20,0x20
                    ,0x00,0x08,0x81,0x6E,0x47,
  1756 00:02F2: 44 45 56 31  	db	$44,$45,$56,$31,$34,$20,$20,$20,$20,$20
       00:02F6: 34 20 20 20 
       00:02FA: 20 20 
  1757 00:02FC: 20 00 08 81  	db	$20,$0,$8,$81,$6E,$47
  Mon Sep 27 2021  9:39                                                Page 38


       00:0300: 6E 47 
  1758                        ;							
                    	  0xEC,0x52,0x00,0x00,0x00,0x00,0xF2,0x3E,0xEC,0x52,0x00
                    ,0x00,0x00,0x00,0x00,0x00,
  1759 00:0302: EC 52 00 00  	db	$EC,$52,$0,$0,$0,$0,$F2,$3E,$EC,$52
       00:0306: 00 00 F2 3E 
       00:030A: EC 52 
  1760 00:030C: 00 00 00 00  	db	$0,$0,$0,$0,$0,$0
       00:0310: 00 00 
  1761                        ;							
                    	  0x44,0x45,0x56,0x31,0x35,0x20,0x20,0x20,0x20,0x20,0x20
                    ,0x00,0x08,0x30,0x74,0x47,
  1762 00:0312: 44 45 56 31  	db	$44,$45,$56,$31,$35,$20,$20,$20,$20,$20
       00:0316: 35 20 20 20 
       00:031A: 20 20 
  1763 00:031C: 20 00 08 30  	db	$20,$0,$8,$30,$74,$47
       00:0320: 74 47 
  1764                        ;							
                    	  0xEC,0x52,0x00,0x00,0x00,0x00,0xF2,0x3E,0xEC,0x52,0x00
                    ,0x00,0x00,0x00,0x00,0x00,
  1765 00:0322: EC 52 00 00  	db	$EC,$52,$0,$0,$0,$0,$F2,$3E,$EC,$52
       00:0326: 00 00 F2 3E 
       00:032A: EC 52 
  1766 00:032C: 00 00 00 00  	db	$0,$0,$0,$0,$0,$0
       00:0330: 00 00 
  1767                        ;							
                    	  0x44,0x45,0x56,0x31,0x36,0x20,0x20,0x20,0x20,0x20,0x20
                    ,0x00,0x08,0x94,0x7B,0x47,
  1768 00:0332: 44 45 56 31  	db	$44,$45,$56,$31,$36,$20,$20,$20,$20,$20
       00:0336: 36 20 20 20 
       00:033A: 20 20 
  1769 00:033C: 20 00 08 94  	db	$20,$0,$8,$94,$7B,$47
       00:0340: 7B 47 
  1770                        ;							
                    	  0xEC,0x52,0x00,0x00,0x00,0x00,0xF2,0x3E,0xEC,0x52,0x00
                    ,0x00,0x00,0x00,0x00,0x00,
  1771 00:0342: EC 52 00 00  	db	$EC,$52,$0,$0,$0,$0,$F2,$3E,$EC,$52
       00:0346: 00 00 F2 3E 
       00:034A: EC 52 
  1772 00:034C: 00 00 00 00  	db	$0,$0,$0,$0,$0,$0
       00:0350: 00 00 
  1773                        ;							
                    	  0x44,0x45,0x56,0x30,0x20,0x20,0x20,0x20,0x20,0x20,0x20
                    ,0x00,0x08,0x9E,0xF1,0x3E,
  1774 00:0352: 44 45 56 30  	db	$44,$45,$56,$30,$20,$20,$20,$20,$20,$20
       00:0356: 20 20 20 20 
       00:035A: 20 20 
  1775 00:035C: 20 00 08 9E  	db	$20,$0,$8,$9E,$F1,$3E
       00:0360: F1 3E 
  1776                        ;							
                    	  0xEC,0x52,0x00,0x00,0x00,0x00,0xF2,0x3E,0xEC,0x52,0x00
                    ,0x00,0x00,0x00,0x00,0x00,
  1777 00:0362: EC 52 00 00  	db	$EC,$52,$0,$0,$0,$0,$F2,$3E,$EC,$52
       00:0366: 00 00 F2 3E 
       00:036A: EC 52 
  1778 00:036C: 00 00 00 00  	db	$0,$0,$0,$0,$0,$0
       00:0370: 00 00 
  1779                        ;							
  Mon Sep 27 2021  9:39                                                Page 39


                    	  0x44,0x45,0x56,0x31,0x20,0x20,0x20,0x20,0x20,0x20,0x20
                    ,0x00,0x08,0x7C,0x04,0x3F,
  1780 00:0372: 44 45 56 31  	db	$44,$45,$56,$31,$20,$20,$20,$20,$20,$20
       00:0376: 20 20 20 20 
       00:037A: 20 20 
  1781 00:037C: 20 00 08 7C  	db	$20,$0,$8,$7C,$4,$3F
       00:0380: 04 3F 
  1782                        ;							
                    	  0xEC,0x52,0x00,0x00,0x00,0x00,0xF2,0x3E,0xEC,0x52,0x00
                    ,0x00,0x00,0x00,0x00,0x00,
  1783 00:0382: EC 52 00 00  	db	$EC,$52,$0,$0,$0,$0,$F2,$3E,$EC,$52
       00:0386: 00 00 F2 3E 
       00:038A: EC 52 
  1784 00:038C: 00 00 00 00  	db	$0,$0,$0,$0,$0,$0
       00:0390: 00 00 
  1785                        ;							
                    	  0x44,0x45,0x56,0x32,0x20,0x20,0x20,0x20,0x20,0x20,0x20
                    ,0x00,0x08,0x93,0x0C,0x3F,
  1786 00:0392: 44 45 56 32  	db	$44,$45,$56,$32,$20,$20,$20,$20,$20,$20
       00:0396: 20 20 20 20 
       00:039A: 20 20 
  1787 00:039C: 20 00 08 93  	db	$20,$0,$8,$93,$C,$3F
       00:03A0: 0C 3F 
  1788                        ;							
                    	  0xEC,0x52,0x00,0x00,0x00,0x00,0xF2,0x3E,0xEC,0x52,0x00
                    ,0x00,0x00,0x00,0x00,0x00,
  1789 00:03A2: EC 52 00 00  	db	$EC,$52,$0,$0,$0,$0,$F2,$3E,$EC,$52
       00:03A6: 00 00 F2 3E 
       00:03AA: EC 52 
  1790 00:03AC: 00 00 00 00  	db	$0,$0,$0,$0,$0,$0
       00:03B0: 00 00 
  1791                        ;							
                    	  0x44,0x45,0x56,0x33,0x20,0x20,0x20,0x20,0x20,0x20,0x20
                    ,0x00,0x08,0x2A,0x12,0x3F,
  1792 00:03B2: 44 45 56 33  	db	$44,$45,$56,$33,$20,$20,$20,$20,$20,$20
       00:03B6: 20 20 20 20 
       00:03BA: 20 20 
  1793 00:03BC: 20 00 08 2A  	db	$20,$0,$8,$2A,$12,$3F
       00:03C0: 12 3F 
  1794                        ;							
                    	  0xEC,0x52,0x00,0x00,0x00,0x00,0xF2,0x3E,0xEC,0x52,0x00
                    ,0x00,0x00,0x00,0x00,0x00,
  1795 00:03C2: EC 52 00 00  	db	$EC,$52,$0,$0,$0,$0,$F2,$3E,$EC,$52
       00:03C6: 00 00 F2 3E 
       00:03CA: EC 52 
  1796 00:03CC: 00 00 00 00  	db	$0,$0,$0,$0,$0,$0
       00:03D0: 00 00 
  1797                        ;							
                    	  0x44,0x45,0x56,0x34,0x20,0x20,0x20,0x20,0x20,0x20,0x20
                    ,0x00,0x08,0xAD,0x15,0x3F,
  1798 00:03D2: 44 45 56 34  	db	$44,$45,$56,$34,$20,$20,$20,$20,$20,$20
       00:03D6: 20 20 20 20 
       00:03DA: 20 20 
  1799 00:03DC: 20 00 08 AD  	db	$20,$0,$8,$AD,$15,$3F
       00:03E0: 15 3F 
  1800                        ;							
                    	  0xEC,0x52,0x00,0x00,0x00,0x00,0xF2,0x3E,0xEC,0x52,0x00
                    ,0x00,0x00,0x00,0x00,0x00,
  Mon Sep 27 2021  9:39                                                Page 40


  1801 00:03E2: EC 52 00 00  	db	$EC,$52,$0,$0,$0,$0,$F2,$3E,$EC,$52
       00:03E6: 00 00 F2 3E 
       00:03EA: EC 52 
  1802 00:03EC: 00 00 00 00  	db	$0,$0,$0,$0,$0,$0
       00:03F0: 00 00 
  1803                        ;							
                    	  0x44,0x45,0x56,0x35,0x20,0x20,0x20,0x20,0x20,0x20,0x20
                    ,0x00,0x08,0xC7,0x19,0x3F,
  1804 00:03F2: 44 45 56 35  	db	$44,$45,$56,$35,$20,$20,$20,$20,$20,$20
       00:03F6: 20 20 20 20 
       00:03FA: 20 20 
  1805 00:03FC: 20 00 08 C7  	db	$20,$0,$8,$C7,$19,$3F
       00:0400: 19 3F 
  1806                        ;							
                    	  0xEC,0x52,0x00,0x00,0x00,0x00,0xF2,0x3E,0xEC,0x52,0x00
                    ,0x00,0x00,0x00,0x00,0x00,
  1807 00:0402: EC 52 00 00  	db	$EC,$52,$0,$0,$0,$0,$F2,$3E,$EC,$52
       00:0406: 00 00 F2 3E 
       00:040A: EC 52 
  1808 00:040C: 00 00 00 00  	db	$0,$0,$0,$0,$0,$0
       00:0410: 00 00 
  1809                        ;							
                    	  0x44,0x45,0x56,0x36,0x20,0x20,0x20,0x20,0x20,0x20,0x20
                    ,0x00,0x08,0x12,0x63,0x3F,
  1810 00:0412: 44 45 56 36  	db	$44,$45,$56,$36,$20,$20,$20,$20,$20,$20
       00:0416: 20 20 20 20 
       00:041A: 20 20 
  1811 00:041C: 20 00 08 12  	db	$20,$0,$8,$12,$63,$3F
       00:0420: 63 3F 
  1812                        ;							
                    	  0xEC,0x52,0x00,0x00,0x00,0x00,0xF2,0x3E,0xEC,0x52,0x00
                    ,0x00,0x00,0x00,0x00,0x00,
  1813 00:0422: EC 52 00 00  	db	$EC,$52,$0,$0,$0,$0,$F2,$3E,$EC,$52
       00:0426: 00 00 F2 3E 
       00:042A: EC 52 
  1814 00:042C: 00 00 00 00  	db	$0,$0,$0,$0,$0,$0
       00:0430: 00 00 
  1815                        ;							
                    	  0x44,0x45,0x56,0x37,0x20,0x20,0x20,0x20,0x20,0x20,0x20
                    ,0x00,0x08,0x2E,0x6C,0x3F,
  1816 00:0432: 44 45 56 37  	db	$44,$45,$56,$37,$20,$20,$20,$20,$20,$20
       00:0436: 20 20 20 20 
       00:043A: 20 20 
  1817 00:043C: 20 00 08 2E  	db	$20,$0,$8,$2E,$6C,$3F
       00:0440: 6C 3F 
  1818                        ;							
                    	  0xEC,0x52,0x00,0x00,0x00,0x00,0xF2,0x3E,0xEC,0x52,0x00
                    ,0x00,0x00,0x00,0x00,0x00,
  1819 00:0442: EC 52 00 00  	db	$EC,$52,$0,$0,$0,$0,$F2,$3E,$EC,$52
       00:0446: 00 00 F2 3E 
       00:044A: EC 52 
  1820 00:044C: 00 00 00 00  	db	$0,$0,$0,$0,$0,$0
       00:0450: 00 00 
  1821                        ;							
                    	  0x44,0x45,0x56,0x38,0x20,0x20,0x20,0x20,0x20,0x20,0x20
                    ,0x00,0x08,0x39,0x53,0x47,
  1822 00:0452: 44 45 56 38  	db	$44,$45,$56,$38,$20,$20,$20,$20,$20,$20
       00:0456: 20 20 20 20 
  Mon Sep 27 2021  9:39                                                Page 41


       00:045A: 20 20 
  1823 00:045C: 20 00 08 39  	db	$20,$0,$8,$39,$53,$47
       00:0460: 53 47 
  1824                        ;							
                    	  0xEC,0x52,0x00,0x00,0x00,0x00,0xF2,0x3E,0xEC,0x52,0x00
                    ,0x00,0x00,0x00,0x00,0x00,
  1825 00:0462: EC 52 00 00  	db	$EC,$52,$0,$0,$0,$0,$F2,$3E,$EC,$52
       00:0466: 00 00 F2 3E 
       00:046A: EC 52 
  1826 00:046C: 00 00 00 00  	db	$0,$0,$0,$0,$0,$0
       00:0470: 00 00 
  1827                        ;							
                    	  0x44,0x45,0x56,0x39,0x20,0x20,0x20,0x20,0x20,0x20,0x20
                    ,0x00,0x08,0x87,0x56,0x47,
  1828 00:0472: 44 45 56 39  	db	$44,$45,$56,$39,$20,$20,$20,$20,$20,$20
       00:0476: 20 20 20 20 
       00:047A: 20 20 
  1829 00:047C: 20 00 08 87  	db	$20,$0,$8,$87,$56,$47
       00:0480: 56 47 
  1830                        ;							
                    	  0xEC,0x52,0x00,0x00,0x00,0x00,0xF2,0x3E,0xEC,0x52,0x00
                    ,0x00,0x00,0x00,0x00,0x00};
  1831 00:0482: EC 52 00 00  	db	$EC,$52,$0,$0,$0,$0,$F2,$3E,$EC,$52
       00:0486: 00 00 F2 3E 
       00:048A: EC 52 
  1832 00:048C: 00 00 00 00  	db	$0,$0,$0,$0,$0,$0
       00:0490: 00 00 
  1833 00:0492:              	ends
  1834                        ;
  1835                        ;static CHAR fake_device_1A00[] = {0x44,0x45,0x56,
                    0x31,0x30,0x20,0x20,0x20,0x20,0x20,0x20,0x00,0x08,0xB8,0x5B,
                    0x47,
  1836                        	data
  1837                        ~~fake_device_1A00:
  1838 00:0492: 44 45 56 31  	db	$44,$45,$56,$31,$30,$20,$20,$20,$20,$20
       00:0496: 30 20 20 20 
       00:049A: 20 20 
  1839 00:049C: 20 00 08 B8  	db	$20,$0,$8,$B8,$5B,$47
       00:04A0: 5B 47 
  1840                        ;							
                    	  0xEC,0x52,0x00,0x00,0x00,0x00,0xF2,0x3E,0xEC,0x52,0x00
                    ,0x00,0x00,0x00,0x00,0x00,
  1841 00:04A2: EC 52 00 00  	db	$EC,$52,$0,$0,$0,$0,$F2,$3E,$EC,$52
       00:04A6: 00 00 F2 3E 
       00:04AA: EC 52 
  1842 00:04AC: 00 00 00 00  	db	$0,$0,$0,$0,$0,$0
       00:04B0: 00 00 
  1843                        ;							
                    	  0x44,0x45,0x56,0x31,0x31,0x20,0x20,0x20,0x20,0x20,0x20
                    ,0x00,0x08,0x55,0x62,0x47,
  1844 00:04B2: 44 45 56 31  	db	$44,$45,$56,$31,$31,$20,$20,$20,$20,$20
       00:04B6: 31 20 20 20 
       00:04BA: 20 20 
  1845 00:04BC: 20 00 08 55  	db	$20,$0,$8,$55,$62,$47
       00:04C0: 62 47 
  1846                        ;							
                    	  0xEC,0x52,0x00,0x00,0x00,0x00,0xF2,0x3E,0xEC,0x52,0x00
                    ,0x00,0x00,0x00,0x00,0x00,
  Mon Sep 27 2021  9:39                                                Page 42


  1847 00:04C2: EC 52 00 00  	db	$EC,$52,$0,$0,$0,$0,$F2,$3E,$EC,$52
       00:04C6: 00 00 F2 3E 
       00:04CA: EC 52 
  1848 00:04CC: 00 00 00 00  	db	$0,$0,$0,$0,$0,$0
       00:04D0: 00 00 
  1849                        ;							
                    	  0x44,0x45,0x56,0x31,0x32,0x20,0x20,0x20,0x20,0x20,0x20
                    ,0x00,0x08,0xBA,0x66,0x47,
  1850 00:04D2: 44 45 56 31  	db	$44,$45,$56,$31,$32,$20,$20,$20,$20,$20
       00:04D6: 32 20 20 20 
       00:04DA: 20 20 
  1851 00:04DC: 20 00 08 BA  	db	$20,$0,$8,$BA,$66,$47
       00:04E0: 66 47 
  1852                        ;							
                    	  0xEC,0x52,0x00,0x00,0x00,0x00,0xF2,0x3E,0xEC,0x52,0x00
                    ,0x00,0x00,0x00,0x00,0x00};
  1853 00:04E2: EC 52 00 00  	db	$EC,$52,$0,$0,$0,$0,$F2,$3E,$EC,$52
       00:04E6: 00 00 F2 3E 
       00:04EA: EC 52 
  1854 00:04EC: 00 00 00 00  	db	$0,$0,$0,$0,$0,$0
       00:04F0: 00 00 
  1855 00:04F2:              	ends
  1856                        ;
  1857                        ;
  1858                        ;PFXDOSDEVICE FAR * k_dos_get_devices(VOID)
  1859                        ;{
  1860                        	.line	113
  1861                        	.line	114
  1862                        	code
  1863                        	xdef	~~k_dos_get_devices
  1864                        	func
  1865                        	.function	114
  1866                        ~~k_dos_get_devices:
  1867                        	longa	on
  1868                        	longi	on
  1869 00:0000: 3B           	tsc
  1870 00:0001: 38           	sec
  1871 00:0002: E9 04 00     	sbc	#L2
  1872 00:0005: 1B           	tcs
  1873 00:0006: 0B           	phd
  1874 00:0007: 5B           	tcd
  1875                        	.block	114
  1876                        ;	return diskioDevices;
  1877                        	.line	115
  1878 00:0008: A9 xx xx     	lda	#<~~diskioDevices
  1879 00:000B: 85 01        	sta	<R0
  1880                        	xref	_BEG_DATA
  1881 00:000D: A9 xx xx     	lda	#_BEG_DATA>>16
  1882 00:0010: 85 03        	sta	<R0+2
  1883 00:0012: A6 03        	ldx	<R0+2
  1884 00:0014: A5 01        	lda	<R0
  1885                        L5:
  1886 00:0016: A8           	tay
  1887 00:0017: 2B           	pld
  1888 00:0018: 3B           	tsc
  1889 00:0019: 18           	clc
  1890 00:001A: 69 04 00     	adc	#L2
  1891 00:001D: 1B           	tcs
  Mon Sep 27 2021  9:39                                                Page 43


  1892 00:001E: 98           	tya
  1893 00:001F: 6B           	rtl
  1894                        ;}
  1895                        	.line	116
  1896                        	.endblock	116
  1897             00000004   L2	equ	4
  1898             00000005   L3	equ	5
  1899                        	ends
  1900                        	efunc
  1901                        	.endfunc	116,5,4
  1902                        	.line	116
  1903                        ;
  1904                        ;PFXDOSDEVICE k_dos_get_device(UINT index)
  1905                        ;{
  1906                        	.line	118
  1907                        	.line	119
  1908                        	code
  1909                        	xdef	~~k_dos_get_device
  1910                        	func
  1911                        	.function	119
  1912                        ~~k_dos_get_device:
  1913                        	longa	on
  1914                        	longi	on
  1915 00:0020: 3B           	tsc
  1916 00:0021: 38           	sec
  1917 00:0022: E9 08 00     	sbc	#L6
  1918 00:0025: 1B           	tcs
  1919 00:0026: 0B           	phd
  1920 00:0027: 5B           	tcd
  1921             00000004   index_0	set	4
  1922                        	.block	119
  1923                        ;	return diskioDevices[index];
  1924                        	.sym	index,4,16,6,16
  1925                        	.line	120
  1926 00:0028: A5 0C        	lda	<L6+index_0
  1927 00:002A: 0A           	asl	A
  1928 00:002B: 0A           	asl	A
  1929 00:002C: 85 01        	sta	<R0
  1930 00:002E: 18           	clc
  1931 00:002F: A9 xx xx     	lda	#<~~diskioDevices
  1932 00:0032: 65 01        	adc	<R0
  1933 00:0034: 85 05        	sta	<R1
  1934 00:0036: A0 02 00     	ldy	#$2
  1935 00:0039: B1 05        	lda	(<R1),Y
  1936 00:003B: AA           	tax
  1937 00:003C: B2 05        	lda	(<R1)
  1938                        L9:
  1939 00:003E: A8           	tay
  1940 00:003F: A5 0A        	lda	<L6+2
  1941 00:0041: 85 0C        	sta	<L6+2+2
  1942 00:0043: A5 09        	lda	<L6+1
  1943 00:0045: 85 0B        	sta	<L6+1+2
  1944 00:0047: 2B           	pld
  1945 00:0048: 3B           	tsc
  1946 00:0049: 18           	clc
  1947 00:004A: 69 0A 00     	adc	#L6+2
  1948 00:004D: 1B           	tcs
  1949 00:004E: 98           	tya
  Mon Sep 27 2021  9:39                                                Page 44


  1950 00:004F: 6B           	rtl
  1951                        ;}
  1952                        	.line	121
  1953                        	.endblock	121
  1954             00000008   L6	equ	8
  1955             00000009   L7	equ	9
  1956                        	ends
  1957                        	efunc
  1958                        	.endfunc	121,9,8
  1959                        	.line	121
  1960                        ;
  1961                        ;UINT k_dos_get_device_status(UINT index)
  1962                        ;{
  1963                        	.line	123
  1964                        	.line	124
  1965                        	code
  1966                        	xdef	~~k_dos_get_device_status
  1967                        	func
  1968                        	.function	124
  1969                        ~~k_dos_get_device_status:
  1970                        	longa	on
  1971                        	longi	on
  1972 00:0050: 3B           	tsc
  1973 00:0051: 38           	sec
  1974 00:0052: E9 08 00     	sbc	#L10
  1975 00:0055: 1B           	tcs
  1976 00:0056: 0B           	phd
  1977 00:0057: 5B           	tcd
  1978             00000004   index_0	set	4
  1979                        	.block	124
  1980                        ;	return diskioDevices[index]->initialized;
  1981                        	.sym	index,4,16,6,16
  1982                        	.line	125
  1983 00:0058: A5 0C        	lda	<L10+index_0
  1984 00:005A: 0A           	asl	A
  1985 00:005B: 0A           	asl	A
  1986 00:005C: 85 01        	sta	<R0
  1987 00:005E: 18           	clc
  1988 00:005F: A9 xx xx     	lda	#<~~diskioDevices
  1989 00:0062: 65 01        	adc	<R0
  1990 00:0064: 85 05        	sta	<R1
  1991 00:0066: B2 05        	lda	(<R1)
  1992 00:0068: 85 01        	sta	<R0
  1993 00:006A: A0 02 00     	ldy	#$2
  1994 00:006D: B1 05        	lda	(<R1),Y
  1995 00:006F: 85 03        	sta	<R0+2
  1996 00:0071: A0 01 00     	ldy	#$1
  1997 00:0074: B7 01        	lda	[<R0],Y
  1998 00:0076: 29 FF 00     	and	#$ff
  1999                        L13:
  2000 00:0079: A8           	tay
  2001 00:007A: A5 0A        	lda	<L10+2
  2002 00:007C: 85 0C        	sta	<L10+2+2
  2003 00:007E: A5 09        	lda	<L10+1
  2004 00:0080: 85 0B        	sta	<L10+1+2
  2005 00:0082: 2B           	pld
  2006 00:0083: 3B           	tsc
  2007 00:0084: 18           	clc
  Mon Sep 27 2021  9:39                                                Page 45


  2008 00:0085: 69 0A 00     	adc	#L10+2
  2009 00:0088: 1B           	tcs
  2010 00:0089: 98           	tya
  2011 00:008A: 6B           	rtl
  2012                        ;}
  2013                        	.line	126
  2014                        	.endblock	126
  2015             00000008   L10	equ	8
  2016             00000009   L11	equ	9
  2017                        	ends
  2018                        	efunc
  2019                        	.endfunc	126,9,8
  2020                        	.line	126
  2021                        ;
  2022                        ;/*-----------------------------------------------
                    ------------------------*/
  2023                        ;/* Get Drive Status                              
                                            */
  2024                        ;/*-----------------------------------------------
                    ------------------------*/
  2025                        ;
  2026                        ;DSTATUS disk_status (
  2027                        ;	BYTE pdrv		/* Physical drive nmuber
                     to identify the drive */
  2028                        ;)
  2029                        ;{
  2030                        	.line	132
  2031                        	.line	135
  2032                        	code
  2033                        	xdef	~~disk_status
  2034                        	func
  2035                        	.function	135
  2036                        ~~disk_status:
  2037                        	longa	on
  2038                        	longi	on
  2039 00:008B: 3B           	tsc
  2040 00:008C: 38           	sec
  2041 00:008D: E9 0B 00     	sbc	#L14
  2042 00:0090: 1B           	tcs
  2043 00:0091: 0B           	phd
  2044 00:0092: 5B           	tcd
  2045             00000004   pdrv_0	set	4
  2046                        	.block	135
  2047                        ;	DSTATUS stat = STA_NOINIT;
  2048                        ;	int result;
  2049                        ;
  2050                        ;	//k_debug_hex("disk_status:",pdrv);
  2051                        ;
  2052                        ;	switch (pdrv)
  2053             00000000   stat_1	set	0
  2054             00000001   result_1	set	1
  2055                        	.sym	stat,0,14,1,8
  2056                        	.sym	result,1,5,1,16
  2057                        	.sym	pdrv,4,14,6,8
  2058 00:0093: E2 20        	sep	#$20
  2059                        	longa	off
  2060 00:0095: A9 01        	lda	#$1
  2061 00:0097: 85 09        	sta	<L15+stat_1
  Mon Sep 27 2021  9:39                                                Page 46


  2062 00:0099: C2 20        	rep	#$20
  2063                        	longa	on
  2064                        	.line	141
  2065 00:009B: A5 0F        	lda	<L14+pdrv_0
  2066 00:009D: 29 FF 00     	and	#$ff
  2067 00:00A0: 82 D9 00     	brl	L10001
  2068                        ;	{
  2069                        	.line	142
  2070                        ;	case 0x00:
  2071                        	.line	143
  2072                        L10003:
  2073                        ;
  2074                        ;		return RES_OK;
  2075                        	.line	145
  2076 00:00A3: A9 00 00     	lda	#$0
  2077                        L17:
  2078 00:00A6: A8           	tay
  2079 00:00A7: A5 0D        	lda	<L14+2
  2080 00:00A9: 85 0F        	sta	<L14+2+2
  2081 00:00AB: A5 0C        	lda	<L14+1
  2082 00:00AD: 85 0E        	sta	<L14+1+2
  2083 00:00AF: 2B           	pld
  2084 00:00B0: 3B           	tsc
  2085 00:00B1: 18           	clc
  2086 00:00B2: 69 0D 00     	adc	#L14+2
  2087 00:00B5: 1B           	tcs
  2088 00:00B6: 98           	tya
  2089 00:00B7: 6B           	rtl
  2090                        ;		break;
  2091                        	.line	146
  2092                        ;	case 0x03 :
  2093                        	.line	147
  2094                        L10004:
  2095                        ;
  2096                        ;
  2097                        ;		if(diskioDevices[pdrv] != NULL)
  2098                        	.line	150
  2099                        ;		{
  2100 00:00B8: A5 0F        	lda	<L14+pdrv_0
  2101 00:00BA: 29 FF 00     	and	#$ff
  2102 00:00BD: 85 05        	sta	<R1
  2103 00:00BF: A5 05        	lda	<R1
  2104 00:00C1: 0A           	asl	A
  2105 00:00C2: 0A           	asl	A
  2106 00:00C3: 85 01        	sta	<R0
  2107 00:00C5: 18           	clc
  2108 00:00C6: A9 xx xx     	lda	#<~~diskioDevices
  2109 00:00C9: 65 01        	adc	<R0
  2110 00:00CB: 85 05        	sta	<R1
  2111 00:00CD: B2 05        	lda	(<R1)
  2112 00:00CF: A0 02 00     	ldy	#$2
  2113 00:00D2: 11 05        	ora	(<R1),Y
  2114 00:00D4: D0 03        	bne	L18
  2115 00:00D6: 82 33 00     	brl	L10005
  2116                        L18:
  2117                        	.line	151
  2118                        ;			if(diskioDevices[pdrv]->initiali
                    zed)
  Mon Sep 27 2021  9:39                                                Page 47


  2119                        	.line	152
  2120                        ;			{
  2121 00:00D9: A5 0F        	lda	<L14+pdrv_0
  2122 00:00DB: 29 FF 00     	and	#$ff
  2123 00:00DE: 85 05        	sta	<R1
  2124 00:00E0: A5 05        	lda	<R1
  2125 00:00E2: 0A           	asl	A
  2126 00:00E3: 0A           	asl	A
  2127 00:00E4: 85 01        	sta	<R0
  2128 00:00E6: 18           	clc
  2129 00:00E7: A9 xx xx     	lda	#<~~diskioDevices
  2130 00:00EA: 65 01        	adc	<R0
  2131 00:00EC: 85 05        	sta	<R1
  2132 00:00EE: B2 05        	lda	(<R1)
  2133 00:00F0: 85 01        	sta	<R0
  2134 00:00F2: A0 02 00     	ldy	#$2
  2135 00:00F5: B1 05        	lda	(<R1),Y
  2136 00:00F7: 85 03        	sta	<R0+2
  2137 00:00F9: A0 01 00     	ldy	#$1
  2138 00:00FC: B7 01        	lda	[<R0],Y
  2139 00:00FE: 29 FF 00     	and	#$ff
  2140 00:0101: D0 03        	bne	L19
  2141 00:0103: 82 06 00     	brl	L10006
  2142                        L19:
  2143                        	.line	153
  2144                        ;				return RES_OK;
  2145                        	.line	154
  2146 00:0106: A9 00 00     	lda	#$0
  2147 00:0109: 82 9A FF     	brl	L17
  2148                        ;			}
  2149                        	.line	155
  2150                        ;		}
  2151                        L10006:
  2152                        	.line	156
  2153                        ;
  2154                        ;		return RES_OK;
  2155                        L10005:
  2156                        	.line	158
  2157 00:010C: A9 00 00     	lda	#$0
  2158 00:010F: 82 94 FF     	brl	L17
  2159                        ;		break;
  2160                        	.line	159
  2161                        ;	case 0x04 :
  2162                        	.line	160
  2163                        L10007:
  2164                        ;
  2165                        ;
  2166                        ;		if(diskioDevices[pdrv] != NULL)
  2167                        	.line	163
  2168                        ;		{
  2169 00:0112: A5 0F        	lda	<L14+pdrv_0
  2170 00:0114: 29 FF 00     	and	#$ff
  2171 00:0117: 85 05        	sta	<R1
  2172 00:0119: A5 05        	lda	<R1
  2173 00:011B: 0A           	asl	A
  2174 00:011C: 0A           	asl	A
  2175 00:011D: 85 01        	sta	<R0
  2176 00:011F: 18           	clc
  Mon Sep 27 2021  9:39                                                Page 48


  2177 00:0120: A9 xx xx     	lda	#<~~diskioDevices
  2178 00:0123: 65 01        	adc	<R0
  2179 00:0125: 85 05        	sta	<R1
  2180 00:0127: B2 05        	lda	(<R1)
  2181 00:0129: A0 02 00     	ldy	#$2
  2182 00:012C: 11 05        	ora	(<R1),Y
  2183 00:012E: D0 03        	bne	L20
  2184 00:0130: 82 33 00     	brl	L10008
  2185                        L20:
  2186                        	.line	164
  2187                        ;			if(diskioDevices[pdrv]->initiali
                    zed)
  2188                        	.line	165
  2189                        ;			{
  2190 00:0133: A5 0F        	lda	<L14+pdrv_0
  2191 00:0135: 29 FF 00     	and	#$ff
  2192 00:0138: 85 05        	sta	<R1
  2193 00:013A: A5 05        	lda	<R1
  2194 00:013C: 0A           	asl	A
  2195 00:013D: 0A           	asl	A
  2196 00:013E: 85 01        	sta	<R0
  2197 00:0140: 18           	clc
  2198 00:0141: A9 xx xx     	lda	#<~~diskioDevices
  2199 00:0144: 65 01        	adc	<R0
  2200 00:0146: 85 05        	sta	<R1
  2201 00:0148: B2 05        	lda	(<R1)
  2202 00:014A: 85 01        	sta	<R0
  2203 00:014C: A0 02 00     	ldy	#$2
  2204 00:014F: B1 05        	lda	(<R1),Y
  2205 00:0151: 85 03        	sta	<R0+2
  2206 00:0153: A0 01 00     	ldy	#$1
  2207 00:0156: B7 01        	lda	[<R0],Y
  2208 00:0158: 29 FF 00     	and	#$ff
  2209 00:015B: D0 03        	bne	L21
  2210 00:015D: 82 06 00     	brl	L10009
  2211                        L21:
  2212                        	.line	166
  2213                        ;				return RES_OK;
  2214                        	.line	167
  2215 00:0160: A9 00 00     	lda	#$0
  2216 00:0163: 82 40 FF     	brl	L17
  2217                        ;			}
  2218                        	.line	168
  2219                        ;		}
  2220                        L10009:
  2221                        	.line	169
  2222                        ;
  2223                        ;		return RES_OK;
  2224                        L10008:
  2225                        	.line	171
  2226 00:0166: A9 00 00     	lda	#$0
  2227 00:0169: 82 3A FF     	brl	L17
  2228                        ;
  2229                        ;		break;
  2230                        	.line	173
  2231                        ;	case DEV_MMC :
  2232                        	.line	174
  2233                        L10010:
  Mon Sep 27 2021  9:39                                                Page 49


  2234                        ;		//result = MMC_disk_status();
  2235                        ;
  2236                        ;		// translate the reslut code here
  2237                        ;
  2238                        ;		return stat;
  2239                        	.line	179
  2240 00:016C: A5 09        	lda	<L15+stat_1
  2241 00:016E: 29 FF 00     	and	#$ff
  2242 00:0171: 82 32 FF     	brl	L17
  2243                        ;
  2244                        ;		break;
  2245                        	.line	181
  2246                        ;	case DEV_USB :
  2247                        	.line	182
  2248                        L10011:
  2249                        ;		//result = USB_disk_status();
  2250                        ;
  2251                        ;		// translate the reslut code here
  2252                        ;
  2253                        ;		return stat;
  2254                        	.line	187
  2255 00:0174: A5 09        	lda	<L15+stat_1
  2256 00:0176: 29 FF 00     	and	#$ff
  2257 00:0179: 82 2A FF     	brl	L17
  2258                        ;	}
  2259                        	.line	188
  2260                        L10001:
  2261                        	xref	~~~fsw
  2262 00:017C: 22 xx xx xx  	jsl	~~~fsw
  2263 00:0180: 00 00        	dw	0
  2264 00:0182: 05 00        	dw	5
  2265 00:0184: xx xx        	dw	L10002-1
  2266 00:0186: xx xx        	dw	L10003-1
  2267 00:0188: xx xx        	dw	L10010-1
  2268 00:018A: xx xx        	dw	L10011-1
  2269 00:018C: xx xx        	dw	L10004-1
  2270 00:018E: xx xx        	dw	L10007-1
  2271                        L10002:
  2272                        ;	return STA_NOINIT;
  2273                        	.line	189
  2274 00:0190: A9 01 00     	lda	#$1
  2275 00:0193: 82 10 FF     	brl	L17
  2276                        ;}
  2277                        	.line	190
  2278                        	.endblock	190
  2279             0000000B   L14	equ	11
  2280             00000009   L15	equ	9
  2281                        	ends
  2282                        	efunc
  2283                        	.endfunc	190,9,11
  2284                        	.line	190
  2285                        ;
  2286                        ;
  2287                        ;
  2288                        ;/*-----------------------------------------------
                    ------------------------*/
  2289                        ;/* Initialize a Drive                            
                                            */
  Mon Sep 27 2021  9:39                                                Page 50


  2290                        ;/*-----------------------------------------------
                    ------------------------*/
  2291                        ;
  2292                        ;DSTATUS disk_initialize (
  2293                        ;	BYTE pdrv				/* Physi
                    cal drive nmuber to identify the drive */
  2294                        ;)
  2295                        ;{
  2296                        	.line	198
  2297                        	.line	201
  2298                        	code
  2299                        	xdef	~~disk_initialize
  2300                        	func
  2301                        	.function	201
  2302                        ~~disk_initialize:
  2303                        	longa	on
  2304                        	longi	on
  2305 00:0196: 3B           	tsc
  2306 00:0197: 38           	sec
  2307 00:0198: E9 0B 00     	sbc	#L22
  2308 00:019B: 1B           	tcs
  2309 00:019C: 0B           	phd
  2310 00:019D: 5B           	tcd
  2311             00000004   pdrv_0	set	4
  2312                        	.block	201
  2313                        ;	DSTATUS stat = STA_NOINIT;
  2314                        ;	int result = 0;
  2315                        ;
  2316                        ;	//k_debug_hex("disk_initialize:",pdrv);
  2317                        ;	//k_debuginteger( "------- disk_initialize:dev:"
                    ,pdrv);
  2318                        ;	//k_debugstring("------- disk_initialize...\r\n"
                    );
  2319                        ;
  2320                        ;	switch (pdrv)
  2321             00000000   stat_1	set	0
  2322             00000001   result_1	set	1
  2323                        	.sym	stat,0,14,1,8
  2324                        	.sym	result,1,5,1,16
  2325                        	.sym	pdrv,4,14,6,8
  2326 00:019E: E2 20        	sep	#$20
  2327                        	longa	off
  2328 00:01A0: A9 01        	lda	#$1
  2329 00:01A2: 85 09        	sta	<L23+stat_1
  2330 00:01A4: C2 20        	rep	#$20
  2331                        	longa	on
  2332 00:01A6: 64 0A        	stz	<L23+result_1
  2333                        	.line	209
  2334 00:01A8: A5 0F        	lda	<L22+pdrv_0
  2335 00:01AA: 29 FF 00     	and	#$ff
  2336 00:01AD: 82 77 02     	brl	L10012
  2337                        ;	{
  2338                        	.line	210
  2339                        ;	case 0x00:
  2340                        	.line	211
  2341                        L10014:
  2342                        ;
  2343                        ;		return RES_OK;
  Mon Sep 27 2021  9:39                                                Page 51


  2344                        	.line	213
  2345 00:01B0: A9 00 00     	lda	#$0
  2346                        L25:
  2347 00:01B3: A8           	tay
  2348 00:01B4: A5 0D        	lda	<L22+2
  2349 00:01B6: 85 0F        	sta	<L22+2+2
  2350 00:01B8: A5 0C        	lda	<L22+1
  2351 00:01BA: 85 0E        	sta	<L22+1+2
  2352 00:01BC: 2B           	pld
  2353 00:01BD: 3B           	tsc
  2354 00:01BE: 18           	clc
  2355 00:01BF: 69 0D 00     	adc	#L22+2
  2356 00:01C2: 1B           	tcs
  2357 00:01C3: 98           	tya
  2358 00:01C4: 6B           	rtl
  2359                        ;		break;
  2360                        	.line	214
  2361                        ;
  2362                        ;	case 0x03 :
  2363                        	.line	216
  2364                        L10015:
  2365                        ;		if(diskioDevices[pdrv] == NULL)
  2366                        	.line	217
  2367                        ;		{
  2368 00:01C5: A5 0F        	lda	<L22+pdrv_0
  2369 00:01C7: 29 FF 00     	and	#$ff
  2370 00:01CA: 85 05        	sta	<R1
  2371 00:01CC: A5 05        	lda	<R1
  2372 00:01CE: 0A           	asl	A
  2373 00:01CF: 0A           	asl	A
  2374 00:01D0: 85 01        	sta	<R0
  2375 00:01D2: 18           	clc
  2376 00:01D3: A9 xx xx     	lda	#<~~diskioDevices
  2377 00:01D6: 65 01        	adc	<R0
  2378 00:01D8: 85 05        	sta	<R1
  2379 00:01DA: B2 05        	lda	(<R1)
  2380 00:01DC: A0 02 00     	ldy	#$2
  2381 00:01DF: 11 05        	ora	(<R1),Y
  2382 00:01E1: F0 03        	beq	L26
  2383 00:01E3: 82 2E 00     	brl	L10016
  2384                        L26:
  2385                        	.line	218
  2386                        ;			//k_debug_hex("FIRST disk_initia
                    lize:",pdrv);
  2387                        ;			diskioDevices[pdrv] =  k_create_
                    dos_device(FXDOS_SDC);
  2388                        	.line	220
  2389 00:01E6: A5 0F        	lda	<L22+pdrv_0
  2390 00:01E8: 29 FF 00     	and	#$ff
  2391 00:01EB: 85 05        	sta	<R1
  2392 00:01ED: A5 05        	lda	<R1
  2393 00:01EF: 0A           	asl	A
  2394 00:01F0: 0A           	asl	A
  2395 00:01F1: 85 01        	sta	<R0
  2396 00:01F3: 18           	clc
  2397 00:01F4: A9 xx xx     	lda	#<~~diskioDevices
  2398 00:01F7: 65 01        	adc	<R0
  2399 00:01F9: 85 05        	sta	<R1
  Mon Sep 27 2021  9:39                                                Page 52


  2400 00:01FB: F4 05 00     	pea	#<$5
  2401 00:01FE: 22 xx xx xx  	jsl	~~k_create_dos_device
  2402 00:0202: 85 01        	sta	<R0
  2403 00:0204: 86 03        	stx	<R0+2
  2404 00:0206: A5 01        	lda	<R0
  2405 00:0208: 92 05        	sta	(<R1)
  2406 00:020A: A5 03        	lda	<R0+2
  2407 00:020C: A0 02 00     	ldy	#$2
  2408 00:020F: 91 05        	sta	(<R1),Y
  2409                        ;		}
  2410                        	.line	221
  2411                        ;		else
  2412 00:0211: 82 7D 00     	brl	L10017
  2413                        L10016:
  2414                        ;		{
  2415                        	.line	223
  2416                        ;			if(diskioDevices[pdrv]->initiali
                    zed != TRUE)
  2417                        	.line	224
  2418                        ;			{
  2419 00:0214: A5 0F        	lda	<L22+pdrv_0
  2420 00:0216: 29 FF 00     	and	#$ff
  2421 00:0219: 85 05        	sta	<R1
  2422 00:021B: A5 05        	lda	<R1
  2423 00:021D: 0A           	asl	A
  2424 00:021E: 0A           	asl	A
  2425 00:021F: 85 01        	sta	<R0
  2426 00:0221: 18           	clc
  2427 00:0222: A9 xx xx     	lda	#<~~diskioDevices
  2428 00:0225: 65 01        	adc	<R0
  2429 00:0227: 85 05        	sta	<R1
  2430 00:0229: B2 05        	lda	(<R1)
  2431 00:022B: 85 01        	sta	<R0
  2432 00:022D: A0 02 00     	ldy	#$2
  2433 00:0230: B1 05        	lda	(<R1),Y
  2434 00:0232: 85 03        	sta	<R0+2
  2435 00:0234: E2 20        	sep	#$20
  2436                        	longa	off
  2437 00:0236: A0 01 00     	ldy	#$1
  2438 00:0239: B7 01        	lda	[<R0],Y
  2439 00:023B: C9 01        	cmp	#<$1
  2440 00:023D: C2 20        	rep	#$20
  2441                        	longa	on
  2442 00:023F: D0 03        	bne	L27
  2443 00:0241: 82 4D 00     	brl	L10018
  2444                        L27:
  2445                        	.line	225
  2446                        ;				//k_debug_hex("RESTART d
                    isk_initialize:",pdrv);
  2447                        ;				k_mem_deallocate_heap(di
                    skioDevices[pdrv]);
  2448                        	.line	227
  2449 00:0244: A5 0F        	lda	<L22+pdrv_0
  2450 00:0246: 29 FF 00     	and	#$ff
  2451 00:0249: 85 05        	sta	<R1
  2452 00:024B: A5 05        	lda	<R1
  2453 00:024D: 0A           	asl	A
  2454 00:024E: 0A           	asl	A
  Mon Sep 27 2021  9:39                                                Page 53


  2455 00:024F: 85 01        	sta	<R0
  2456 00:0251: 18           	clc
  2457 00:0252: A9 xx xx     	lda	#<~~diskioDevices
  2458 00:0255: 65 01        	adc	<R0
  2459 00:0257: 85 05        	sta	<R1
  2460 00:0259: A0 02 00     	ldy	#$2
  2461 00:025C: B1 05        	lda	(<R1),Y
  2462 00:025E: 48           	pha
  2463 00:025F: B2 05        	lda	(<R1)
  2464 00:0261: 48           	pha
  2465 00:0262: 22 xx xx xx  	jsl	~~k_mem_deallocate_heap
  2466                        ;				diskioDevices[pdrv] =  k
                    _create_dos_device(FXDOS_SDC);
  2467                        	.line	228
  2468 00:0266: A5 0F        	lda	<L22+pdrv_0
  2469 00:0268: 29 FF 00     	and	#$ff
  2470 00:026B: 85 05        	sta	<R1
  2471 00:026D: A5 05        	lda	<R1
  2472 00:026F: 0A           	asl	A
  2473 00:0270: 0A           	asl	A
  2474 00:0271: 85 01        	sta	<R0
  2475 00:0273: 18           	clc
  2476 00:0274: A9 xx xx     	lda	#<~~diskioDevices
  2477 00:0277: 65 01        	adc	<R0
  2478 00:0279: 85 05        	sta	<R1
  2479 00:027B: F4 05 00     	pea	#<$5
  2480 00:027E: 22 xx xx xx  	jsl	~~k_create_dos_device
  2481 00:0282: 85 01        	sta	<R0
  2482 00:0284: 86 03        	stx	<R0+2
  2483 00:0286: A5 01        	lda	<R0
  2484 00:0288: 92 05        	sta	(<R1)
  2485 00:028A: A5 03        	lda	<R0+2
  2486 00:028C: A0 02 00     	ldy	#$2
  2487 00:028F: 91 05        	sta	(<R1),Y
  2488                        ;			}
  2489                        	.line	229
  2490                        ;		}
  2491                        L10018:
  2492                        	.line	230
  2493                        L10017:
  2494                        ;
  2495                        ;		if(diskioDevices[pdrv] && diskioDevices[
                    pdrv]->initialized)
  2496                        	.line	232
  2497                        ;			stat = 0x00;
  2498 00:0291: A5 0F        	lda	<L22+pdrv_0
  2499 00:0293: 29 FF 00     	and	#$ff
  2500 00:0296: 85 05        	sta	<R1
  2501 00:0298: A5 05        	lda	<R1
  2502 00:029A: 0A           	asl	A
  2503 00:029B: 0A           	asl	A
  2504 00:029C: 85 01        	sta	<R0
  2505 00:029E: 18           	clc
  2506 00:029F: A9 xx xx     	lda	#<~~diskioDevices
  2507 00:02A2: 65 01        	adc	<R0
  2508 00:02A4: 85 05        	sta	<R1
  2509 00:02A6: B2 05        	lda	(<R1)
  2510 00:02A8: A0 02 00     	ldy	#$2
  Mon Sep 27 2021  9:39                                                Page 54


  2511 00:02AB: 11 05        	ora	(<R1),Y
  2512 00:02AD: D0 03        	bne	L28
  2513 00:02AF: 82 36 00     	brl	L10019
  2514                        L28:
  2515 00:02B2: A5 0F        	lda	<L22+pdrv_0
  2516 00:02B4: 29 FF 00     	and	#$ff
  2517 00:02B7: 85 05        	sta	<R1
  2518 00:02B9: A5 05        	lda	<R1
  2519 00:02BB: 0A           	asl	A
  2520 00:02BC: 0A           	asl	A
  2521 00:02BD: 85 01        	sta	<R0
  2522 00:02BF: 18           	clc
  2523 00:02C0: A9 xx xx     	lda	#<~~diskioDevices
  2524 00:02C3: 65 01        	adc	<R0
  2525 00:02C5: 85 05        	sta	<R1
  2526 00:02C7: B2 05        	lda	(<R1)
  2527 00:02C9: 85 01        	sta	<R0
  2528 00:02CB: A0 02 00     	ldy	#$2
  2529 00:02CE: B1 05        	lda	(<R1),Y
  2530 00:02D0: 85 03        	sta	<R0+2
  2531 00:02D2: A0 01 00     	ldy	#$1
  2532 00:02D5: B7 01        	lda	[<R0],Y
  2533 00:02D7: 29 FF 00     	and	#$ff
  2534 00:02DA: D0 03        	bne	L29
  2535 00:02DC: 82 09 00     	brl	L10019
  2536                        L29:
  2537                        	.line	233
  2538 00:02DF: E2 20        	sep	#$20
  2539                        	longa	off
  2540 00:02E1: 64 09        	stz	<L23+stat_1
  2541 00:02E3: C2 20        	rep	#$20
  2542                        	longa	on
  2543                        ;		else
  2544 00:02E5: 82 08 00     	brl	L10020
  2545                        L10019:
  2546                        ;			stat = STA_NOINIT;
  2547                        	.line	235
  2548 00:02E8: E2 20        	sep	#$20
  2549                        	longa	off
  2550 00:02EA: A9 01        	lda	#$1
  2551 00:02EC: 85 09        	sta	<L23+stat_1
  2552 00:02EE: C2 20        	rep	#$20
  2553                        	longa	on
  2554                        L10020:
  2555                        ;
  2556                        ;		break;
  2557                        	.line	237
  2558 00:02F0: 82 48 01     	brl	L10013
  2559                        ;	case 0x04:
  2560                        	.line	238
  2561                        L10021:
  2562                        ;
  2563                        ;		if(diskioDevices[pdrv] == NULL)
  2564                        	.line	240
  2565                        ;		{
  2566 00:02F3: A5 0F        	lda	<L22+pdrv_0
  2567 00:02F5: 29 FF 00     	and	#$ff
  2568 00:02F8: 85 05        	sta	<R1
  Mon Sep 27 2021  9:39                                                Page 55


  2569 00:02FA: A5 05        	lda	<R1
  2570 00:02FC: 0A           	asl	A
  2571 00:02FD: 0A           	asl	A
  2572 00:02FE: 85 01        	sta	<R0
  2573 00:0300: 18           	clc
  2574 00:0301: A9 xx xx     	lda	#<~~diskioDevices
  2575 00:0304: 65 01        	adc	<R0
  2576 00:0306: 85 05        	sta	<R1
  2577 00:0308: B2 05        	lda	(<R1)
  2578 00:030A: A0 02 00     	ldy	#$2
  2579 00:030D: 11 05        	ora	(<R1),Y
  2580 00:030F: F0 03        	beq	L30
  2581 00:0311: 82 2E 00     	brl	L10022
  2582                        L30:
  2583                        	.line	241
  2584                        ;			//k_debug_hex("FIRST HD disk_ini
                    tialize:",pdrv);
  2585                        ;			diskioDevices[pdrv] =  k_create_
                    dos_device(FXDOS_HDD);
  2586                        	.line	243
  2587 00:0314: A5 0F        	lda	<L22+pdrv_0
  2588 00:0316: 29 FF 00     	and	#$ff
  2589 00:0319: 85 05        	sta	<R1
  2590 00:031B: A5 05        	lda	<R1
  2591 00:031D: 0A           	asl	A
  2592 00:031E: 0A           	asl	A
  2593 00:031F: 85 01        	sta	<R0
  2594 00:0321: 18           	clc
  2595 00:0322: A9 xx xx     	lda	#<~~diskioDevices
  2596 00:0325: 65 01        	adc	<R0
  2597 00:0327: 85 05        	sta	<R1
  2598 00:0329: F4 06 00     	pea	#<$6
  2599 00:032C: 22 xx xx xx  	jsl	~~k_create_dos_device
  2600 00:0330: 85 01        	sta	<R0
  2601 00:0332: 86 03        	stx	<R0+2
  2602 00:0334: A5 01        	lda	<R0
  2603 00:0336: 92 05        	sta	(<R1)
  2604 00:0338: A5 03        	lda	<R0+2
  2605 00:033A: A0 02 00     	ldy	#$2
  2606 00:033D: 91 05        	sta	(<R1),Y
  2607                        ;		}
  2608                        	.line	244
  2609                        ;		else
  2610 00:033F: 82 7D 00     	brl	L10023
  2611                        L10022:
  2612                        ;		{
  2613                        	.line	246
  2614                        ;			if(diskioDevices[pdrv]->initiali
                    zed != TRUE)
  2615                        	.line	247
  2616                        ;			{
  2617 00:0342: A5 0F        	lda	<L22+pdrv_0
  2618 00:0344: 29 FF 00     	and	#$ff
  2619 00:0347: 85 05        	sta	<R1
  2620 00:0349: A5 05        	lda	<R1
  2621 00:034B: 0A           	asl	A
  2622 00:034C: 0A           	asl	A
  2623 00:034D: 85 01        	sta	<R0
  Mon Sep 27 2021  9:39                                                Page 56


  2624 00:034F: 18           	clc
  2625 00:0350: A9 xx xx     	lda	#<~~diskioDevices
  2626 00:0353: 65 01        	adc	<R0
  2627 00:0355: 85 05        	sta	<R1
  2628 00:0357: B2 05        	lda	(<R1)
  2629 00:0359: 85 01        	sta	<R0
  2630 00:035B: A0 02 00     	ldy	#$2
  2631 00:035E: B1 05        	lda	(<R1),Y
  2632 00:0360: 85 03        	sta	<R0+2
  2633 00:0362: E2 20        	sep	#$20
  2634                        	longa	off
  2635 00:0364: A0 01 00     	ldy	#$1
  2636 00:0367: B7 01        	lda	[<R0],Y
  2637 00:0369: C9 01        	cmp	#<$1
  2638 00:036B: C2 20        	rep	#$20
  2639                        	longa	on
  2640 00:036D: D0 03        	bne	L31
  2641 00:036F: 82 4D 00     	brl	L10024
  2642                        L31:
  2643                        	.line	248
  2644                        ;				//k_debug_hex("RESTART H
                    D disk_initialize:",pdrv);
  2645                        ;				k_mem_deallocate_heap(di
                    skioDevices[pdrv]);
  2646                        	.line	250
  2647 00:0372: A5 0F        	lda	<L22+pdrv_0
  2648 00:0374: 29 FF 00     	and	#$ff
  2649 00:0377: 85 05        	sta	<R1
  2650 00:0379: A5 05        	lda	<R1
  2651 00:037B: 0A           	asl	A
  2652 00:037C: 0A           	asl	A
  2653 00:037D: 85 01        	sta	<R0
  2654 00:037F: 18           	clc
  2655 00:0380: A9 xx xx     	lda	#<~~diskioDevices
  2656 00:0383: 65 01        	adc	<R0
  2657 00:0385: 85 05        	sta	<R1
  2658 00:0387: A0 02 00     	ldy	#$2
  2659 00:038A: B1 05        	lda	(<R1),Y
  2660 00:038C: 48           	pha
  2661 00:038D: B2 05        	lda	(<R1)
  2662 00:038F: 48           	pha
  2663 00:0390: 22 xx xx xx  	jsl	~~k_mem_deallocate_heap
  2664                        ;				diskioDevices[pdrv] =  k
                    _create_dos_device(FXDOS_HDD);
  2665                        	.line	251
  2666 00:0394: A5 0F        	lda	<L22+pdrv_0
  2667 00:0396: 29 FF 00     	and	#$ff
  2668 00:0399: 85 05        	sta	<R1
  2669 00:039B: A5 05        	lda	<R1
  2670 00:039D: 0A           	asl	A
  2671 00:039E: 0A           	asl	A
  2672 00:039F: 85 01        	sta	<R0
  2673 00:03A1: 18           	clc
  2674 00:03A2: A9 xx xx     	lda	#<~~diskioDevices
  2675 00:03A5: 65 01        	adc	<R0
  2676 00:03A7: 85 05        	sta	<R1
  2677 00:03A9: F4 06 00     	pea	#<$6
  2678 00:03AC: 22 xx xx xx  	jsl	~~k_create_dos_device
  Mon Sep 27 2021  9:39                                                Page 57


  2679 00:03B0: 85 01        	sta	<R0
  2680 00:03B2: 86 03        	stx	<R0+2
  2681 00:03B4: A5 01        	lda	<R0
  2682 00:03B6: 92 05        	sta	(<R1)
  2683 00:03B8: A5 03        	lda	<R0+2
  2684 00:03BA: A0 02 00     	ldy	#$2
  2685 00:03BD: 91 05        	sta	(<R1),Y
  2686                        ;			}
  2687                        	.line	252
  2688                        ;		}
  2689                        L10024:
  2690                        	.line	253
  2691                        L10023:
  2692                        ;
  2693                        ;		if(diskioDevices[pdrv] && diskioDevices[
                    pdrv]->initialized)
  2694                        	.line	255
  2695                        ;			stat = 0x00;
  2696 00:03BF: A5 0F        	lda	<L22+pdrv_0
  2697 00:03C1: 29 FF 00     	and	#$ff
  2698 00:03C4: 85 05        	sta	<R1
  2699 00:03C6: A5 05        	lda	<R1
  2700 00:03C8: 0A           	asl	A
  2701 00:03C9: 0A           	asl	A
  2702 00:03CA: 85 01        	sta	<R0
  2703 00:03CC: 18           	clc
  2704 00:03CD: A9 xx xx     	lda	#<~~diskioDevices
  2705 00:03D0: 65 01        	adc	<R0
  2706 00:03D2: 85 05        	sta	<R1
  2707 00:03D4: B2 05        	lda	(<R1)
  2708 00:03D6: A0 02 00     	ldy	#$2
  2709 00:03D9: 11 05        	ora	(<R1),Y
  2710 00:03DB: D0 03        	bne	L32
  2711 00:03DD: 82 36 00     	brl	L10025
  2712                        L32:
  2713 00:03E0: A5 0F        	lda	<L22+pdrv_0
  2714 00:03E2: 29 FF 00     	and	#$ff
  2715 00:03E5: 85 05        	sta	<R1
  2716 00:03E7: A5 05        	lda	<R1
  2717 00:03E9: 0A           	asl	A
  2718 00:03EA: 0A           	asl	A
  2719 00:03EB: 85 01        	sta	<R0
  2720 00:03ED: 18           	clc
  2721 00:03EE: A9 xx xx     	lda	#<~~diskioDevices
  2722 00:03F1: 65 01        	adc	<R0
  2723 00:03F3: 85 05        	sta	<R1
  2724 00:03F5: B2 05        	lda	(<R1)
  2725 00:03F7: 85 01        	sta	<R0
  2726 00:03F9: A0 02 00     	ldy	#$2
  2727 00:03FC: B1 05        	lda	(<R1),Y
  2728 00:03FE: 85 03        	sta	<R0+2
  2729 00:0400: A0 01 00     	ldy	#$1
  2730 00:0403: B7 01        	lda	[<R0],Y
  2731 00:0405: 29 FF 00     	and	#$ff
  2732 00:0408: D0 03        	bne	L33
  2733 00:040A: 82 09 00     	brl	L10025
  2734                        L33:
  2735                        	.line	256
  Mon Sep 27 2021  9:39                                                Page 58


  2736 00:040D: E2 20        	sep	#$20
  2737                        	longa	off
  2738 00:040F: 64 09        	stz	<L23+stat_1
  2739 00:0411: C2 20        	rep	#$20
  2740                        	longa	on
  2741                        ;		else
  2742 00:0413: 82 08 00     	brl	L10026
  2743                        L10025:
  2744                        ;			stat = STA_NOINIT;
  2745                        	.line	258
  2746 00:0416: E2 20        	sep	#$20
  2747                        	longa	off
  2748 00:0418: A9 01        	lda	#$1
  2749 00:041A: 85 09        	sta	<L23+stat_1
  2750 00:041C: C2 20        	rep	#$20
  2751                        	longa	on
  2752                        L10026:
  2753                        ;
  2754                        ;
  2755                        ;		break;
  2756                        	.line	261
  2757 00:041E: 82 1A 00     	brl	L10013
  2758                        ;	case DEV_MMC :
  2759                        	.line	262
  2760                        L10027:
  2761                        ;		//result = MMC_disk_initialize();
  2762                        ;
  2763                        ;		// translate the reslut code here
  2764                        ;
  2765                        ;		//return stat;
  2766                        ;		break;
  2767                        	.line	268
  2768 00:0421: 82 17 00     	brl	L10013
  2769                        ;	case DEV_USB :
  2770                        	.line	269
  2771                        L10028:
  2772                        ;		//result = USB_disk_initialize();
  2773                        ;
  2774                        ;		// translate the reslut code here
  2775                        ;
  2776                        ;		//return stat;
  2777                        ;		break;
  2778                        	.line	275
  2779 00:0424: 82 14 00     	brl	L10013
  2780                        ;	}
  2781                        	.line	276
  2782                        L10012:
  2783                        	xref	~~~fsw
  2784 00:0427: 22 xx xx xx  	jsl	~~~fsw
  2785 00:042B: 00 00        	dw	0
  2786 00:042D: 05 00        	dw	5
  2787 00:042F: xx xx        	dw	L10013-1
  2788 00:0431: xx xx        	dw	L10014-1
  2789 00:0433: xx xx        	dw	L10027-1
  2790 00:0435: xx xx        	dw	L10028-1
  2791 00:0437: xx xx        	dw	L10015-1
  2792 00:0439: xx xx        	dw	L10021-1
  2793                        L10013:
  Mon Sep 27 2021  9:39                                                Page 59


  2794                        ;
  2795                        ;	//k_debugstring("------- disk_initialize exit\r\
                    n");
  2796                        ;
  2797                        ;	return stat;
  2798                        	.line	280
  2799 00:043B: A5 09        	lda	<L23+stat_1
  2800 00:043D: 29 FF 00     	and	#$ff
  2801 00:0440: 82 70 FD     	brl	L25
  2802                        ;}
  2803                        	.line	281
  2804                        	.endblock	281
  2805             0000000B   L22	equ	11
  2806             00000009   L23	equ	9
  2807                        	ends
  2808                        	efunc
  2809                        	.endfunc	281,9,11
  2810                        	.line	281
  2811                        ;
  2812                        ;
  2813                        ;
  2814                        ;/*-----------------------------------------------
                    ------------------------*/
  2815                        ;/* Read Sector(s)                                
                                            */
  2816                        ;/*-----------------------------------------------
                    ------------------------*/
  2817                        ;
  2818                        ;DRESULT disk_read (
  2819                        ;	BYTE pdrv,		/* Physical drive nmuber
                     to identify the drive */
  2820                        ;	BYTE *buff,		/* Data buffer to store 
                    read data */
  2821                        ;	LBA_t sector,	/* Start sector in LBA */
  2822                        ;	UINT count		/* Number of sectors to 
                    read */
  2823                        ;)
  2824                        ;{
  2825                        	.line	289
  2826                        	.line	295
  2827                        	code
  2828                        	xdef	~~disk_read
  2829                        	func
  2830                        	.function	295
  2831                        ~~disk_read:
  2832                        	longa	on
  2833                        	longi	on
  2834 00:0443: 3B           	tsc
  2835 00:0444: 38           	sec
  2836 00:0445: E9 16 00     	sbc	#L34
  2837 00:0448: 1B           	tcs
  2838 00:0449: 0B           	phd
  2839 00:044A: 5B           	tcd
  2840             00000004   pdrv_0	set	4
  2841             00000006   buff_0	set	6
  2842             0000000A   sector_0	set	10
  2843             0000000E   count_0	set	14
  2844                        	.block	295
  Mon Sep 27 2021  9:39                                                Page 60


  2845                        ;	DRESULT res;
  2846                        ;	int result = RES_PARERR;
  2847                        ;	int i;
  2848                        ;
  2849                        ;	//k_debug_integer( "------- disk_read:dev:",pdrv
                    );
  2850                        ;	//k_debug_long("------- disk_read:sector:",secto
                    r);
  2851                        ;	//k_debug_integer("------- disk_read:count:",cou
                    nt);
  2852                        ;
  2853                        ;	//k_debug_hex("disk_read:",pdrv);
  2854                        ;
  2855                        ;	switch (pdrv)
  2856             00000000   res_1	set	0
  2857             00000002   result_1	set	2
  2858             00000004   i_1	set	4
  2859                        	.sym	res,0,5,1,16
  2860                        	.sym	result,2,5,1,16
  2861                        	.sym	i,4,5,1,16
  2862                        	.sym	pdrv,4,14,6,8
  2863                        	.sym	buff,6,142,6,32
  2864                        	.sym	sector,10,18,6,32
  2865                        	.sym	count,14,16,6,16
  2866 00:044B: A9 04 00     	lda	#$4
  2867 00:044E: 85 13        	sta	<L35+result_1
  2868                        	.line	306
  2869 00:0450: A5 1A        	lda	<L34+pdrv_0
  2870 00:0452: 29 FF 00     	and	#$ff
  2871 00:0455: 82 66 02     	brl	L10029
  2872                        ;	{
  2873                        	.line	307
  2874                        ;	case 0x00:
  2875                        	.line	308
  2876                        L10031:
  2877                        ;
  2878                        ;		k_debug_long("------- disk_read:RAM:sect
                    or:",sector);
  2879                        	.line	310
  2880 00:0458: D4 22        	pei	<L34+sector_0+2
  2881 00:045A: D4 20        	pei	<L34+sector_0
  2882 00:045C: F4 xx xx     	pea	#^L1
  2883 00:045F: F4 xx xx     	pea	#<L1
  2884 00:0462: 22 xx xx xx  	jsl	~~k_debug_long
  2885                        ;		k_debug_integer("------- disk_read:RAM:c
                    ount:",count);
  2886                        	.line	311
  2887 00:0466: D4 24        	pei	<L34+count_0
  2888 00:0468: F4 xx xx     	pea	#^L1+30
  2889 00:046B: F4 xx xx     	pea	#<L1+30
  2890 00:046E: 22 xx xx xx  	jsl	~~k_debug_integer
  2891                        ;
  2892                        ;		if(sector == 0)
  2893                        	.line	313
  2894                        ;		{
  2895 00:0472: A5 20        	lda	<L34+sector_0
  2896 00:0474: 05 22        	ora	<L34+sector_0+2
  2897 00:0476: F0 03        	beq	L37
  Mon Sep 27 2021  9:39                                                Page 61


  2898 00:0478: 82 1C 00     	brl	L10032
  2899                        L37:
  2900                        	.line	314
  2901                        ;			memcpy(buff,fake_device_mbr,512)
                    ;
  2902                        	.line	315
  2903 00:047B: F4 00 02     	pea	#<$200
  2904 00:047E: A9 xx xx     	lda	#<~~fake_device_mbr
  2905 00:0481: 85 01        	sta	<R0
  2906                        	xref	_BEG_DATA
  2907 00:0483: A9 xx xx     	lda	#_BEG_DATA>>16
  2908 00:0486: 85 03        	sta	<R0+2
  2909 00:0488: D4 03        	pei	<R0+2
  2910 00:048A: D4 01        	pei	<R0
  2911 00:048C: D4 1E        	pei	<L34+buff_0+2
  2912 00:048E: D4 1C        	pei	<L34+buff_0
  2913 00:0490: 22 xx xx xx  	jsl	~~memcpy
  2914                        ;		}
  2915                        	.line	316
  2916                        ;		else if(sector == 3)
  2917 00:0494: 82 E9 00     	brl	L10033
  2918                        L10032:
  2919                        	.line	317
  2920                        ;		{
  2921 00:0497: A5 20        	lda	<L34+sector_0
  2922 00:0499: C9 03 00     	cmp	#<$3
  2923 00:049C: D0 05        	bne	L38
  2924 00:049E: A5 22        	lda	<L34+sector_0+2
  2925 00:04A0: C9 00 00     	cmp	#^$3
  2926                        L38:
  2927 00:04A3: F0 03        	beq	L39
  2928 00:04A5: 82 2A 00     	brl	L10034
  2929                        L39:
  2930                        	.line	318
  2931                        ;			memset(buff,0,512);
  2932                        	.line	319
  2933 00:04A8: F4 00 02     	pea	#<$200
  2934 00:04AB: F4 00 00     	pea	#<$0
  2935 00:04AE: D4 1E        	pei	<L34+buff_0+2
  2936 00:04B0: D4 1C        	pei	<L34+buff_0
  2937 00:04B2: 22 xx xx xx  	jsl	~~memset
  2938                        ;			memcpy(buff,fake_device_0600,siz
                    eof(fake_device_0600));
  2939                        	.line	320
  2940 00:04B6: F4 60 00     	pea	#<$60
  2941 00:04B9: A9 xx xx     	lda	#<~~fake_device_0600
  2942 00:04BC: 85 01        	sta	<R0
  2943                        	xref	_BEG_DATA
  2944 00:04BE: A9 xx xx     	lda	#_BEG_DATA>>16
  2945 00:04C1: 85 03        	sta	<R0+2
  2946 00:04C3: D4 03        	pei	<R0+2
  2947 00:04C5: D4 01        	pei	<R0
  2948 00:04C7: D4 1E        	pei	<L34+buff_0+2
  2949 00:04C9: D4 1C        	pei	<L34+buff_0
  2950 00:04CB: 22 xx xx xx  	jsl	~~memcpy
  2951                        ;		}
  2952                        	.line	321
  2953                        ;		else if(sector == 10)
  Mon Sep 27 2021  9:39                                                Page 62


  2954 00:04CF: 82 AE 00     	brl	L10035
  2955                        L10034:
  2956                        	.line	322
  2957                        ;		{
  2958 00:04D2: A5 20        	lda	<L34+sector_0
  2959 00:04D4: C9 0A 00     	cmp	#<$a
  2960 00:04D7: D0 05        	bne	L40
  2961 00:04D9: A5 22        	lda	<L34+sector_0+2
  2962 00:04DB: C9 00 00     	cmp	#^$a
  2963                        L40:
  2964 00:04DE: F0 03        	beq	L41
  2965 00:04E0: 82 2A 00     	brl	L10036
  2966                        L41:
  2967                        	.line	323
  2968                        ;			memset(buff,0,512);
  2969                        	.line	324
  2970 00:04E3: F4 00 02     	pea	#<$200
  2971 00:04E6: F4 00 00     	pea	#<$0
  2972 00:04E9: D4 1E        	pei	<L34+buff_0+2
  2973 00:04EB: D4 1C        	pei	<L34+buff_0
  2974 00:04ED: 22 xx xx xx  	jsl	~~memset
  2975                        ;			memcpy(buff,fake_device_1400,siz
                    eof(fake_device_1400));
  2976                        	.line	325
  2977 00:04F1: F4 10 00     	pea	#<$10
  2978 00:04F4: A9 xx xx     	lda	#<~~fake_device_1400
  2979 00:04F7: 85 01        	sta	<R0
  2980                        	xref	_BEG_DATA
  2981 00:04F9: A9 xx xx     	lda	#_BEG_DATA>>16
  2982 00:04FC: 85 03        	sta	<R0+2
  2983 00:04FE: D4 03        	pei	<R0+2
  2984 00:0500: D4 01        	pei	<R0
  2985 00:0502: D4 1E        	pei	<L34+buff_0+2
  2986 00:0504: D4 1C        	pei	<L34+buff_0
  2987 00:0506: 22 xx xx xx  	jsl	~~memcpy
  2988                        ;		}
  2989                        	.line	326
  2990                        ;		else if(sector == 12)
  2991 00:050A: 82 73 00     	brl	L10037
  2992                        L10036:
  2993                        	.line	327
  2994                        ;		{
  2995 00:050D: A5 20        	lda	<L34+sector_0
  2996 00:050F: C9 0C 00     	cmp	#<$c
  2997 00:0512: D0 05        	bne	L42
  2998 00:0514: A5 22        	lda	<L34+sector_0+2
  2999 00:0516: C9 00 00     	cmp	#^$c
  3000                        L42:
  3001 00:0519: F0 03        	beq	L43
  3002 00:051B: 82 2A 00     	brl	L10038
  3003                        L43:
  3004                        	.line	328
  3005                        ;			memset(buff,0,512);
  3006                        	.line	329
  3007 00:051E: F4 00 02     	pea	#<$200
  3008 00:0521: F4 00 00     	pea	#<$0
  3009 00:0524: D4 1E        	pei	<L34+buff_0+2
  3010 00:0526: D4 1C        	pei	<L34+buff_0
  Mon Sep 27 2021  9:39                                                Page 63


  3011 00:0528: 22 xx xx xx  	jsl	~~memset
  3012                        ;			memcpy(buff,fake_device_1800,siz
                    eof(fake_device_1800));
  3013                        	.line	330
  3014 00:052C: F4 00 02     	pea	#<$200
  3015 00:052F: A9 xx xx     	lda	#<~~fake_device_1800
  3016 00:0532: 85 01        	sta	<R0
  3017                        	xref	_BEG_DATA
  3018 00:0534: A9 xx xx     	lda	#_BEG_DATA>>16
  3019 00:0537: 85 03        	sta	<R0+2
  3020 00:0539: D4 03        	pei	<R0+2
  3021 00:053B: D4 01        	pei	<R0
  3022 00:053D: D4 1E        	pei	<L34+buff_0+2
  3023 00:053F: D4 1C        	pei	<L34+buff_0
  3024 00:0541: 22 xx xx xx  	jsl	~~memcpy
  3025                        ;		}
  3026                        	.line	331
  3027                        ;		else if(sector == 13)
  3028 00:0545: 82 38 00     	brl	L10039
  3029                        L10038:
  3030                        	.line	332
  3031                        ;		{
  3032 00:0548: A5 20        	lda	<L34+sector_0
  3033 00:054A: C9 0D 00     	cmp	#<$d
  3034 00:054D: D0 05        	bne	L44
  3035 00:054F: A5 22        	lda	<L34+sector_0+2
  3036 00:0551: C9 00 00     	cmp	#^$d
  3037                        L44:
  3038 00:0554: F0 03        	beq	L45
  3039 00:0556: 82 27 00     	brl	L10040
  3040                        L45:
  3041                        	.line	333
  3042                        ;			memset(buff,0,512);
  3043                        	.line	334
  3044 00:0559: F4 00 02     	pea	#<$200
  3045 00:055C: F4 00 00     	pea	#<$0
  3046 00:055F: D4 1E        	pei	<L34+buff_0+2
  3047 00:0561: D4 1C        	pei	<L34+buff_0
  3048 00:0563: 22 xx xx xx  	jsl	~~memset
  3049                        ;			memcpy(buff,fake_device_1A00,siz
                    eof(fake_device_1A00));
  3050                        	.line	335
  3051 00:0567: F4 60 00     	pea	#<$60
  3052 00:056A: A9 xx xx     	lda	#<~~fake_device_1A00
  3053 00:056D: 85 01        	sta	<R0
  3054                        	xref	_BEG_DATA
  3055 00:056F: A9 xx xx     	lda	#_BEG_DATA>>16
  3056 00:0572: 85 03        	sta	<R0+2
  3057 00:0574: D4 03        	pei	<R0+2
  3058 00:0576: D4 01        	pei	<R0
  3059 00:0578: D4 1E        	pei	<L34+buff_0+2
  3060 00:057A: D4 1C        	pei	<L34+buff_0
  3061 00:057C: 22 xx xx xx  	jsl	~~memcpy
  3062                        ;		}
  3063                        	.line	336
  3064                        ;		res = RES_OK;
  3065                        L10040:
  3066                        L10039:
  Mon Sep 27 2021  9:39                                                Page 64


  3067                        L10037:
  3068                        L10035:
  3069                        L10033:
  3070                        	.line	337
  3071 00:0580: 64 11        	stz	<L35+res_1
  3072                        ;		break;
  3073                        	.line	338
  3074 00:0582: 82 4D 01     	brl	L10030
  3075                        ;
  3076                        ;	case 0x03 :
  3077                        	.line	340
  3078                        L10041:
  3079                        ;		// translate the arguments here
  3080                        ;
  3081                        ;		//k_debugpointer( "------- disk_read:dis
                    kioDevices[pdrv]:",diskioDevices[pdrv]);
  3082                        ;
  3083                        ;		if(diskioDevices[pdrv]!=NULL)
  3084                        	.line	345
  3085                        ;		{
  3086 00:0585: A5 1A        	lda	<L34+pdrv_0
  3087 00:0587: 29 FF 00     	and	#$ff
  3088 00:058A: 85 05        	sta	<R1
  3089 00:058C: A5 05        	lda	<R1
  3090 00:058E: 0A           	asl	A
  3091 00:058F: 0A           	asl	A
  3092 00:0590: 85 01        	sta	<R0
  3093 00:0592: 18           	clc
  3094 00:0593: A9 xx xx     	lda	#<~~diskioDevices
  3095 00:0596: 65 01        	adc	<R0
  3096 00:0598: 85 05        	sta	<R1
  3097 00:059A: B2 05        	lda	(<R1)
  3098 00:059C: A0 02 00     	ldy	#$2
  3099 00:059F: 11 05        	ora	(<R1),Y
  3100 00:05A1: D0 03        	bne	L46
  3101 00:05A3: 82 7D 00     	brl	L10042
  3102                        L46:
  3103                        	.line	346
  3104                        ;			//k_debugpointer( "------- disk_
                    read:buff:",buff);
  3105                        ;
  3106                        ;			for(i=0;i<count;i++)
  3107                        	.line	349
  3108 00:05A6: 64 15        	stz	<L35+i_1
  3109 00:05A8: 82 6D 00     	brl	L10046
  3110                        L10045:
  3111                        ;			{
  3112                        	.line	350
  3113                        ;				//if(count > 1)
  3114                        ;				//{
  3115                        ;				//	k_debug_integer(
                     "------- disk_read:dev:count:",i);
  3116                        ;				//}
  3117                        ;				diskioDevices[pdrv]->pfR
                    eader((sector + i) * 512,buff);
  3118                        	.line	355
  3119 00:05AB: D4 1E        	pei	<L34+buff_0+2
  3120 00:05AD: D4 1C        	pei	<L34+buff_0
  Mon Sep 27 2021  9:39                                                Page 65


  3121 00:05AF: A0 00 00     	ldy	#$0
  3122 00:05B2: A5 15        	lda	<L35+i_1
  3123 00:05B4: 10 01        	bpl	L47
  3124 00:05B6: 88           	dey
  3125                        L47:
  3126 00:05B7: 85 05        	sta	<R1
  3127 00:05B9: 84 07        	sty	<R1+2
  3128 00:05BB: 18           	clc
  3129 00:05BC: A5 05        	lda	<R1
  3130 00:05BE: 65 20        	adc	<L34+sector_0
  3131 00:05C0: 85 09        	sta	<R2
  3132 00:05C2: A5 07        	lda	<R1+2
  3133 00:05C4: 65 22        	adc	<L34+sector_0+2
  3134 00:05C6: 85 0B        	sta	<R2+2
  3135 00:05C8: D4 0B        	pei	<R2+2
  3136 00:05CA: D4 09        	pei	<R2
  3137 00:05CC: A9 09 00     	lda	#$9
  3138                        	xref	~~~lasl
  3139 00:05CF: 22 xx xx xx  	jsl	~~~lasl
  3140 00:05D3: 85 01        	sta	<R0
  3141 00:05D5: 86 03        	stx	<R0+2
  3142 00:05D7: D4 03        	pei	<R0+2
  3143 00:05D9: D4 01        	pei	<R0
  3144 00:05DB: A5 1A        	lda	<L34+pdrv_0
  3145 00:05DD: 29 FF 00     	and	#$ff
  3146 00:05E0: 85 0D        	sta	<R3
  3147 00:05E2: A5 0D        	lda	<R3
  3148 00:05E4: 0A           	asl	A
  3149 00:05E5: 0A           	asl	A
  3150 00:05E6: 85 05        	sta	<R1
  3151 00:05E8: 18           	clc
  3152 00:05E9: A9 xx xx     	lda	#<~~diskioDevices
  3153 00:05EC: 65 05        	adc	<R1
  3154 00:05EE: 85 0D        	sta	<R3
  3155 00:05F0: B2 0D        	lda	(<R3)
  3156 00:05F2: 85 05        	sta	<R1
  3157 00:05F4: A0 02 00     	ldy	#$2
  3158 00:05F7: B1 0D        	lda	(<R3),Y
  3159 00:05F9: 85 07        	sta	<R1+2
  3160 00:05FB: A0 C8 02     	ldy	#$2c8
  3161 00:05FE: B7 05        	lda	[<R1],Y
  3162 00:0600: AA           	tax
  3163 00:0601: A0 C6 02     	ldy	#$2c6
  3164 00:0604: B7 05        	lda	[<R1],Y
  3165                        	xref	~~~lcal
  3166 00:0606: 22 xx xx xx  	jsl	~~~lcal
  3167                        ;				buff+=512;
  3168                        	.line	356
  3169 00:060A: 18           	clc
  3170 00:060B: A9 00 02     	lda	#$200
  3171 00:060E: 65 1C        	adc	<L34+buff_0
  3172 00:0610: 85 1C        	sta	<L34+buff_0
  3173 00:0612: 90 02        	bcc	L48
  3174 00:0614: E6 1E        	inc	<L34+buff_0+2
  3175                        L48:
  3176                        ;			}
  3177                        	.line	357
  3178                        L10043:
  Mon Sep 27 2021  9:39                                                Page 66


  3179 00:0616: E6 15        	inc	<L35+i_1
  3180                        L10046:
  3181 00:0618: A5 15        	lda	<L35+i_1
  3182 00:061A: C5 24        	cmp	<L34+count_0
  3183 00:061C: B0 03        	bcs	L49
  3184 00:061E: 82 8A FF     	brl	L10045
  3185                        L49:
  3186                        L10044:
  3187                        ;			//k_debugbyte_array("------- dis
                    k_read:buff:data:\r\n",buff,512);
  3188                        ;
  3189                        ;			//result = RAM_disk_read(buff, s
                    ector, count);
  3190                        ;
  3191                        ;			// translate the reslut code her
                    e
  3192                        ;
  3193                        ;			res = RES_OK;
  3194                        	.line	364
  3195 00:0621: 64 11        	stz	<L35+res_1
  3196                        ;		}
  3197                        	.line	365
  3198                        ;		break;
  3199                        L10042:
  3200                        	.line	366
  3201 00:0623: 82 AC 00     	brl	L10030
  3202                        ;
  3203                        ;	case 0x04 :
  3204                        	.line	368
  3205                        L10047:
  3206                        ;		// translate the arguments here
  3207                        ;
  3208                        ;		//k_debugpointer( "------- disk_read:dis
                    kioDevices[pdrv]:",diskioDevices[pdrv]);
  3209                        ;
  3210                        ;		if(diskioDevices[pdrv]!=NULL)
  3211                        	.line	373
  3212                        ;		{
  3213 00:0626: A5 1A        	lda	<L34+pdrv_0
  3214 00:0628: 29 FF 00     	and	#$ff
  3215 00:062B: 85 05        	sta	<R1
  3216 00:062D: A5 05        	lda	<R1
  3217 00:062F: 0A           	asl	A
  3218 00:0630: 0A           	asl	A
  3219 00:0631: 85 01        	sta	<R0
  3220 00:0633: 18           	clc
  3221 00:0634: A9 xx xx     	lda	#<~~diskioDevices
  3222 00:0637: 65 01        	adc	<R0
  3223 00:0639: 85 05        	sta	<R1
  3224 00:063B: B2 05        	lda	(<R1)
  3225 00:063D: A0 02 00     	ldy	#$2
  3226 00:0640: 11 05        	ora	(<R1),Y
  3227 00:0642: D0 03        	bne	L50
  3228 00:0644: 82 6E 00     	brl	L10048
  3229                        L50:
  3230                        	.line	374
  3231                        ;			//k_debugpointer( "------- disk_
                    read:buff:",buff);
  Mon Sep 27 2021  9:39                                                Page 67


  3232                        ;
  3233                        ;			for(i=0;i<count;i++)
  3234                        	.line	377
  3235 00:0647: 64 15        	stz	<L35+i_1
  3236 00:0649: 82 5E 00     	brl	L10052
  3237                        L10051:
  3238                        ;			{
  3239                        	.line	378
  3240                        ;				//if(count > 1)
  3241                        ;				//{
  3242                        ;				//	k_debug_integer(
                     "------- disk_read:dev:count:",i);
  3243                        ;				//}
  3244                        ;				diskioDevices[pdrv]->pfR
                    eader((sector + i),buff);
  3245                        	.line	383
  3246 00:064C: D4 1E        	pei	<L34+buff_0+2
  3247 00:064E: D4 1C        	pei	<L34+buff_0
  3248 00:0650: A0 00 00     	ldy	#$0
  3249 00:0653: A5 15        	lda	<L35+i_1
  3250 00:0655: 10 01        	bpl	L51
  3251 00:0657: 88           	dey
  3252                        L51:
  3253 00:0658: 85 01        	sta	<R0
  3254 00:065A: 84 03        	sty	<R0+2
  3255 00:065C: 18           	clc
  3256 00:065D: A5 01        	lda	<R0
  3257 00:065F: 65 20        	adc	<L34+sector_0
  3258 00:0661: 85 05        	sta	<R1
  3259 00:0663: A5 03        	lda	<R0+2
  3260 00:0665: 65 22        	adc	<L34+sector_0+2
  3261 00:0667: 85 07        	sta	<R1+2
  3262 00:0669: D4 07        	pei	<R1+2
  3263 00:066B: D4 05        	pei	<R1
  3264 00:066D: A5 1A        	lda	<L34+pdrv_0
  3265 00:066F: 29 FF 00     	and	#$ff
  3266 00:0672: 85 09        	sta	<R2
  3267 00:0674: A5 09        	lda	<R2
  3268 00:0676: 0A           	asl	A
  3269 00:0677: 0A           	asl	A
  3270 00:0678: 85 01        	sta	<R0
  3271 00:067A: 18           	clc
  3272 00:067B: A9 xx xx     	lda	#<~~diskioDevices
  3273 00:067E: 65 01        	adc	<R0
  3274 00:0680: 85 09        	sta	<R2
  3275 00:0682: B2 09        	lda	(<R2)
  3276 00:0684: 85 01        	sta	<R0
  3277 00:0686: A0 02 00     	ldy	#$2
  3278 00:0689: B1 09        	lda	(<R2),Y
  3279 00:068B: 85 03        	sta	<R0+2
  3280 00:068D: A0 C8 02     	ldy	#$2c8
  3281 00:0690: B7 01        	lda	[<R0],Y
  3282 00:0692: AA           	tax
  3283 00:0693: A0 C6 02     	ldy	#$2c6
  3284 00:0696: B7 01        	lda	[<R0],Y
  3285                        	xref	~~~lcal
  3286 00:0698: 22 xx xx xx  	jsl	~~~lcal
  3287                        ;				buff+=512;
  Mon Sep 27 2021  9:39                                                Page 68


  3288                        	.line	384
  3289 00:069C: 18           	clc
  3290 00:069D: A9 00 02     	lda	#$200
  3291 00:06A0: 65 1C        	adc	<L34+buff_0
  3292 00:06A2: 85 1C        	sta	<L34+buff_0
  3293 00:06A4: 90 02        	bcc	L52
  3294 00:06A6: E6 1E        	inc	<L34+buff_0+2
  3295                        L52:
  3296                        ;			}
  3297                        	.line	385
  3298                        L10049:
  3299 00:06A8: E6 15        	inc	<L35+i_1
  3300                        L10052:
  3301 00:06AA: A5 15        	lda	<L35+i_1
  3302 00:06AC: C5 24        	cmp	<L34+count_0
  3303 00:06AE: B0 03        	bcs	L53
  3304 00:06B0: 82 99 FF     	brl	L10051
  3305                        L53:
  3306                        L10050:
  3307                        ;			//k_debugbyte_array("------- dis
                    k_read:buff:data:\r\n",buff,512);
  3308                        ;
  3309                        ;			//result = RAM_disk_read(buff, s
                    ector, count);
  3310                        ;
  3311                        ;			// translate the reslut code her
                    e
  3312                        ;
  3313                        ;			res = RES_OK;
  3314                        	.line	392
  3315 00:06B3: 64 11        	stz	<L35+res_1
  3316                        ;		}
  3317                        	.line	393
  3318                        ;		break;
  3319                        L10048:
  3320                        	.line	394
  3321 00:06B5: 82 1A 00     	brl	L10030
  3322                        ;
  3323                        ;	case DEV_MMC :
  3324                        	.line	396
  3325                        L10053:
  3326                        ;		// translate the arguments here
  3327                        ;
  3328                        ;		//result = MMC_disk_read(buff, sector, c
                    ount);
  3329                        ;
  3330                        ;		// translate the reslut code here
  3331                        ;
  3332                        ;		//return res;
  3333                        ;		break;
  3334                        	.line	404
  3335 00:06B8: 82 17 00     	brl	L10030
  3336                        ;	case DEV_USB :
  3337                        	.line	405
  3338                        L10054:
  3339                        ;		// translate the arguments here
  3340                        ;
  3341                        ;		//result = USB_disk_read(buff, sector, c
  Mon Sep 27 2021  9:39                                                Page 69


                    ount);
  3342                        ;
  3343                        ;		// translate the reslut code here
  3344                        ;
  3345                        ;		//return res;
  3346                        ;		break;
  3347                        	.line	413
  3348 00:06BB: 82 14 00     	brl	L10030
  3349                        ;	}
  3350                        	.line	414
  3351                        L10029:
  3352                        	xref	~~~fsw
  3353 00:06BE: 22 xx xx xx  	jsl	~~~fsw
  3354 00:06C2: 00 00        	dw	0
  3355 00:06C4: 05 00        	dw	5
  3356 00:06C6: xx xx        	dw	L10030-1
  3357 00:06C8: xx xx        	dw	L10031-1
  3358 00:06CA: xx xx        	dw	L10053-1
  3359 00:06CC: xx xx        	dw	L10054-1
  3360 00:06CE: xx xx        	dw	L10041-1
  3361 00:06D0: xx xx        	dw	L10047-1
  3362                        L10030:
  3363                        ;
  3364                        ;	//k_debugstring("------- disk_read exit\r\n");
  3365                        ;
  3366                        ;	return res;
  3367                        	.line	418
  3368 00:06D2: A5 11        	lda	<L35+res_1
  3369                        L54:
  3370 00:06D4: A8           	tay
  3371 00:06D5: A5 18        	lda	<L34+2
  3372 00:06D7: 85 24        	sta	<L34+2+12
  3373 00:06D9: A5 17        	lda	<L34+1
  3374 00:06DB: 85 23        	sta	<L34+1+12
  3375 00:06DD: 2B           	pld
  3376 00:06DE: 3B           	tsc
  3377 00:06DF: 18           	clc
  3378 00:06E0: 69 22 00     	adc	#L34+12
  3379 00:06E3: 1B           	tcs
  3380 00:06E4: 98           	tya
  3381 00:06E5: 6B           	rtl
  3382                        ;}
  3383                        	.line	419
  3384                        	.endblock	419
  3385             00000016   L34	equ	22
  3386             00000011   L35	equ	17
  3387                        	ends
  3388                        	efunc
  3389                        	.endfunc	419,17,22
  3390                        	.line	419
  3391                        	data
  3392                        L1:
  3393 00:04F2: 2D 2D 2D 2D  	db	$2D,$2D,$2D,$2D,$2D,$2D,$2D,$20,$64,$69,
                    $73,$6B,$5F,$72,$65
       00:04F6: 2D 2D 2D 20 
       00:04FA: 64 69 73 6B 
       00:04FE: 5F 72 65 
  3394 00:0501: 61 64 3A 52  	db	$61,$64,$3A,$52,$41,$4D,$3A,$73,$65,$63,
  Mon Sep 27 2021  9:39                                                Page 70


                    $74,$6F,$72,$3A,$00
       00:0505: 41 4D 3A 73 
       00:0509: 65 63 74 6F 
       00:050D: 72 3A 00 
  3395 00:0510: 2D 2D 2D 2D  	db	$2D,$2D,$2D,$2D,$2D,$2D,$2D,$20,$64,$69,
                    $73,$6B,$5F,$72,$65
       00:0514: 2D 2D 2D 20 
       00:0518: 64 69 73 6B 
       00:051C: 5F 72 65 
  3396 00:051F: 61 64 3A 52  	db	$61,$64,$3A,$52,$41,$4D,$3A,$63,$6F,$75,
                    $6E,$74,$3A,$00
       00:0523: 41 4D 3A 63 
       00:0527: 6F 75 6E 74 
       00:052B: 3A 00 
  3397 00:052D:              	ends
  3398                        ;
  3399                        ;
  3400                        ;
  3401                        ;/*-----------------------------------------------
                    ------------------------*/
  3402                        ;/* Write Sector(s)                               
                                            */
  3403                        ;/*-----------------------------------------------
                    ------------------------*/
  3404                        ;
  3405                        ;#if FF_FS_READONLY == 0
  3406                        ;
  3407                        ;DRESULT disk_write (
  3408                        ;	BYTE pdrv,			/* Physical driv
                    e nmuber to identify the drive */
  3409                        ;	const BYTE *buff,	/* Data to be written */
  3410                        ;	LBA_t sector,		/* Start sector in LBA *
                    /
  3411                        ;	UINT count			/* Number of sec
                    tors to write */
  3412                        ;)
  3413                        ;{
  3414                        	.line	429
  3415                        	.line	435
  3416                        	code
  3417                        	xdef	~~disk_write
  3418                        	func
  3419                        	.function	435
  3420                        ~~disk_write:
  3421                        	longa	on
  3422                        	longi	on
  3423 00:06E6: 3B           	tsc
  3424 00:06E7: 38           	sec
  3425 00:06E8: E9 16 00     	sbc	#L56
  3426 00:06EB: 1B           	tcs
  3427 00:06EC: 0B           	phd
  3428 00:06ED: 5B           	tcd
  3429             00000004   pdrv_0	set	4
  3430             00000006   buff_0	set	6
  3431             0000000A   sector_0	set	10
  3432             0000000E   count_0	set	14
  3433                        	.block	435
  3434                        ;	int i = 0;
  Mon Sep 27 2021  9:39                                                Page 71


  3435                        ;	DRESULT res = RES_PARERR;
  3436                        ;	int result;
  3437                        ;
  3438                        ;	//k_debug_integer("------- disk_write:dev:",pdrv
                    );
  3439                        ;	//k_debug_integer("------- disk_write::count:",c
                    ount);
  3440                        ;
  3441                        ;	switch (pdrv)
  3442             00000000   i_1	set	0
  3443             00000002   res_1	set	2
  3444             00000004   result_1	set	4
  3445                        	.sym	i,0,5,1,16
  3446                        	.sym	res,2,5,1,16
  3447                        	.sym	result,4,5,1,16
  3448                        	.sym	pdrv,4,14,6,8
  3449                        	.sym	buff,6,142,6,32
  3450                        	.sym	sector,10,18,6,32
  3451                        	.sym	count,14,16,6,16
  3452 00:06EE: 64 11        	stz	<L57+i_1
  3453 00:06F0: A9 04 00     	lda	#$4
  3454 00:06F3: 85 13        	sta	<L57+res_1
  3455                        	.line	443
  3456 00:06F5: A5 1A        	lda	<L56+pdrv_0
  3457 00:06F7: 29 FF 00     	and	#$ff
  3458 00:06FA: 82 13 02     	brl	L10055
  3459                        ;	{
  3460                        	.line	444
  3461                        ;	case 0x00:
  3462                        	.line	445
  3463                        L10057:
  3464                        ;
  3465                        ;		k_debug_long("------- disk_write:RAM:sec
                    tor:",sector);
  3466                        	.line	447
  3467 00:06FD: D4 22        	pei	<L56+sector_0+2
  3468 00:06FF: D4 20        	pei	<L56+sector_0
  3469 00:0701: F4 xx xx     	pea	#^L55
  3470 00:0704: F4 xx xx     	pea	#<L55
  3471 00:0707: 22 xx xx xx  	jsl	~~k_debug_long
  3472                        ;		k_debug_integer("------- disk_write:RAM:
                    count:",count);
  3473                        	.line	448
  3474 00:070B: D4 24        	pei	<L56+count_0
  3475 00:070D: F4 xx xx     	pea	#^L55+31
  3476 00:0710: F4 xx xx     	pea	#<L55+31
  3477 00:0713: 22 xx xx xx  	jsl	~~k_debug_integer
  3478                        ;
  3479                        ;
  3480                        ;		k_debug_byte_array("------- disk_write:D
                    ATA:",(PBYTE)buff,512);
  3481                        	.line	451
  3482 00:0717: F4 00 00     	pea	#^$200
  3483 00:071A: F4 00 02     	pea	#<$200
  3484 00:071D: D4 1E        	pei	<L56+buff_0+2
  3485 00:071F: D4 1C        	pei	<L56+buff_0
  3486 00:0721: F4 xx xx     	pea	#^L55+61
  3487 00:0724: F4 xx xx     	pea	#<L55+61
  Mon Sep 27 2021  9:39                                                Page 72


  3488 00:0727: 22 xx xx xx  	jsl	~~k_debug_byte_array
  3489                        ;		/*
  3490                        ;		if(sector == 0)
  3491                        ;		{
  3492                        ;			memcpy(buff,fake_device_mbr,512)
                    ;
  3493                        ;		}
  3494                        ;		else if(sector == 3)
  3495                        ;		{
  3496                        ;			memset(buff,0,512);
  3497                        ;			memcpy(buff,fake_device_0600,siz
                    eof(fake_device_0600));
  3498                        ;		}
  3499                        ;		else if(sector == 10)
  3500                        ;		{
  3501                        ;			memset(buff,0,512);
  3502                        ;			memcpy(buff,fake_device_1400,siz
                    eof(fake_device_1400));
  3503                        ;		}
  3504                        ;		*/
  3505                        ;
  3506                        ;		res = RES_OK;
  3507                        	.line	469
  3508 00:072B: 64 13        	stz	<L57+res_1
  3509                        ;
  3510                        ;
  3511                        ;		res = RES_OK;
  3512                        	.line	472
  3513 00:072D: 64 13        	stz	<L57+res_1
  3514                        ;		break;
  3515                        	.line	473
  3516 00:072F: 82 F2 01     	brl	L10056
  3517                        ;
  3518                        ;	case 0x03 :
  3519                        	.line	475
  3520                        L10058:
  3521                        ;
  3522                        ;		if(diskioDevices[pdrv] && diskioDevices[
                    pdrv]->pfWriter)
  3523                        	.line	477
  3524                        ;		{
  3525 00:0732: A5 1A        	lda	<L56+pdrv_0
  3526 00:0734: 29 FF 00     	and	#$ff
  3527 00:0737: 85 05        	sta	<R1
  3528 00:0739: A5 05        	lda	<R1
  3529 00:073B: 0A           	asl	A
  3530 00:073C: 0A           	asl	A
  3531 00:073D: 85 01        	sta	<R0
  3532 00:073F: 18           	clc
  3533 00:0740: A9 xx xx     	lda	#<~~diskioDevices
  3534 00:0743: 65 01        	adc	<R0
  3535 00:0745: 85 05        	sta	<R1
  3536 00:0747: B2 05        	lda	(<R1)
  3537 00:0749: A0 02 00     	ldy	#$2
  3538 00:074C: 11 05        	ora	(<R1),Y
  3539 00:074E: D0 03        	bne	L59
  3540 00:0750: 82 D3 00     	brl	L10059
  3541                        L59:
  Mon Sep 27 2021  9:39                                                Page 73


  3542 00:0753: A5 1A        	lda	<L56+pdrv_0
  3543 00:0755: 29 FF 00     	and	#$ff
  3544 00:0758: 85 05        	sta	<R1
  3545 00:075A: A5 05        	lda	<R1
  3546 00:075C: 0A           	asl	A
  3547 00:075D: 0A           	asl	A
  3548 00:075E: 85 01        	sta	<R0
  3549 00:0760: 18           	clc
  3550 00:0761: A9 xx xx     	lda	#<~~diskioDevices
  3551 00:0764: 65 01        	adc	<R0
  3552 00:0766: 85 05        	sta	<R1
  3553 00:0768: B2 05        	lda	(<R1)
  3554 00:076A: 85 01        	sta	<R0
  3555 00:076C: A0 02 00     	ldy	#$2
  3556 00:076F: B1 05        	lda	(<R1),Y
  3557 00:0771: 85 03        	sta	<R0+2
  3558 00:0773: A0 CA 02     	ldy	#$2ca
  3559 00:0776: B7 01        	lda	[<R0],Y
  3560 00:0778: A0 CC 02     	ldy	#$2cc
  3561 00:077B: 17 01        	ora	[<R0],Y
  3562 00:077D: D0 03        	bne	L60
  3563 00:077F: 82 A4 00     	brl	L10059
  3564                        L60:
  3565                        	.line	478
  3566                        ;			// translate the arguments here
  3567                        ;			for(i=0;i<count;i++)
  3568                        	.line	480
  3569 00:0782: 64 11        	stz	<L57+i_1
  3570 00:0784: 82 96 00     	brl	L10063
  3571                        L10062:
  3572                        ;			{
  3573                        	.line	481
  3574                        ;				result = diskioDevices[p
                    drv]->pfWriter((sector+(ULONG)i)*512L,(BYTE*)buff);
  3575                        	.line	482
  3576 00:0787: D4 1E        	pei	<L56+buff_0+2
  3577 00:0789: D4 1C        	pei	<L56+buff_0
  3578 00:078B: A0 00 00     	ldy	#$0
  3579 00:078E: A5 11        	lda	<L57+i_1
  3580 00:0790: 10 01        	bpl	L61
  3581 00:0792: 88           	dey
  3582                        L61:
  3583 00:0793: 85 05        	sta	<R1
  3584 00:0795: 84 07        	sty	<R1+2
  3585 00:0797: 18           	clc
  3586 00:0798: A5 05        	lda	<R1
  3587 00:079A: 65 20        	adc	<L56+sector_0
  3588 00:079C: 85 09        	sta	<R2
  3589 00:079E: A5 07        	lda	<R1+2
  3590 00:07A0: 65 22        	adc	<L56+sector_0+2
  3591 00:07A2: 85 0B        	sta	<R2+2
  3592 00:07A4: D4 0B        	pei	<R2+2
  3593 00:07A6: D4 09        	pei	<R2
  3594 00:07A8: A9 09 00     	lda	#$9
  3595                        	xref	~~~lasl
  3596 00:07AB: 22 xx xx xx  	jsl	~~~lasl
  3597 00:07AF: 85 01        	sta	<R0
  3598 00:07B1: 86 03        	stx	<R0+2
  Mon Sep 27 2021  9:39                                                Page 74


  3599 00:07B3: D4 03        	pei	<R0+2
  3600 00:07B5: D4 01        	pei	<R0
  3601 00:07B7: A5 1A        	lda	<L56+pdrv_0
  3602 00:07B9: 29 FF 00     	and	#$ff
  3603 00:07BC: 85 0D        	sta	<R3
  3604 00:07BE: A5 0D        	lda	<R3
  3605 00:07C0: 0A           	asl	A
  3606 00:07C1: 0A           	asl	A
  3607 00:07C2: 85 05        	sta	<R1
  3608 00:07C4: 18           	clc
  3609 00:07C5: A9 xx xx     	lda	#<~~diskioDevices
  3610 00:07C8: 65 05        	adc	<R1
  3611 00:07CA: 85 0D        	sta	<R3
  3612 00:07CC: B2 0D        	lda	(<R3)
  3613 00:07CE: 85 05        	sta	<R1
  3614 00:07D0: A0 02 00     	ldy	#$2
  3615 00:07D3: B1 0D        	lda	(<R3),Y
  3616 00:07D5: 85 07        	sta	<R1+2
  3617 00:07D7: A0 CC 02     	ldy	#$2cc
  3618 00:07DA: B7 05        	lda	[<R1],Y
  3619 00:07DC: AA           	tax
  3620 00:07DD: A0 CA 02     	ldy	#$2ca
  3621 00:07E0: B7 05        	lda	[<R1],Y
  3622                        	xref	~~~lcal
  3623 00:07E2: 22 xx xx xx  	jsl	~~~lcal
  3624 00:07E6: E2 20        	sep	#$20
  3625                        	longa	off
  3626 00:07E8: 85 05        	sta	<R1
  3627 00:07EA: C2 20        	rep	#$20
  3628                        	longa	on
  3629 00:07EC: A5 05        	lda	<R1
  3630 00:07EE: 29 FF 00     	and	#$ff
  3631 00:07F1: 85 15        	sta	<L57+result_1
  3632                        ;				if(result)
  3633                        	.line	483
  3634                        ;				{
  3635 00:07F3: A5 15        	lda	<L57+result_1
  3636 00:07F5: D0 03        	bne	L62
  3637 00:07F7: 82 15 00     	brl	L10064
  3638                        L62:
  3639                        	.line	484
  3640                        ;					return RES_PARER
                    R;
  3641                        	.line	485
  3642 00:07FA: A9 04 00     	lda	#$4
  3643                        L63:
  3644 00:07FD: A8           	tay
  3645 00:07FE: A5 18        	lda	<L56+2
  3646 00:0800: 85 24        	sta	<L56+2+12
  3647 00:0802: A5 17        	lda	<L56+1
  3648 00:0804: 85 23        	sta	<L56+1+12
  3649 00:0806: 2B           	pld
  3650 00:0807: 3B           	tsc
  3651 00:0808: 18           	clc
  3652 00:0809: 69 22 00     	adc	#L56+12
  3653 00:080C: 1B           	tcs
  3654 00:080D: 98           	tya
  3655 00:080E: 6B           	rtl
  Mon Sep 27 2021  9:39                                                Page 75


  3656                        ;				}
  3657                        	.line	486
  3658                        ;				buff+=512L;
  3659                        L10064:
  3660                        	.line	487
  3661 00:080F: 18           	clc
  3662 00:0810: A9 00 02     	lda	#$200
  3663 00:0813: 65 1C        	adc	<L56+buff_0
  3664 00:0815: 85 1C        	sta	<L56+buff_0
  3665 00:0817: 90 02        	bcc	L64
  3666 00:0819: E6 1E        	inc	<L56+buff_0+2
  3667                        L64:
  3668                        ;			}
  3669                        	.line	488
  3670                        L10060:
  3671 00:081B: E6 11        	inc	<L57+i_1
  3672                        L10063:
  3673 00:081D: A5 11        	lda	<L57+i_1
  3674 00:081F: C5 24        	cmp	<L56+count_0
  3675 00:0821: B0 03        	bcs	L65
  3676 00:0823: 82 61 FF     	brl	L10062
  3677                        L65:
  3678                        L10061:
  3679                        ;			// translate the result code her
                    e
  3680                        ;		}
  3681                        	.line	490
  3682                        ;		res = 0;
  3683                        L10059:
  3684                        	.line	491
  3685 00:0826: 64 13        	stz	<L57+res_1
  3686                        ;
  3687                        ;		break;
  3688                        	.line	493
  3689 00:0828: 82 F9 00     	brl	L10056
  3690                        ;	case 0x04 :
  3691                        	.line	494
  3692                        L10065:
  3693                        ;
  3694                        ;		if(diskioDevices[pdrv] && diskioDevices[
                    pdrv]->pfWriter)
  3695                        	.line	496
  3696                        ;		{
  3697 00:082B: A5 1A        	lda	<L56+pdrv_0
  3698 00:082D: 29 FF 00     	and	#$ff
  3699 00:0830: 85 05        	sta	<R1
  3700 00:0832: A5 05        	lda	<R1
  3701 00:0834: 0A           	asl	A
  3702 00:0835: 0A           	asl	A
  3703 00:0836: 85 01        	sta	<R0
  3704 00:0838: 18           	clc
  3705 00:0839: A9 xx xx     	lda	#<~~diskioDevices
  3706 00:083C: 65 01        	adc	<R0
  3707 00:083E: 85 05        	sta	<R1
  3708 00:0840: B2 05        	lda	(<R1)
  3709 00:0842: A0 02 00     	ldy	#$2
  3710 00:0845: 11 05        	ora	(<R1),Y
  3711 00:0847: D0 03        	bne	L66
  Mon Sep 27 2021  9:39                                                Page 76


  3712 00:0849: 82 B5 00     	brl	L10066
  3713                        L66:
  3714 00:084C: A5 1A        	lda	<L56+pdrv_0
  3715 00:084E: 29 FF 00     	and	#$ff
  3716 00:0851: 85 05        	sta	<R1
  3717 00:0853: A5 05        	lda	<R1
  3718 00:0855: 0A           	asl	A
  3719 00:0856: 0A           	asl	A
  3720 00:0857: 85 01        	sta	<R0
  3721 00:0859: 18           	clc
  3722 00:085A: A9 xx xx     	lda	#<~~diskioDevices
  3723 00:085D: 65 01        	adc	<R0
  3724 00:085F: 85 05        	sta	<R1
  3725 00:0861: B2 05        	lda	(<R1)
  3726 00:0863: 85 01        	sta	<R0
  3727 00:0865: A0 02 00     	ldy	#$2
  3728 00:0868: B1 05        	lda	(<R1),Y
  3729 00:086A: 85 03        	sta	<R0+2
  3730 00:086C: A0 CA 02     	ldy	#$2ca
  3731 00:086F: B7 01        	lda	[<R0],Y
  3732 00:0871: A0 CC 02     	ldy	#$2cc
  3733 00:0874: 17 01        	ora	[<R0],Y
  3734 00:0876: D0 03        	bne	L67
  3735 00:0878: 82 86 00     	brl	L10066
  3736                        L67:
  3737                        	.line	497
  3738                        ;			// translate the arguments here
  3739                        ;			for(i=0;i<count;i++)
  3740                        	.line	499
  3741 00:087B: 64 11        	stz	<L57+i_1
  3742 00:087D: 82 78 00     	brl	L10070
  3743                        L10069:
  3744                        ;			{
  3745                        	.line	500
  3746                        ;				result = diskioDevices[p
                    drv]->pfWriter(sector+((ULONG)i),(BYTE*)buff);
  3747                        	.line	501
  3748 00:0880: D4 1E        	pei	<L56+buff_0+2
  3749 00:0882: D4 1C        	pei	<L56+buff_0
  3750 00:0884: A0 00 00     	ldy	#$0
  3751 00:0887: A5 11        	lda	<L57+i_1
  3752 00:0889: 10 01        	bpl	L68
  3753 00:088B: 88           	dey
  3754                        L68:
  3755 00:088C: 85 01        	sta	<R0
  3756 00:088E: 84 03        	sty	<R0+2
  3757 00:0890: 18           	clc
  3758 00:0891: A5 01        	lda	<R0
  3759 00:0893: 65 20        	adc	<L56+sector_0
  3760 00:0895: 85 05        	sta	<R1
  3761 00:0897: A5 03        	lda	<R0+2
  3762 00:0899: 65 22        	adc	<L56+sector_0+2
  3763 00:089B: 85 07        	sta	<R1+2
  3764 00:089D: D4 07        	pei	<R1+2
  3765 00:089F: D4 05        	pei	<R1
  3766 00:08A1: A5 1A        	lda	<L56+pdrv_0
  3767 00:08A3: 29 FF 00     	and	#$ff
  3768 00:08A6: 85 09        	sta	<R2
  Mon Sep 27 2021  9:39                                                Page 77


  3769 00:08A8: A5 09        	lda	<R2
  3770 00:08AA: 0A           	asl	A
  3771 00:08AB: 0A           	asl	A
  3772 00:08AC: 85 01        	sta	<R0
  3773 00:08AE: 18           	clc
  3774 00:08AF: A9 xx xx     	lda	#<~~diskioDevices
  3775 00:08B2: 65 01        	adc	<R0
  3776 00:08B4: 85 09        	sta	<R2
  3777 00:08B6: B2 09        	lda	(<R2)
  3778 00:08B8: 85 01        	sta	<R0
  3779 00:08BA: A0 02 00     	ldy	#$2
  3780 00:08BD: B1 09        	lda	(<R2),Y
  3781 00:08BF: 85 03        	sta	<R0+2
  3782 00:08C1: A0 CC 02     	ldy	#$2cc
  3783 00:08C4: B7 01        	lda	[<R0],Y
  3784 00:08C6: AA           	tax
  3785 00:08C7: A0 CA 02     	ldy	#$2ca
  3786 00:08CA: B7 01        	lda	[<R0],Y
  3787                        	xref	~~~lcal
  3788 00:08CC: 22 xx xx xx  	jsl	~~~lcal
  3789 00:08D0: E2 20        	sep	#$20
  3790                        	longa	off
  3791 00:08D2: 85 01        	sta	<R0
  3792 00:08D4: C2 20        	rep	#$20
  3793                        	longa	on
  3794 00:08D6: A5 01        	lda	<R0
  3795 00:08D8: 29 FF 00     	and	#$ff
  3796 00:08DB: 85 15        	sta	<L57+result_1
  3797                        ;				if(result)
  3798                        	.line	502
  3799                        ;				{
  3800 00:08DD: A5 15        	lda	<L57+result_1
  3801 00:08DF: D0 03        	bne	L69
  3802 00:08E1: 82 06 00     	brl	L10071
  3803                        L69:
  3804                        	.line	503
  3805                        ;					return RES_PARER
                    R;
  3806                        	.line	504
  3807 00:08E4: A9 04 00     	lda	#$4
  3808 00:08E7: 82 13 FF     	brl	L63
  3809                        ;				}
  3810                        	.line	505
  3811                        ;				buff+=512;
  3812                        L10071:
  3813                        	.line	506
  3814 00:08EA: 18           	clc
  3815 00:08EB: A9 00 02     	lda	#$200
  3816 00:08EE: 65 1C        	adc	<L56+buff_0
  3817 00:08F0: 85 1C        	sta	<L56+buff_0
  3818 00:08F2: 90 02        	bcc	L70
  3819 00:08F4: E6 1E        	inc	<L56+buff_0+2
  3820                        L70:
  3821                        ;			}
  3822                        	.line	507
  3823                        L10067:
  3824 00:08F6: E6 11        	inc	<L57+i_1
  3825                        L10070:
  Mon Sep 27 2021  9:39                                                Page 78


  3826 00:08F8: A5 11        	lda	<L57+i_1
  3827 00:08FA: C5 24        	cmp	<L56+count_0
  3828 00:08FC: B0 03        	bcs	L71
  3829 00:08FE: 82 7F FF     	brl	L10069
  3830                        L71:
  3831                        L10068:
  3832                        ;			// translate the reslut code her
                    e
  3833                        ;		}
  3834                        	.line	509
  3835                        ;		res = 0;
  3836                        L10066:
  3837                        	.line	510
  3838 00:0901: 64 13        	stz	<L57+res_1
  3839                        ;
  3840                        ;		break;
  3841                        	.line	512
  3842 00:0903: 82 1E 00     	brl	L10056
  3843                        ;	case DEV_MMC :
  3844                        	.line	513
  3845                        L10072:
  3846                        ;		// translate the arguments here
  3847                        ;
  3848                        ;		//result = MMC_disk_write(buff, sector, 
                    count);
  3849                        ;
  3850                        ;		// translate the reslut code here
  3851                        ;
  3852                        ;		return res;
  3853                        	.line	520
  3854 00:0906: A5 13        	lda	<L57+res_1
  3855 00:0908: 82 F2 FE     	brl	L63
  3856                        ;
  3857                        ;	case DEV_USB :
  3858                        	.line	522
  3859                        L10073:
  3860                        ;		// translate the arguments here
  3861                        ;
  3862                        ;		//result = USB_disk_write(buff, sector, 
                    count);
  3863                        ;
  3864                        ;		// translate the reslut code here
  3865                        ;
  3866                        ;		return res;
  3867                        	.line	529
  3868 00:090B: A5 13        	lda	<L57+res_1
  3869 00:090D: 82 ED FE     	brl	L63
  3870                        ;	}
  3871                        	.line	530
  3872                        L10055:
  3873                        	xref	~~~fsw
  3874 00:0910: 22 xx xx xx  	jsl	~~~fsw
  3875 00:0914: 00 00        	dw	0
  3876 00:0916: 05 00        	dw	5
  3877 00:0918: xx xx        	dw	L10056-1
  3878 00:091A: xx xx        	dw	L10057-1
  3879 00:091C: xx xx        	dw	L10072-1
  3880 00:091E: xx xx        	dw	L10073-1
  Mon Sep 27 2021  9:39                                                Page 79


  3881 00:0920: xx xx        	dw	L10058-1
  3882 00:0922: xx xx        	dw	L10065-1
  3883                        L10056:
  3884                        ;
  3885                        ;	//k_debugstring("------- disk_write exit\r\n");
  3886                        ;
  3887                        ;	return res;
  3888                        	.line	534
  3889 00:0924: A5 13        	lda	<L57+res_1
  3890 00:0926: 82 D4 FE     	brl	L63
  3891                        ;}
  3892                        	.line	535
  3893                        	.endblock	535
  3894             00000016   L56	equ	22
  3895             00000011   L57	equ	17
  3896                        	ends
  3897                        	efunc
  3898                        	.endfunc	535,17,22
  3899                        	.line	535
  3900                        	data
  3901                        L55:
  3902 00:052D: 2D 2D 2D 2D  	db	$2D,$2D,$2D,$2D,$2D,$2D,$2D,$20,$64,$69,
                    $73,$6B,$5F,$77,$72
       00:0531: 2D 2D 2D 20 
       00:0535: 64 69 73 6B 
       00:0539: 5F 77 72 
  3903 00:053C: 69 74 65 3A  	db	$69,$74,$65,$3A,$52,$41,$4D,$3A,$73,$65,
                    $63,$74,$6F,$72,$3A
       00:0540: 52 41 4D 3A 
       00:0544: 73 65 63 74 
       00:0548: 6F 72 3A 
  3904 00:054B: 00 2D 2D 2D  	db	$00,$2D,$2D,$2D,$2D,$2D,$2D,$2D,$20,$64,
                    $69,$73,$6B,$5F,$77
       00:054F: 2D 2D 2D 2D 
       00:0553: 20 64 69 73 
       00:0557: 6B 5F 77 
  3905 00:055A: 72 69 74 65  	db	$72,$69,$74,$65,$3A,$52,$41,$4D,$3A,$63,
                    $6F,$75,$6E,$74,$3A
       00:055E: 3A 52 41 4D 
       00:0562: 3A 63 6F 75 
       00:0566: 6E 74 3A 
  3906 00:0569: 00 2D 2D 2D  	db	$00,$2D,$2D,$2D,$2D,$2D,$2D,$2D,$20,$64,
                    $69,$73,$6B,$5F,$77
       00:056D: 2D 2D 2D 2D 
       00:0571: 20 64 69 73 
       00:0575: 6B 5F 77 
  3907 00:0578: 72 69 74 65  	db	$72,$69,$74,$65,$3A,$44,$41,$54,$41,$3A,
                    $00
       00:057C: 3A 44 41 54 
       00:0580: 41 3A 00 
  3908 00:0583:              	ends
  3909                        ;
  3910                        ;#endif
  3911                        ;
  3912                        ;
  3913                        ;/*-----------------------------------------------
                    ------------------------*/
  3914                        ;/* Miscellaneous Functions                       
  Mon Sep 27 2021  9:39                                                Page 80


                                            */
  3915                        ;/*-----------------------------------------------
                    ------------------------*/
  3916                        ;
  3917                        ;DRESULT disk_ioctl (
  3918                        ;	BYTE pdrv,		/* Physical drive nmuber
                     (0..) */
  3919                        ;	BYTE cmd,		/* Control code */
  3920                        ;	void *buff		/* Buffer to send/receiv
                    e control data */
  3921                        ;)
  3922                        ;{
  3923                        	.line	544
  3924                        	.line	549
  3925                        	code
  3926                        	xdef	~~disk_ioctl
  3927                        	func
  3928                        	.function	549
  3929                        ~~disk_ioctl:
  3930                        	longa	on
  3931                        	longi	on
  3932 00:0929: 3B           	tsc
  3933 00:092A: 38           	sec
  3934 00:092B: E9 04 00     	sbc	#L73
  3935 00:092E: 1B           	tcs
  3936 00:092F: 0B           	phd
  3937 00:0930: 5B           	tcd
  3938             00000004   pdrv_0	set	4
  3939             00000006   cmd_0	set	6
  3940             00000008   buff_0	set	8
  3941                        	.block	549
  3942                        ;	DRESULT res;
  3943                        ;	int result;
  3944                        ;
  3945                        ;	//k_debug_hex("disk_ioctl::pdrv:",pdrv);
  3946                        ;	//k_debug_hex("disk_ioctl::cmd:",cmd);
  3947                        ;
  3948                        ;	switch (pdrv)
  3949             00000000   res_1	set	0
  3950             00000002   result_1	set	2
  3951                        	.sym	res,0,5,1,16
  3952                        	.sym	result,2,5,1,16
  3953                        	.sym	pdrv,4,14,6,8
  3954                        	.sym	cmd,6,14,6,8
  3955                        	.sym	buff,8,129,6,32
  3956                        	.line	556
  3957 00:0931: A5 08        	lda	<L73+pdrv_0
  3958 00:0933: 29 FF 00     	and	#$ff
  3959 00:0936: 82 2A 00     	brl	L10074
  3960                        ;	{
  3961                        	.line	557
  3962                        ;	case 0x00:
  3963                        	.line	558
  3964                        L10076:
  3965                        ;
  3966                        ;		res = RES_OK;
  3967                        	.line	560
  3968 00:0939: 64 01        	stz	<L74+res_1
  Mon Sep 27 2021  9:39                                                Page 81


  3969                        ;		break;
  3970                        	.line	561
  3971 00:093B: 82 39 00     	brl	L10075
  3972                        ;
  3973                        ;	case 0x03 :
  3974                        	.line	563
  3975                        L10077:
  3976                        ;
  3977                        ;		//diskioDevices[pdrv]->pfWriter(sector,(
                    BYTE*)buff);
  3978                        ;
  3979                        ;		return RES_OK;
  3980                        	.line	567
  3981 00:093E: A9 00 00     	lda	#$0
  3982                        L76:
  3983 00:0941: A8           	tay
  3984 00:0942: A5 06        	lda	<L73+2
  3985 00:0944: 85 0E        	sta	<L73+2+8
  3986 00:0946: A5 05        	lda	<L73+1
  3987 00:0948: 85 0D        	sta	<L73+1+8
  3988 00:094A: 2B           	pld
  3989 00:094B: 3B           	tsc
  3990 00:094C: 18           	clc
  3991 00:094D: 69 0C 00     	adc	#L73+8
  3992 00:0950: 1B           	tcs
  3993 00:0951: 98           	tya
  3994 00:0952: 6B           	rtl
  3995                        ;
  3996                        ;	case 0x04 :
  3997                        	.line	569
  3998                        L10078:
  3999                        ;
  4000                        ;		//diskioDevices[pdrv]->pfWriter(sector,(
                    BYTE*)buff);
  4001                        ;
  4002                        ;		return RES_OK;
  4003                        	.line	573
  4004 00:0953: A9 00 00     	lda	#$0
  4005 00:0956: 82 E8 FF     	brl	L76
  4006                        ;	case DEV_MMC :
  4007                        	.line	574
  4008                        L10079:
  4009                        ;
  4010                        ;		// Process of the command for the MMC/SD
                     card
  4011                        ;
  4012                        ;		return res;
  4013                        	.line	578
  4014 00:0959: A5 01        	lda	<L74+res_1
  4015 00:095B: 82 E3 FF     	brl	L76
  4016                        ;
  4017                        ;	case DEV_USB :
  4018                        	.line	580
  4019                        L10080:
  4020                        ;
  4021                        ;		// Process of the command the USB drive
  4022                        ;
  4023                        ;		return res;
  Mon Sep 27 2021  9:39                                                Page 82


  4024                        	.line	584
  4025 00:095E: A5 01        	lda	<L74+res_1
  4026 00:0960: 82 DE FF     	brl	L76
  4027                        ;	}
  4028                        	.line	585
  4029                        L10074:
  4030                        	xref	~~~fsw
  4031 00:0963: 22 xx xx xx  	jsl	~~~fsw
  4032 00:0967: 00 00        	dw	0
  4033 00:0969: 05 00        	dw	5
  4034 00:096B: xx xx        	dw	L10075-1
  4035 00:096D: xx xx        	dw	L10076-1
  4036 00:096F: xx xx        	dw	L10079-1
  4037 00:0971: xx xx        	dw	L10080-1
  4038 00:0973: xx xx        	dw	L10077-1
  4039 00:0975: xx xx        	dw	L10078-1
  4040                        L10075:
  4041                        ;
  4042                        ;	return RES_PARERR;
  4043                        	.line	587
  4044 00:0977: A9 04 00     	lda	#$4
  4045 00:097A: 82 C4 FF     	brl	L76
  4046                        ;}
  4047                        	.line	588
  4048                        	.endblock	588
  4049             00000004   L73	equ	4
  4050             00000001   L74	equ	1
  4051                        	ends
  4052                        	efunc
  4053                        	.endfunc	588,1,4
  4054                        	.line	588
  4055                        ;#else
  4056                        ;
  4057                        ;
  4058                        ;
  4059                        ;/*-----------------------------------------------
                    ------------------------*/
  4060                        ;/* Get Drive Status                              
                                            */
  4061                        ;/*-----------------------------------------------
                    ------------------------*/
  4062                        ;
  4063                        ;DSTATUS disk_status (
  4064                        ;	BYTE pdrv		/* Physical drive nmuber
                     to identify the drive */
  4065                        ;)
  4066                        ;{
  4067                        ;	k_debug_hex("disk_status::pdrv:",pdrv);
  4068                        ;	return RES_OK;
  4069                        ;}
  4070                        ;
  4071                        ;
  4072                        ;
  4073                        ;/*-----------------------------------------------
                    ------------------------*/
  4074                        ;/* Inidialize a Drive                            
                                            */
  4075                        ;/*-----------------------------------------------
  Mon Sep 27 2021  9:39                                                Page 83


                    ------------------------*/
  4076                        ;
  4077                        ;DSTATUS disk_initialize (
  4078                        ;	BYTE pdrv				/* Physi
                    cal drive nmuber to identify the drive */
  4079                        ;)
  4080                        ;{
  4081                        ;	return STA_NOINIT;
  4082                        ;}
  4083                        ;
  4084                        ;
  4085                        ;
  4086                        ;/*-----------------------------------------------
                    ------------------------*/
  4087                        ;/* Read Sector(s)                                
                                            */
  4088                        ;/*-----------------------------------------------
                    ------------------------*/
  4089                        ;
  4090                        ;DRESULT disk_read (
  4091                        ;	BYTE pdrv,		/* Physical drive nmuber
                     to identify the drive */
  4092                        ;	BYTE *buff,		/* Data buffer to store 
                    read data */
  4093                        ;	LBA_t sector,	/* Start sector in LBA */
  4094                        ;	UINT count		/* Number of sectors to 
                    read */
  4095                        ;)
  4096                        ;{
  4097                        ;	//k_debugstring("------- disk_read exit\r\n");
  4098                        ;
  4099                        ;	return RES_PARERR;
  4100                        ;}
  4101                        ;
  4102                        ;
  4103                        ;
  4104                        ;/*-----------------------------------------------
                    ------------------------*/
  4105                        ;/* Write Sector(s)                               
                                            */
  4106                        ;/*-----------------------------------------------
                    ------------------------*/
  4107                        ;
  4108                        ;#if FF_FS_READONLY == 0
  4109                        ;
  4110                        ;DRESULT disk_write (
  4111                        ;	BYTE pdrv,			/* Physical driv
                    e nmuber to identify the drive */
  4112                        ;	const BYTE *buff,	/* Data to be written */
  4113                        ;	LBA_t sector,		/* Start sector in LBA *
                    /
  4114                        ;	UINT count			/* Number of sec
                    tors to write */
  4115                        ;)
  4116                        ;{
  4117                        ;	//k_debugstring("------- disk_write exit\r\n");
  4118                        ;
  4119                        ;	return RES_PARERR;
  Mon Sep 27 2021  9:39                                                Page 84


  4120                        ;}
  4121                        ;
  4122                        ;#endif
  4123                        ;
  4124                        ;
  4125                        ;/*-----------------------------------------------
                    ------------------------*/
  4126                        ;/* Miscellaneous Functions                       
                                            */
  4127                        ;/*-----------------------------------------------
                    ------------------------*/
  4128                        ;
  4129                        ;DRESULT disk_ioctl (
  4130                        ;	BYTE pdrv,		/* Physical drive nmuber
                     (0..) */
  4131                        ;	BYTE cmd,		/* Control code */
  4132                        ;	void *buff		/* Buffer to send/receiv
                    e control data */
  4133                        ;)
  4134                        ;{
  4135                        ;	return RES_PARERR;
  4136                        ;}
  4137                        ;
  4138                        ;
  4139                        ;#endif
  4140                        ;
  4141                        	.line	673
  4142                        	.file	"G:\devprojects\c256Foenix\fxos\FXOSWork
                    space\FXOS-Beta\src\diskio.c",544
  4143                        	xref	~~k_create_dos_device
  4144                        	xref	~~k_debug_byte_array
  4145                        	xref	~~k_debug_long
  4146                        	xref	~~k_debug_integer
  4147                        	xref	~~k_mem_deallocate_heap
  4148                        	xref	~~memset
  4149                        	xref	~~memcpy
  4150                        	.sym	~~k_dos_get_device_status,~~k_dos_get_de
                    vice_status,80,2,0
  4151                        	.sym	~~k_dos_get_device,~~k_dos_get_device,10
                    98,2,32,127
  4152                        	.sym	~~k_dos_get_devices,~~k_dos_get_devices,
                    9290,2,32,127
  4153                        	.sym	~~fake_device_1A00,~~fake_device_1A00,11
                    0,3,0,96
  4154                        	.sym	~~fake_device_1800,~~fake_device_1800,11
                    0,3,0,512
  4155                        	.sym	~~fake_device_1400,~~fake_device_1400,11
                    0,3,0,16
  4156                        	.sym	~~fake_device_0600,~~fake_device_0600,11
                    0,3,0,96
  4157                        	.sym	~~fake_device_0400,~~fake_device_0400,11
                    0,3,0,5
  4158                        	.sym	~~fake_device_0200,~~fake_device_0200,11
                    0,3,0,5
  4159                        	.sym	~~fake_device_mbr,~~fake_device_mbr,110,
                    3,0,512
  4160                        	.sym	~~diskioDevices,~~diskioDevices,1130,3,3
                    2,127,6
  Mon Sep 27 2021  9:39                                                Page 85


  4161                        	.sym	FILE,0,138,14,32,130
  4162                        	.sym	FILE_POINTER,0,10,14,112,130
  4163                        	.sym	~~k_create_dos_device,~~k_create_dos_dev
                    ice,1098,18,32,127
  4164                        	.sym	PDOSHANDLE,0,138,14,32,129
  4165                        	.sym	DOSHANDLE,0,10,14,80,129
  4166                        	.sym	PFXDOSDEVICE,0,138,14,32,127
  4167                        	.sym	FXDOSDEVICE,0,10,14,5744,127
  4168                        	.sym	DOSINITDEVICE,0,641,14,32
  4169                        	.sym	DOSSECTORWRITER,0,654,14,32
  4170                        	.sym	DOSSECTORREADER,0,654,14,32
  4171                        	.sym	PIDENTIFY_DEVICE_DATA,0,138,14,32,126
  4172                        	.sym	IDENTIFY_DEVICE_DATA,0,10,14,4096,126
  4173                        	.sym	PIDSECTOR,0,138,14,32,103
  4174                        	.sym	IDSECTOR,0,10,14,2048,103
  4175                        	.sym	PLFN,0,138,14,32,102
  4176                        	.sym	LFN,0,10,14,256,102
  4177                        	.sym	PFAT16ENTRYLONG,0,138,14,32,101
  4178                        	.sym	FAT16ENTRYLONG,0,10,14,288,101
  4179                        	.sym	PFAT16ENTRY,0,138,14,32,100
  4180                        	.sym	FAT16ENTRY,0,10,14,256,100
  4181                        	.sym	Fat16BootSector,0,10,14,4096,99
  4182                        	.sym	PPARTITIONTABLE,0,138,14,32,98
  4183                        	.sym	PARTITIONTABLE,0,10,14,128,98
  4184                        	.sym	PFATBOOTSECTOR,0,138,14,32,97
  4185                        	.sym	FATBOOTSECTOR,0,10,14,928,97
  4186                        	.sym	fat_BS_t,0,10,14,688,96
  4187                        	.sym	fat_extBS_16_t,0,10,14,192,95
  4188                        	.sym	PFAT32EXT,0,138,14,32,94
  4189                        	.sym	fat_extBS_32_t,0,10,14,416,94
  4190                        	.sym	P_FX_FAT_DIR_INFO,0,138,14,32,93
  4191                        	.sym	FX_FAT_DIR_INFO,0,10,14,256,93
  4192                        	.sym	PFILEINFO,0,138,14,32,92
  4193                        	.sym	FILEINFO,0,10,14,136,92
  4194                        	.sym	PDISKINFO,0,138,14,32,91
  4195                        	.sym	DISKINFO,0,10,14,416,91
  4196                        	.sym	PDIRENTRY,0,138,14,32,90
  4197                        	.sym	DIRENTRY,0,10,14,256,90
  4198                        	.sym	~~disk_ioctl,~~disk_ioctl,69,2,0
  4199                        	.sym	~~disk_write,~~disk_write,69,2,0
  4200                        	.sym	~~disk_read,~~disk_read,69,2,0
  4201                        	.sym	~~disk_status,~~disk_status,78,2,0
  4202                        	.sym	~~disk_initialize,~~disk_initialize,78,2
                    ,0
  4203                        	.sym	DRESULT,0,5,14,16
  4204                        	.sym	DSTATUS,0,14,14,8
  4205                        	.sym	PIRQCHAIN,0,138,14,32,89
  4206                        	.sym	IRQCHAIN,0,10,14,128,89
  4207                        	.sym	DEVICEDRIVER_COMMAND,0,654,14,32
  4208                        	.sym	DEVICEDRIVER_UNLOAD,0,654,14,32
  4209                        	.sym	DEVICEDRIVER_WRITE,0,654,14,32
  4210                        	.sym	DEVICEDRIVER_READ,0,654,14,32
  4211                        	.sym	DEVICEDRIVER_LOAD,0,654,14,32
  4212                        	.sym	DEVICEDRIVER_IRQ,0,641,14,32
  4213                        	.sym	PFX_BLOCK_DEVICE_DRIVER,0,138,14,32,88
  4214                        	.sym	FX_BLOCK_DEVICE_DRIVER,0,10,14,808,88
  4215                        	.sym	GETDRIVERDEF,0,8842,14,32,87
  4216                        	.sym	PFX_DEVICE_DRIVER,0,138,14,32,87
  Mon Sep 27 2021  9:39                                                Page 86


  4217                        	.sym	FX_DEVICE_DRIVER,0,10,14,776,87
  4218                        	.sym	~~k_debug_byte_array,~~k_debug_byte_arra
                    y,65,18,0
  4219                        	.sym	~~k_debug_long,~~k_debug_long,65,18,0
  4220                        	.sym	~~k_debug_integer,~~k_debug_integer,65,1
                    8,0
  4221                        	.sym	PSEGMENTHEADER,0,138,14,32,86
  4222                        	.sym	SEGMENTHEADER,0,10,14,160,86
  4223                        	.sym	PDEBUGBYTEBITS,0,138,14,32,85
  4224                        	.sym	DEBUGBYTEBITS,0,10,14,8,85
  4225                        	.sym	PFXENVIRONMENT,0,138,14,32,84
  4226                        	.sym	FXENVIRONMENT,0,10,14,96,84
  4227                        	.sym	PFXZEROPAGE,0,138,14,32,83
  4228                        	.sym	FXZEROPAGE,0,10,14,720,83
  4229                        	.sym	IRQBUFFER,0,10,14,32,82
  4230                        	.sym	KERNELTRAPCALL,0,641,14,32
  4231                        	.sym	PFXKERNEL_API_CALLTABLE,0,138,14,32,81
  4232                        	.sym	FXKERNEL_API_CALLTABLE,0,10,14,8192,81
  4233                        	.sym	FRESULT,0,5,14,16
  4234                        	.sym	MKFS_PARM,0,10,14,80,80
  4235                        	.sym	FILINFO,0,10,14,2224,79
  4236                        	.sym	DIR,0,10,14,416,78
  4237                        	.sym	FIL,0,10,14,4400,77
  4238                        	.sym	FFOBJID,0,10,14,128,76
  4239                        	.sym	FATFS,0,10,14,4504,75
  4240                        	.sym	LBA_t,0,18,14,32
  4241                        	.sym	FSIZE_t,0,18,14,32
  4242                        	.sym	TCHAR,0,14,14,8
  4243                        	.sym	PCOMMANDARGS,0,138,14,32,74
  4244                        	.sym	COMMANDARGS,0,10,14,64,74
  4245                        	.sym	PTOKENIZESTATE,0,133,14,32
  4246                        	.sym	TOKENIZESTATE,0,5,14,16
  4247                        	.sym	PTOKEN,0,138,14,32,73
  4248                        	.sym	TOKEN,0,10,14,64,73
  4249                        	.sym	PTOKENTYPE,0,133,14,32
  4250                        	.sym	TOKENTYPE,0,5,14,16
  4251                        	.sym	FXCommandHandler,0,656,14,32
  4252                        	.sym	PCONSOLECTX,0,138,14,32,72
  4253                        	.sym	CONSOLECTX,0,10,14,1144,72
  4254                        	.sym	PSPINNERCTX,0,138,14,32,71
  4255                        	.sym	SPINNERCTX,0,10,14,48,71
  4256                        	.sym	HCLIP,0,138,14,32,70
  4257                        	.sym	PCLIPBOARD_DATA,0,138,14,32,70
  4258                        	.sym	CLIPBOARD_DATA,0,10,14,168,70
  4259                        	.sym	PEVENTMANAGER,0,138,14,32,69
  4260                        	.sym	EVENTMANAGER,0,10,14,192,69
  4261                        	.sym	EV_RUN,0,656,14,32
  4262                        	.sym	EV_QUERY_METRIC,0,656,14,32
  4263                        	.sym	EV_CONFIGURE,0,656,14,32
  4264                        	.sym	EV_UNINIT,0,641,14,32
  4265                        	.sym	EV_INIT,0,8833,14,32
  4266                        	.sym	PMOUSE_MSG_STATE,0,138,14,32,68
  4267                        	.sym	MOUSE_MSG_STATE,0,10,14,184,68
  4268                        	.sym	PFXEVENTPROCESS,0,138,14,32,67
  4269                        	.sym	FXEVENTPROCESS,0,10,14,64,67
  4270                        	.sym	FXASYNCPROCESS,0,641,14,32
  4271                        	.sym	PMARSHALDATA,0,139,14,32,66
  4272                        	.sym	MARSHALDATA,0,11,14,32,66
  Mon Sep 27 2021  9:39                                                Page 87


  4273                        	.sym	FXIDLEPROCESS,0,641,14,32
  4274                        	.sym	FXEventProc,0,641,14,32
  4275                        	.sym	PMOUSEMSGDATA,0,138,14,32,65
  4276                        	.sym	MOUSEMSGDATA,0,10,14,64,65
  4277                        	.sym	MSGIRQ,0,5,14,16
  4278                        	.sym	MAINLOOPARGS,0,10,14,16,64
  4279                        	.sym	PEACHCHILD_MSG,0,138,14,32,63
  4280                        	.sym	EACHCHILD_MSG,0,10,14,64,63
  4281                        	.sym	PMSGBOX_DATA,0,138,14,32,62
  4282                        	.sym	MSGBOX_DATA,0,10,14,96,62
  4283                        	.sym	PDESKTOP_DATA,0,138,14,32,61
  4284                        	.sym	DESKTOP_DATA,0,10,14,64,61
  4285                        	.sym	PWINDOWMANAGER,0,138,14,32,60
  4286                        	.sym	WINDOWMANAGER,0,10,14,160,60
  4287                        	.sym	WM_DOPROCS,0,641,14,32
  4288                        	.sym	WM_QUERY_METRIC,0,656,14,32
  4289                        	.sym	WM_CONFIGURE,0,656,14,32
  4290                        	.sym	WM_HANDLE_EVENT,0,8833,14,32
  4291                        	.sym	WM_EVENTS,0,641,14,32
  4292                        	.sym	PCUR_PALETTE_MAP,0,138,14,32,59
  4293                        	.sym	CUR_PALETTE_MAP,0,10,14,400,59
  4294                        	.sym	PCLICKDETECTED,0,138,14,32,58
  4295                        	.sym	CLICKDETECTED,0,10,14,64,58
  4296                        	.sym	OBJECTCLICKED,0,641,14,32
  4297                        	.sym	PALLOCATIONHEADER,0,138,14,32,57
  4298                        	.sym	ALLOCATIONHEADER,0,10,14,80,57
  4299                        	.sym	PIPCPORT,0,138,14,32,56
  4300                        	.sym	IPCPORT,0,10,14,144,56
  4301                        	.sym	~~k_mem_deallocate_heap,~~k_mem_dealloca
                    te_heap,65,18,0
  4302                        	.sym	MemoryCallback,0,641,14,32
  4303                        	.sym	PFXMEMORYMAP,0,138,14,32,55
  4304                        	.sym	FXMEMORYMAP,0,10,14,2072,55
  4305                        	.sym	UMM_HEAP_INFO,0,10,14,256,54
  4306                        	.sym	FOREACHNODEUNTIL,0,654,14,32
  4307                        	.sym	FOREACHNODE,0,641,14,32
  4308                        	.sym	PEXECUTIVE,0,138,14,32,53
  4309                        	.sym	EXECUTIVE,0,10,14,128,53
  4310                        	.sym	EX_QUERY_METRIC,0,656,14,32
  4311                        	.sym	EX_CONFIGURE,0,656,14,32
  4312                        	.sym	EX_UNINIT,0,641,14,32
  4313                        	.sym	EX_INIT,0,8833,14,32
  4314                        	.sym	PFXSTRING,0,138,14,32,52
  4315                        	.sym	FXSTRING,0,10,14,64,52
  4316                        	.sym	PFXRFHEADER_STRING_ENTRY,0,138,14,32,51
  4317                        	.sym	FXRFHEADER_STRING_ENTRY,0,10,14,40,51
  4318                        	.sym	PFXRFHEADER_STRING,0,138,14,32,50
  4319                        	.sym	FXRFHEADER_STRING,0,10,14,32,50
  4320                        	.sym	PFXRFHEADER_FONT,0,138,14,32,49
  4321                        	.sym	FXRFHEADER_FONT,0,10,14,144,49
  4322                        	.sym	PFXRFHEADER,0,138,14,32,48
  4323                        	.sym	FXRFHEADER,0,10,14,72,48
  4324                        	.sym	PFXCOMBUFFER,0,138,14,32,47
  4325                        	.sym	FXCOMBUFFER,0,10,14,2080,47
  4326                        	.sym	PSUBMENULIST,0,138,14,32,46
  4327                        	.sym	SUBMENULIST,0,10,14,40,46
  4328                        	.sym	HSUBMENU,0,7,14,32
  4329                        	.sym	PSUBMENU,0,138,14,32,45
  Mon Sep 27 2021  9:39                                                Page 88


  4330                        	.sym	SUBMENU,0,10,14,64,45
  4331                        	.sym	MenuAction,0,641,14,32
  4332                        	.sym	PMENUANCHOR,0,138,14,32,44
  4333                        	.sym	MENUANCHOR,0,10,14,272,44
  4334                        	.sym	PMSGBOX,0,138,14,32,43
  4335                        	.sym	MSGBOX,0,10,14,144,43
  4336                        	.sym	PTEXTBOX,0,138,14,32,42
  4337                        	.sym	TEXTBOX,0,10,14,144,42
  4338                        	.sym	PLISTBOX,0,138,14,32,41
  4339                        	.sym	LISTBOX,0,10,14,240,41
  4340                        	.sym	PSCROLLBAR,0,138,14,32,40
  4341                        	.sym	SCROLLBAR,0,10,14,240,40
  4342                        	.sym	PBUTTON,0,138,14,32,39
  4343                        	.sym	BUTTON,0,10,14,96,39
  4344                        	.sym	PMENUDROPDOWNDATA,0,138,14,32,38
  4345                        	.sym	MENUDROPDOWNDATA,0,10,14,5152,38
  4346                        	.sym	PMENUTAG,0,138,14,32,37
  4347                        	.sym	MENUTAG,0,10,14,160,37
  4348                        	.sym	PMENU,0,138,14,32,36
  4349                        	.sym	MENU,0,10,14,280,36
  4350                        	.sym	HMENURESOURCE,0,129,14,32
  4351                        	.sym	FONTMETRIC,0,10,14,32,35
  4352                        	.sym	TITLE,0,142,14,32
  4353                        	.sym	PHANDLE,0,1153,14,32
  4354                        	.sym	HANDLE,0,129,14,32
  4355                        	.sym	PWINDOWEX,0,138,14,32,34
  4356                        	.sym	WINDOWEX,0,10,14,3880,34
  4357                        	.sym	PWINDOW,0,138,14,32,33
  4358                        	.sym	WINDOW,0,10,14,3904,33
  4359                        	.sym	PDRAGDATA,0,138,14,32,32
  4360                        	.sym	DRAGDATA,0,10,14,216,32
  4361                        	.sym	PNCCLICKABLE,0,138,14,32,31
  4362                        	.sym	NCCLICKABLE,0,10,14,136,31
  4363                        	.sym	HCLICKABLE,0,7,14,32
  4364                        	.sym	PCLICKABLE,0,138,14,32,30
  4365                        	.sym	CLICKABLE,0,10,14,152,30
  4366                        	.sym	PWNDCLASS,0,138,14,32,29
  4367                        	.sym	WNDCLASS,0,10,14,272,29
  4368                        	.sym	HBRUSH,0,129,14,32
  4369                        	.sym	HCURSOR,0,129,14,32
  4370                        	.sym	HICON,0,129,14,32
  4371                        	.sym	HINSTANCE,0,129,14,32
  4372                        	.sym	FXWndProc,0,654,14,32
  4373                        	.sym	PDRECT,0,138,14,32,28
  4374                        	.sym	DRECT,0,10,14,112,28
  4375                        	.sym	PRECTP,0,138,14,32,27
  4376                        	.sym	RECTP,0,10,14,96,27
  4377                        	.sym	PRECT,0,138,14,32,26
  4378                        	.sym	RECT,0,10,14,112,26
  4379                        	.sym	PPOINT,0,138,14,32,25
  4380                        	.sym	POINT,0,10,14,32,25
  4381                        	.sym	PFXPROPERTY,0,138,14,32,23
  4382                        	.sym	FXPROPERTY,0,10,14,384,23
  4383                        	.sym	PKEYSTATE,0,138,14,32,22
  4384                        	.sym	KEYSTATE,0,10,14,112,22
  4385                        	.sym	SCANCODE,0,14,14,8
  4386                        	.sym	KEYCODE,0,16,14,16
  4387                        	.sym	PFXPROCESSMESSAGE,0,138,14,32,21
  Mon Sep 27 2021  9:39                                                Page 89


  4388                        	.sym	FXPROCESSMESSAGE,0,10,14,112,21
  4389                        	.sym	PFXPROCESS,0,138,14,32,20
  4390                        	.sym	FXPROCESS,0,10,14,800,20
  4391                        	.sym	PDESKTOP_CONTROL,0,138,14,32,19
  4392                        	.sym	DESKTOP_CONTROL,0,10,14,392,19
  4393                        	.sym	PCONSOLE_CONTROL,0,138,14,32,18
  4394                        	.sym	CONSOLE_CONTROL,0,10,14,448,18
  4395                        	.sym	FXProcessProc,0,641,14,32
  4396                        	.sym	PFXCMDMESSAGE,0,138,14,32,17
  4397                        	.sym	FXCMDMESSAGE,0,10,14,312,17
  4398                        	.sym	PFXOSMESSAGE,0,138,14,32,16
  4399                        	.sym	FXOSMESSAGE,0,10,14,312,16
  4400                        	.sym	PINT_REGS,0,138,14,32,15
  4401                        	.sym	INT_REGS,0,10,14,104,15
  4402                        	.sym	TASK_STACK,0,10,14,32,14
  4403                        	.sym	TASK,0,10,14,48,13
  4404                        	.sym	PIRQDATA,0,138,14,32,12
  4405                        	.sym	IRQDATA,0,10,14,48,12
  4406                        	.sym	HMENU,0,129,14,32
  4407                        	.sym	HWND,0,129,14,32
  4408                        	.sym	MSGDATA,0,14,14,8
  4409                        	.sym	MSGDEST,0,18,14,32
  4410                        	.sym	MSGSRC,0,18,14,32
  4411                        	.sym	MSGTYPE,0,16,14,16
  4412                        	.sym	PROCESS_RESOURCE_LIST,0,138,14,32,6
  4413                        	.sym	PROCESS_TLS_LIST,0,138,14,32,6
  4414                        	.sym	SEMAPHORE_LIST,0,138,14,32,6
  4415                        	.sym	FILE_BLOCK_LIST,0,138,14,32,6
  4416                        	.sym	FILE_PATH_LIST,0,138,14,32,6
  4417                        	.sym	PROCEDURE_LIST,0,138,14,32,6
  4418                        	.sym	FILE_HANDLE,0,138,14,32,11
  4419                        	.sym	FILE_BLOCK,0,10,14,552,11
  4420                        	.sym	SEMAPHORE,0,10,14,16,10
  4421                        	.sym	PPROCESS_SIGNAL,0,138,14,32,9
  4422                        	.sym	PROCESS_SIGNAL,0,10,14,16,9
  4423                        	.sym	KRESULT,0,18,14,32
  4424                        	.sym	PKERNEL_ERROR,0,138,14,32,8
  4425                        	.sym	KERNEL_ERROR,0,10,14,32,8
  4426                        	.sym	PROCESS_STATUS,0,16,14,16
  4427                        	.sym	FILE_PATH_NAME,0,142,14,32
  4428                        	.sym	PROCESS_RESOURCE,0,129,14,32
  4429                        	.sym	PROCESS_TLS,0,129,14,32
  4430                        	.sym	PROCESS_CTX,0,129,14,32
  4431                        	.sym	USERID,0,16,14,16
  4432                        	.sym	PROCESS_ID,0,18,14,32
  4433                        	.sym	PROCESS_BANK,0,14,14,8
  4434                        	.sym	PFXQUEUE,0,138,14,32,7
  4435                        	.sym	FXQUEUE,0,10,14,80,7
  4436                        	.sym	PFXNODELIST,0,138,14,32,6
  4437                        	.sym	FXNODELIST,0,10,14,96,6
  4438                        	.sym	NodeListDeallocator,0,641,14,32
  4439                        	.sym	PFXNODE,0,138,14,32,5
  4440                        	.sym	FXNODE,0,10,14,384,5
  4441                        	.sym	PBYTEBITS,0,138,14,32,4
  4442                        	.sym	BYTEBITS,0,10,14,8,4
  4443                        	.sym	HRESULT,0,18,14,32
  4444                        	.sym	LPWCHAR,0,144,14,32
  4445                        	.sym	WCHAR,0,16,14,16
  Mon Sep 27 2021  9:39                                                Page 90


  4446                        	.sym	HSTRINGTABLE,0,129,14,32
  4447                        	.sym	HCOLOR,0,129,14,32
  4448                        	.sym	HFONT,0,129,14,32
  4449                        	.sym	HDC,0,129,14,32
  4450                        	.sym	HPOINTER,0,129,14,32
  4451                        	.sym	uint32_t,0,18,14,32
  4452                        	.sym	uint8_t,0,14,14,8
  4453                        	.sym	LPBOOL,0,142,14,32
  4454                        	.sym	BOOL,0,14,14,8
  4455                        	.sym	DWORD,0,18,14,32
  4456                        	.sym	ULONG,0,18,14,32
  4457                        	.sym	LPLONG,0,135,14,32
  4458                        	.sym	LONG,0,7,14,32
  4459                        	.sym	PUINT,0,144,14,32
  4460                        	.sym	USHORT,0,16,14,16
  4461                        	.sym	UINT,0,16,14,16
  4462                        	.sym	INT,0,5,14,16
  4463                        	.sym	WORD,0,5,14,16
  4464                        	.sym	PBYTE,0,142,14,32
  4465                        	.sym	BYTE,0,14,14,8
  4466                        	.sym	IOPORT,0,142,14,32
  4467                        	.sym	PUCHAR,0,142,14,32
  4468                        	.sym	UCHAR,0,14,14,8
  4469                        	.sym	LPWCSTR,0,142,14,32
  4470                        	.sym	LPCSTR,0,142,14,32
  4471                        	.sym	LPSTR,0,142,14,32
  4472                        	.sym	LPCHAR,0,142,14,32
  4473                        	.sym	CHAR,0,14,14,8
  4474                        	.sym	PUINT_32,0,146,14,32
  4475                        	.sym	UINT_32,0,18,14,32
  4476                        	.sym	PUINT_16,0,144,14,32
  4477                        	.sym	UINT_16,0,16,14,16
  4478                        	.sym	PUINT_8,0,142,14,32
  4479                        	.sym	UINT_8,0,14,14,8
  4480                        	.sym	LPVOID,0,129,14,32
  4481                        	.sym	VOID,0,1,14,32
  4482                        	.sym	~~memset,~~memset,1089,18,32
  4483                        	.sym	~~memcpy,~~memcpy,1089,18,32
  4484                        	.sym	Boolean_T,0,5,14,16
  4485                        	.sym	ldiv_t,0,10,14,64,2
  4486                        	.sym	div_t,0,10,14,32,1
  4487                        	.sym	wctype_t,0,16,14,16
  4488                        	.sym	wint_t,0,16,14,16
  4489                        	.sym	wchar_t,0,14,14,8
  4490                        	.sym	ptrdiff_t,0,7,14,32
  4491                        	.sym	size_t,0,16,14,16
  4492                        	end


      Lines assembled: 4492
      Errors: 0
