  Mon Sep 27 2021  9:39                                                Page 1


                     ***************************************
                     **      WDC 65C816 Macro Assembler   **
                     **                                   **
                     **     Version 1.00- Aug 10 2021    **
                     ***************************************

     1                        ;:ts=8
     2             00000001   R0	equ	1
     3             00000005   R1	equ	5
     4             00000009   R2	equ	9
     5             0000000D   R3	equ	13
     6                        	.file	"G:\devprojects\c256Foenix\fxos\FXOSWork
                    space\FXOS-Beta\src\drivers/DRIVER_FMXCOM1.c",0
     7                        ;
     8                        ;#include "fxkernel.h"
     9                        	.file	"G:\devprojects\c256Foenix\fxos\FXOSWork
                    space\FXOS-Beta\src\fxkernel.h",0
    10                        	.file	"G:\devprojects\c256Foenix\fxos\FXOSWork
                    space\FXOS-Beta\src\fxos.h",0
    11                        	.file	"G:\devtools\WDCTools\wdc\Tools\include\
                    stdlib.h",0
    12                        	.file	"G:\devtools\WDCTools\wdc\Tools\include\
                    stddef.h",0
    13                        	.line	88
    14                        	.file	"G:\devtools\WDCTools\wdc\Tools\include\
                    stdlib.h",43
    15                        	.stag	fake1_,32,1
    16                        	.member	quot,0,5,8,16
    17                        	.member	rem,16,5,8,16
    18                        	.eos
    19                        	.stag	fake2_,64,2
    20                        	.member	quot,0,7,8,32
    21                        	.member	rem,32,7,8,32
    22                        	.eos
    23                        	.stag	int_sqrt,32,3
    24                        	.member	sqrt,0,16,8,16
    25                        	.member	frac,16,16,8,16
    26                        	.eos
    27                        	.line	205
    28                        	.file	"G:\devprojects\c256Foenix\fxos\FXOSWork
                    space\FXOS-Beta\src\fxos.h",4
    29                        	.file	"G:\devtools\WDCTools\wdc\Tools\include\
                    string.h",0
    30                        	.line	134
    31                        	.file	"G:\devprojects\c256Foenix\fxos\FXOSWork
                    space\FXOS-Beta\src\fxos.h",5
    32                        	.file	"G:\devtools\WDCTools\wdc\Tools\include\
                    ctype.h",0
    33                        	.line	103
    34                        	.file	"G:\devprojects\c256Foenix\fxos\FXOSWork
                    space\FXOS-Beta\src\fxos.h",6
    35                        	.file	"G:\devprojects\c256Foenix\fxos\FXOSWork
                    space\FXOS-Beta\src\fxtypes.h",0
    36                        	.stag	_fx_bytebits,8,4
    37                        	.member	b7,0,14,17,1
    38                        	.member	b6,1,14,17,1
    39                        	.member	b5,2,14,17,1
    40                        	.member	b4,3,14,17,1
  Mon Sep 27 2021  9:39                                                Page 2


    41                        	.member	b3,4,14,17,1
    42                        	.member	b2,5,14,17,1
    43                        	.member	b1,6,14,17,1
    44                        	.member	b0,7,14,17,1
    45                        	.eos
    46                        	.stag	_fx_node,384,5
    47                        	.member	type,0,14,8,8
    48                        	.member	Reserved0,8,14,8,8
    49                        	.member	data,16,129,8,32
    50                        	.member	last,48,138,8,32,5
    51                        	.member	next,80,138,8,32,5
    52                        	.member	name,112,110,8,0,32
    53                        	.member	Reserved1,368,16,8,16
    54                        	.eos
    55                        	.stag	_fx_nodelist,96,6
    56                        	.member	listhead,0,138,8,32,5
    57                        	.member	listData,32,129,8,32
    58                        	.member	deallocator,64,641,8,32
    59                        	.eos
    60                        	.stag	_fx_queue,80,7
    61                        	.member	count,0,5,8,16
    62                        	.member	front,16,138,8,32,5
    63                        	.member	rear,48,138,8,32,5
    64                        	.eos
    65                        	.stag	fake8_,32,8
    66                        	.member	subsystem,0,14,8,8
    67                        	.member	level,8,14,8,8
    68                        	.member	error,16,16,8,16
    69                        	.eos
    70                        	.stag	_fx_process_signal,16,9
    71                        	.member	cbSize,0,16,8,16
    72                        	.eos
    73                        	.stag	_fx_semaphore,16,10
    74                        	.member	reserved,0,5,8,16
    75                        	.eos
    76                        	.stag	_fx_fileBlock,552,11
    77                        	.member	openCount,0,16,8,16
    78                        	.member	lockCount,16,16,8,16
    79                        	.member	dirty,32,14,8,8
    80                        	.member	fileBuffer,40,110,8,0,64
    81                        	.eos
    82                        	.stag	_fx_irq_data,48,12
    83                        	.member	line,0,5,8,16
    84                        	.member	keycode,16,142,8,32
    85                        	.eos
    86                        	.stag	_task,48,13
    87                        	.member	SPL,0,14,8,8
    88                        	.member	SPH,8,14,8,8
    89                        	.member	pstack,16,142,8,32
    90                        	.eos
    91                        	.stag	_task_stack,32,14
    92                        	.member	SS,0,142,8,32
    93                        	.eos
    94                        	.stag	int_regs,104,15
    95                        	.member	PB,0,14,8,8
    96                        	.member	PH,8,14,8,8
    97                        	.member	PL,16,14,8,8
    98                        	.member	PP,24,14,8,8
  Mon Sep 27 2021  9:39                                                Page 3


    99                        	.member	DB,32,14,8,8
   100                        	.member	DH,40,14,8,8
   101                        	.member	DL,48,14,8,8
   102                        	.member	AH,56,14,8,8
   103                        	.member	AL,64,14,8,8
   104                        	.member	XH,72,14,8,8
   105                        	.member	XL,80,14,8,8
   106                        	.member	YH,88,14,8,8
   107                        	.member	YL,96,14,8,8
   108                        	.eos
   109                        	.stag	_fx_eventMessage,312,16
   110                        	.member	src,0,18,8,32
   111                        	.member	dest,32,18,8,32
   112                        	.member	type,64,16,8,16
   113                        	.member	hwnd,80,129,8,32
   114                        	.member	pheap,112,129,8,32
   115                        	.member	msgTime,144,18,8,32
   116                        	.member	data,176,110,8,0,16
   117                        	.member	attr,304,14,8,8
   118                        	.eos
   119                        	.stag	_fx_cmdMessage,312,17
   120                        	.member	src,0,18,8,32
   121                        	.member	dest,32,18,8,32
   122                        	.member	type,64,16,8,16
   123                        	.member	hwnd,80,129,8,32
   124                        	.member	pheap,112,129,8,32
   125                        	.member	msgTime,144,18,8,32
   126                        	.member	cmdCId,176,16,8,16
   127                        	.member	cmdMId,192,16,8,16
   128                        	.member	parameter1,208,18,8,32
   129                        	.member	parameter2,240,18,8,32
   130                        	.member	parameter3,272,18,8,32
   131                        	.member	attr,304,14,8,8
   132                        	.eos
   133                        	.stag	_fx_console_ctl,448,18
   134                        	.member	maxCols,0,5,8,16
   135                        	.member	maxRows,16,5,8,16
   136                        	.member	curX,32,5,8,16
   137                        	.member	curY,48,5,8,16
   138                        	.member	fgColor,64,5,8,16
   139                        	.member	bgColor,80,5,8,16
   140                        	.member	mode,96,14,8,8
   141                        	.member	kbBuffer,104,101,8,0,16
   142                        	.member	screenBuffer,360,142,8,32
   143                        	.member	desktopMode,392,14,8,8
   144                        	.member	lastMouseButton,400,5,8,16
   145                        	.member	lastMouseX,416,5,8,16
   146                        	.member	lastMouseY,432,5,8,16
   147                        	.eos
   148                        	.stag	_fx_desktop_ctl,392,19
   149                        	.member	desktopMode,0,14,8,8
   150                        	.member	cursorCtl,8,5,8,16
   151                        	.member	cursorState,24,5,8,16
   152                        	.member	backgroundColor,40,5,8,16
   153                        	.member	foregroundColor,56,5,8,16
   154                        	.member	menuMode,72,5,8,16
   155                        	.member	lastMouseButton,88,5,8,16
   156                        	.member	lastMouseX,104,5,8,16
  Mon Sep 27 2021  9:39                                                Page 4


   157                        	.member	lastMouseY,120,5,8,16
   158                        	.member	currentDiskName,136,142,8,32
   159                        	.member	diskNodes,168,129,8,32
   160                        	.member	titleNodes,200,129,8,32
   161                        	.member	menuNodes,232,129,8,32
   162                        	.member	iconNodes,264,129,8,32
   163                        	.member	windowNodes,296,129,8,32
   164                        	.member	fontNodes,328,129,8,32
   165                        	.member	wndProc,360,138,8,32,6
   166                        	.eos
   167                        	.stag	_fx_process,800,20
   168                        	.member	cbSize,0,5,8,16
   169                        	.member	procId,16,18,8,32
   170                        	.member	parentId,48,18,8,32
   171                        	.member	ctx,80,129,8,32
   172                        	.member	userId,112,16,8,16
   173                        	.member	status,128,16,8,16
   174                        	.member	foregroundActive,144,14,8,8
   175                        	.member	tls,152,1121,8,32,8
   176                        	.member	commandLine,408,142,8,32
   177                        	.member	semaphores,440,138,8,32,6
   178                        	.member	fileHandles,472,138,8,32,6
   179                        	.member	pathList,504,138,8,32,6
   180                        	.member	resources,536,138,8,32,6
   181                        	.member	timerAware,568,14,8,8
   182                        	.member	timerTicks,576,112,8,0,2
   183                        	.member	timerTickCount,608,112,8,0,2
   184                        	.member	kernelError,640,10,8,32,8
   185                        	.member	consoleCtl,672,138,8,32,18
   186                        	.member	desktopCtl,704,138,8,32,19
   187                        	.member	execProc,736,641,8,32
   188                        	.member	startupArgs,768,129,8,32
   189                        	.eos
   190                        	.stag	_fxProcessMessage,112,21
   191                        	.member	src,0,18,8,32
   192                        	.member	dest,32,18,8,32
   193                        	.member	type,64,16,8,16
   194                        	.member	processInfo,80,138,8,32,20
   195                        	.eos
   196                        	.stag	_k_key_state,112,22
   197                        	.member	scanCode,0,14,8,8
   198                        	.member	isShifted,8,14,8,8
   199                        	.member	isAlt,16,14,8,8
   200                        	.member	isExtended,24,14,8,8
   201                        	.member	isCapsLock,32,14,8,8
   202                        	.member	isNumLock,40,14,8,8
   203                        	.member	isScrollLock,48,14,8,8
   204                        	.member	keyChar,56,16,8,16
   205                        	.member	scanTime,72,18,8,32
   206                        	.member	ledStatus,104,14,8,8
   207                        	.eos
   208                        	.stag	_fx_property,384,23
   209                        	.member	name,0,110,8,0,16
   210                        	.member	value,128,110,8,0,32
   211                        	.eos
   212                        	.utag	_24bitPointer,32,24
   213                        	.member	address,0,142,11,32
   214                        	.member	bytes,0,110,11,0,4
  Mon Sep 27 2021  9:39                                                Page 5


   215                        	.eos
   216                        	.stag	_PointStruct,32,25
   217                        	.member	x,0,5,8,16
   218                        	.member	y,16,5,8,16
   219                        	.eos
   220                        	.stag	_RectStruct,112,26
   221                        	.member	x,0,5,8,16
   222                        	.member	y,16,5,8,16
   223                        	.member	z,32,18,8,32
   224                        	.member	width,64,5,8,16
   225                        	.member	height,80,5,8,16
   226                        	.member	attr,96,5,8,16
   227                        	.eos
   228                        	.stag	fake27_,96,27
   229                        	.member	name,0,142,8,32
   230                        	.member	topLeft,32,10,8,32,25
   231                        	.member	bottomRight,64,10,8,32,25
   232                        	.eos
   233                        	.stag	fake28_,112,28
   234                        	.member	x,0,5,8,16
   235                        	.member	y,16,5,8,16
   236                        	.member	z,32,5,8,16
   237                        	.member	width,48,5,8,16
   238                        	.member	height,64,5,8,16
   239                        	.member	data,80,18,8,32
   240                        	.eos
   241                        	.stag	_k_WindowClass,272,29
   242                        	.member	cbSize,0,16,8,16
   243                        	.member	style,16,16,8,16
   244                        	.member	styleEx,32,16,8,16
   245                        	.member	pWndProc,48,654,8,32
   246                        	.member	hInstance,80,129,8,32
   247                        	.member	hIcon,112,129,8,32
   248                        	.member	hCursor,144,129,8,32
   249                        	.member	hbrBackground,176,129,8,32
   250                        	.member	lpszMenuName,208,142,8,32
   251                        	.member	lpszClassName,240,142,8,32
   252                        	.eos
   253                        	.stag	_ClickableRect,152,30
   254                        	.member	area,0,10,8,112,26
   255                        	.member	z,112,18,8,32
   256                        	.member	enabled,144,14,8,8
   257                        	.eos
   258                        	.stag	_NCClickableRect,136,31
   259                        	.member	area,0,10,8,112,26
   260                        	.member	msgType,112,16,8,16
   261                        	.member	enabled,128,14,8,8
   262                        	.eos
   263                        	.stag	_DragData,216,32
   264                        	.member	area,0,10,8,112,26
   265                        	.member	xoffset,112,5,8,16
   266                        	.member	yoffset,128,5,8,16
   267                        	.member	msgType,144,16,8,16
   268                        	.member	ncAction,160,16,8,16
   269                        	.member	isDrag,176,14,8,8
   270                        	.member	isResize,184,14,8,8
   271                        	.member	canDrag,192,14,8,8
   272                        	.member	canDrop,200,14,8,8
  Mon Sep 27 2021  9:39                                                Page 6


   273                        	.member	didDrag,208,14,8,8
   274                        	.eos
   275                        	.stag	_k_WindowStruct,3904,33
   276                        	.member	cbSize,0,16,8,16
   277                        	.member	style,16,18,8,32
   278                        	.member	styleEx,48,18,8,32
   279                        	.member	win_id,80,5,8,16
   280                        	.member	win_x,96,5,8,16
   281                        	.member	win_y,112,5,8,16
   282                        	.member	win_width,128,5,8,16
   283                        	.member	win_height,144,5,8,16
   284                        	.member	win_xoffset,160,5,8,16
   285                        	.member	win_yoffset,176,5,8,16
   286                        	.member	win_cxoffset,192,5,8,16
   287                        	.member	win_cyoffset,208,5,8,16
   288                        	.member	wndRect,224,10,8,112,26
   289                        	.member	clientRect,336,10,8,112,26
   290                        	.member	nonclientGadgets,448,106,8,0,31,16
   291                        	.member	clickable,2624,129,8,32
   292                        	.member	win_title,2656,110,8,0,32
   293                        	.member	Reserved0,2912,16,8,16
   294                        	.member	win_class,2928,110,8,0,16
   295                        	.member	win_class_name,3056,110,8,0,32
   296                        	.member	nBitmapLayer,3312,16,8,16
   297                        	.member	bgRegion,3328,129,8,32
   298                        	.member	procid,3360,18,8,32
   299                        	.member	pWndClass,3392,138,8,32,29
   300                        	.member	pParentWindow,3424,129,8,32
   301                        	.member	hMenu,3456,129,8,32
   302                        	.member	hPointer,3488,129,8,32
   303                        	.member	hBackground,3520,129,8,32
   304                        	.member	pChildWindows,3552,138,8,32,6
   305                        	.member	pChildHitList,3584,138,8,32,6
   306                        	.member	isVisible,3616,14,8,8
   307                        	.member	windowData,3624,129,8,32
   308                        	.member	clientData,3656,1121,8,32,6
   309                        	.member	isClosed,3848,14,8,8
   310                        	.member	isClosing,3856,14,8,8
   311                        	.member	isDesktop,3864,14,8,8
   312                        	.member	clickableNode,3872,138,8,32,5
   313                        	.eos
   314                        	.stag	_k_WindowStructEx,3880,34
   315                        	.member	cbSize,0,16,8,16
   316                        	.member	style,16,18,8,32
   317                        	.member	styleEx,48,18,8,32
   318                        	.member	win_id,80,5,8,16
   319                        	.member	win_x,96,5,8,16
   320                        	.member	win_y,112,5,8,16
   321                        	.member	win_width,128,5,8,16
   322                        	.member	win_height,144,5,8,16
   323                        	.member	win_xoffset,160,5,8,16
   324                        	.member	win_yoffset,176,5,8,16
   325                        	.member	win_cxoffset,192,5,8,16
   326                        	.member	win_cyoffset,208,5,8,16
   327                        	.member	wndRect,224,10,8,112,26
   328                        	.member	clientRect,336,10,8,112,26
   329                        	.member	nonclientGadgets,448,106,8,0,31,16
   330                        	.member	clickable,2624,129,8,32
  Mon Sep 27 2021  9:39                                                Page 7


   331                        	.member	win_title,2656,110,8,0,32
   332                        	.member	Reserved0,2912,16,8,16
   333                        	.member	win_class,2928,110,8,0,16
   334                        	.member	nBitmapLayer,3056,16,8,16
   335                        	.member	procid,3072,18,8,32
   336                        	.member	pWndClass,3104,138,8,32,29
   337                        	.member	pParentWindow,3136,129,8,32
   338                        	.member	hMenu,3168,129,8,32
   339                        	.member	hPointer,3200,129,8,32
   340                        	.member	hBackground,3232,129,8,32
   341                        	.member	pChildWindows,3264,138,8,32,6
   342                        	.member	pChildHitList,3296,138,8,32,6
   343                        	.member	isVisible,3328,14,8,8
   344                        	.member	windowData,3336,129,8,32
   345                        	.member	clientData,3368,1121,8,32,4
   346                        	.member	isClosed,3496,14,8,8
   347                        	.member	hWnd,3504,129,8,32
   348                        	.member	localRect,3536,10,8,112,26
   349                        	.member	globalRect,3648,10,8,112,26
   350                        	.member	clientOffsetRect,3760,10,8,112,26
   351                        	.member	isDesktop,3872,14,8,8
   352                        	.eos
   353                        	.stag	_FontMetric,32,35
   354                        	.member	width,0,5,8,16
   355                        	.member	height,16,5,8,16
   356                        	.eos
   357                        	.stag	_MenuStruct,280,36
   358                        	.member	cx,0,5,8,16
   359                        	.member	cy,16,5,8,16
   360                        	.member	width,32,5,8,16
   361                        	.member	height,48,5,8,16
   362                        	.member	fcolor,64,14,8,8
   363                        	.member	bcolor,72,14,8,8
   364                        	.member	chromeLeft,80,14,8,8
   365                        	.member	chromeRight1,88,14,8,8
   366                        	.member	chromeRight2,96,14,8,8
   367                        	.member	hFont,104,129,8,32
   368                        	.member	itemId,136,16,8,16
   369                        	.member	pCaption,152,142,8,32
   370                        	.member	subMenus,184,138,8,32,6
   371                        	.member	pBackground,216,129,8,32
   372                        	.member	hWndOwner,248,129,8,32
   373                        	.eos
   374                        	.stag	fake37_,160,37
   375                        	.member	menuId,0,16,8,16
   376                        	.member	caption,16,142,8,32
   377                        	.member	rect,48,10,8,112,26
   378                        	.eos
   379                        	.stag	fake38_,5152,38
   380                        	.member	pParent,0,138,8,32,33
   381                        	.member	rect,32,10,8,112,26
   382                        	.member	captions,144,1134,8,32,24
   383                        	.member	chrome,912,110,8,0,24
   384                        	.member	ids,1104,112,8,0,24
   385                        	.member	clickable,1488,106,8,0,30,24
   386                        	.member	selected,5136,16,8,16
   387                        	.eos
   388                        	.stag	_fx_button_t,96,39
  Mon Sep 27 2021  9:39                                                Page 8


   389                        	.member	pCaption,0,142,8,32
   390                        	.member	cCaption,32,16,8,16
   391                        	.member	data,48,129,8,32
   392                        	.member	captionPixelWidth,80,16,8,16
   393                        	.eos
   394                        	.stag	_fx_scrollbar_t,240,40
   395                        	.member	min,0,16,8,16
   396                        	.member	max,16,16,8,16
   397                        	.member	increment,32,16,8,16
   398                        	.member	stopsize,48,16,8,16
   399                        	.member	location,64,5,8,16
   400                        	.member	state,80,5,8,16
   401                        	.member	rectThumb,96,10,8,112,26
   402                        	.member	data,208,129,8,32
   403                        	.eos
   404                        	.stag	_fx_listbox_t,240,41
   405                        	.member	pos,0,5,8,16
   406                        	.member	selected,16,16,8,16
   407                        	.member	offsetX,32,5,8,16
   408                        	.member	offsetY,48,5,8,16
   409                        	.member	inc,64,5,8,16
   410                        	.member	direction,80,5,8,16
   411                        	.member	top,96,5,8,16
   412                        	.member	bottom,112,5,8,16
   413                        	.member	indexTop,128,5,8,16
   414                        	.member	indexBottom,144,5,8,16
   415                        	.member	maxItems,160,16,8,16
   416                        	.member	fontSet,176,142,8,32
   417                        	.member	data,208,129,8,32
   418                        	.eos
   419                        	.stag	_fx_textbox_t,144,42
   420                        	.member	pos,0,5,8,16
   421                        	.member	selected,16,16,8,16
   422                        	.member	offsetX,32,5,8,16
   423                        	.member	offsetY,48,5,8,16
   424                        	.member	isShifted,64,14,8,8
   425                        	.member	cursorState,72,14,8,8
   426                        	.member	fontSet,80,142,8,32
   427                        	.member	data,112,129,8,32
   428                        	.eos
   429                        	.stag	_fx_msgbox_t,144,43
   430                        	.member	pos,0,5,8,16
   431                        	.member	selected,16,16,8,16
   432                        	.member	offsetX,32,5,8,16
   433                        	.member	offsetY,48,5,8,16
   434                        	.member	isShifted,64,14,8,8
   435                        	.member	cursorState,72,14,8,8
   436                        	.member	fontSet,80,142,8,32
   437                        	.member	data,112,129,8,32
   438                        	.eos
   439                        	.stag	_fx_menuAnchor_t,272,44
   440                        	.member	pCaption,0,142,8,32
   441                        	.member	renderLayoutX,32,16,8,16
   442                        	.member	renderLayoutY,48,16,8,16
   443                        	.member	captionPixelWidth,64,16,8,16
   444                        	.member	data,80,129,8,32
   445                        	.member	droppedWindow,112,138,8,32,33
   446                        	.member	bytes,144,110,8,0,16
  Mon Sep 27 2021  9:39                                                Page 9


   447                        	.eos
   448                        	.stag	_SubMenuStruct,64,45
   449                        	.member	caption,0,142,8,32
   450                        	.member	action,32,641,8,32
   451                        	.eos
   452                        	.stag	_SubMenuListStruct,40,46
   453                        	.member	cMenus,0,14,8,8
   454                        	.member	psubmenus,8,9354,8,32,45
   455                        	.eos
   456                        	.stag	_fx_ComBuffer,2080,47
   457                        	.member	cbSize,0,16,8,16
   458                        	.member	cbBuffer,16,16,8,16
   459                        	.member	buffer,32,110,8,0,256
   460                        	.eos
   461                        	.stag	_fx_resource_header,72,48
   462                        	.member	magic,0,110,8,0,4
   463                        	.member	major,32,14,8,8
   464                        	.member	minor,40,14,8,8
   465                        	.member	type,48,14,8,8
   466                        	.member	reserved,56,14,8,8
   467                        	.member	resheaderSize,64,14,8,8
   468                        	.eos
   469                        	.stag	_fx_resource_header_font,144,49
   470                        	.member	title,0,110,8,0,16
   471                        	.member	height,128,14,8,8
   472                        	.member	width,136,14,8,8
   473                        	.eos
   474                        	.stag	_fx_resource_string,32,50
   475                        	.member	locale,0,110,8,0,2
   476                        	.member	entries,16,16,8,16
   477                        	.eos
   478                        	.stag	_fx_resource_string_entry,40,51
   479                        	.member	index,0,16,8,16
   480                        	.member	length,16,16,8,16
   481                        	.member	data,32,14,8,8
   482                        	.eos
   483                        	.line	1064
   484                        	.file	"G:\devprojects\c256Foenix\fxos\FXOSWork
                    space\FXOS-Beta\src\fxos.h",8
   485                        	.file	"G:\devprojects\c256Foenix\fxos\FXOSWork
                    space\FXOS-Beta\src\fxstringtable.h",0
   486                        	.line	90
   487                        	.file	"G:\devprojects\c256Foenix\fxos\FXOSWork
                    space\FXOS-Beta\src\fxos.h",9
   488                        	.file	"G:\devprojects\c256Foenix\fxos\FXOSWork
                    space\FXOS-Beta\src\fxc256u.h",0
   489                        	.file	"G:\devprojects\c256Foenix\fxos\FXOSWork
                    space\FXOS-Beta\src\fxtypes.h",0
   490                        	.line	1064
   491                        	.file	"G:\devprojects\c256Foenix\fxos\FXOSWork
                    space\FXOS-Beta\src\fxc256u.h",5
   492                        	.file	"G:\devprojects\c256Foenix\fxos\FXOSWork
                    space\FXOS-Beta\src\fmx_vicky.h",0
   493                        	.file	"G:\devprojects\c256Foenix\fxos\FXOSWork
                    space\FXOS-Beta\src\fxtypes.h",0
   494                        	.line	1064
   495                        	.file	"G:\devprojects\c256Foenix\fxos\FXOSWork
                    space\FXOS-Beta\src\fmx_vicky.h",11
  Mon Sep 27 2021  9:39                                                Page 10


   496                        	.line	72
   497                        	.file	"G:\devprojects\c256Foenix\fxos\FXOSWork
                    space\FXOS-Beta\src\fxc256u.h",6
   498                        	.line	1963
   499                        	.file	"G:\devprojects\c256Foenix\fxos\FXOSWork
                    space\FXOS-Beta\src\fxos.h",16
   500                        	.file	"G:\devprojects\c256Foenix\fxos\FXOSWork
                    space\FXOS-Beta\src\fxkernel.h",0
   501                        	.line	475
   502                        	.file	"G:\devprojects\c256Foenix\fxos\FXOSWork
                    space\FXOS-Beta\src\fxos.h",22
   503                        	.file	"G:\devprojects\c256Foenix\fxos\FXOSWork
                    space\FXOS-Beta\src\fxconsole.h",0
   504                        	.file	"G:\devtools\WDCTools\wdc\Tools\include\
                    string.h",0
   505                        	.line	134
   506                        	.file	"G:\devprojects\c256Foenix\fxos\FXOSWork
                    space\FXOS-Beta\src\fxconsole.h",5
   507                        	.file	"G:\devtools\WDCTools\wdc\Tools\include\
                    stdlib.h",0
   508                        	.line	205
   509                        	.file	"G:\devprojects\c256Foenix\fxos\FXOSWork
                    space\FXOS-Beta\src\fxconsole.h",6
   510                        	.file	"G:\devprojects\c256Foenix\fxos\FXOSWork
                    space\FXOS-Beta\src\fxtypes.h",0
   511                        	.line	1064
   512                        	.file	"G:\devprojects\c256Foenix\fxos\FXOSWork
                    space\FXOS-Beta\src\fxconsole.h",7
   513                        	.file	"G:\devprojects\c256Foenix\fxos\FXOSWork
                    space\FXOS-Beta\src\fxc256u.h",0
   514                        	.line	1963
   515                        	.file	"G:\devprojects\c256Foenix\fxos\FXOSWork
                    space\FXOS-Beta\src\fxconsole.h",12
   516                        	.file	"G:\devprojects\c256Foenix\fxos\FXOSWork
                    space\FXOS-Beta\src\fxstring.h",0
   517                        	.file	"G:\devtools\WDCTools\wdc\Tools\include\
                    stdlib.h",0
   518                        	.line	205
   519                        	.file	"G:\devprojects\c256Foenix\fxos\FXOSWork
                    space\FXOS-Beta\src\fxstring.h",5
   520                        	.file	"G:\devtools\WDCTools\wdc\Tools\include\
                    string.h",0
   521                        	.line	134
   522                        	.file	"G:\devprojects\c256Foenix\fxos\FXOSWork
                    space\FXOS-Beta\src\fxstring.h",6
   523                        	.file	"G:\devprojects\c256Foenix\fxos\FXOSWork
                    space\FXOS-Beta\src\fxtypes.h",0
   524                        	.line	1064
   525                        	.file	"G:\devprojects\c256Foenix\fxos\FXOSWork
                    space\FXOS-Beta\src\fxstring.h",7
   526                        	.stag	_fx_string,64,52
   527                        	.member	size,0,16,8,16
   528                        	.member	pos,16,5,8,16
   529                        	.member	buffer,32,142,8,32
   530                        	.eos
   531                        	.line	141
   532                        	.file	"G:\devprojects\c256Foenix\fxos\FXOSWork
                    space\FXOS-Beta\src\fxconsole.h",17
  Mon Sep 27 2021  9:39                                                Page 11


   533                        	.file	"G:\devprojects\c256Foenix\fxos\FXOSWork
                    space\FXOS-Beta\src\fxeventmanager.h",0
   534                        	.file	"G:\devprojects\c256Foenix\fxos\FXOSWork
                    space\FXOS-Beta\src\fxos.h",0
   535                        	.line	30
   536                        	.file	"G:\devprojects\c256Foenix\fxos\FXOSWork
                    space\FXOS-Beta\src\fxeventmanager.h",5
   537                        	.file	"G:\devprojects\c256Foenix\fxos\FXOSWork
                    space\FXOS-Beta\src\fxexec.h",0
   538                        	.file	"G:\devprojects\c256Foenix\fxos\FXOSWork
                    space\FXOS-Beta\src\fxtypes.h",0
   539                        	.line	1064
   540                        	.file	"G:\devprojects\c256Foenix\fxos\FXOSWork
                    space\FXOS-Beta\src\fxexec.h",5
   541                        	.stag	_fxos_executive_vtable,128,53
   542                        	.member	Init,0,8833,8,32
   543                        	.member	Configure,32,656,8,32
   544                        	.member	Query,64,656,8,32
   545                        	.member	Uninit,96,641,8,32
   546                        	.eos
   547                        	.line	86
   548                        	.file	"G:\devprojects\c256Foenix\fxos\FXOSWork
                    space\FXOS-Beta\src\fxeventmanager.h",6
   549                        	.file	"G:\devprojects\c256Foenix\fxos\FXOSWork
                    space\FXOS-Beta\src\fxnode.h",0
   550                        	.file	"G:\devprojects\c256Foenix\fxos\FXOSWork
                    space\FXOS-Beta\src\fxtypes.h",0
   551                        	.line	1064
   552                        	.file	"G:\devprojects\c256Foenix\fxos\FXOSWork
                    space\FXOS-Beta\src\fxnode.h",11
   553                        	.line	118
   554                        	.file	"G:\devprojects\c256Foenix\fxos\FXOSWork
                    space\FXOS-Beta\src\fxeventmanager.h",7
   555                        	.file	"G:\devprojects\c256Foenix\fxos\FXOSWork
                    space\FXOS-Beta\src\fxconsole.h",0
   556                        	.line	208
   557                        	.file	"G:\devprojects\c256Foenix\fxos\FXOSWork
                    space\FXOS-Beta\src\fxeventmanager.h",8
   558                        	.file	"G:\devprojects\c256Foenix\fxos\FXOSWork
                    space\FXOS-Beta\src\fxwindowmanager.h",0
   559                        	.file	"G:\devprojects\c256Foenix\fxos\FXOSWork
                    space\FXOS-Beta\src\fxos.h",0
   560                        	.line	30
   561                        	.file	"G:\devprojects\c256Foenix\fxos\FXOSWork
                    space\FXOS-Beta\src\fxwindowmanager.h",5
   562                        	.file	"G:\devprojects\c256Foenix\fxos\FXOSWork
                    space\FXOS-Beta\src\fxmemorymanager.h",0
   563                        	.file	"G:\devprojects\c256Foenix\fxos\FXOSWork
                    space\FXOS-Beta\src\fxos.h",0
   564                        	.line	30
   565                        	.file	"G:\devprojects\c256Foenix\fxos\FXOSWork
                    space\FXOS-Beta\src\fxmemorymanager.h",5
   566                        	.file	"G:\devprojects\c256Foenix\fxos\FXOSWork
                    space\FXOS-Beta\src\umm_malloc_cfg.h",0
   567                        	.file	"G:\devprojects\c256Foenix\fxos\FXOSWork
                    space\FXOS-Beta\src\fxos_build_parameters.h",0
   568                        	.line	35
   569                        	.file	"G:\devprojects\c256Foenix\fxos\FXOSWork
  Mon Sep 27 2021  9:39                                                Page 12


                    space\FXOS-Beta\src\umm_malloc_cfg.h",8
   570                        	.stag	UMM_HEAP_INFO_t,256,54
   571                        	.member	totalEntries,0,18,8,32
   572                        	.member	usedEntries,32,18,8,32
   573                        	.member	freeEntries,64,18,8,32
   574                        	.member	totalBlocks,96,18,8,32
   575                        	.member	usedBlocks,128,18,8,32
   576                        	.member	freeBlocks,160,18,8,32
   577                        	.member	maxFreeContiguousBlocks,192,18,8,32
   578                        	.member	blockSize,224,18,8,32
   579                        	.eos
   580                        	.line	199
   581                        	.file	"G:\devprojects\c256Foenix\fxos\FXOSWork
                    space\FXOS-Beta\src\fxmemorymanager.h",6
   582                        	.file	"G:\devprojects\c256Foenix\fxos\FXOSWork
                    space\FXOS-Beta\src\umm_malloc.h",0
   583                        	.file	"G:\devprojects\c256Foenix\fxos\FXOSWork
                    space\FXOS-Beta\src\fxtypes.h",0
   584                        	.line	1064
   585                        	.file	"G:\devprojects\c256Foenix\fxos\FXOSWork
                    space\FXOS-Beta\src\umm_malloc.h",11
   586                        	.line	24
   587                        	.file	"G:\devprojects\c256Foenix\fxos\FXOSWork
                    space\FXOS-Beta\src\fxmemorymanager.h",7
   588                        	.stag	_fx_memory_map,2072,55
   589                        	.member	availableMemory,0,18,8,32
   590                        	.member	valid_segments,32,110,8,0,255
   591                        	.eos
   592                        	.stag	_fx_ipc_port,144,56
   593                        	.member	id,0,18,8,32
   594                        	.member	type,32,14,8,8
   595                        	.member	name,40,138,8,32,52
   596                        	.member	time,72,18,8,32
   597                        	.member	queue,104,138,8,32,7
   598                        	.member	reserved_1,136,14,8,8
   599                        	.eos
   600                        	.stag	_k_mem_alloc_header,80,57
   601                        	.member	user,0,14,8,8
   602                        	.member	attr,8,14,8,8
   603                        	.member	size,16,18,8,32
   604                        	.member	virtual,48,129,8,32
   605                        	.eos
   606                        	.line	129
   607                        	.file	"G:\devprojects\c256Foenix\fxos\FXOSWork
                    space\FXOS-Beta\src\fxwindowmanager.h",6
   608                        	.file	"G:\devprojects\c256Foenix\fxos\FXOSWork
                    space\FXOS-Beta\src\fxeventmanager.h",0
   609                        	.line	572
   610                        	.file	"G:\devprojects\c256Foenix\fxos\FXOSWork
                    space\FXOS-Beta\src\fxwindowmanager.h",7
   611                        	.file	"G:\devprojects\c256Foenix\fxos\FXOSWork
                    space\FXOS-Beta\src\fxgfx.h",0
   612                        	.file	"G:\devprojects\c256Foenix\fxos\FXOSWork
                    space\FXOS-Beta\src\fxfont.h",0
   613                        	.file	"G:\devprojects\c256Foenix\fxos\FXOSWork
                    space\FXOS-Beta\src\fxtypes.h",0
   614                        	.line	1064
   615                        	.file	"G:\devprojects\c256Foenix\fxos\FXOSWork
  Mon Sep 27 2021  9:39                                                Page 13


                    space\FXOS-Beta\src\fxfont.h",6
   616                        	.line	74
   617                        	.file	"G:\devprojects\c256Foenix\fxos\FXOSWork
                    space\FXOS-Beta\src\fxgfx.h",5
   618                        	.stag	_click_detected,64,58
   619                        	.member	window,0,138,8,32,33
   620                        	.member	handler,32,641,8,32
   621                        	.eos
   622                        	.stag	_current_palette_map,400,59
   623                        	.member	CUR_DESKTOP,0,5,8,16
   624                        	.member	CUR_BACKGROUND,16,5,8,16
   625                        	.member	CUR_FONT,32,5,8,16
   626                        	.member	CUR_SELECTED_FONT,48,5,8,16
   627                        	.member	CUR_HIGHLIGHT_COLOR,64,5,8,16
   628                        	.member	CUR_WINDOWFRAME,80,5,8,16
   629                        	.member	CUR_WINDOWBORDER,96,5,8,16
   630                        	.member	CUR_WINDOWSHADOW,112,5,8,16
   631                        	.member	CUR_MENU,128,5,8,16
   632                        	.member	CUR_GADGET,144,5,8,16
   633                        	.member	CUR_COLOR,160,101,8,0,15
   634                        	.eos
   635                        	.line	370
   636                        	.file	"G:\devprojects\c256Foenix\fxos\FXOSWork
                    space\FXOS-Beta\src\fxwindowmanager.h",8
   637                        	.stag	_fxos_winman_vtable,160,60
   638                        	.member	Events,0,641,8,32
   639                        	.member	ConfigureWindowManager,32,656,8,32
   640                        	.member	ProcessWindowEvent,64,8833,8,32
   641                        	.member	QueryWindowManager,96,656,8,32
   642                        	.member	DoWndProcs,128,641,8,32
   643                        	.eos
   644                        	.stag	fake61_,64,61
   645                        	.member	type,0,16,8,16
   646                        	.member	size,16,16,8,16
   647                        	.member	desktopAction,32,129,8,32
   648                        	.eos
   649                        	.stag	fake62_,96,62
   650                        	.member	type,0,16,8,16
   651                        	.member	caption,16,138,8,32,52
   652                        	.member	buttonType,48,16,8,16
   653                        	.member	x,64,5,8,16
   654                        	.member	y,80,5,8,16
   655                        	.eos
   656                        	.stag	_childMessage_t,64,63
   657                        	.member	msgType,0,16,8,16
   658                        	.member	msgData,16,129,8,32
   659                        	.member	dataSize,48,16,8,16
   660                        	.eos
   661                        	.line	594
   662                        	.file	"G:\devprojects\c256Foenix\fxos\FXOSWork
                    space\FXOS-Beta\src\fxeventmanager.h",9
   663                        	.stag	_fx_main_loopvars,16,64
   664                        	.member	dummy,0,5,8,16
   665                        	.eos
   666                        	.stag	_fxMouseMessageData,64,65
   667                        	.member	button1,0,14,8,8
   668                        	.member	button2,8,14,8,8
   669                        	.member	button3,16,14,8,8
  Mon Sep 27 2021  9:39                                                Page 14


   670                        	.member	button4,24,14,8,8
   671                        	.member	x,32,16,8,16
   672                        	.member	y,48,16,8,16
   673                        	.eos
   674                        	.utag	marshalled_data,32,66
   675                        	.member	byteValue,0,14,11,8
   676                        	.member	verbValue,0,110,11,0,2
   677                        	.member	intValue,0,16,11,16
   678                        	.member	longValue,0,18,11,32
   679                        	.member	pointerValue,0,129,11,32
   680                        	.eos
   681                        	.stag	_fx_eventProcess,64,67
   682                        	.member	process,0,138,8,32,20
   683                        	.member	eventProc,32,641,8,32
   684                        	.eos
   685                        	.stag	_mouse_msg_state,184,68
   686                        	.member	lastEvent,0,18,8,32
   687                        	.member	buttonLeftDown,32,14,8,8
   688                        	.member	lastLeftDown,40,18,8,32
   689                        	.member	buttonRightDown,72,14,8,8
   690                        	.member	lastRightDown,80,18,8,32
   691                        	.member	buttonMiddleDown,112,14,8,8
   692                        	.member	lastMiddleDown,120,18,8,32
   693                        	.member	lastX,152,16,8,16
   694                        	.member	lastY,168,16,8,16
   695                        	.eos
   696                        	.stag	_fxos_eventmanager_vtable,192,69
   697                        	.member	EventQueue,0,138,8,32,7
   698                        	.member	Init,32,8833,8,32
   699                        	.member	Run,64,656,8,32
   700                        	.member	Configure,96,656,8,32
   701                        	.member	Query,128,656,8,32
   702                        	.member	Uninit,160,641,8,32
   703                        	.eos
   704                        	.stag	_k_clipboard_data,168,70
   705                        	.member	type,0,14,8,8
   706                        	.member	readable,8,110,8,0,16
   707                        	.member	data,136,129,8,32
   708                        	.eos
   709                        	.line	572
   710                        	.file	"G:\devprojects\c256Foenix\fxos\FXOSWork
                    space\FXOS-Beta\src\fxconsole.h",18
   711                        	.stag	_fx_spinner_ctx,48,71
   712                        	.member	index,0,5,8,16
   713                        	.member	spinner,16,142,8,32
   714                        	.eos
   715                        	.stag	_fx_console_ctx,1144,72
   716                        	.member	lineBufferIndex,0,5,8,16
   717                        	.member	lineBuffer,16,110,8,0,128
   718                        	.member	isShifted,1040,14,8,8
   719                        	.member	userData,1048,129,8,32
   720                        	.member	screenBuffer,1080,129,8,32
   721                        	.member	Reserved1,1112,129,8,32
   722                        	.eos
   723                        	.stag	_token,64,73
   724                        	.member	type,0,5,8,16
   725                        	.member	depth,16,16,8,16
   726                        	.member	text,32,142,8,32
  Mon Sep 27 2021  9:39                                                Page 15


   727                        	.eos
   728                        	.stag	_command_args,64,74
   729                        	.member	proc,0,656,8,32
   730                        	.member	tokens,32,138,8,32,5
   731                        	.eos
   732                        	.line	208
   733                        	.file	"G:\devprojects\c256Foenix\fxos\FXOSWork
                    space\FXOS-Beta\src\fxos.h",23
   734                        	.file	"G:\devprojects\c256Foenix\fxos\FXOSWork
                    space\FXOS-Beta\src\fxstring.h",0
   735                        	.line	141
   736                        	.file	"G:\devprojects\c256Foenix\fxos\FXOSWork
                    space\FXOS-Beta\src\fxos.h",24
   737                        	.file	"G:\devprojects\c256Foenix\fxos\FXOSWork
                    space\FXOS-Beta\src\fxnode.h",0
   738                        	.line	118
   739                        	.file	"G:\devprojects\c256Foenix\fxos\FXOSWork
                    space\FXOS-Beta\src\fxos.h",25
   740                        	.file	"G:\devprojects\c256Foenix\fxos\FXOSWork
                    space\FXOS-Beta\src\ff/ff.h",0
   741                        	.file	"G:\devprojects\c256Foenix\fxos\FXOSWork
                    space\FXOS-Beta\src\ff/ffconf.h",0
   742                        	.line	298
   743                        	.file	"G:\devprojects\c256Foenix\fxos\FXOSWork
                    space\FXOS-Beta\src\ff/ff.h",29
   744                        	.file	"G:\devprojects\c256Foenix\fxos\FXOSWork
                    space\FXOS-Beta\src\fxtypes.h",0
   745                        	.line	1064
   746                        	.file	"G:\devprojects\c256Foenix\fxos\FXOSWork
                    space\FXOS-Beta\src\ff/ff.h",30
   747                        	.stag	fake75_,4504,75
   748                        	.member	fs_type,0,14,8,8
   749                        	.member	pdrv,8,14,8,8
   750                        	.member	n_fats,16,14,8,8
   751                        	.member	wflag,24,14,8,8
   752                        	.member	fsi_flag,32,14,8,8
   753                        	.member	id,40,5,8,16
   754                        	.member	n_rootdir,56,5,8,16
   755                        	.member	csize,72,5,8,16
   756                        	.member	lfnbuf,88,144,8,32
   757                        	.member	last_clst,120,18,8,32
   758                        	.member	free_clst,152,18,8,32
   759                        	.member	n_fatent,184,18,8,32
   760                        	.member	fsize,216,18,8,32
   761                        	.member	volbase,248,18,8,32
   762                        	.member	fatbase,280,18,8,32
   763                        	.member	dirbase,312,18,8,32
   764                        	.member	database,344,18,8,32
   765                        	.member	winsect,376,18,8,32
   766                        	.member	win,408,110,8,0,512
   767                        	.eos
   768                        	.stag	fake76_,128,76
   769                        	.member	fs,0,138,8,32,75
   770                        	.member	id,32,5,8,16
   771                        	.member	attr,48,14,8,8
   772                        	.member	stat,56,14,8,8
   773                        	.member	sclust,64,18,8,32
   774                        	.member	objsize,96,18,8,32
  Mon Sep 27 2021  9:39                                                Page 16


   775                        	.eos
   776                        	.stag	fake77_,4400,77
   777                        	.member	obj,0,10,8,128,76
   778                        	.member	flag,128,14,8,8
   779                        	.member	err,136,14,8,8
   780                        	.member	fptr,144,18,8,32
   781                        	.member	clust,176,18,8,32
   782                        	.member	sect,208,18,8,32
   783                        	.member	dir_sect,240,18,8,32
   784                        	.member	dir_ptr,272,142,8,32
   785                        	.member	buf,304,110,8,0,512
   786                        	.eos
   787                        	.stag	fake78_,416,78
   788                        	.member	obj,0,10,8,128,76
   789                        	.member	dptr,128,18,8,32
   790                        	.member	clust,160,18,8,32
   791                        	.member	sect,192,18,8,32
   792                        	.member	dir,224,142,8,32
   793                        	.member	fn,256,110,8,0,12
   794                        	.member	blk_ofs,352,18,8,32
   795                        	.member	pat,384,142,8,32
   796                        	.eos
   797                        	.stag	fake79_,2224,79
   798                        	.member	fsize,0,18,8,32
   799                        	.member	fdate,32,5,8,16
   800                        	.member	ftime,48,5,8,16
   801                        	.member	fattrib,64,14,8,8
   802                        	.member	altname,72,110,8,0,13
   803                        	.member	fname,176,110,8,0,256
   804                        	.eos
   805                        	.stag	fake80_,80,80
   806                        	.member	fmt,0,14,8,8
   807                        	.member	n_fat,8,14,8,8
   808                        	.member	align,16,16,8,16
   809                        	.member	n_root,32,16,8,16
   810                        	.member	au_size,48,18,8,32
   811                        	.eos
   812                        	.line	429
   813                        	.file	"G:\devprojects\c256Foenix\fxos\FXOSWork
                    space\FXOS-Beta\src\fxos.h",26
   814                        	.line	30
   815                        	.file	"G:\devprojects\c256Foenix\fxos\FXOSWork
                    space\FXOS-Beta\src\fxkernel.h",5
   816                        	.file	"G:\devprojects\c256Foenix\fxos\FXOSWork
                    space\FXOS-Beta\src\fxnode.h",0
   817                        	.line	118
   818                        	.file	"G:\devprojects\c256Foenix\fxos\FXOSWork
                    space\FXOS-Beta\src\fxkernel.h",6
   819                        	.stag	_fx_api_call_table,8192,81
   820                        	.member	call_table,0,1121,8,32,256
   821                        	.eos
   822                        	.stag	_fx_zero_page_irq_data,32,82
   823                        	.member	data,0,110,8,0,4
   824                        	.eos
   825                        	.stag	_fx_zero_page,720,83
   826                        	.member	fxos_mouse_byte_0,0,14,8,8
   827                        	.member	fxos_mouse_byte_1,8,14,8,8
   828                        	.member	fxos_mouse_byte_2,16,14,8,8
  Mon Sep 27 2021  9:39                                                Page 17


   829                        	.member	fxos_mouse_byte_t,24,14,8,8
   830                        	.member	fxos_mouse_byte_x_l,32,14,8,8
   831                        	.member	fxos_mouse_byte_x_h,40,14,8,8
   832                        	.member	fxos_mouse_byte_y_l,48,14,8,8
   833                        	.member	fxos_mouse_byte_y_h,56,14,8,8
   834                        	.member	fxos_key_byte_0,64,14,8,8
   835                        	.member	fxos_key_byte_1,72,14,8,8
   836                        	.member	fxos_key_byte_2,80,14,8,8
   837                        	.member	fxos_mouse_ctl,88,14,8,8
   838                        	.member	fxos_mouse_index,96,14,8,8
   839                        	.member	fxos_mouse_status,104,14,8,8
   840                        	.member	Endianness,112,16,8,16
   841                        	.member	VersionMajor,128,16,8,16
   842                        	.member	VersionMinor,144,16,8,16
   843                        	.member	VersionRelease,160,16,8,16
   844                        	.member	topMemory,176,18,8,32
   845                        	.member	bottomMemory,208,18,8,32
   846                        	.member	availableMemory,240,18,8,32
   847                        	.member	availableMemoryK,272,18,8,32
   848                        	.member	availableHeapMemory,304,18,8,32
   849                        	.member	availableHeapMemoryK,336,18,8,32
   850                        	.member	fxos_console_row,368,16,8,16
   851                        	.member	fxos_console_col,384,16,8,16
   852                        	.member	executive,400,129,8,32
   853                        	.member	eventmanager,432,129,8,32
   854                        	.member	devicemanager,464,129,8,32
   855                        	.member	windowmanager,496,129,8,32
   856                        	.member	fxos_kernel_api,528,138,8,32,81
   857                        	.member	fxos_dos_api,560,138,8,32,81
   858                        	.member	fxos_gfx_api,592,138,8,32,81
   859                        	.member	fxos_gui_api,624,138,8,32,81
   860                        	.member	fxos_con_api,656,138,8,32,81
   861                        	.member	fxos_reserved_2_api,688,138,8,32,81
   862                        	.eos
   863                        	.stag	_fx_environment,96,84
   864                        	.member	variables,0,142,8,32
   865                        	.member	reserved1,32,5,8,16
   866                        	.member	reserved2,48,5,8,16
   867                        	.member	reserved3,64,5,8,16
   868                        	.member	reserved4,80,5,8,16
   869                        	.eos
   870                        	.stag	_debug_byte_bits,8,85
   871                        	.member	bit7,0,14,17,1
   872                        	.member	bit6,1,14,17,1
   873                        	.member	bit5,2,14,17,1
   874                        	.member	bit4,3,14,17,1
   875                        	.member	bit3,4,14,17,1
   876                        	.member	bit2,5,14,17,1
   877                        	.member	bit1,6,14,17,1
   878                        	.member	bit0,7,14,17,1
   879                        	.eos
   880                        	.stag	_k_segmentheader,160,86
   881                        	.member	version_major,0,14,8,8
   882                        	.member	version_minor,8,14,8,8
   883                        	.member	length,16,5,8,16
   884                        	.member	segment_start_addr,32,7,8,32
   885                        	.member	segment_end_addr,64,7,8,32
   886                        	.member	segment_size,96,7,8,32
  Mon Sep 27 2021  9:39                                                Page 18


   887                        	.member	main_entry_addr,128,7,8,32
   888                        	.eos
   889                        	.stag	_fx_device_driver,776,87
   890                        	.member	name,0,110,8,0,32
   891                        	.member	version,256,110,8,0,16
   892                        	.member	hmajor,384,110,8,0,8
   893                        	.member	hminor,448,110,8,0,8
   894                        	.member	type,512,14,8,8
   895                        	.member	designation,520,110,8,0,6
   896                        	.member	irq_ctl,568,16,8,16
   897                        	.member	f_driver_irq,584,129,8,32
   898                        	.member	driver_context,616,129,8,32
   899                        	.member	f_driver_load,648,129,8,32
   900                        	.member	f_driver_read,680,129,8,32
   901                        	.member	f_driver_write,712,129,8,32
   902                        	.member	f_driver_unload,744,129,8,32
   903                        	.eos
   904                        	.stag	_fx_block_device_driver,808,88
   905                        	.member	name,0,110,8,0,32
   906                        	.member	version,256,110,8,0,16
   907                        	.member	hmajor,384,110,8,0,8
   908                        	.member	hminor,448,110,8,0,8
   909                        	.member	type,512,14,8,8
   910                        	.member	designation,520,110,8,0,6
   911                        	.member	irq_ctl,568,16,8,16
   912                        	.member	f_driver_irq,584,129,8,32
   913                        	.member	driver_context,616,129,8,32
   914                        	.member	f_driver_load,648,129,8,32
   915                        	.member	f_driver_read,680,129,8,32
   916                        	.member	f_driver_write,712,129,8,32
   917                        	.member	f_driver_unload,744,129,8,32
   918                        	.member	f_driver_command,776,129,8,32
   919                        	.eos
   920                        	.stag	_k_irq_chain,128,89
   921                        	.member	handlers,0,5217,8,32,4
   922                        	.eos
   923                        	.line	475
   924                        	.file	"G:\devprojects\c256Foenix\fxos\FXOSWork
                    space\FXOS-Beta\src\drivers/DRIVER_FMXCOM1.c",2
   925                        ;#include "drivers/DRIVER.h"
   926                        	.file	"G:\devprojects\c256Foenix\fxos\FXOSWork
                    space\FXOS-Beta\src\drivers/DRIVER.h",0
   927                        	.file	"G:\devprojects\c256Foenix\fxos\FXOSWork
                    space\FXOS-Beta\src\fxos.h",0
   928                        	.line	30
   929                        	.file	"G:\devprojects\c256Foenix\fxos\FXOSWork
                    space\FXOS-Beta\src\drivers/DRIVER.h",5
   930                        	.file	"G:\devprojects\c256Foenix\fxos\FXOSWork
                    space\FXOS-Beta\src\fxmemorymanager.h",0
   931                        	.line	129
   932                        	.file	"G:\devprojects\c256Foenix\fxos\FXOSWork
                    space\FXOS-Beta\src\drivers/DRIVER.h",6
   933                        	.file	"G:\devprojects\c256Foenix\fxos\FXOSWork
                    space\FXOS-Beta\src\fxc256u.h",0
   934                        	.line	1963
   935                        	.file	"G:\devprojects\c256Foenix\fxos\FXOSWork
                    space\FXOS-Beta\src\drivers/DRIVER.h",106
   936                        	.line	115
  Mon Sep 27 2021  9:39                                                Page 19


   937                        	.file	"G:\devprojects\c256Foenix\fxos\FXOSWork
                    space\FXOS-Beta\src\drivers/DRIVER_FMXCOM1.c",3
   938                        ;#include "drivers/DRIVER_COM1.h"
   939                        	.file	"G:\devprojects\c256Foenix\fxos\FXOSWork
                    space\FXOS-Beta\src\drivers/DRIVER_COM1.h",0
   940                        COM1S02	section	offset $04:0000
   941 04:0000:              	ends
   942                        	data
   943                        ~~_k_driver_base:
   944 00:0000: 00 00 04 00  	dl	$40000
   945 00:0004:              	ends
   946                        	.line	11
   947                        	.file	"G:\devprojects\c256Foenix\fxos\FXOSWork
                    space\FXOS-Beta\src\drivers/DRIVER_FMXCOM1.c",4
   948                        ;
   949                        ;//#pragma section CODE=FMXCon,offset $08:A000
   950                        ;/*
   951                        ;#define UART_TRHB 	(0x00)
   952                        ;#define UART_DLL 	(0x00)
   953                        ;#define UART_DLH 	(0x01)
   954                        ;#define UART_IER 	(0x01)
   955                        ;#define UART_FCR 	(0x02)
   956                        ;#define UART_IIR 	(0x02)
   957                        ;#define UART_LCR 	(0x03)
   958                        ;#define UART_MCR 	(0x04)
   959                        ;#define UART_LSR 	(0x05)
   960                        ;#define UART_MSR 	(0x06)
   961                        ;#define UART_SR 	(0x07)
   962                        ;*/
   963                        ;#define LCR_DLB   (0x80)
   964                        ;#define LCR_SBE   (0x60)
   965                        ;
   966                        ;#define LCR_PARITY_NONE   (0x00)
   967                        ;#define LCR_PARITY_ODD   (0x08)
   968                        ;#define LCR_PARITY_EVEN   (0x18)
   969                        ;#define LCR_PARITY_MARK   (0x28)
   970                        ;#define LCR_PARITY_SPACE   (0x38)
   971                        ;
   972                        ;#define LCR_STOPBIT_1   (0x00)
   973                        ;#define LCR_STOPBIT_2   (0x04)
   974                        ;
   975                        ;#define LCR_DATABITS_5   (0x00)
   976                        ;#define LCR_DATABITS_6   (0x01)
   977                        ;#define LCR_DATABITS_7   (0x02)
   978                        ;#define LCR_DATABITS_8   (0x03)
   979                        ;
   980                        ;#define LSR_ERR_RECIEVE   (0x80)
   981                        ;#define LSR_XMIT_DONE   (0x40)
   982                        ;#define LSR_XMIT_EMPTY   (0x20)
   983                        ;#define LSR_BREAK_INT   (0x10)
   984                        ;#define LSR_ERR_FRAME   (0x08)
   985                        ;#define LSR_ERR_PARITY   (0x04)
   986                        ;#define LSR_ERR_OVERRUN   (0x02)
   987                        ;#define LSR_DATA_AVAIL   (0x01)
   988                        ;
   989                        ;
   990                        ;static VOID f_driver_irq(void);
   991                        ;static BOOL f_driver_load(void);
  Mon Sep 27 2021  9:39                                                Page 20


   992                        ;static UINT f_driver_read(LPVOID buffer);
   993                        ;static UINT f_driver_write(UINT size,LPVOID buffe
                    r);
   994                        ;static BOOL f_driver_unload(void);
   995                        ;
   996                        ;static BOOL f_driver_load_u(void);
   997                        ;static UINT f_driver_read_u(LPVOID buffer);
   998                        ;static UINT f_driver_write_u(UINT size,LPVOID buf
                    fer);
   999                        ;static BOOL f_driver_unload_u(void);
  1000                        ;static VOID poll_handler(VOID);
  1001                        ;
  1002                        ;static BYTE  _com_data = 0;
  1003                        	data
  1004                        ~~_com_data:
  1005 00:0004: 00           	db	$0
  1006 00:0005:              	ends
  1007                        ;static LPSTR UARTBASE = ((LPSTR)0xAF13F8);
  1008                        	data
  1009                        ~~UARTBASE:
  1010 00:0005: F8 13 AF 00  	dl	$AF13F8
  1011 00:0009:              	ends
  1012                        ;static LPCSTR version = NULL;
  1013                        	data
  1014                        ~~version:
  1015 00:0009: 00 00 00 00  	dl	$0
  1016 00:000D:              	ends
  1017                        ;
  1018                        ;extern ULONG _pseudo_timer;
  1019                        ;
  1020                        ;static FX_DEVICE_DRIVER DRIVER_FMXCOM1 = {
  1021                        	data
  1022                        ~~DRIVER_FMXCOM1:
  1023                        ;							
                    			"DRIVER_FMXCOM1D\0",
  1024 00:000D: 44 52 49 56  	db	$44,$52,$49,$56,$45,$52,$5F,$46,$4D,$58
       00:0011: 45 52 5F 46 
       00:0015: 4D 58 
  1025 00:0017: 43 4F 4D 31  	db	$43,$4F,$4D,$31,$44,$0,$0
       00:001B: 44 00 00 
  1026 00:001E:              	ds	15
  1027                        ;							
                    			"v1.0.0\0",
  1028 00:002D: 76 31 2E 30  	db	$76,$31,$2E,$30,$2E,$30,$0,$0
       00:0031: 2E 30 00 00 
  1029 00:0035:              	ds	8
  1030                        ;							
                    			"C\0",
  1031 00:003D: 43 00 00     	db	$43,$0,$0
  1032 00:0040:              	ds	5
  1033                        ;							
                    			"4\0",
  1034 00:0045: 34 00 00     	db	$34,$0,$0
  1035 00:0048:              	ds	5
  1036                        ;							
                    			DRIVER_TYPE_COM1,
  1037 00:004D: 02           	db	$2
  1038                        ;							
  Mon Sep 27 2021  9:39                                                Page 21


                    			"COM1:\0",
  1039 00:004E: 43 4F 4D 31  	db	$43,$4F,$4D,$31,$3A,$0
       00:0052: 3A 00 
  1040                        ;							
                    			NOIRQ,//MAKEIRQ(1,4),
  1041 00:0054: FF FF        	dw	$FFFF
  1042                        ;							
                    			f_driver_irq,
  1043 00:0056: 53 00 04 00  	dl	~~f_driver_irq
  1044                        ;							
                    			NULL,
  1045 00:005A: 00 00 00 00  	dl	$0
  1046                        ;							
                    			f_driver_load,
  1047 00:005E: 63 00 04 00  	dl	~~f_driver_load
  1048                        ;							
                    			f_driver_read,
  1049 00:0062: 84 00 04 00  	dl	~~f_driver_read
  1050                        ;							
                    			f_driver_write,
  1051 00:0066: A1 00 04 00  	dl	~~f_driver_write
  1052                        ;							
                    			f_driver_unload
  1053                        ;							
                    	    };
  1054 00:006A: BE 00 04 00  	dl	~~f_driver_unload
  1055 00:006E:              	ends
  1056                        	data
  1057                        L1:
  1058 00:006E: 43 4F 4D 31  	db	$43,$4F,$4D,$31,$3A,$00,$00
       00:0072: 3A 00 00 
  1059 00:0075:              	ends
  1060                        ;
  1061                        ;static FX_DEVICE_DRIVER DRIVER_FMXUCOM1 = {
  1062                        	data
  1063                        ~~DRIVER_FMXUCOM1:
  1064                        ;							
                    			"DRIVER_FMXUCOM1D\0",
  1065 00:0075: 44 52 49 56  	db	$44,$52,$49,$56,$45,$52,$5F,$46,$4D,$58
       00:0079: 45 52 5F 46 
       00:007D: 4D 58 
  1066 00:007F: 55 43 4F 4D  	db	$55,$43,$4F,$4D,$31,$44,$0,$0
       00:0083: 31 44 00 00 
  1067 00:0087:              	ds	14
  1068                        ;							
                    			"v1.0.0\0",
  1069 00:0095: 76 31 2E 30  	db	$76,$31,$2E,$30,$2E,$30,$0,$0
       00:0099: 2E 30 00 00 
  1070 00:009D:              	ds	8
  1071                        ;							
                    			"A\0",
  1072 00:00A5: 41 00 00     	db	$41,$0,$0
  1073 00:00A8:              	ds	5
  1074                        ;							
                    			"1\0",
  1075 00:00AD: 31 00 00     	db	$31,$0,$0
  1076 00:00B0:              	ds	5
  1077                        ;							
  Mon Sep 27 2021  9:39                                                Page 22


                    			DRIVER_TYPE_COM1,
  1078 00:00B5: 02           	db	$2
  1079                        ;							
                    			"COM1:\0",
  1080 00:00B6: 43 4F 4D 31  	db	$43,$4F,$4D,$31,$3A,$0
       00:00BA: 3A 00 
  1081                        ;							
                    			NOIRQ,//MAKEIRQ(1,4),
  1082 00:00BC: FF FF        	dw	$FFFF
  1083                        ;							
                    			f_driver_irq,
  1084 00:00BE: 53 00 04 00  	dl	~~f_driver_irq
  1085                        ;							
                    			NULL,
  1086 00:00C2: 00 00 00 00  	dl	$0
  1087                        ;							
                    			f_driver_load_u,
  1088 00:00C6: D3 00 04 00  	dl	~~f_driver_load_u
  1089                        ;							
                    			f_driver_read_u,
  1090 00:00CA: 01 02 04 00  	dl	~~f_driver_read_u
  1091                        ;							
                    			f_driver_write_u,
  1092 00:00CE: 1E 02 04 00  	dl	~~f_driver_write_u
  1093                        ;							
                    			f_driver_unload_u
  1094                        ;							
                    	    };
  1095 00:00D2: 3B 02 04 00  	dl	~~f_driver_unload_u
  1096 00:00D6:              	ends
  1097                        	data
  1098                        L2:
  1099 00:00D6: 43 4F 4D 31  	db	$43,$4F,$4D,$31,$3A,$00,$00
       00:00DA: 3A 00 00 
  1100 00:00DD:              	ends
  1101                        ;
  1102                        ;static PFX_DEVICE_DRIVER f_get_driver(LPCSTR majo
                    r,LPCSTR minor)
  1103                        ;{
  1104                        	.line	97
  1105                        	.line	98
  1106                        	COM1S02
  1107                        	func
  1108                        	.function	98
  1109                        ~~f_get_driver:
  1110                        	longa	on
  1111                        	longi	on
  1112 04:0000: 3B           	tsc
  1113 04:0001: 38           	sec
  1114 04:0002: E9 04 00     	sbc	#L4
  1115 04:0005: 1B           	tcs
  1116 04:0006: 0B           	phd
  1117 04:0007: 5B           	tcd
  1118             00000004   major_0	set	4
  1119             00000008   minor_0	set	8
  1120                        	.block	98
  1121                        ;	if(major[0] == DRIVER_FMXUCOM1.hmajor[0])
  1122                        	.sym	major,4,142,6,32
  Mon Sep 27 2021  9:39                                                Page 23


  1123                        	.sym	minor,8,142,6,32
  1124                        	.line	99
  1125                        ;	{
  1126 04:0008: E2 20        	sep	#$20
  1127                        	longa	off
  1128 04:000A: A7 08        	lda	[<L4+major_0]
  1129 04:000C: CD xx xx     	cmp	|~~DRIVER_FMXUCOM1+48
  1130 04:000F: C2 20        	rep	#$20
  1131                        	longa	on
  1132 04:0011: F0 03        	beq	L7
  1133 04:0013: 82 2C 00     	brl	L10001
  1134                        L7:
  1135                        	.line	100
  1136                        ;		UARTBASE = ((LPSTR)(0xAF18F8));
  1137                        	.line	101
  1138 04:0016: A9 F8 18     	lda	#$18f8
  1139 04:0019: 8D xx xx     	sta	|~~UARTBASE
  1140 04:001C: A9 AF 00     	lda	#$af
  1141 04:001F: 8D xx xx     	sta	|~~UARTBASE+2
  1142                        ;		return &DRIVER_FMXUCOM1;
  1143                        	.line	102
  1144 04:0022: A9 xx xx     	lda	#<~~DRIVER_FMXUCOM1
  1145 04:0025: 85 01        	sta	<R0
  1146                        	xref	_BEG_DATA
  1147 04:0027: A9 xx xx     	lda	#_BEG_DATA>>16
  1148 04:002A: 85 03        	sta	<R0+2
  1149 04:002C: A6 03        	ldx	<R0+2
  1150 04:002E: A5 01        	lda	<R0
  1151                        L8:
  1152 04:0030: A8           	tay
  1153 04:0031: A5 06        	lda	<L4+2
  1154 04:0033: 85 0E        	sta	<L4+2+8
  1155 04:0035: A5 05        	lda	<L4+1
  1156 04:0037: 85 0D        	sta	<L4+1+8
  1157 04:0039: 2B           	pld
  1158 04:003A: 3B           	tsc
  1159 04:003B: 18           	clc
  1160 04:003C: 69 0C 00     	adc	#L4+8
  1161 04:003F: 1B           	tcs
  1162 04:0040: 98           	tya
  1163 04:0041: 6B           	rtl
  1164                        ;	}
  1165                        	.line	103
  1166                        ;	return &DRIVER_FMXCOM1;
  1167                        L10001:
  1168                        	.line	104
  1169 04:0042: A9 xx xx     	lda	#<~~DRIVER_FMXCOM1
  1170 04:0045: 85 01        	sta	<R0
  1171                        	xref	_BEG_DATA
  1172 04:0047: A9 xx xx     	lda	#_BEG_DATA>>16
  1173 04:004A: 85 03        	sta	<R0+2
  1174 04:004C: A6 03        	ldx	<R0+2
  1175 04:004E: A5 01        	lda	<R0
  1176 04:0050: 82 DD FF     	brl	L8
  1177                        ;}
  1178                        	.line	105
  1179                        	.endblock	105
  1180             00000004   L4	equ	4
  Mon Sep 27 2021  9:39                                                Page 24


  1181             00000005   L5	equ	5
  1182 04:0053:              	ends
  1183                        	efunc
  1184                        	.endfunc	105,5,4
  1185                        	.line	105
  1186                        ;
  1187                        ;static VOID f_driver_irq(void)
  1188                        ;{
  1189                        	.line	107
  1190                        	.line	108
  1191                        	COM1S02
  1192                        	func
  1193                        	.function	108
  1194                        ~~f_driver_irq:
  1195                        	longa	on
  1196                        	longi	on
  1197 04:0053: 3B           	tsc
  1198 04:0054: 38           	sec
  1199 04:0055: E9 00 00     	sbc	#L9
  1200 04:0058: 1B           	tcs
  1201 04:0059: 0B           	phd
  1202 04:005A: 5B           	tcd
  1203                        	.block	108
  1204                        ;}
  1205                        	.line	109
  1206                        L12:
  1207 04:005B: 2B           	pld
  1208 04:005C: 3B           	tsc
  1209 04:005D: 18           	clc
  1210 04:005E: 69 00 00     	adc	#L9
  1211 04:0061: 1B           	tcs
  1212 04:0062: 6B           	rtl
  1213                        	.endblock	109
  1214             00000000   L9	equ	0
  1215             00000001   L10	equ	1
  1216 04:0063:              	ends
  1217                        	efunc
  1218                        	.endfunc	109,1,0
  1219                        	.line	109
  1220                        ;
  1221                        ;static BOOL f_driver_load(void)
  1222                        ;{
  1223                        	.line	111
  1224                        	.line	112
  1225                        	COM1S02
  1226                        	func
  1227                        	.function	112
  1228                        ~~f_driver_load:
  1229                        	longa	on
  1230                        	longi	on
  1231 04:0063: 3B           	tsc
  1232 04:0064: 38           	sec
  1233 04:0065: E9 00 00     	sbc	#L13
  1234 04:0068: 1B           	tcs
  1235 04:0069: 0B           	phd
  1236 04:006A: 5B           	tcd
  1237                        	.block	112
  1238                        ;	version = "Using FMX Serial\r\n";
  Mon Sep 27 2021  9:39                                                Page 25


  1239                        	.line	113
  1240 04:006B: A9 xx xx     	lda	#<L3
  1241 04:006E: 8D xx xx     	sta	|~~version
  1242 04:0071: A9 xx xx     	lda	#^L3
  1243 04:0074: 8D xx xx     	sta	|~~version+2
  1244                        ;
  1245                        ;	return TRUE;
  1246                        	.line	115
  1247 04:0077: A9 01 00     	lda	#$1
  1248                        L16:
  1249 04:007A: A8           	tay
  1250 04:007B: 2B           	pld
  1251 04:007C: 3B           	tsc
  1252 04:007D: 18           	clc
  1253 04:007E: 69 00 00     	adc	#L13
  1254 04:0081: 1B           	tcs
  1255 04:0082: 98           	tya
  1256 04:0083: 6B           	rtl
  1257                        ;}
  1258                        	.line	116
  1259                        	.endblock	116
  1260             00000000   L13	equ	0
  1261             00000001   L14	equ	1
  1262 04:0084:              	ends
  1263                        	efunc
  1264                        	.endfunc	116,1,0
  1265                        	.line	116
  1266                        	data
  1267                        L3:
  1268 00:00DD: 55 73 69 6E  	db	$55,$73,$69,$6E,$67,$20,$46,$4D,$58,$20,
                    $53,$65,$72,$69,$61
       00:00E1: 67 20 46 4D 
       00:00E5: 58 20 53 65 
       00:00E9: 72 69 61 
  1269 00:00EC: 6C 0D 0A 00  	db	$6C,$0D,$0A,$00
  1270 00:00F0:              	ends
  1271                        ;
  1272                        ;static UINT f_driver_read(LPVOID buffer)
  1273                        ;{
  1274                        	.line	118
  1275                        	.line	119
  1276                        	COM1S02
  1277                        	func
  1278                        	.function	119
  1279                        ~~f_driver_read:
  1280                        	longa	on
  1281                        	longi	on
  1282 04:0084: 3B           	tsc
  1283 04:0085: 38           	sec
  1284 04:0086: E9 00 00     	sbc	#L18
  1285 04:0089: 1B           	tcs
  1286 04:008A: 0B           	phd
  1287 04:008B: 5B           	tcd
  1288             00000004   buffer_0	set	4
  1289                        	.block	119
  1290                        ;	return 0;
  1291                        	.sym	buffer,4,129,6,32
  1292                        	.line	120
  Mon Sep 27 2021  9:39                                                Page 26


  1293 04:008C: A9 00 00     	lda	#$0
  1294                        L21:
  1295 04:008F: A8           	tay
  1296 04:0090: A5 02        	lda	<L18+2
  1297 04:0092: 85 06        	sta	<L18+2+4
  1298 04:0094: A5 01        	lda	<L18+1
  1299 04:0096: 85 05        	sta	<L18+1+4
  1300 04:0098: 2B           	pld
  1301 04:0099: 3B           	tsc
  1302 04:009A: 18           	clc
  1303 04:009B: 69 04 00     	adc	#L18+4
  1304 04:009E: 1B           	tcs
  1305 04:009F: 98           	tya
  1306 04:00A0: 6B           	rtl
  1307                        ;}
  1308                        	.line	121
  1309                        	.endblock	121
  1310             00000000   L18	equ	0
  1311             00000001   L19	equ	1
  1312 04:00A1:              	ends
  1313                        	efunc
  1314                        	.endfunc	121,1,0
  1315                        	.line	121
  1316                        ;
  1317                        ;static UINT f_driver_write(UINT size,LPVOID buffe
                    r)
  1318                        ;{
  1319                        	.line	123
  1320                        	.line	124
  1321                        	COM1S02
  1322                        	func
  1323                        	.function	124
  1324                        ~~f_driver_write:
  1325                        	longa	on
  1326                        	longi	on
  1327 04:00A1: 3B           	tsc
  1328 04:00A2: 38           	sec
  1329 04:00A3: E9 00 00     	sbc	#L22
  1330 04:00A6: 1B           	tcs
  1331 04:00A7: 0B           	phd
  1332 04:00A8: 5B           	tcd
  1333             00000004   size_0	set	4
  1334             00000006   buffer_0	set	6
  1335                        	.block	124
  1336                        ;	return 0;
  1337                        	.sym	size,4,16,6,16
  1338                        	.sym	buffer,6,129,6,32
  1339                        	.line	125
  1340 04:00A9: A9 00 00     	lda	#$0
  1341                        L25:
  1342 04:00AC: A8           	tay
  1343 04:00AD: A5 02        	lda	<L22+2
  1344 04:00AF: 85 08        	sta	<L22+2+6
  1345 04:00B1: A5 01        	lda	<L22+1
  1346 04:00B3: 85 07        	sta	<L22+1+6
  1347 04:00B5: 2B           	pld
  1348 04:00B6: 3B           	tsc
  1349 04:00B7: 18           	clc
  Mon Sep 27 2021  9:39                                                Page 27


  1350 04:00B8: 69 06 00     	adc	#L22+6
  1351 04:00BB: 1B           	tcs
  1352 04:00BC: 98           	tya
  1353 04:00BD: 6B           	rtl
  1354                        ;}
  1355                        	.line	126
  1356                        	.endblock	126
  1357             00000000   L22	equ	0
  1358             00000001   L23	equ	1
  1359 04:00BE:              	ends
  1360                        	efunc
  1361                        	.endfunc	126,1,0
  1362                        	.line	126
  1363                        ;
  1364                        ;static BOOL f_driver_unload(void)
  1365                        ;{
  1366                        	.line	128
  1367                        	.line	129
  1368                        	COM1S02
  1369                        	func
  1370                        	.function	129
  1371                        ~~f_driver_unload:
  1372                        	longa	on
  1373                        	longi	on
  1374 04:00BE: 3B           	tsc
  1375 04:00BF: 38           	sec
  1376 04:00C0: E9 00 00     	sbc	#L26
  1377 04:00C3: 1B           	tcs
  1378 04:00C4: 0B           	phd
  1379 04:00C5: 5B           	tcd
  1380                        	.block	129
  1381                        ;
  1382                        ;	return FALSE;
  1383                        	.line	131
  1384 04:00C6: A9 00 00     	lda	#$0
  1385                        L29:
  1386 04:00C9: A8           	tay
  1387 04:00CA: 2B           	pld
  1388 04:00CB: 3B           	tsc
  1389 04:00CC: 18           	clc
  1390 04:00CD: 69 00 00     	adc	#L26
  1391 04:00D0: 1B           	tcs
  1392 04:00D1: 98           	tya
  1393 04:00D2: 6B           	rtl
  1394                        ;}
  1395                        	.line	132
  1396                        	.endblock	132
  1397             00000000   L26	equ	0
  1398             00000001   L27	equ	1
  1399 04:00D3:              	ends
  1400                        	efunc
  1401                        	.endfunc	132,1,0
  1402                        	.line	132
  1403                        ;
  1404                        ;static BOOL f_driver_load_u(void)
  1405                        ;{
  1406                        	.line	134
  1407                        	.line	135
  Mon Sep 27 2021  9:39                                                Page 28


  1408                        	COM1S02
  1409                        	func
  1410                        	.function	135
  1411                        ~~f_driver_load_u:
  1412                        	longa	on
  1413                        	longi	on
  1414 04:00D3: 3B           	tsc
  1415 04:00D4: 38           	sec
  1416 04:00D5: E9 08 00     	sbc	#L30
  1417 04:00D8: 1B           	tcs
  1418 04:00D9: 0B           	phd
  1419 04:00DA: 5B           	tcd
  1420                        	.block	135
  1421                        ;	version = "Using FMXU+ Serial\r\n";
  1422                        	.line	136
  1423 04:00DB: A9 xx xx     	lda	#<L17
  1424 04:00DE: 8D xx xx     	sta	|~~version
  1425 04:00E1: A9 xx xx     	lda	#^L17
  1426 04:00E4: 8D xx xx     	sta	|~~version+2
  1427                        ;
  1428                        ;	UARTBASE[UART_LCR] = (UARTBASE[UART_LCR] | LCR_D
                    LB);
  1429                        	.line	138
  1430 04:00E7: AD xx xx     	lda	|~~UARTBASE
  1431 04:00EA: 85 01        	sta	<R0
  1432 04:00EC: AD xx xx     	lda	|~~UARTBASE+2
  1433 04:00EF: 85 03        	sta	<R0+2
  1434 04:00F1: AD xx xx     	lda	|~~UARTBASE
  1435 04:00F4: 85 05        	sta	<R1
  1436 04:00F6: AD xx xx     	lda	|~~UARTBASE+2
  1437 04:00F9: 85 07        	sta	<R1+2
  1438 04:00FB: E2 20        	sep	#$20
  1439                        	longa	off
  1440 04:00FD: A0 03 00     	ldy	#$3
  1441 04:0100: B7 05        	lda	[<R1],Y
  1442 04:0102: 09 80        	ora	#<$80
  1443 04:0104: C2 20        	rep	#$20
  1444                        	longa	on
  1445 04:0106: E2 20        	sep	#$20
  1446                        	longa	off
  1447 04:0108: A0 03 00     	ldy	#$3
  1448 04:010B: 97 01        	sta	[<R0],Y
  1449 04:010D: C2 20        	rep	#$20
  1450                        	longa	on
  1451                        ;
  1452                        ;	UARTBASE[UART_DLH] = 0x00;
  1453                        	.line	140
  1454 04:010F: AD xx xx     	lda	|~~UARTBASE
  1455 04:0112: 85 01        	sta	<R0
  1456 04:0114: AD xx xx     	lda	|~~UARTBASE+2
  1457 04:0117: 85 03        	sta	<R0+2
  1458 04:0119: E2 20        	sep	#$20
  1459                        	longa	off
  1460 04:011B: A9 00        	lda	#$0
  1461 04:011D: A0 01 00     	ldy	#$1
  1462 04:0120: 97 01        	sta	[<R0],Y
  1463 04:0122: C2 20        	rep	#$20
  1464                        	longa	on
  Mon Sep 27 2021  9:39                                                Page 29


  1465                        ;	UARTBASE[UART_DLL] = 0x08;
  1466                        	.line	141
  1467 04:0124: AD xx xx     	lda	|~~UARTBASE
  1468 04:0127: 85 01        	sta	<R0
  1469 04:0129: AD xx xx     	lda	|~~UARTBASE+2
  1470 04:012C: 85 03        	sta	<R0+2
  1471 04:012E: E2 20        	sep	#$20
  1472                        	longa	off
  1473 04:0130: A9 08        	lda	#$8
  1474 04:0132: 87 01        	sta	[<R0]
  1475 04:0134: C2 20        	rep	#$20
  1476                        	longa	on
  1477                        ;	UARTBASE[UART_LCR] = (UARTBASE[UART_LCR] ^ LCR_D
                    LB);
  1478                        	.line	142
  1479 04:0136: AD xx xx     	lda	|~~UARTBASE
  1480 04:0139: 85 01        	sta	<R0
  1481 04:013B: AD xx xx     	lda	|~~UARTBASE+2
  1482 04:013E: 85 03        	sta	<R0+2
  1483 04:0140: AD xx xx     	lda	|~~UARTBASE
  1484 04:0143: 85 05        	sta	<R1
  1485 04:0145: AD xx xx     	lda	|~~UARTBASE+2
  1486 04:0148: 85 07        	sta	<R1+2
  1487 04:014A: E2 20        	sep	#$20
  1488                        	longa	off
  1489 04:014C: A0 03 00     	ldy	#$3
  1490 04:014F: B7 05        	lda	[<R1],Y
  1491 04:0151: 49 80        	eor	#<$80
  1492 04:0153: C2 20        	rep	#$20
  1493                        	longa	on
  1494 04:0155: E2 20        	sep	#$20
  1495                        	longa	off
  1496 04:0157: A0 03 00     	ldy	#$3
  1497 04:015A: 97 01        	sta	[<R0],Y
  1498 04:015C: C2 20        	rep	#$20
  1499                        	longa	on
  1500                        ;
  1501                        ;	UARTBASE[UART_LCR] = (LCR_PARITY_NONE | LCR_STOP
                    BIT_1 | LCR_DATABITS_8) & 0x7F;
  1502                        	.line	144
  1503 04:015E: AD xx xx     	lda	|~~UARTBASE
  1504 04:0161: 85 01        	sta	<R0
  1505 04:0163: AD xx xx     	lda	|~~UARTBASE+2
  1506 04:0166: 85 03        	sta	<R0+2
  1507 04:0168: E2 20        	sep	#$20
  1508                        	longa	off
  1509 04:016A: A9 03        	lda	#$3
  1510 04:016C: A0 03 00     	ldy	#$3
  1511 04:016F: 97 01        	sta	[<R0],Y
  1512 04:0171: C2 20        	rep	#$20
  1513                        	longa	on
  1514                        ;
  1515                        ;	UARTBASE[UART_FCR] = 0xC1;
  1516                        	.line	146
  1517 04:0173: AD xx xx     	lda	|~~UARTBASE
  1518 04:0176: 85 01        	sta	<R0
  1519 04:0178: AD xx xx     	lda	|~~UARTBASE+2
  1520 04:017B: 85 03        	sta	<R0+2
  Mon Sep 27 2021  9:39                                                Page 30


  1521 04:017D: E2 20        	sep	#$20
  1522                        	longa	off
  1523 04:017F: A9 C1        	lda	#$c1
  1524 04:0181: A0 02 00     	ldy	#$2
  1525 04:0184: 97 01        	sta	[<R0],Y
  1526 04:0186: C2 20        	rep	#$20
  1527                        	longa	on
  1528                        ;
  1529                        ;	while(*version)
  1530                        	.line	148
  1531                        L10002:
  1532 04:0188: AD xx xx     	lda	|~~version
  1533 04:018B: 85 01        	sta	<R0
  1534 04:018D: AD xx xx     	lda	|~~version+2
  1535 04:0190: 85 03        	sta	<R0+2
  1536 04:0192: A7 01        	lda	[<R0]
  1537 04:0194: 29 FF 00     	and	#$ff
  1538 04:0197: D0 03        	bne	L33
  1539 04:0199: 82 48 00     	brl	L10003
  1540                        L33:
  1541                        ;	{
  1542                        	.line	149
  1543                        ;		while((UARTBASE[UART_LSR] & LSR_XMIT_EMP
                    TY) != LSR_XMIT_EMPTY);
  1544                        	.line	150
  1545                        L10004:
  1546 04:019C: AD xx xx     	lda	|~~UARTBASE
  1547 04:019F: 85 01        	sta	<R0
  1548 04:01A1: AD xx xx     	lda	|~~UARTBASE+2
  1549 04:01A4: 85 03        	sta	<R0+2
  1550 04:01A6: A0 05 00     	ldy	#$5
  1551 04:01A9: B7 01        	lda	[<R0],Y
  1552 04:01AB: 29 20 00     	and	#<$20
  1553 04:01AE: 85 05        	sta	<R1
  1554 04:01B0: A5 05        	lda	<R1
  1555 04:01B2: C9 20 00     	cmp	#<$20
  1556 04:01B5: D0 03        	bne	L34
  1557 04:01B7: 82 03 00     	brl	L10005
  1558                        L34:
  1559                        	.line	150
  1560 04:01BA: 82 DF FF     	brl	L10004
  1561                        L10005:
  1562                        ;		UARTBASE[UART_TRHB] = (CHAR)(version[0])
                    ;
  1563                        	.line	151
  1564 04:01BD: AD xx xx     	lda	|~~UARTBASE
  1565 04:01C0: 85 01        	sta	<R0
  1566 04:01C2: AD xx xx     	lda	|~~UARTBASE+2
  1567 04:01C5: 85 03        	sta	<R0+2
  1568 04:01C7: AD xx xx     	lda	|~~version
  1569 04:01CA: 85 05        	sta	<R1
  1570 04:01CC: AD xx xx     	lda	|~~version+2
  1571 04:01CF: 85 07        	sta	<R1+2
  1572 04:01D1: E2 20        	sep	#$20
  1573                        	longa	off
  1574 04:01D3: A7 05        	lda	[<R1]
  1575 04:01D5: 87 01        	sta	[<R0]
  1576 04:01D7: C2 20        	rep	#$20
  Mon Sep 27 2021  9:39                                                Page 31


  1577                        	longa	on
  1578                        ;
  1579                        ;		version++;
  1580                        	.line	153
  1581 04:01D9: EE xx xx     	inc	|~~version
  1582 04:01DC: D0 03        	bne	L35
  1583 04:01DE: EE xx xx     	inc	|~~version+2
  1584                        L35:
  1585                        ;	}
  1586                        	.line	154
  1587 04:01E1: 82 A4 FF     	brl	L10002
  1588                        L10003:
  1589                        ;
  1590                        ;	k_irq_register_handler(0,0,poll_handler);
  1591                        	.line	156
  1592 04:01E4: F4 04 00     	pea	#^~~poll_handler
  1593 04:01E7: F4 50 02     	pea	#<~~poll_handler
  1594 04:01EA: F4 00 00     	pea	#<$0
  1595 04:01ED: F4 00 00     	pea	#<$0
  1596 04:01F0: 22 xx xx xx  	jsl	~~k_irq_register_handler
  1597                        ;
  1598                        ;	return TRUE;
  1599                        	.line	158
  1600 04:01F4: A9 01 00     	lda	#$1
  1601                        L36:
  1602 04:01F7: A8           	tay
  1603 04:01F8: 2B           	pld
  1604 04:01F9: 3B           	tsc
  1605 04:01FA: 18           	clc
  1606 04:01FB: 69 08 00     	adc	#L30
  1607 04:01FE: 1B           	tcs
  1608 04:01FF: 98           	tya
  1609 04:0200: 6B           	rtl
  1610                        ;}
  1611                        	.line	159
  1612                        	.endblock	159
  1613             00000008   L30	equ	8
  1614             00000009   L31	equ	9
  1615 04:0201:              	ends
  1616                        	efunc
  1617                        	.endfunc	159,9,8
  1618                        	.line	159
  1619                        	data
  1620                        L17:
  1621 00:00F0: 55 73 69 6E  	db	$55,$73,$69,$6E,$67,$20,$46,$4D,$58,$55,
                    $2B,$20,$53,$65,$72
       00:00F4: 67 20 46 4D 
       00:00F8: 58 55 2B 20 
       00:00FC: 53 65 72 
  1622 00:00FF: 69 61 6C 0D  	db	$69,$61,$6C,$0D,$0A,$00
       00:0103: 0A 00 
  1623 00:0105:              	ends
  1624                        ;
  1625                        ;static UINT f_driver_read_u(LPVOID buffer)
  1626                        ;{
  1627                        	.line	161
  1628                        	.line	162
  1629                        	COM1S02
  Mon Sep 27 2021  9:39                                                Page 32


  1630                        	func
  1631                        	.function	162
  1632                        ~~f_driver_read_u:
  1633                        	longa	on
  1634                        	longi	on
  1635 04:0201: 3B           	tsc
  1636 04:0202: 38           	sec
  1637 04:0203: E9 00 00     	sbc	#L38
  1638 04:0206: 1B           	tcs
  1639 04:0207: 0B           	phd
  1640 04:0208: 5B           	tcd
  1641             00000004   buffer_0	set	4
  1642                        	.block	162
  1643                        ;	return 0;
  1644                        	.sym	buffer,4,129,6,32
  1645                        	.line	163
  1646 04:0209: A9 00 00     	lda	#$0
  1647                        L41:
  1648 04:020C: A8           	tay
  1649 04:020D: A5 02        	lda	<L38+2
  1650 04:020F: 85 06        	sta	<L38+2+4
  1651 04:0211: A5 01        	lda	<L38+1
  1652 04:0213: 85 05        	sta	<L38+1+4
  1653 04:0215: 2B           	pld
  1654 04:0216: 3B           	tsc
  1655 04:0217: 18           	clc
  1656 04:0218: 69 04 00     	adc	#L38+4
  1657 04:021B: 1B           	tcs
  1658 04:021C: 98           	tya
  1659 04:021D: 6B           	rtl
  1660                        ;}
  1661                        	.line	164
  1662                        	.endblock	164
  1663             00000000   L38	equ	0
  1664             00000001   L39	equ	1
  1665 04:021E:              	ends
  1666                        	efunc
  1667                        	.endfunc	164,1,0
  1668                        	.line	164
  1669                        ;
  1670                        ;static UINT f_driver_write_u(UINT size,LPVOID buf
                    fer)
  1671                        ;{
  1672                        	.line	166
  1673                        	.line	167
  1674                        	COM1S02
  1675                        	func
  1676                        	.function	167
  1677                        ~~f_driver_write_u:
  1678                        	longa	on
  1679                        	longi	on
  1680 04:021E: 3B           	tsc
  1681 04:021F: 38           	sec
  1682 04:0220: E9 00 00     	sbc	#L42
  1683 04:0223: 1B           	tcs
  1684 04:0224: 0B           	phd
  1685 04:0225: 5B           	tcd
  1686             00000004   size_0	set	4
  Mon Sep 27 2021  9:39                                                Page 33


  1687             00000006   buffer_0	set	6
  1688                        	.block	167
  1689                        ;	return 0;
  1690                        	.sym	size,4,16,6,16
  1691                        	.sym	buffer,6,129,6,32
  1692                        	.line	168
  1693 04:0226: A9 00 00     	lda	#$0
  1694                        L45:
  1695 04:0229: A8           	tay
  1696 04:022A: A5 02        	lda	<L42+2
  1697 04:022C: 85 08        	sta	<L42+2+6
  1698 04:022E: A5 01        	lda	<L42+1
  1699 04:0230: 85 07        	sta	<L42+1+6
  1700 04:0232: 2B           	pld
  1701 04:0233: 3B           	tsc
  1702 04:0234: 18           	clc
  1703 04:0235: 69 06 00     	adc	#L42+6
  1704 04:0238: 1B           	tcs
  1705 04:0239: 98           	tya
  1706 04:023A: 6B           	rtl
  1707                        ;}
  1708                        	.line	169
  1709                        	.endblock	169
  1710             00000000   L42	equ	0
  1711             00000001   L43	equ	1
  1712 04:023B:              	ends
  1713                        	efunc
  1714                        	.endfunc	169,1,0
  1715                        	.line	169
  1716                        ;
  1717                        ;static BOOL f_driver_unload_u(void)
  1718                        ;{
  1719                        	.line	171
  1720                        	.line	172
  1721                        	COM1S02
  1722                        	func
  1723                        	.function	172
  1724                        ~~f_driver_unload_u:
  1725                        	longa	on
  1726                        	longi	on
  1727 04:023B: 3B           	tsc
  1728 04:023C: 38           	sec
  1729 04:023D: E9 00 00     	sbc	#L46
  1730 04:0240: 1B           	tcs
  1731 04:0241: 0B           	phd
  1732 04:0242: 5B           	tcd
  1733                        	.block	172
  1734                        ;
  1735                        ;	return FALSE;
  1736                        	.line	174
  1737 04:0243: A9 00 00     	lda	#$0
  1738                        L49:
  1739 04:0246: A8           	tay
  1740 04:0247: 2B           	pld
  1741 04:0248: 3B           	tsc
  1742 04:0249: 18           	clc
  1743 04:024A: 69 00 00     	adc	#L46
  1744 04:024D: 1B           	tcs
  Mon Sep 27 2021  9:39                                                Page 34


  1745 04:024E: 98           	tya
  1746 04:024F: 6B           	rtl
  1747                        ;}
  1748                        	.line	175
  1749                        	.endblock	175
  1750             00000000   L46	equ	0
  1751             00000001   L47	equ	1
  1752 04:0250:              	ends
  1753                        	efunc
  1754                        	.endfunc	175,1,0
  1755                        	.line	175
  1756                        ;
  1757                        ;static VOID poll_handler(VOID)
  1758                        ;{
  1759                        	.line	177
  1760                        	.line	178
  1761                        	COM1S02
  1762                        	func
  1763                        	.function	178
  1764                        ~~poll_handler:
  1765                        	longa	on
  1766                        	longi	on
  1767 04:0250: 3B           	tsc
  1768 04:0251: 38           	sec
  1769 04:0252: E9 04 00     	sbc	#L50
  1770 04:0255: 1B           	tcs
  1771 04:0256: 0B           	phd
  1772 04:0257: 5B           	tcd
  1773                        	.block	178
  1774                        ;	if(UART2_BASE[UART_LSR] & 0x01)
  1775                        	.line	179
  1776                        ;	{
  1777 04:0258: E2 20        	sep	#$20
  1778                        	longa	off
  1779 04:025A: AF FD 18 AF  	lda	>11475197	; volatile
  1780 04:025E: 29 01        	and	#<$1
  1781 04:0260: C2 20        	rep	#$20
  1782                        	longa	on
  1783 04:0262: D0 03        	bne	L53
  1784 04:0264: 82 0B 00     	brl	L10006
  1785                        L53:
  1786                        	.line	180
  1787                        ;		_com_data = UART2_BASE[0];
  1788                        	.line	181
  1789 04:0267: E2 20        	sep	#$20
  1790                        	longa	off
  1791 04:0269: AF F8 18 AF  	lda	>11475192	; volatile
  1792 04:026D: 8D xx xx     	sta	|~~_com_data
  1793 04:0270: C2 20        	rep	#$20
  1794                        	longa	on
  1795                        ;	}
  1796                        	.line	182
  1797                        ;
  1798                        ;	if(_com_data!=0)
  1799                        L10006:
  1800                        	.line	184
  1801                        ;	{
  1802 04:0272: AD xx xx     	lda	|~~_com_data
  Mon Sep 27 2021  9:39                                                Page 35


  1803 04:0275: 29 FF 00     	and	#$ff
  1804 04:0278: D0 03        	bne	L54
  1805 04:027A: 82 24 00     	brl	L10007
  1806                        L54:
  1807                        	.line	185
  1808                        ;		k_irq_device_event(IRQE_COM1,_pseudo_tim
                    er,&_com_data);
  1809                        	.line	186
  1810 04:027D: A9 xx xx     	lda	#<~~_com_data
  1811 04:0280: 85 01        	sta	<R0
  1812                        	xref	_BEG_DATA
  1813 04:0282: A9 xx xx     	lda	#_BEG_DATA>>16
  1814 04:0285: 85 03        	sta	<R0+2
  1815 04:0287: D4 03        	pei	<R0+2
  1816 04:0289: D4 01        	pei	<R0
  1817 04:028B: AD xx xx     	lda	|~~_pseudo_timer+2
  1818 04:028E: 48           	pha
  1819 04:028F: AD xx xx     	lda	|~~_pseudo_timer
  1820 04:0292: 48           	pha
  1821 04:0293: F4 03 00     	pea	#<$3
  1822 04:0296: 22 xx xx xx  	jsl	~~k_irq_device_event
  1823                        ;		_com_data = 0;
  1824                        	.line	187
  1825 04:029A: E2 20        	sep	#$20
  1826                        	longa	off
  1827 04:029C: 9C xx xx     	stz	|~~_com_data
  1828 04:029F: C2 20        	rep	#$20
  1829                        	longa	on
  1830                        ;	}
  1831                        	.line	188
  1832                        ;}
  1833                        L10007:
  1834                        	.line	189
  1835                        L55:
  1836 04:02A1: 2B           	pld
  1837 04:02A2: 3B           	tsc
  1838 04:02A3: 18           	clc
  1839 04:02A4: 69 04 00     	adc	#L50
  1840 04:02A7: 1B           	tcs
  1841 04:02A8: 6B           	rtl
  1842                        	.endblock	189
  1843             00000004   L50	equ	4
  1844             00000005   L51	equ	5
  1845 04:02A9:              	ends
  1846                        	efunc
  1847                        	.endfunc	189,5,4
  1848                        	.line	189
  1849                        ;
  1850                        ;
  1851                        	.line	190
  1852                        	.file	"G:\devprojects\c256Foenix\fxos\FXOSWork
                    space\FXOS-Beta\src\drivers/DRIVER_FMXCOM1.c",177
  1853                        	xref	~~k_irq_register_handler
  1854                        	xref	~~k_irq_device_event
  1855                        	xref	~~_pseudo_timer
  1856                        	.sym	~~f_get_driver,~~f_get_driver,1098,3,32,
                    87
  1857                        	.sym	~~DRIVER_FMXUCOM1,~~DRIVER_FMXUCOM1,10,3
  Mon Sep 27 2021  9:39                                                Page 36


                    ,776,87
  1858                        	.sym	~~DRIVER_FMXCOM1,~~DRIVER_FMXCOM1,10,3,7
                    76,87
  1859                        	.sym	~~_pseudo_timer,~~_pseudo_timer,18,18,32
  1860                        	.sym	~~version,~~version,142,3,32
  1861                        	.sym	~~UARTBASE,~~UARTBASE,142,3,32
  1862                        	.sym	~~_com_data,~~_com_data,14,3,8
  1863                        	.sym	~~poll_handler,~~poll_handler,65,3,0
  1864                        	.sym	~~f_driver_unload_u,~~f_driver_unload_u,
                    78,3,0
  1865                        	.sym	~~f_driver_write_u,~~f_driver_write_u,80
                    ,3,0
  1866                        	.sym	~~f_driver_read_u,~~f_driver_read_u,80,3
                    ,0
  1867                        	.sym	~~f_driver_load_u,~~f_driver_load_u,78,3
                    ,0
  1868                        	.sym	~~f_driver_unload,~~f_driver_unload,78,3
                    ,0
  1869                        	.sym	~~f_driver_write,~~f_driver_write,80,3,0
  1870                        	.sym	~~f_driver_read,~~f_driver_read,80,3,0
  1871                        	.sym	~~f_driver_load,~~f_driver_load,78,3,0
  1872                        	.sym	~~f_driver_irq,~~f_driver_irq,65,3,0
  1873                        	.sym	~~_k_driver_base,~~_k_driver_base,129,3,
                    32
  1874                        	.sym	~~k_irq_register_handler,~~k_irq_registe
                    r_handler,80,18,0
  1875                        	.sym	PIRQCHAIN,0,138,14,32,89
  1876                        	.sym	IRQCHAIN,0,10,14,128,89
  1877                        	.sym	DEVICEDRIVER_COMMAND,0,654,14,32
  1878                        	.sym	DEVICEDRIVER_UNLOAD,0,654,14,32
  1879                        	.sym	DEVICEDRIVER_WRITE,0,654,14,32
  1880                        	.sym	DEVICEDRIVER_READ,0,654,14,32
  1881                        	.sym	DEVICEDRIVER_LOAD,0,654,14,32
  1882                        	.sym	DEVICEDRIVER_IRQ,0,641,14,32
  1883                        	.sym	PFX_BLOCK_DEVICE_DRIVER,0,138,14,32,88
  1884                        	.sym	FX_BLOCK_DEVICE_DRIVER,0,10,14,808,88
  1885                        	.sym	GETDRIVERDEF,0,8842,14,32,87
  1886                        	.sym	PFX_DEVICE_DRIVER,0,138,14,32,87
  1887                        	.sym	FX_DEVICE_DRIVER,0,10,14,776,87
  1888                        	.sym	PSEGMENTHEADER,0,138,14,32,86
  1889                        	.sym	SEGMENTHEADER,0,10,14,160,86
  1890                        	.sym	PDEBUGBYTEBITS,0,138,14,32,85
  1891                        	.sym	DEBUGBYTEBITS,0,10,14,8,85
  1892                        	.sym	PFXENVIRONMENT,0,138,14,32,84
  1893                        	.sym	FXENVIRONMENT,0,10,14,96,84
  1894                        	.sym	PFXZEROPAGE,0,138,14,32,83
  1895                        	.sym	FXZEROPAGE,0,10,14,720,83
  1896                        	.sym	IRQBUFFER,0,10,14,32,82
  1897                        	.sym	KERNELTRAPCALL,0,641,14,32
  1898                        	.sym	PFXKERNEL_API_CALLTABLE,0,138,14,32,81
  1899                        	.sym	FXKERNEL_API_CALLTABLE,0,10,14,8192,81
  1900                        	.sym	FRESULT,0,5,14,16
  1901                        	.sym	MKFS_PARM,0,10,14,80,80
  1902                        	.sym	FILINFO,0,10,14,2224,79
  1903                        	.sym	DIR,0,10,14,416,78
  1904                        	.sym	FIL,0,10,14,4400,77
  1905                        	.sym	FFOBJID,0,10,14,128,76
  1906                        	.sym	FATFS,0,10,14,4504,75
  Mon Sep 27 2021  9:39                                                Page 37


  1907                        	.sym	LBA_t,0,18,14,32
  1908                        	.sym	FSIZE_t,0,18,14,32
  1909                        	.sym	TCHAR,0,14,14,8
  1910                        	.sym	PCOMMANDARGS,0,138,14,32,74
  1911                        	.sym	COMMANDARGS,0,10,14,64,74
  1912                        	.sym	PTOKENIZESTATE,0,133,14,32
  1913                        	.sym	TOKENIZESTATE,0,5,14,16
  1914                        	.sym	PTOKEN,0,138,14,32,73
  1915                        	.sym	TOKEN,0,10,14,64,73
  1916                        	.sym	PTOKENTYPE,0,133,14,32
  1917                        	.sym	TOKENTYPE,0,5,14,16
  1918                        	.sym	FXCommandHandler,0,656,14,32
  1919                        	.sym	PCONSOLECTX,0,138,14,32,72
  1920                        	.sym	CONSOLECTX,0,10,14,1144,72
  1921                        	.sym	PSPINNERCTX,0,138,14,32,71
  1922                        	.sym	SPINNERCTX,0,10,14,48,71
  1923                        	.sym	HCLIP,0,138,14,32,70
  1924                        	.sym	PCLIPBOARD_DATA,0,138,14,32,70
  1925                        	.sym	CLIPBOARD_DATA,0,10,14,168,70
  1926                        	.sym	~~k_irq_device_event,~~k_irq_device_even
                    t,65,18,0
  1927                        	.sym	PEVENTMANAGER,0,138,14,32,69
  1928                        	.sym	EVENTMANAGER,0,10,14,192,69
  1929                        	.sym	EV_RUN,0,656,14,32
  1930                        	.sym	EV_QUERY_METRIC,0,656,14,32
  1931                        	.sym	EV_CONFIGURE,0,656,14,32
  1932                        	.sym	EV_UNINIT,0,641,14,32
  1933                        	.sym	EV_INIT,0,8833,14,32
  1934                        	.sym	PMOUSE_MSG_STATE,0,138,14,32,68
  1935                        	.sym	MOUSE_MSG_STATE,0,10,14,184,68
  1936                        	.sym	PFXEVENTPROCESS,0,138,14,32,67
  1937                        	.sym	FXEVENTPROCESS,0,10,14,64,67
  1938                        	.sym	FXASYNCPROCESS,0,641,14,32
  1939                        	.sym	PMARSHALDATA,0,139,14,32,66
  1940                        	.sym	MARSHALDATA,0,11,14,32,66
  1941                        	.sym	FXIDLEPROCESS,0,641,14,32
  1942                        	.sym	FXEventProc,0,641,14,32
  1943                        	.sym	PMOUSEMSGDATA,0,138,14,32,65
  1944                        	.sym	MOUSEMSGDATA,0,10,14,64,65
  1945                        	.sym	MSGIRQ,0,5,14,16
  1946                        	.sym	MAINLOOPARGS,0,10,14,16,64
  1947                        	.sym	PEACHCHILD_MSG,0,138,14,32,63
  1948                        	.sym	EACHCHILD_MSG,0,10,14,64,63
  1949                        	.sym	PMSGBOX_DATA,0,138,14,32,62
  1950                        	.sym	MSGBOX_DATA,0,10,14,96,62
  1951                        	.sym	PDESKTOP_DATA,0,138,14,32,61
  1952                        	.sym	DESKTOP_DATA,0,10,14,64,61
  1953                        	.sym	PWINDOWMANAGER,0,138,14,32,60
  1954                        	.sym	WINDOWMANAGER,0,10,14,160,60
  1955                        	.sym	WM_DOPROCS,0,641,14,32
  1956                        	.sym	WM_QUERY_METRIC,0,656,14,32
  1957                        	.sym	WM_CONFIGURE,0,656,14,32
  1958                        	.sym	WM_HANDLE_EVENT,0,8833,14,32
  1959                        	.sym	WM_EVENTS,0,641,14,32
  1960                        	.sym	PCUR_PALETTE_MAP,0,138,14,32,59
  1961                        	.sym	CUR_PALETTE_MAP,0,10,14,400,59
  1962                        	.sym	PCLICKDETECTED,0,138,14,32,58
  1963                        	.sym	CLICKDETECTED,0,10,14,64,58
  Mon Sep 27 2021  9:39                                                Page 38


  1964                        	.sym	OBJECTCLICKED,0,641,14,32
  1965                        	.sym	PALLOCATIONHEADER,0,138,14,32,57
  1966                        	.sym	ALLOCATIONHEADER,0,10,14,80,57
  1967                        	.sym	PIPCPORT,0,138,14,32,56
  1968                        	.sym	IPCPORT,0,10,14,144,56
  1969                        	.sym	MemoryCallback,0,641,14,32
  1970                        	.sym	PFXMEMORYMAP,0,138,14,32,55
  1971                        	.sym	FXMEMORYMAP,0,10,14,2072,55
  1972                        	.sym	UMM_HEAP_INFO,0,10,14,256,54
  1973                        	.sym	FOREACHNODEUNTIL,0,654,14,32
  1974                        	.sym	FOREACHNODE,0,641,14,32
  1975                        	.sym	PEXECUTIVE,0,138,14,32,53
  1976                        	.sym	EXECUTIVE,0,10,14,128,53
  1977                        	.sym	EX_QUERY_METRIC,0,656,14,32
  1978                        	.sym	EX_CONFIGURE,0,656,14,32
  1979                        	.sym	EX_UNINIT,0,641,14,32
  1980                        	.sym	EX_INIT,0,8833,14,32
  1981                        	.sym	PFXSTRING,0,138,14,32,52
  1982                        	.sym	FXSTRING,0,10,14,64,52
  1983                        	.sym	PFXRFHEADER_STRING_ENTRY,0,138,14,32,51
  1984                        	.sym	FXRFHEADER_STRING_ENTRY,0,10,14,40,51
  1985                        	.sym	PFXRFHEADER_STRING,0,138,14,32,50
  1986                        	.sym	FXRFHEADER_STRING,0,10,14,32,50
  1987                        	.sym	PFXRFHEADER_FONT,0,138,14,32,49
  1988                        	.sym	FXRFHEADER_FONT,0,10,14,144,49
  1989                        	.sym	PFXRFHEADER,0,138,14,32,48
  1990                        	.sym	FXRFHEADER,0,10,14,72,48
  1991                        	.sym	PFXCOMBUFFER,0,138,14,32,47
  1992                        	.sym	FXCOMBUFFER,0,10,14,2080,47
  1993                        	.sym	PSUBMENULIST,0,138,14,32,46
  1994                        	.sym	SUBMENULIST,0,10,14,40,46
  1995                        	.sym	HSUBMENU,0,7,14,32
  1996                        	.sym	PSUBMENU,0,138,14,32,45
  1997                        	.sym	SUBMENU,0,10,14,64,45
  1998                        	.sym	MenuAction,0,641,14,32
  1999                        	.sym	PMENUANCHOR,0,138,14,32,44
  2000                        	.sym	MENUANCHOR,0,10,14,272,44
  2001                        	.sym	PMSGBOX,0,138,14,32,43
  2002                        	.sym	MSGBOX,0,10,14,144,43
  2003                        	.sym	PTEXTBOX,0,138,14,32,42
  2004                        	.sym	TEXTBOX,0,10,14,144,42
  2005                        	.sym	PLISTBOX,0,138,14,32,41
  2006                        	.sym	LISTBOX,0,10,14,240,41
  2007                        	.sym	PSCROLLBAR,0,138,14,32,40
  2008                        	.sym	SCROLLBAR,0,10,14,240,40
  2009                        	.sym	PBUTTON,0,138,14,32,39
  2010                        	.sym	BUTTON,0,10,14,96,39
  2011                        	.sym	PMENUDROPDOWNDATA,0,138,14,32,38
  2012                        	.sym	MENUDROPDOWNDATA,0,10,14,5152,38
  2013                        	.sym	PMENUTAG,0,138,14,32,37
  2014                        	.sym	MENUTAG,0,10,14,160,37
  2015                        	.sym	PMENU,0,138,14,32,36
  2016                        	.sym	MENU,0,10,14,280,36
  2017                        	.sym	HMENURESOURCE,0,129,14,32
  2018                        	.sym	FONTMETRIC,0,10,14,32,35
  2019                        	.sym	TITLE,0,142,14,32
  2020                        	.sym	PHANDLE,0,1153,14,32
  2021                        	.sym	HANDLE,0,129,14,32
  Mon Sep 27 2021  9:39                                                Page 39


  2022                        	.sym	PWINDOWEX,0,138,14,32,34
  2023                        	.sym	WINDOWEX,0,10,14,3880,34
  2024                        	.sym	PWINDOW,0,138,14,32,33
  2025                        	.sym	WINDOW,0,10,14,3904,33
  2026                        	.sym	PDRAGDATA,0,138,14,32,32
  2027                        	.sym	DRAGDATA,0,10,14,216,32
  2028                        	.sym	PNCCLICKABLE,0,138,14,32,31
  2029                        	.sym	NCCLICKABLE,0,10,14,136,31
  2030                        	.sym	HCLICKABLE,0,7,14,32
  2031                        	.sym	PCLICKABLE,0,138,14,32,30
  2032                        	.sym	CLICKABLE,0,10,14,152,30
  2033                        	.sym	PWNDCLASS,0,138,14,32,29
  2034                        	.sym	WNDCLASS,0,10,14,272,29
  2035                        	.sym	HBRUSH,0,129,14,32
  2036                        	.sym	HCURSOR,0,129,14,32
  2037                        	.sym	HICON,0,129,14,32
  2038                        	.sym	HINSTANCE,0,129,14,32
  2039                        	.sym	FXWndProc,0,654,14,32
  2040                        	.sym	PDRECT,0,138,14,32,28
  2041                        	.sym	DRECT,0,10,14,112,28
  2042                        	.sym	PRECTP,0,138,14,32,27
  2043                        	.sym	RECTP,0,10,14,96,27
  2044                        	.sym	PRECT,0,138,14,32,26
  2045                        	.sym	RECT,0,10,14,112,26
  2046                        	.sym	PPOINT,0,138,14,32,25
  2047                        	.sym	POINT,0,10,14,32,25
  2048                        	.sym	PFXPROPERTY,0,138,14,32,23
  2049                        	.sym	FXPROPERTY,0,10,14,384,23
  2050                        	.sym	PKEYSTATE,0,138,14,32,22
  2051                        	.sym	KEYSTATE,0,10,14,112,22
  2052                        	.sym	SCANCODE,0,14,14,8
  2053                        	.sym	KEYCODE,0,16,14,16
  2054                        	.sym	PFXPROCESSMESSAGE,0,138,14,32,21
  2055                        	.sym	FXPROCESSMESSAGE,0,10,14,112,21
  2056                        	.sym	PFXPROCESS,0,138,14,32,20
  2057                        	.sym	FXPROCESS,0,10,14,800,20
  2058                        	.sym	PDESKTOP_CONTROL,0,138,14,32,19
  2059                        	.sym	DESKTOP_CONTROL,0,10,14,392,19
  2060                        	.sym	PCONSOLE_CONTROL,0,138,14,32,18
  2061                        	.sym	CONSOLE_CONTROL,0,10,14,448,18
  2062                        	.sym	FXProcessProc,0,641,14,32
  2063                        	.sym	PFXCMDMESSAGE,0,138,14,32,17
  2064                        	.sym	FXCMDMESSAGE,0,10,14,312,17
  2065                        	.sym	PFXOSMESSAGE,0,138,14,32,16
  2066                        	.sym	FXOSMESSAGE,0,10,14,312,16
  2067                        	.sym	PINT_REGS,0,138,14,32,15
  2068                        	.sym	INT_REGS,0,10,14,104,15
  2069                        	.sym	TASK_STACK,0,10,14,32,14
  2070                        	.sym	TASK,0,10,14,48,13
  2071                        	.sym	PIRQDATA,0,138,14,32,12
  2072                        	.sym	IRQDATA,0,10,14,48,12
  2073                        	.sym	HMENU,0,129,14,32
  2074                        	.sym	HWND,0,129,14,32
  2075                        	.sym	MSGDATA,0,14,14,8
  2076                        	.sym	MSGDEST,0,18,14,32
  2077                        	.sym	MSGSRC,0,18,14,32
  2078                        	.sym	MSGTYPE,0,16,14,16
  2079                        	.sym	PROCESS_RESOURCE_LIST,0,138,14,32,6
  Mon Sep 27 2021  9:39                                                Page 40


  2080                        	.sym	PROCESS_TLS_LIST,0,138,14,32,6
  2081                        	.sym	SEMAPHORE_LIST,0,138,14,32,6
  2082                        	.sym	FILE_BLOCK_LIST,0,138,14,32,6
  2083                        	.sym	FILE_PATH_LIST,0,138,14,32,6
  2084                        	.sym	PROCEDURE_LIST,0,138,14,32,6
  2085                        	.sym	FILE_HANDLE,0,138,14,32,11
  2086                        	.sym	FILE_BLOCK,0,10,14,552,11
  2087                        	.sym	SEMAPHORE,0,10,14,16,10
  2088                        	.sym	PPROCESS_SIGNAL,0,138,14,32,9
  2089                        	.sym	PROCESS_SIGNAL,0,10,14,16,9
  2090                        	.sym	KRESULT,0,18,14,32
  2091                        	.sym	PKERNEL_ERROR,0,138,14,32,8
  2092                        	.sym	KERNEL_ERROR,0,10,14,32,8
  2093                        	.sym	PROCESS_STATUS,0,16,14,16
  2094                        	.sym	FILE_PATH_NAME,0,142,14,32
  2095                        	.sym	PROCESS_RESOURCE,0,129,14,32
  2096                        	.sym	PROCESS_TLS,0,129,14,32
  2097                        	.sym	PROCESS_CTX,0,129,14,32
  2098                        	.sym	USERID,0,16,14,16
  2099                        	.sym	PROCESS_ID,0,18,14,32
  2100                        	.sym	PROCESS_BANK,0,14,14,8
  2101                        	.sym	PFXQUEUE,0,138,14,32,7
  2102                        	.sym	FXQUEUE,0,10,14,80,7
  2103                        	.sym	PFXNODELIST,0,138,14,32,6
  2104                        	.sym	FXNODELIST,0,10,14,96,6
  2105                        	.sym	NodeListDeallocator,0,641,14,32
  2106                        	.sym	PFXNODE,0,138,14,32,5
  2107                        	.sym	FXNODE,0,10,14,384,5
  2108                        	.sym	PBYTEBITS,0,138,14,32,4
  2109                        	.sym	BYTEBITS,0,10,14,8,4
  2110                        	.sym	HRESULT,0,18,14,32
  2111                        	.sym	LPWCHAR,0,144,14,32
  2112                        	.sym	WCHAR,0,16,14,16
  2113                        	.sym	HSTRINGTABLE,0,129,14,32
  2114                        	.sym	HCOLOR,0,129,14,32
  2115                        	.sym	HFONT,0,129,14,32
  2116                        	.sym	HDC,0,129,14,32
  2117                        	.sym	HPOINTER,0,129,14,32
  2118                        	.sym	uint32_t,0,18,14,32
  2119                        	.sym	uint8_t,0,14,14,8
  2120                        	.sym	LPBOOL,0,142,14,32
  2121                        	.sym	BOOL,0,14,14,8
  2122                        	.sym	DWORD,0,18,14,32
  2123                        	.sym	ULONG,0,18,14,32
  2124                        	.sym	LPLONG,0,135,14,32
  2125                        	.sym	LONG,0,7,14,32
  2126                        	.sym	PUINT,0,144,14,32
  2127                        	.sym	USHORT,0,16,14,16
  2128                        	.sym	UINT,0,16,14,16
  2129                        	.sym	INT,0,5,14,16
  2130                        	.sym	WORD,0,5,14,16
  2131                        	.sym	PBYTE,0,142,14,32
  2132                        	.sym	BYTE,0,14,14,8
  2133                        	.sym	IOPORT,0,142,14,32
  2134                        	.sym	PUCHAR,0,142,14,32
  2135                        	.sym	UCHAR,0,14,14,8
  2136                        	.sym	LPWCSTR,0,142,14,32
  2137                        	.sym	LPCSTR,0,142,14,32
  Mon Sep 27 2021  9:39                                                Page 41


  2138                        	.sym	LPSTR,0,142,14,32
  2139                        	.sym	LPCHAR,0,142,14,32
  2140                        	.sym	CHAR,0,14,14,8
  2141                        	.sym	PUINT_32,0,146,14,32
  2142                        	.sym	UINT_32,0,18,14,32
  2143                        	.sym	PUINT_16,0,144,14,32
  2144                        	.sym	UINT_16,0,16,14,16
  2145                        	.sym	PUINT_8,0,142,14,32
  2146                        	.sym	UINT_8,0,14,14,8
  2147                        	.sym	LPVOID,0,129,14,32
  2148                        	.sym	VOID,0,1,14,32
  2149                        	.sym	Boolean_T,0,5,14,16
  2150                        	.sym	ldiv_t,0,10,14,64,2
  2151                        	.sym	div_t,0,10,14,32,1
  2152                        	.sym	wctype_t,0,16,14,16
  2153                        	.sym	wint_t,0,16,14,16
  2154                        	.sym	wchar_t,0,14,14,8
  2155                        	.sym	ptrdiff_t,0,7,14,32
  2156                        	.sym	size_t,0,16,14,16
  2157                        	end


      Lines assembled: 2157
      Errors: 0
