  Mon Sep 27 2021  9:39                                                Page 1


                     ***************************************
                     **      WDC 65C816 Macro Assembler   **
                     **                                   **
                     **     Version 1.00- Aug 10 2021    **
                     ***************************************

     1                        ;:ts=8
     2             00000001   R0	equ	1
     3             00000005   R1	equ	5
     4             00000009   R2	equ	9
     5             0000000D   R3	equ	13
     6                        	.file	"G:\devprojects\c256Foenix\fxos\FXOSWork
                    space\FXOS-Beta\src\drivers/DRIVER_FMXJOYPORT.c",0
     7                        ;
     8                        ;#include "fxkernel.h"
     9                        	.file	"G:\devprojects\c256Foenix\fxos\FXOSWork
                    space\FXOS-Beta\src\fxkernel.h",0
    10                        	.file	"G:\devprojects\c256Foenix\fxos\FXOSWork
                    space\FXOS-Beta\src\fxos.h",0
    11                        	.file	"G:\devtools\WDCTools\wdc\Tools\include\
                    stdlib.h",0
    12                        	.file	"G:\devtools\WDCTools\wdc\Tools\include\
                    stddef.h",0
    13                        	.line	88
    14                        	.file	"G:\devtools\WDCTools\wdc\Tools\include\
                    stdlib.h",43
    15                        	.stag	fake1_,32,1
    16                        	.member	quot,0,5,8,16
    17                        	.member	rem,16,5,8,16
    18                        	.eos
    19                        	.stag	fake2_,64,2
    20                        	.member	quot,0,7,8,32
    21                        	.member	rem,32,7,8,32
    22                        	.eos
    23                        	.stag	int_sqrt,32,3
    24                        	.member	sqrt,0,16,8,16
    25                        	.member	frac,16,16,8,16
    26                        	.eos
    27                        	.line	205
    28                        	.file	"G:\devprojects\c256Foenix\fxos\FXOSWork
                    space\FXOS-Beta\src\fxos.h",4
    29                        	.file	"G:\devtools\WDCTools\wdc\Tools\include\
                    string.h",0
    30                        	.line	134
    31                        	.file	"G:\devprojects\c256Foenix\fxos\FXOSWork
                    space\FXOS-Beta\src\fxos.h",5
    32                        	.file	"G:\devtools\WDCTools\wdc\Tools\include\
                    ctype.h",0
    33                        	.line	103
    34                        	.file	"G:\devprojects\c256Foenix\fxos\FXOSWork
                    space\FXOS-Beta\src\fxos.h",6
    35                        	.file	"G:\devprojects\c256Foenix\fxos\FXOSWork
                    space\FXOS-Beta\src\fxtypes.h",0
    36                        	.stag	_fx_bytebits,8,4
    37                        	.member	b7,0,14,17,1
    38                        	.member	b6,1,14,17,1
    39                        	.member	b5,2,14,17,1
    40                        	.member	b4,3,14,17,1
  Mon Sep 27 2021  9:39                                                Page 2


    41                        	.member	b3,4,14,17,1
    42                        	.member	b2,5,14,17,1
    43                        	.member	b1,6,14,17,1
    44                        	.member	b0,7,14,17,1
    45                        	.eos
    46                        	.stag	_fx_node,384,5
    47                        	.member	type,0,14,8,8
    48                        	.member	Reserved0,8,14,8,8
    49                        	.member	data,16,129,8,32
    50                        	.member	last,48,138,8,32,5
    51                        	.member	next,80,138,8,32,5
    52                        	.member	name,112,110,8,0,32
    53                        	.member	Reserved1,368,16,8,16
    54                        	.eos
    55                        	.stag	_fx_nodelist,96,6
    56                        	.member	listhead,0,138,8,32,5
    57                        	.member	listData,32,129,8,32
    58                        	.member	deallocator,64,641,8,32
    59                        	.eos
    60                        	.stag	_fx_queue,80,7
    61                        	.member	count,0,5,8,16
    62                        	.member	front,16,138,8,32,5
    63                        	.member	rear,48,138,8,32,5
    64                        	.eos
    65                        	.stag	fake8_,32,8
    66                        	.member	subsystem,0,14,8,8
    67                        	.member	level,8,14,8,8
    68                        	.member	error,16,16,8,16
    69                        	.eos
    70                        	.stag	_fx_process_signal,16,9
    71                        	.member	cbSize,0,16,8,16
    72                        	.eos
    73                        	.stag	_fx_semaphore,16,10
    74                        	.member	reserved,0,5,8,16
    75                        	.eos
    76                        	.stag	_fx_fileBlock,552,11
    77                        	.member	openCount,0,16,8,16
    78                        	.member	lockCount,16,16,8,16
    79                        	.member	dirty,32,14,8,8
    80                        	.member	fileBuffer,40,110,8,0,64
    81                        	.eos
    82                        	.stag	_fx_irq_data,48,12
    83                        	.member	line,0,5,8,16
    84                        	.member	keycode,16,142,8,32
    85                        	.eos
    86                        	.stag	_task,48,13
    87                        	.member	SPL,0,14,8,8
    88                        	.member	SPH,8,14,8,8
    89                        	.member	pstack,16,142,8,32
    90                        	.eos
    91                        	.stag	_task_stack,32,14
    92                        	.member	SS,0,142,8,32
    93                        	.eos
    94                        	.stag	int_regs,104,15
    95                        	.member	PB,0,14,8,8
    96                        	.member	PH,8,14,8,8
    97                        	.member	PL,16,14,8,8
    98                        	.member	PP,24,14,8,8
  Mon Sep 27 2021  9:39                                                Page 3


    99                        	.member	DB,32,14,8,8
   100                        	.member	DH,40,14,8,8
   101                        	.member	DL,48,14,8,8
   102                        	.member	AH,56,14,8,8
   103                        	.member	AL,64,14,8,8
   104                        	.member	XH,72,14,8,8
   105                        	.member	XL,80,14,8,8
   106                        	.member	YH,88,14,8,8
   107                        	.member	YL,96,14,8,8
   108                        	.eos
   109                        	.stag	_fx_eventMessage,312,16
   110                        	.member	src,0,18,8,32
   111                        	.member	dest,32,18,8,32
   112                        	.member	type,64,16,8,16
   113                        	.member	hwnd,80,129,8,32
   114                        	.member	pheap,112,129,8,32
   115                        	.member	msgTime,144,18,8,32
   116                        	.member	data,176,110,8,0,16
   117                        	.member	attr,304,14,8,8
   118                        	.eos
   119                        	.stag	_fx_cmdMessage,312,17
   120                        	.member	src,0,18,8,32
   121                        	.member	dest,32,18,8,32
   122                        	.member	type,64,16,8,16
   123                        	.member	hwnd,80,129,8,32
   124                        	.member	pheap,112,129,8,32
   125                        	.member	msgTime,144,18,8,32
   126                        	.member	cmdCId,176,16,8,16
   127                        	.member	cmdMId,192,16,8,16
   128                        	.member	parameter1,208,18,8,32
   129                        	.member	parameter2,240,18,8,32
   130                        	.member	parameter3,272,18,8,32
   131                        	.member	attr,304,14,8,8
   132                        	.eos
   133                        	.stag	_fx_console_ctl,448,18
   134                        	.member	maxCols,0,5,8,16
   135                        	.member	maxRows,16,5,8,16
   136                        	.member	curX,32,5,8,16
   137                        	.member	curY,48,5,8,16
   138                        	.member	fgColor,64,5,8,16
   139                        	.member	bgColor,80,5,8,16
   140                        	.member	mode,96,14,8,8
   141                        	.member	kbBuffer,104,101,8,0,16
   142                        	.member	screenBuffer,360,142,8,32
   143                        	.member	desktopMode,392,14,8,8
   144                        	.member	lastMouseButton,400,5,8,16
   145                        	.member	lastMouseX,416,5,8,16
   146                        	.member	lastMouseY,432,5,8,16
   147                        	.eos
   148                        	.stag	_fx_desktop_ctl,392,19
   149                        	.member	desktopMode,0,14,8,8
   150                        	.member	cursorCtl,8,5,8,16
   151                        	.member	cursorState,24,5,8,16
   152                        	.member	backgroundColor,40,5,8,16
   153                        	.member	foregroundColor,56,5,8,16
   154                        	.member	menuMode,72,5,8,16
   155                        	.member	lastMouseButton,88,5,8,16
   156                        	.member	lastMouseX,104,5,8,16
  Mon Sep 27 2021  9:39                                                Page 4


   157                        	.member	lastMouseY,120,5,8,16
   158                        	.member	currentDiskName,136,142,8,32
   159                        	.member	diskNodes,168,129,8,32
   160                        	.member	titleNodes,200,129,8,32
   161                        	.member	menuNodes,232,129,8,32
   162                        	.member	iconNodes,264,129,8,32
   163                        	.member	windowNodes,296,129,8,32
   164                        	.member	fontNodes,328,129,8,32
   165                        	.member	wndProc,360,138,8,32,6
   166                        	.eos
   167                        	.stag	_fx_process,800,20
   168                        	.member	cbSize,0,5,8,16
   169                        	.member	procId,16,18,8,32
   170                        	.member	parentId,48,18,8,32
   171                        	.member	ctx,80,129,8,32
   172                        	.member	userId,112,16,8,16
   173                        	.member	status,128,16,8,16
   174                        	.member	foregroundActive,144,14,8,8
   175                        	.member	tls,152,1121,8,32,8
   176                        	.member	commandLine,408,142,8,32
   177                        	.member	semaphores,440,138,8,32,6
   178                        	.member	fileHandles,472,138,8,32,6
   179                        	.member	pathList,504,138,8,32,6
   180                        	.member	resources,536,138,8,32,6
   181                        	.member	timerAware,568,14,8,8
   182                        	.member	timerTicks,576,112,8,0,2
   183                        	.member	timerTickCount,608,112,8,0,2
   184                        	.member	kernelError,640,10,8,32,8
   185                        	.member	consoleCtl,672,138,8,32,18
   186                        	.member	desktopCtl,704,138,8,32,19
   187                        	.member	execProc,736,641,8,32
   188                        	.member	startupArgs,768,129,8,32
   189                        	.eos
   190                        	.stag	_fxProcessMessage,112,21
   191                        	.member	src,0,18,8,32
   192                        	.member	dest,32,18,8,32
   193                        	.member	type,64,16,8,16
   194                        	.member	processInfo,80,138,8,32,20
   195                        	.eos
   196                        	.stag	_k_key_state,112,22
   197                        	.member	scanCode,0,14,8,8
   198                        	.member	isShifted,8,14,8,8
   199                        	.member	isAlt,16,14,8,8
   200                        	.member	isExtended,24,14,8,8
   201                        	.member	isCapsLock,32,14,8,8
   202                        	.member	isNumLock,40,14,8,8
   203                        	.member	isScrollLock,48,14,8,8
   204                        	.member	keyChar,56,16,8,16
   205                        	.member	scanTime,72,18,8,32
   206                        	.member	ledStatus,104,14,8,8
   207                        	.eos
   208                        	.stag	_fx_property,384,23
   209                        	.member	name,0,110,8,0,16
   210                        	.member	value,128,110,8,0,32
   211                        	.eos
   212                        	.utag	_24bitPointer,32,24
   213                        	.member	address,0,142,11,32
   214                        	.member	bytes,0,110,11,0,4
  Mon Sep 27 2021  9:39                                                Page 5


   215                        	.eos
   216                        	.stag	_PointStruct,32,25
   217                        	.member	x,0,5,8,16
   218                        	.member	y,16,5,8,16
   219                        	.eos
   220                        	.stag	_RectStruct,112,26
   221                        	.member	x,0,5,8,16
   222                        	.member	y,16,5,8,16
   223                        	.member	z,32,18,8,32
   224                        	.member	width,64,5,8,16
   225                        	.member	height,80,5,8,16
   226                        	.member	attr,96,5,8,16
   227                        	.eos
   228                        	.stag	fake27_,96,27
   229                        	.member	name,0,142,8,32
   230                        	.member	topLeft,32,10,8,32,25
   231                        	.member	bottomRight,64,10,8,32,25
   232                        	.eos
   233                        	.stag	fake28_,112,28
   234                        	.member	x,0,5,8,16
   235                        	.member	y,16,5,8,16
   236                        	.member	z,32,5,8,16
   237                        	.member	width,48,5,8,16
   238                        	.member	height,64,5,8,16
   239                        	.member	data,80,18,8,32
   240                        	.eos
   241                        	.stag	_k_WindowClass,272,29
   242                        	.member	cbSize,0,16,8,16
   243                        	.member	style,16,16,8,16
   244                        	.member	styleEx,32,16,8,16
   245                        	.member	pWndProc,48,654,8,32
   246                        	.member	hInstance,80,129,8,32
   247                        	.member	hIcon,112,129,8,32
   248                        	.member	hCursor,144,129,8,32
   249                        	.member	hbrBackground,176,129,8,32
   250                        	.member	lpszMenuName,208,142,8,32
   251                        	.member	lpszClassName,240,142,8,32
   252                        	.eos
   253                        	.stag	_ClickableRect,152,30
   254                        	.member	area,0,10,8,112,26
   255                        	.member	z,112,18,8,32
   256                        	.member	enabled,144,14,8,8
   257                        	.eos
   258                        	.stag	_NCClickableRect,136,31
   259                        	.member	area,0,10,8,112,26
   260                        	.member	msgType,112,16,8,16
   261                        	.member	enabled,128,14,8,8
   262                        	.eos
   263                        	.stag	_DragData,216,32
   264                        	.member	area,0,10,8,112,26
   265                        	.member	xoffset,112,5,8,16
   266                        	.member	yoffset,128,5,8,16
   267                        	.member	msgType,144,16,8,16
   268                        	.member	ncAction,160,16,8,16
   269                        	.member	isDrag,176,14,8,8
   270                        	.member	isResize,184,14,8,8
   271                        	.member	canDrag,192,14,8,8
   272                        	.member	canDrop,200,14,8,8
  Mon Sep 27 2021  9:39                                                Page 6


   273                        	.member	didDrag,208,14,8,8
   274                        	.eos
   275                        	.stag	_k_WindowStruct,3904,33
   276                        	.member	cbSize,0,16,8,16
   277                        	.member	style,16,18,8,32
   278                        	.member	styleEx,48,18,8,32
   279                        	.member	win_id,80,5,8,16
   280                        	.member	win_x,96,5,8,16
   281                        	.member	win_y,112,5,8,16
   282                        	.member	win_width,128,5,8,16
   283                        	.member	win_height,144,5,8,16
   284                        	.member	win_xoffset,160,5,8,16
   285                        	.member	win_yoffset,176,5,8,16
   286                        	.member	win_cxoffset,192,5,8,16
   287                        	.member	win_cyoffset,208,5,8,16
   288                        	.member	wndRect,224,10,8,112,26
   289                        	.member	clientRect,336,10,8,112,26
   290                        	.member	nonclientGadgets,448,106,8,0,31,16
   291                        	.member	clickable,2624,129,8,32
   292                        	.member	win_title,2656,110,8,0,32
   293                        	.member	Reserved0,2912,16,8,16
   294                        	.member	win_class,2928,110,8,0,16
   295                        	.member	win_class_name,3056,110,8,0,32
   296                        	.member	nBitmapLayer,3312,16,8,16
   297                        	.member	bgRegion,3328,129,8,32
   298                        	.member	procid,3360,18,8,32
   299                        	.member	pWndClass,3392,138,8,32,29
   300                        	.member	pParentWindow,3424,129,8,32
   301                        	.member	hMenu,3456,129,8,32
   302                        	.member	hPointer,3488,129,8,32
   303                        	.member	hBackground,3520,129,8,32
   304                        	.member	pChildWindows,3552,138,8,32,6
   305                        	.member	pChildHitList,3584,138,8,32,6
   306                        	.member	isVisible,3616,14,8,8
   307                        	.member	windowData,3624,129,8,32
   308                        	.member	clientData,3656,1121,8,32,6
   309                        	.member	isClosed,3848,14,8,8
   310                        	.member	isClosing,3856,14,8,8
   311                        	.member	isDesktop,3864,14,8,8
   312                        	.member	clickableNode,3872,138,8,32,5
   313                        	.eos
   314                        	.stag	_k_WindowStructEx,3880,34
   315                        	.member	cbSize,0,16,8,16
   316                        	.member	style,16,18,8,32
   317                        	.member	styleEx,48,18,8,32
   318                        	.member	win_id,80,5,8,16
   319                        	.member	win_x,96,5,8,16
   320                        	.member	win_y,112,5,8,16
   321                        	.member	win_width,128,5,8,16
   322                        	.member	win_height,144,5,8,16
   323                        	.member	win_xoffset,160,5,8,16
   324                        	.member	win_yoffset,176,5,8,16
   325                        	.member	win_cxoffset,192,5,8,16
   326                        	.member	win_cyoffset,208,5,8,16
   327                        	.member	wndRect,224,10,8,112,26
   328                        	.member	clientRect,336,10,8,112,26
   329                        	.member	nonclientGadgets,448,106,8,0,31,16
   330                        	.member	clickable,2624,129,8,32
  Mon Sep 27 2021  9:39                                                Page 7


   331                        	.member	win_title,2656,110,8,0,32
   332                        	.member	Reserved0,2912,16,8,16
   333                        	.member	win_class,2928,110,8,0,16
   334                        	.member	nBitmapLayer,3056,16,8,16
   335                        	.member	procid,3072,18,8,32
   336                        	.member	pWndClass,3104,138,8,32,29
   337                        	.member	pParentWindow,3136,129,8,32
   338                        	.member	hMenu,3168,129,8,32
   339                        	.member	hPointer,3200,129,8,32
   340                        	.member	hBackground,3232,129,8,32
   341                        	.member	pChildWindows,3264,138,8,32,6
   342                        	.member	pChildHitList,3296,138,8,32,6
   343                        	.member	isVisible,3328,14,8,8
   344                        	.member	windowData,3336,129,8,32
   345                        	.member	clientData,3368,1121,8,32,4
   346                        	.member	isClosed,3496,14,8,8
   347                        	.member	hWnd,3504,129,8,32
   348                        	.member	localRect,3536,10,8,112,26
   349                        	.member	globalRect,3648,10,8,112,26
   350                        	.member	clientOffsetRect,3760,10,8,112,26
   351                        	.member	isDesktop,3872,14,8,8
   352                        	.eos
   353                        	.stag	_FontMetric,32,35
   354                        	.member	width,0,5,8,16
   355                        	.member	height,16,5,8,16
   356                        	.eos
   357                        	.stag	_MenuStruct,280,36
   358                        	.member	cx,0,5,8,16
   359                        	.member	cy,16,5,8,16
   360                        	.member	width,32,5,8,16
   361                        	.member	height,48,5,8,16
   362                        	.member	fcolor,64,14,8,8
   363                        	.member	bcolor,72,14,8,8
   364                        	.member	chromeLeft,80,14,8,8
   365                        	.member	chromeRight1,88,14,8,8
   366                        	.member	chromeRight2,96,14,8,8
   367                        	.member	hFont,104,129,8,32
   368                        	.member	itemId,136,16,8,16
   369                        	.member	pCaption,152,142,8,32
   370                        	.member	subMenus,184,138,8,32,6
   371                        	.member	pBackground,216,129,8,32
   372                        	.member	hWndOwner,248,129,8,32
   373                        	.eos
   374                        	.stag	fake37_,160,37
   375                        	.member	menuId,0,16,8,16
   376                        	.member	caption,16,142,8,32
   377                        	.member	rect,48,10,8,112,26
   378                        	.eos
   379                        	.stag	fake38_,5152,38
   380                        	.member	pParent,0,138,8,32,33
   381                        	.member	rect,32,10,8,112,26
   382                        	.member	captions,144,1134,8,32,24
   383                        	.member	chrome,912,110,8,0,24
   384                        	.member	ids,1104,112,8,0,24
   385                        	.member	clickable,1488,106,8,0,30,24
   386                        	.member	selected,5136,16,8,16
   387                        	.eos
   388                        	.stag	_fx_button_t,96,39
  Mon Sep 27 2021  9:39                                                Page 8


   389                        	.member	pCaption,0,142,8,32
   390                        	.member	cCaption,32,16,8,16
   391                        	.member	data,48,129,8,32
   392                        	.member	captionPixelWidth,80,16,8,16
   393                        	.eos
   394                        	.stag	_fx_scrollbar_t,240,40
   395                        	.member	min,0,16,8,16
   396                        	.member	max,16,16,8,16
   397                        	.member	increment,32,16,8,16
   398                        	.member	stopsize,48,16,8,16
   399                        	.member	location,64,5,8,16
   400                        	.member	state,80,5,8,16
   401                        	.member	rectThumb,96,10,8,112,26
   402                        	.member	data,208,129,8,32
   403                        	.eos
   404                        	.stag	_fx_listbox_t,240,41
   405                        	.member	pos,0,5,8,16
   406                        	.member	selected,16,16,8,16
   407                        	.member	offsetX,32,5,8,16
   408                        	.member	offsetY,48,5,8,16
   409                        	.member	inc,64,5,8,16
   410                        	.member	direction,80,5,8,16
   411                        	.member	top,96,5,8,16
   412                        	.member	bottom,112,5,8,16
   413                        	.member	indexTop,128,5,8,16
   414                        	.member	indexBottom,144,5,8,16
   415                        	.member	maxItems,160,16,8,16
   416                        	.member	fontSet,176,142,8,32
   417                        	.member	data,208,129,8,32
   418                        	.eos
   419                        	.stag	_fx_textbox_t,144,42
   420                        	.member	pos,0,5,8,16
   421                        	.member	selected,16,16,8,16
   422                        	.member	offsetX,32,5,8,16
   423                        	.member	offsetY,48,5,8,16
   424                        	.member	isShifted,64,14,8,8
   425                        	.member	cursorState,72,14,8,8
   426                        	.member	fontSet,80,142,8,32
   427                        	.member	data,112,129,8,32
   428                        	.eos
   429                        	.stag	_fx_msgbox_t,144,43
   430                        	.member	pos,0,5,8,16
   431                        	.member	selected,16,16,8,16
   432                        	.member	offsetX,32,5,8,16
   433                        	.member	offsetY,48,5,8,16
   434                        	.member	isShifted,64,14,8,8
   435                        	.member	cursorState,72,14,8,8
   436                        	.member	fontSet,80,142,8,32
   437                        	.member	data,112,129,8,32
   438                        	.eos
   439                        	.stag	_fx_menuAnchor_t,272,44
   440                        	.member	pCaption,0,142,8,32
   441                        	.member	renderLayoutX,32,16,8,16
   442                        	.member	renderLayoutY,48,16,8,16
   443                        	.member	captionPixelWidth,64,16,8,16
   444                        	.member	data,80,129,8,32
   445                        	.member	droppedWindow,112,138,8,32,33
   446                        	.member	bytes,144,110,8,0,16
  Mon Sep 27 2021  9:39                                                Page 9


   447                        	.eos
   448                        	.stag	_SubMenuStruct,64,45
   449                        	.member	caption,0,142,8,32
   450                        	.member	action,32,641,8,32
   451                        	.eos
   452                        	.stag	_SubMenuListStruct,40,46
   453                        	.member	cMenus,0,14,8,8
   454                        	.member	psubmenus,8,9354,8,32,45
   455                        	.eos
   456                        	.stag	_fx_ComBuffer,2080,47
   457                        	.member	cbSize,0,16,8,16
   458                        	.member	cbBuffer,16,16,8,16
   459                        	.member	buffer,32,110,8,0,256
   460                        	.eos
   461                        	.stag	_fx_resource_header,72,48
   462                        	.member	magic,0,110,8,0,4
   463                        	.member	major,32,14,8,8
   464                        	.member	minor,40,14,8,8
   465                        	.member	type,48,14,8,8
   466                        	.member	reserved,56,14,8,8
   467                        	.member	resheaderSize,64,14,8,8
   468                        	.eos
   469                        	.stag	_fx_resource_header_font,144,49
   470                        	.member	title,0,110,8,0,16
   471                        	.member	height,128,14,8,8
   472                        	.member	width,136,14,8,8
   473                        	.eos
   474                        	.stag	_fx_resource_string,32,50
   475                        	.member	locale,0,110,8,0,2
   476                        	.member	entries,16,16,8,16
   477                        	.eos
   478                        	.stag	_fx_resource_string_entry,40,51
   479                        	.member	index,0,16,8,16
   480                        	.member	length,16,16,8,16
   481                        	.member	data,32,14,8,8
   482                        	.eos
   483                        	.line	1064
   484                        	.file	"G:\devprojects\c256Foenix\fxos\FXOSWork
                    space\FXOS-Beta\src\fxos.h",8
   485                        	.file	"G:\devprojects\c256Foenix\fxos\FXOSWork
                    space\FXOS-Beta\src\fxstringtable.h",0
   486                        	.line	90
   487                        	.file	"G:\devprojects\c256Foenix\fxos\FXOSWork
                    space\FXOS-Beta\src\fxos.h",9
   488                        	.file	"G:\devprojects\c256Foenix\fxos\FXOSWork
                    space\FXOS-Beta\src\fxc256u.h",0
   489                        	.file	"G:\devprojects\c256Foenix\fxos\FXOSWork
                    space\FXOS-Beta\src\fxtypes.h",0
   490                        	.line	1064
   491                        	.file	"G:\devprojects\c256Foenix\fxos\FXOSWork
                    space\FXOS-Beta\src\fxc256u.h",5
   492                        	.file	"G:\devprojects\c256Foenix\fxos\FXOSWork
                    space\FXOS-Beta\src\fmx_vicky.h",0
   493                        	.file	"G:\devprojects\c256Foenix\fxos\FXOSWork
                    space\FXOS-Beta\src\fxtypes.h",0
   494                        	.line	1064
   495                        	.file	"G:\devprojects\c256Foenix\fxos\FXOSWork
                    space\FXOS-Beta\src\fmx_vicky.h",11
  Mon Sep 27 2021  9:39                                                Page 10


   496                        	.line	72
   497                        	.file	"G:\devprojects\c256Foenix\fxos\FXOSWork
                    space\FXOS-Beta\src\fxc256u.h",6
   498                        	.line	1963
   499                        	.file	"G:\devprojects\c256Foenix\fxos\FXOSWork
                    space\FXOS-Beta\src\fxos.h",16
   500                        	.file	"G:\devprojects\c256Foenix\fxos\FXOSWork
                    space\FXOS-Beta\src\fxkernel.h",0
   501                        	.line	475
   502                        	.file	"G:\devprojects\c256Foenix\fxos\FXOSWork
                    space\FXOS-Beta\src\fxos.h",22
   503                        	.file	"G:\devprojects\c256Foenix\fxos\FXOSWork
                    space\FXOS-Beta\src\fxconsole.h",0
   504                        	.file	"G:\devtools\WDCTools\wdc\Tools\include\
                    string.h",0
   505                        	.line	134
   506                        	.file	"G:\devprojects\c256Foenix\fxos\FXOSWork
                    space\FXOS-Beta\src\fxconsole.h",5
   507                        	.file	"G:\devtools\WDCTools\wdc\Tools\include\
                    stdlib.h",0
   508                        	.line	205
   509                        	.file	"G:\devprojects\c256Foenix\fxos\FXOSWork
                    space\FXOS-Beta\src\fxconsole.h",6
   510                        	.file	"G:\devprojects\c256Foenix\fxos\FXOSWork
                    space\FXOS-Beta\src\fxtypes.h",0
   511                        	.line	1064
   512                        	.file	"G:\devprojects\c256Foenix\fxos\FXOSWork
                    space\FXOS-Beta\src\fxconsole.h",7
   513                        	.file	"G:\devprojects\c256Foenix\fxos\FXOSWork
                    space\FXOS-Beta\src\fxc256u.h",0
   514                        	.line	1963
   515                        	.file	"G:\devprojects\c256Foenix\fxos\FXOSWork
                    space\FXOS-Beta\src\fxconsole.h",12
   516                        	.file	"G:\devprojects\c256Foenix\fxos\FXOSWork
                    space\FXOS-Beta\src\fxstring.h",0
   517                        	.file	"G:\devtools\WDCTools\wdc\Tools\include\
                    stdlib.h",0
   518                        	.line	205
   519                        	.file	"G:\devprojects\c256Foenix\fxos\FXOSWork
                    space\FXOS-Beta\src\fxstring.h",5
   520                        	.file	"G:\devtools\WDCTools\wdc\Tools\include\
                    string.h",0
   521                        	.line	134
   522                        	.file	"G:\devprojects\c256Foenix\fxos\FXOSWork
                    space\FXOS-Beta\src\fxstring.h",6
   523                        	.file	"G:\devprojects\c256Foenix\fxos\FXOSWork
                    space\FXOS-Beta\src\fxtypes.h",0
   524                        	.line	1064
   525                        	.file	"G:\devprojects\c256Foenix\fxos\FXOSWork
                    space\FXOS-Beta\src\fxstring.h",7
   526                        	.stag	_fx_string,64,52
   527                        	.member	size,0,16,8,16
   528                        	.member	pos,16,5,8,16
   529                        	.member	buffer,32,142,8,32
   530                        	.eos
   531                        	.line	141
   532                        	.file	"G:\devprojects\c256Foenix\fxos\FXOSWork
                    space\FXOS-Beta\src\fxconsole.h",17
  Mon Sep 27 2021  9:39                                                Page 11


   533                        	.file	"G:\devprojects\c256Foenix\fxos\FXOSWork
                    space\FXOS-Beta\src\fxeventmanager.h",0
   534                        	.file	"G:\devprojects\c256Foenix\fxos\FXOSWork
                    space\FXOS-Beta\src\fxos.h",0
   535                        	.line	30
   536                        	.file	"G:\devprojects\c256Foenix\fxos\FXOSWork
                    space\FXOS-Beta\src\fxeventmanager.h",5
   537                        	.file	"G:\devprojects\c256Foenix\fxos\FXOSWork
                    space\FXOS-Beta\src\fxexec.h",0
   538                        	.file	"G:\devprojects\c256Foenix\fxos\FXOSWork
                    space\FXOS-Beta\src\fxtypes.h",0
   539                        	.line	1064
   540                        	.file	"G:\devprojects\c256Foenix\fxos\FXOSWork
                    space\FXOS-Beta\src\fxexec.h",5
   541                        	.stag	_fxos_executive_vtable,128,53
   542                        	.member	Init,0,8833,8,32
   543                        	.member	Configure,32,656,8,32
   544                        	.member	Query,64,656,8,32
   545                        	.member	Uninit,96,641,8,32
   546                        	.eos
   547                        	.line	86
   548                        	.file	"G:\devprojects\c256Foenix\fxos\FXOSWork
                    space\FXOS-Beta\src\fxeventmanager.h",6
   549                        	.file	"G:\devprojects\c256Foenix\fxos\FXOSWork
                    space\FXOS-Beta\src\fxnode.h",0
   550                        	.file	"G:\devprojects\c256Foenix\fxos\FXOSWork
                    space\FXOS-Beta\src\fxtypes.h",0
   551                        	.line	1064
   552                        	.file	"G:\devprojects\c256Foenix\fxos\FXOSWork
                    space\FXOS-Beta\src\fxnode.h",11
   553                        	.line	118
   554                        	.file	"G:\devprojects\c256Foenix\fxos\FXOSWork
                    space\FXOS-Beta\src\fxeventmanager.h",7
   555                        	.file	"G:\devprojects\c256Foenix\fxos\FXOSWork
                    space\FXOS-Beta\src\fxconsole.h",0
   556                        	.line	208
   557                        	.file	"G:\devprojects\c256Foenix\fxos\FXOSWork
                    space\FXOS-Beta\src\fxeventmanager.h",8
   558                        	.file	"G:\devprojects\c256Foenix\fxos\FXOSWork
                    space\FXOS-Beta\src\fxwindowmanager.h",0
   559                        	.file	"G:\devprojects\c256Foenix\fxos\FXOSWork
                    space\FXOS-Beta\src\fxos.h",0
   560                        	.line	30
   561                        	.file	"G:\devprojects\c256Foenix\fxos\FXOSWork
                    space\FXOS-Beta\src\fxwindowmanager.h",5
   562                        	.file	"G:\devprojects\c256Foenix\fxos\FXOSWork
                    space\FXOS-Beta\src\fxmemorymanager.h",0
   563                        	.file	"G:\devprojects\c256Foenix\fxos\FXOSWork
                    space\FXOS-Beta\src\fxos.h",0
   564                        	.line	30
   565                        	.file	"G:\devprojects\c256Foenix\fxos\FXOSWork
                    space\FXOS-Beta\src\fxmemorymanager.h",5
   566                        	.file	"G:\devprojects\c256Foenix\fxos\FXOSWork
                    space\FXOS-Beta\src\umm_malloc_cfg.h",0
   567                        	.file	"G:\devprojects\c256Foenix\fxos\FXOSWork
                    space\FXOS-Beta\src\fxos_build_parameters.h",0
   568                        	.line	35
   569                        	.file	"G:\devprojects\c256Foenix\fxos\FXOSWork
  Mon Sep 27 2021  9:39                                                Page 12


                    space\FXOS-Beta\src\umm_malloc_cfg.h",8
   570                        	.stag	UMM_HEAP_INFO_t,256,54
   571                        	.member	totalEntries,0,18,8,32
   572                        	.member	usedEntries,32,18,8,32
   573                        	.member	freeEntries,64,18,8,32
   574                        	.member	totalBlocks,96,18,8,32
   575                        	.member	usedBlocks,128,18,8,32
   576                        	.member	freeBlocks,160,18,8,32
   577                        	.member	maxFreeContiguousBlocks,192,18,8,32
   578                        	.member	blockSize,224,18,8,32
   579                        	.eos
   580                        	.line	199
   581                        	.file	"G:\devprojects\c256Foenix\fxos\FXOSWork
                    space\FXOS-Beta\src\fxmemorymanager.h",6
   582                        	.file	"G:\devprojects\c256Foenix\fxos\FXOSWork
                    space\FXOS-Beta\src\umm_malloc.h",0
   583                        	.file	"G:\devprojects\c256Foenix\fxos\FXOSWork
                    space\FXOS-Beta\src\fxtypes.h",0
   584                        	.line	1064
   585                        	.file	"G:\devprojects\c256Foenix\fxos\FXOSWork
                    space\FXOS-Beta\src\umm_malloc.h",11
   586                        	.line	24
   587                        	.file	"G:\devprojects\c256Foenix\fxos\FXOSWork
                    space\FXOS-Beta\src\fxmemorymanager.h",7
   588                        	.stag	_fx_memory_map,2072,55
   589                        	.member	availableMemory,0,18,8,32
   590                        	.member	valid_segments,32,110,8,0,255
   591                        	.eos
   592                        	.stag	_fx_ipc_port,144,56
   593                        	.member	id,0,18,8,32
   594                        	.member	type,32,14,8,8
   595                        	.member	name,40,138,8,32,52
   596                        	.member	time,72,18,8,32
   597                        	.member	queue,104,138,8,32,7
   598                        	.member	reserved_1,136,14,8,8
   599                        	.eos
   600                        	.stag	_k_mem_alloc_header,80,57
   601                        	.member	user,0,14,8,8
   602                        	.member	attr,8,14,8,8
   603                        	.member	size,16,18,8,32
   604                        	.member	virtual,48,129,8,32
   605                        	.eos
   606                        	.line	129
   607                        	.file	"G:\devprojects\c256Foenix\fxos\FXOSWork
                    space\FXOS-Beta\src\fxwindowmanager.h",6
   608                        	.file	"G:\devprojects\c256Foenix\fxos\FXOSWork
                    space\FXOS-Beta\src\fxeventmanager.h",0
   609                        	.line	572
   610                        	.file	"G:\devprojects\c256Foenix\fxos\FXOSWork
                    space\FXOS-Beta\src\fxwindowmanager.h",7
   611                        	.file	"G:\devprojects\c256Foenix\fxos\FXOSWork
                    space\FXOS-Beta\src\fxgfx.h",0
   612                        	.file	"G:\devprojects\c256Foenix\fxos\FXOSWork
                    space\FXOS-Beta\src\fxfont.h",0
   613                        	.file	"G:\devprojects\c256Foenix\fxos\FXOSWork
                    space\FXOS-Beta\src\fxtypes.h",0
   614                        	.line	1064
   615                        	.file	"G:\devprojects\c256Foenix\fxos\FXOSWork
  Mon Sep 27 2021  9:39                                                Page 13


                    space\FXOS-Beta\src\fxfont.h",6
   616                        	.line	74
   617                        	.file	"G:\devprojects\c256Foenix\fxos\FXOSWork
                    space\FXOS-Beta\src\fxgfx.h",5
   618                        	.stag	_click_detected,64,58
   619                        	.member	window,0,138,8,32,33
   620                        	.member	handler,32,641,8,32
   621                        	.eos
   622                        	.stag	_current_palette_map,400,59
   623                        	.member	CUR_DESKTOP,0,5,8,16
   624                        	.member	CUR_BACKGROUND,16,5,8,16
   625                        	.member	CUR_FONT,32,5,8,16
   626                        	.member	CUR_SELECTED_FONT,48,5,8,16
   627                        	.member	CUR_HIGHLIGHT_COLOR,64,5,8,16
   628                        	.member	CUR_WINDOWFRAME,80,5,8,16
   629                        	.member	CUR_WINDOWBORDER,96,5,8,16
   630                        	.member	CUR_WINDOWSHADOW,112,5,8,16
   631                        	.member	CUR_MENU,128,5,8,16
   632                        	.member	CUR_GADGET,144,5,8,16
   633                        	.member	CUR_COLOR,160,101,8,0,15
   634                        	.eos
   635                        	.line	370
   636                        	.file	"G:\devprojects\c256Foenix\fxos\FXOSWork
                    space\FXOS-Beta\src\fxwindowmanager.h",8
   637                        	.stag	_fxos_winman_vtable,160,60
   638                        	.member	Events,0,641,8,32
   639                        	.member	ConfigureWindowManager,32,656,8,32
   640                        	.member	ProcessWindowEvent,64,8833,8,32
   641                        	.member	QueryWindowManager,96,656,8,32
   642                        	.member	DoWndProcs,128,641,8,32
   643                        	.eos
   644                        	.stag	fake61_,64,61
   645                        	.member	type,0,16,8,16
   646                        	.member	size,16,16,8,16
   647                        	.member	desktopAction,32,129,8,32
   648                        	.eos
   649                        	.stag	fake62_,96,62
   650                        	.member	type,0,16,8,16
   651                        	.member	caption,16,138,8,32,52
   652                        	.member	buttonType,48,16,8,16
   653                        	.member	x,64,5,8,16
   654                        	.member	y,80,5,8,16
   655                        	.eos
   656                        	.stag	_childMessage_t,64,63
   657                        	.member	msgType,0,16,8,16
   658                        	.member	msgData,16,129,8,32
   659                        	.member	dataSize,48,16,8,16
   660                        	.eos
   661                        	.line	594
   662                        	.file	"G:\devprojects\c256Foenix\fxos\FXOSWork
                    space\FXOS-Beta\src\fxeventmanager.h",9
   663                        	.stag	_fx_main_loopvars,16,64
   664                        	.member	dummy,0,5,8,16
   665                        	.eos
   666                        	.stag	_fxMouseMessageData,64,65
   667                        	.member	button1,0,14,8,8
   668                        	.member	button2,8,14,8,8
   669                        	.member	button3,16,14,8,8
  Mon Sep 27 2021  9:39                                                Page 14


   670                        	.member	button4,24,14,8,8
   671                        	.member	x,32,16,8,16
   672                        	.member	y,48,16,8,16
   673                        	.eos
   674                        	.utag	marshalled_data,32,66
   675                        	.member	byteValue,0,14,11,8
   676                        	.member	verbValue,0,110,11,0,2
   677                        	.member	intValue,0,16,11,16
   678                        	.member	longValue,0,18,11,32
   679                        	.member	pointerValue,0,129,11,32
   680                        	.eos
   681                        	.stag	_fx_eventProcess,64,67
   682                        	.member	process,0,138,8,32,20
   683                        	.member	eventProc,32,641,8,32
   684                        	.eos
   685                        	.stag	_mouse_msg_state,184,68
   686                        	.member	lastEvent,0,18,8,32
   687                        	.member	buttonLeftDown,32,14,8,8
   688                        	.member	lastLeftDown,40,18,8,32
   689                        	.member	buttonRightDown,72,14,8,8
   690                        	.member	lastRightDown,80,18,8,32
   691                        	.member	buttonMiddleDown,112,14,8,8
   692                        	.member	lastMiddleDown,120,18,8,32
   693                        	.member	lastX,152,16,8,16
   694                        	.member	lastY,168,16,8,16
   695                        	.eos
   696                        	.stag	_fxos_eventmanager_vtable,192,69
   697                        	.member	EventQueue,0,138,8,32,7
   698                        	.member	Init,32,8833,8,32
   699                        	.member	Run,64,656,8,32
   700                        	.member	Configure,96,656,8,32
   701                        	.member	Query,128,656,8,32
   702                        	.member	Uninit,160,641,8,32
   703                        	.eos
   704                        	.stag	_k_clipboard_data,168,70
   705                        	.member	type,0,14,8,8
   706                        	.member	readable,8,110,8,0,16
   707                        	.member	data,136,129,8,32
   708                        	.eos
   709                        	.line	572
   710                        	.file	"G:\devprojects\c256Foenix\fxos\FXOSWork
                    space\FXOS-Beta\src\fxconsole.h",18
   711                        	.stag	_fx_spinner_ctx,48,71
   712                        	.member	index,0,5,8,16
   713                        	.member	spinner,16,142,8,32
   714                        	.eos
   715                        	.stag	_fx_console_ctx,1144,72
   716                        	.member	lineBufferIndex,0,5,8,16
   717                        	.member	lineBuffer,16,110,8,0,128
   718                        	.member	isShifted,1040,14,8,8
   719                        	.member	userData,1048,129,8,32
   720                        	.member	screenBuffer,1080,129,8,32
   721                        	.member	Reserved1,1112,129,8,32
   722                        	.eos
   723                        	.stag	_token,64,73
   724                        	.member	type,0,5,8,16
   725                        	.member	depth,16,16,8,16
   726                        	.member	text,32,142,8,32
  Mon Sep 27 2021  9:39                                                Page 15


   727                        	.eos
   728                        	.stag	_command_args,64,74
   729                        	.member	proc,0,656,8,32
   730                        	.member	tokens,32,138,8,32,5
   731                        	.eos
   732                        	.line	208
   733                        	.file	"G:\devprojects\c256Foenix\fxos\FXOSWork
                    space\FXOS-Beta\src\fxos.h",23
   734                        	.file	"G:\devprojects\c256Foenix\fxos\FXOSWork
                    space\FXOS-Beta\src\fxstring.h",0
   735                        	.line	141
   736                        	.file	"G:\devprojects\c256Foenix\fxos\FXOSWork
                    space\FXOS-Beta\src\fxos.h",24
   737                        	.file	"G:\devprojects\c256Foenix\fxos\FXOSWork
                    space\FXOS-Beta\src\fxnode.h",0
   738                        	.line	118
   739                        	.file	"G:\devprojects\c256Foenix\fxos\FXOSWork
                    space\FXOS-Beta\src\fxos.h",25
   740                        	.file	"G:\devprojects\c256Foenix\fxos\FXOSWork
                    space\FXOS-Beta\src\ff/ff.h",0
   741                        	.file	"G:\devprojects\c256Foenix\fxos\FXOSWork
                    space\FXOS-Beta\src\ff/ffconf.h",0
   742                        	.line	298
   743                        	.file	"G:\devprojects\c256Foenix\fxos\FXOSWork
                    space\FXOS-Beta\src\ff/ff.h",29
   744                        	.file	"G:\devprojects\c256Foenix\fxos\FXOSWork
                    space\FXOS-Beta\src\fxtypes.h",0
   745                        	.line	1064
   746                        	.file	"G:\devprojects\c256Foenix\fxos\FXOSWork
                    space\FXOS-Beta\src\ff/ff.h",30
   747                        	.stag	fake75_,4504,75
   748                        	.member	fs_type,0,14,8,8
   749                        	.member	pdrv,8,14,8,8
   750                        	.member	n_fats,16,14,8,8
   751                        	.member	wflag,24,14,8,8
   752                        	.member	fsi_flag,32,14,8,8
   753                        	.member	id,40,5,8,16
   754                        	.member	n_rootdir,56,5,8,16
   755                        	.member	csize,72,5,8,16
   756                        	.member	lfnbuf,88,144,8,32
   757                        	.member	last_clst,120,18,8,32
   758                        	.member	free_clst,152,18,8,32
   759                        	.member	n_fatent,184,18,8,32
   760                        	.member	fsize,216,18,8,32
   761                        	.member	volbase,248,18,8,32
   762                        	.member	fatbase,280,18,8,32
   763                        	.member	dirbase,312,18,8,32
   764                        	.member	database,344,18,8,32
   765                        	.member	winsect,376,18,8,32
   766                        	.member	win,408,110,8,0,512
   767                        	.eos
   768                        	.stag	fake76_,128,76
   769                        	.member	fs,0,138,8,32,75
   770                        	.member	id,32,5,8,16
   771                        	.member	attr,48,14,8,8
   772                        	.member	stat,56,14,8,8
   773                        	.member	sclust,64,18,8,32
   774                        	.member	objsize,96,18,8,32
  Mon Sep 27 2021  9:39                                                Page 16


   775                        	.eos
   776                        	.stag	fake77_,4400,77
   777                        	.member	obj,0,10,8,128,76
   778                        	.member	flag,128,14,8,8
   779                        	.member	err,136,14,8,8
   780                        	.member	fptr,144,18,8,32
   781                        	.member	clust,176,18,8,32
   782                        	.member	sect,208,18,8,32
   783                        	.member	dir_sect,240,18,8,32
   784                        	.member	dir_ptr,272,142,8,32
   785                        	.member	buf,304,110,8,0,512
   786                        	.eos
   787                        	.stag	fake78_,416,78
   788                        	.member	obj,0,10,8,128,76
   789                        	.member	dptr,128,18,8,32
   790                        	.member	clust,160,18,8,32
   791                        	.member	sect,192,18,8,32
   792                        	.member	dir,224,142,8,32
   793                        	.member	fn,256,110,8,0,12
   794                        	.member	blk_ofs,352,18,8,32
   795                        	.member	pat,384,142,8,32
   796                        	.eos
   797                        	.stag	fake79_,2224,79
   798                        	.member	fsize,0,18,8,32
   799                        	.member	fdate,32,5,8,16
   800                        	.member	ftime,48,5,8,16
   801                        	.member	fattrib,64,14,8,8
   802                        	.member	altname,72,110,8,0,13
   803                        	.member	fname,176,110,8,0,256
   804                        	.eos
   805                        	.stag	fake80_,80,80
   806                        	.member	fmt,0,14,8,8
   807                        	.member	n_fat,8,14,8,8
   808                        	.member	align,16,16,8,16
   809                        	.member	n_root,32,16,8,16
   810                        	.member	au_size,48,18,8,32
   811                        	.eos
   812                        	.line	429
   813                        	.file	"G:\devprojects\c256Foenix\fxos\FXOSWork
                    space\FXOS-Beta\src\fxos.h",26
   814                        	.line	30
   815                        	.file	"G:\devprojects\c256Foenix\fxos\FXOSWork
                    space\FXOS-Beta\src\fxkernel.h",5
   816                        	.file	"G:\devprojects\c256Foenix\fxos\FXOSWork
                    space\FXOS-Beta\src\fxnode.h",0
   817                        	.line	118
   818                        	.file	"G:\devprojects\c256Foenix\fxos\FXOSWork
                    space\FXOS-Beta\src\fxkernel.h",6
   819                        	.stag	_fx_api_call_table,8192,81
   820                        	.member	call_table,0,1121,8,32,256
   821                        	.eos
   822                        	.stag	_fx_zero_page_irq_data,32,82
   823                        	.member	data,0,110,8,0,4
   824                        	.eos
   825                        	.stag	_fx_zero_page,720,83
   826                        	.member	fxos_mouse_byte_0,0,14,8,8
   827                        	.member	fxos_mouse_byte_1,8,14,8,8
   828                        	.member	fxos_mouse_byte_2,16,14,8,8
  Mon Sep 27 2021  9:39                                                Page 17


   829                        	.member	fxos_mouse_byte_t,24,14,8,8
   830                        	.member	fxos_mouse_byte_x_l,32,14,8,8
   831                        	.member	fxos_mouse_byte_x_h,40,14,8,8
   832                        	.member	fxos_mouse_byte_y_l,48,14,8,8
   833                        	.member	fxos_mouse_byte_y_h,56,14,8,8
   834                        	.member	fxos_key_byte_0,64,14,8,8
   835                        	.member	fxos_key_byte_1,72,14,8,8
   836                        	.member	fxos_key_byte_2,80,14,8,8
   837                        	.member	fxos_mouse_ctl,88,14,8,8
   838                        	.member	fxos_mouse_index,96,14,8,8
   839                        	.member	fxos_mouse_status,104,14,8,8
   840                        	.member	Endianness,112,16,8,16
   841                        	.member	VersionMajor,128,16,8,16
   842                        	.member	VersionMinor,144,16,8,16
   843                        	.member	VersionRelease,160,16,8,16
   844                        	.member	topMemory,176,18,8,32
   845                        	.member	bottomMemory,208,18,8,32
   846                        	.member	availableMemory,240,18,8,32
   847                        	.member	availableMemoryK,272,18,8,32
   848                        	.member	availableHeapMemory,304,18,8,32
   849                        	.member	availableHeapMemoryK,336,18,8,32
   850                        	.member	fxos_console_row,368,16,8,16
   851                        	.member	fxos_console_col,384,16,8,16
   852                        	.member	executive,400,129,8,32
   853                        	.member	eventmanager,432,129,8,32
   854                        	.member	devicemanager,464,129,8,32
   855                        	.member	windowmanager,496,129,8,32
   856                        	.member	fxos_kernel_api,528,138,8,32,81
   857                        	.member	fxos_dos_api,560,138,8,32,81
   858                        	.member	fxos_gfx_api,592,138,8,32,81
   859                        	.member	fxos_gui_api,624,138,8,32,81
   860                        	.member	fxos_con_api,656,138,8,32,81
   861                        	.member	fxos_reserved_2_api,688,138,8,32,81
   862                        	.eos
   863                        	.stag	_fx_environment,96,84
   864                        	.member	variables,0,142,8,32
   865                        	.member	reserved1,32,5,8,16
   866                        	.member	reserved2,48,5,8,16
   867                        	.member	reserved3,64,5,8,16
   868                        	.member	reserved4,80,5,8,16
   869                        	.eos
   870                        	.stag	_debug_byte_bits,8,85
   871                        	.member	bit7,0,14,17,1
   872                        	.member	bit6,1,14,17,1
   873                        	.member	bit5,2,14,17,1
   874                        	.member	bit4,3,14,17,1
   875                        	.member	bit3,4,14,17,1
   876                        	.member	bit2,5,14,17,1
   877                        	.member	bit1,6,14,17,1
   878                        	.member	bit0,7,14,17,1
   879                        	.eos
   880                        	.stag	_k_segmentheader,160,86
   881                        	.member	version_major,0,14,8,8
   882                        	.member	version_minor,8,14,8,8
   883                        	.member	length,16,5,8,16
   884                        	.member	segment_start_addr,32,7,8,32
   885                        	.member	segment_end_addr,64,7,8,32
   886                        	.member	segment_size,96,7,8,32
  Mon Sep 27 2021  9:39                                                Page 18


   887                        	.member	main_entry_addr,128,7,8,32
   888                        	.eos
   889                        	.stag	_fx_device_driver,776,87
   890                        	.member	name,0,110,8,0,32
   891                        	.member	version,256,110,8,0,16
   892                        	.member	hmajor,384,110,8,0,8
   893                        	.member	hminor,448,110,8,0,8
   894                        	.member	type,512,14,8,8
   895                        	.member	designation,520,110,8,0,6
   896                        	.member	irq_ctl,568,16,8,16
   897                        	.member	f_driver_irq,584,129,8,32
   898                        	.member	driver_context,616,129,8,32
   899                        	.member	f_driver_load,648,129,8,32
   900                        	.member	f_driver_read,680,129,8,32
   901                        	.member	f_driver_write,712,129,8,32
   902                        	.member	f_driver_unload,744,129,8,32
   903                        	.eos
   904                        	.stag	_fx_block_device_driver,808,88
   905                        	.member	name,0,110,8,0,32
   906                        	.member	version,256,110,8,0,16
   907                        	.member	hmajor,384,110,8,0,8
   908                        	.member	hminor,448,110,8,0,8
   909                        	.member	type,512,14,8,8
   910                        	.member	designation,520,110,8,0,6
   911                        	.member	irq_ctl,568,16,8,16
   912                        	.member	f_driver_irq,584,129,8,32
   913                        	.member	driver_context,616,129,8,32
   914                        	.member	f_driver_load,648,129,8,32
   915                        	.member	f_driver_read,680,129,8,32
   916                        	.member	f_driver_write,712,129,8,32
   917                        	.member	f_driver_unload,744,129,8,32
   918                        	.member	f_driver_command,776,129,8,32
   919                        	.eos
   920                        	.stag	_k_irq_chain,128,89
   921                        	.member	handlers,0,5217,8,32,4
   922                        	.eos
   923                        	.line	475
   924                        	.file	"G:\devprojects\c256Foenix\fxos\FXOSWork
                    space\FXOS-Beta\src\drivers/DRIVER_FMXJOYPORT.c",2
   925                        ;#include "drivers/DRIVER.h"
   926                        	.file	"G:\devprojects\c256Foenix\fxos\FXOSWork
                    space\FXOS-Beta\src\drivers/DRIVER.h",0
   927                        	.file	"G:\devprojects\c256Foenix\fxos\FXOSWork
                    space\FXOS-Beta\src\fxos.h",0
   928                        	.line	30
   929                        	.file	"G:\devprojects\c256Foenix\fxos\FXOSWork
                    space\FXOS-Beta\src\drivers/DRIVER.h",5
   930                        	.file	"G:\devprojects\c256Foenix\fxos\FXOSWork
                    space\FXOS-Beta\src\fxmemorymanager.h",0
   931                        	.line	129
   932                        	.file	"G:\devprojects\c256Foenix\fxos\FXOSWork
                    space\FXOS-Beta\src\drivers/DRIVER.h",6
   933                        	.file	"G:\devprojects\c256Foenix\fxos\FXOSWork
                    space\FXOS-Beta\src\fxc256u.h",0
   934                        	.line	1963
   935                        	.file	"G:\devprojects\c256Foenix\fxos\FXOSWork
                    space\FXOS-Beta\src\drivers/DRIVER.h",106
   936                        	.line	115
  Mon Sep 27 2021  9:39                                                Page 19


   937                        	.file	"G:\devprojects\c256Foenix\fxos\FXOSWork
                    space\FXOS-Beta\src\drivers/DRIVER_FMXJOYPORT.c",3
   938                        ;#include "drivers/DRIVER_JOYPORT.h"
   939                        	.file	"G:\devprojects\c256Foenix\fxos\FXOSWork
                    space\FXOS-Beta\src\drivers/DRIVER_JOYPORT.h",0
   940                        JOYPORT	section	offset $04:8890
   941 04:8890:              	ends
   942                        	data
   943                        ~~_k_driver_base:
   944 00:0000: 90 88 04 00  	dl	$48890
   945 00:0004:              	ends
   946                        	.line	34
   947                        	.file	"G:\devprojects\c256Foenix\fxos\FXOSWork
                    space\FXOS-Beta\src\drivers/DRIVER_FMXJOYPORT.c",4
   948                        ;
   949                        ;static VOID f_driver_irq(void);
   950                        ;static BOOL f_driver_load(void);
   951                        ;static UINT f_driver_read(LPVOID buffer);
   952                        ;static UINT f_driver_write(UINT size,LPVOID buffe
                    r);
   953                        ;static BOOL f_driver_unload(void);
   954                        ;
   955                        ;extern ULONG _pseudo_timer;
   956                        ;ULONG _trigger_timer = 0L;
   957                        	data
   958                        	xdef	~~_trigger_timer
   959                        ~~_trigger_timer:
   960 00:0004: 00 00 00 00  	dl	$0
   961 00:0008:              	ends
   962                        ;static VOID poll_handler(VOID);
   963                        ;
   964                        ;static FX_DEVICE_DRIVER DRIVER_FMXJOYPORT = {
   965                        	data
   966                        ~~DRIVER_FMXJOYPORT:
   967                        ;							
                    			"FMXJOYPORT\0",
   968 00:0008: 46 4D 58 4A  	db	$46,$4D,$58,$4A,$4F,$59,$50,$4F,$52,$54
       00:000C: 4F 59 50 4F 
       00:0010: 52 54 
   969 00:0012: 00 00        	db	$0,$0
   970 00:0014:              	ds	20
   971                        ;							
                    			"v1.0.0\0",
   972 00:0028: 76 31 2E 30  	db	$76,$31,$2E,$30,$2E,$30,$0,$0
       00:002C: 2E 30 00 00 
   973 00:0030:              	ds	8
   974                        ;							
                    			"A\0",
   975 00:0038: 41 00 00     	db	$41,$0,$0
   976 00:003B:              	ds	5
   977                        ;							
                    			"1\0",
   978 00:0040: 31 00 00     	db	$31,$0,$0
   979 00:0043:              	ds	5
   980                        ;							
                    			DRIVER_TYPE_JOYPORT,
   981 00:0048: A1           	db	$A1
   982                        ;							
  Mon Sep 27 2021  9:39                                                Page 20


                    			"JOY0:\0",
   983 00:0049: 4A 4F 59 30  	db	$4A,$4F,$59,$30,$3A,$0
       00:004D: 3A 00 
   984                        ;							
                    			NOIRQ,
   985 00:004F: FF FF        	dw	$FFFF
   986                        ;							
                    			f_driver_irq,
   987 00:0051: B8 88 04 00  	dl	~~f_driver_irq
   988                        ;							
                    			NULL,
   989 00:0055: 00 00 00 00  	dl	$0
   990                        ;							
                    			f_driver_load,
   991 00:0059: C8 88 04 00  	dl	~~f_driver_load
   992                        ;							
                    			f_driver_read,
   993 00:005D: ED 88 04 00  	dl	~~f_driver_read
   994                        ;							
                    			f_driver_write,
   995 00:0061: 0A 89 04 00  	dl	~~f_driver_write
   996                        ;							
                    			f_driver_unload
   997                        ;							
                    	    };
   998 00:0065: 27 89 04 00  	dl	~~f_driver_unload
   999 00:0069:              	ends
  1000                        	data
  1001                        L1:
  1002 00:0069: 4A 4F 59 30  	db	$4A,$4F,$59,$30,$3A,$00,$00
       00:006D: 3A 00 00 
  1003 00:0070:              	ends
  1004                        ;
  1005                        ;
  1006                        ;static BYTE _joybyte;
  1007                        ;static BYTE _joyaction[4] = {0,0,0,0};
  1008                        	data
  1009                        ~~_joyaction:
  1010 00:0070: 00 00 00 00  	db	$0,$0,$0,$0
  1011 00:0074:              	ends
  1012                        ;
  1013                        ;
  1014                        ;static PFX_DEVICE_DRIVER f_get_driver(LPCSTR majo
                    r,LPCSTR minor)
  1015                        ;{
  1016                        	.line	37
  1017                        	.line	38
  1018                        	JOYPORT
  1019                        	func
  1020                        	.function	38
  1021                        ~~f_get_driver:
  1022                        	longa	on
  1023                        	longi	on
  1024 04:8890: 3B           	tsc
  1025 04:8891: 38           	sec
  1026 04:8892: E9 04 00     	sbc	#L3
  1027 04:8895: 1B           	tcs
  1028 04:8896: 0B           	phd
  Mon Sep 27 2021  9:39                                                Page 21


  1029 04:8897: 5B           	tcd
  1030             00000004   major_0	set	4
  1031             00000008   minor_0	set	8
  1032                        	.block	38
  1033                        ;	return &DRIVER_FMXJOYPORT;
  1034                        	.sym	major,4,142,6,32
  1035                        	.sym	minor,8,142,6,32
  1036                        	.line	39
  1037 04:8898: A9 xx xx     	lda	#<~~DRIVER_FMXJOYPORT
  1038 04:889B: 85 01        	sta	<R0
  1039                        	xref	_BEG_DATA
  1040 04:889D: A9 xx xx     	lda	#_BEG_DATA>>16
  1041 04:88A0: 85 03        	sta	<R0+2
  1042 04:88A2: A6 03        	ldx	<R0+2
  1043 04:88A4: A5 01        	lda	<R0
  1044                        L6:
  1045 04:88A6: A8           	tay
  1046 04:88A7: A5 06        	lda	<L3+2
  1047 04:88A9: 85 0E        	sta	<L3+2+8
  1048 04:88AB: A5 05        	lda	<L3+1
  1049 04:88AD: 85 0D        	sta	<L3+1+8
  1050 04:88AF: 2B           	pld
  1051 04:88B0: 3B           	tsc
  1052 04:88B1: 18           	clc
  1053 04:88B2: 69 0C 00     	adc	#L3+8
  1054 04:88B5: 1B           	tcs
  1055 04:88B6: 98           	tya
  1056 04:88B7: 6B           	rtl
  1057                        ;}
  1058                        	.line	40
  1059                        	.endblock	40
  1060             00000004   L3	equ	4
  1061             00000005   L4	equ	5
  1062 04:88B8:              	ends
  1063                        	efunc
  1064                        	.endfunc	40,5,4
  1065                        	.line	40
  1066                        ;
  1067                        ;static VOID f_driver_irq(void)
  1068                        ;{
  1069                        	.line	42
  1070                        	.line	43
  1071                        	JOYPORT
  1072                        	func
  1073                        	.function	43
  1074                        ~~f_driver_irq:
  1075                        	longa	on
  1076                        	longi	on
  1077 04:88B8: 3B           	tsc
  1078 04:88B9: 38           	sec
  1079 04:88BA: E9 00 00     	sbc	#L7
  1080 04:88BD: 1B           	tcs
  1081 04:88BE: 0B           	phd
  1082 04:88BF: 5B           	tcd
  1083                        	.block	43
  1084                        ;
  1085                        ;}
  1086                        	.line	45
  Mon Sep 27 2021  9:39                                                Page 22


  1087                        L10:
  1088 04:88C0: 2B           	pld
  1089 04:88C1: 3B           	tsc
  1090 04:88C2: 18           	clc
  1091 04:88C3: 69 00 00     	adc	#L7
  1092 04:88C6: 1B           	tcs
  1093 04:88C7: 6B           	rtl
  1094                        	.endblock	45
  1095             00000000   L7	equ	0
  1096             00000001   L8	equ	1
  1097 04:88C8:              	ends
  1098                        	efunc
  1099                        	.endfunc	45,1,0
  1100                        	.line	45
  1101                        ;
  1102                        ;static BOOL f_driver_load(void)
  1103                        ;{
  1104                        	.line	47
  1105                        	.line	48
  1106                        	JOYPORT
  1107                        	func
  1108                        	.function	48
  1109                        ~~f_driver_load:
  1110                        	longa	on
  1111                        	longi	on
  1112 04:88C8: 3B           	tsc
  1113 04:88C9: 38           	sec
  1114 04:88CA: E9 00 00     	sbc	#L11
  1115 04:88CD: 1B           	tcs
  1116 04:88CE: 0B           	phd
  1117 04:88CF: 5B           	tcd
  1118                        	.block	48
  1119                        ;	//MOUSE_PTR_BYTE0[0] = 0x20;
  1120                        ;	//MOUSE_PTR_BYTE0[1] = 0;
  1121                        ;	//MOUSE_PTR_BYTE0[2] = 0;
  1122                        ;
  1123                        ;	//_trigger_timer = _pseudo_timer + 1000;
  1124                        ;
  1125                        ;	k_irq_register_handler(0,0,poll_handler);
  1126                        	.line	55
  1127 04:88D0: F4 04 00     	pea	#^~~poll_handler
  1128 04:88D3: F4 3C 89     	pea	#<~~poll_handler
  1129 04:88D6: F4 00 00     	pea	#<$0
  1130 04:88D9: F4 00 00     	pea	#<$0
  1131 04:88DC: 22 xx xx xx  	jsl	~~k_irq_register_handler
  1132                        ;
  1133                        ;	return TRUE;
  1134                        	.line	57
  1135 04:88E0: A9 01 00     	lda	#$1
  1136                        L14:
  1137 04:88E3: A8           	tay
  1138 04:88E4: 2B           	pld
  1139 04:88E5: 3B           	tsc
  1140 04:88E6: 18           	clc
  1141 04:88E7: 69 00 00     	adc	#L11
  1142 04:88EA: 1B           	tcs
  1143 04:88EB: 98           	tya
  1144 04:88EC: 6B           	rtl
  Mon Sep 27 2021  9:39                                                Page 23


  1145                        ;}
  1146                        	.line	58
  1147                        	.endblock	58
  1148             00000000   L11	equ	0
  1149             00000001   L12	equ	1
  1150 04:88ED:              	ends
  1151                        	efunc
  1152                        	.endfunc	58,1,0
  1153                        	.line	58
  1154                        ;
  1155                        ;static UINT f_driver_read(LPVOID buffer)
  1156                        ;{
  1157                        	.line	60
  1158                        	.line	61
  1159                        	JOYPORT
  1160                        	func
  1161                        	.function	61
  1162                        ~~f_driver_read:
  1163                        	longa	on
  1164                        	longi	on
  1165 04:88ED: 3B           	tsc
  1166 04:88EE: 38           	sec
  1167 04:88EF: E9 00 00     	sbc	#L15
  1168 04:88F2: 1B           	tcs
  1169 04:88F3: 0B           	phd
  1170 04:88F4: 5B           	tcd
  1171             00000004   buffer_0	set	4
  1172                        	.block	61
  1173                        ;	return 0;
  1174                        	.sym	buffer,4,129,6,32
  1175                        	.line	62
  1176 04:88F5: A9 00 00     	lda	#$0
  1177                        L18:
  1178 04:88F8: A8           	tay
  1179 04:88F9: A5 02        	lda	<L15+2
  1180 04:88FB: 85 06        	sta	<L15+2+4
  1181 04:88FD: A5 01        	lda	<L15+1
  1182 04:88FF: 85 05        	sta	<L15+1+4
  1183 04:8901: 2B           	pld
  1184 04:8902: 3B           	tsc
  1185 04:8903: 18           	clc
  1186 04:8904: 69 04 00     	adc	#L15+4
  1187 04:8907: 1B           	tcs
  1188 04:8908: 98           	tya
  1189 04:8909: 6B           	rtl
  1190                        ;}
  1191                        	.line	63
  1192                        	.endblock	63
  1193             00000000   L15	equ	0
  1194             00000001   L16	equ	1
  1195 04:890A:              	ends
  1196                        	efunc
  1197                        	.endfunc	63,1,0
  1198                        	.line	63
  1199                        ;
  1200                        ;static UINT f_driver_write(UINT size,LPVOID buffe
                    r)
  1201                        ;{
  Mon Sep 27 2021  9:39                                                Page 24


  1202                        	.line	65
  1203                        	.line	66
  1204                        	JOYPORT
  1205                        	func
  1206                        	.function	66
  1207                        ~~f_driver_write:
  1208                        	longa	on
  1209                        	longi	on
  1210 04:890A: 3B           	tsc
  1211 04:890B: 38           	sec
  1212 04:890C: E9 00 00     	sbc	#L19
  1213 04:890F: 1B           	tcs
  1214 04:8910: 0B           	phd
  1215 04:8911: 5B           	tcd
  1216             00000004   size_0	set	4
  1217             00000006   buffer_0	set	6
  1218                        	.block	66
  1219                        ;	return 0;
  1220                        	.sym	size,4,16,6,16
  1221                        	.sym	buffer,6,129,6,32
  1222                        	.line	67
  1223 04:8912: A9 00 00     	lda	#$0
  1224                        L22:
  1225 04:8915: A8           	tay
  1226 04:8916: A5 02        	lda	<L19+2
  1227 04:8918: 85 08        	sta	<L19+2+6
  1228 04:891A: A5 01        	lda	<L19+1
  1229 04:891C: 85 07        	sta	<L19+1+6
  1230 04:891E: 2B           	pld
  1231 04:891F: 3B           	tsc
  1232 04:8920: 18           	clc
  1233 04:8921: 69 06 00     	adc	#L19+6
  1234 04:8924: 1B           	tcs
  1235 04:8925: 98           	tya
  1236 04:8926: 6B           	rtl
  1237                        ;}
  1238                        	.line	68
  1239                        	.endblock	68
  1240             00000000   L19	equ	0
  1241             00000001   L20	equ	1
  1242 04:8927:              	ends
  1243                        	efunc
  1244                        	.endfunc	68,1,0
  1245                        	.line	68
  1246                        ;
  1247                        ;static BOOL f_driver_unload(void)
  1248                        ;{
  1249                        	.line	70
  1250                        	.line	71
  1251                        	JOYPORT
  1252                        	func
  1253                        	.function	71
  1254                        ~~f_driver_unload:
  1255                        	longa	on
  1256                        	longi	on
  1257 04:8927: 3B           	tsc
  1258 04:8928: 38           	sec
  1259 04:8929: E9 00 00     	sbc	#L23
  Mon Sep 27 2021  9:39                                                Page 25


  1260 04:892C: 1B           	tcs
  1261 04:892D: 0B           	phd
  1262 04:892E: 5B           	tcd
  1263                        	.block	71
  1264                        ;
  1265                        ;	return FALSE;
  1266                        	.line	73
  1267 04:892F: A9 00 00     	lda	#$0
  1268                        L26:
  1269 04:8932: A8           	tay
  1270 04:8933: 2B           	pld
  1271 04:8934: 3B           	tsc
  1272 04:8935: 18           	clc
  1273 04:8936: 69 00 00     	adc	#L23
  1274 04:8939: 1B           	tcs
  1275 04:893A: 98           	tya
  1276 04:893B: 6B           	rtl
  1277                        ;}
  1278                        	.line	74
  1279                        	.endblock	74
  1280             00000000   L23	equ	0
  1281             00000001   L24	equ	1
  1282 04:893C:              	ends
  1283                        	efunc
  1284                        	.endfunc	74,1,0
  1285                        	.line	74
  1286                        ;
  1287                        ;static VOID poll_handler(VOID)
  1288                        ;{
  1289                        	.line	76
  1290                        	.line	77
  1291                        	JOYPORT
  1292                        	func
  1293                        	.function	77
  1294                        ~~poll_handler:
  1295                        	longa	on
  1296                        	longi	on
  1297 04:893C: 3B           	tsc
  1298 04:893D: 38           	sec
  1299 04:893E: E9 0C 00     	sbc	#L27
  1300 04:8941: 1B           	tcs
  1301 04:8942: 0B           	phd
  1302 04:8943: 5B           	tcd
  1303                        	.block	77
  1304                        ;	BYTE index = 0;
  1305                        ;	BYTE bytes[3] = {0x08,0,0};
  1306                        	data
  1307                        L30:
  1308 00:0074: 08 00 00     	db	$8,$0,$0
  1309 00:0077:              	ends
  1310                        ;
  1311                        ;	for(index=JOYPORT_0;index<=JOYPORT_3;index++)
  1312             00000000   index_1	set	0
  1313             00000001   bytes_1	set	1
  1314                        	.sym	index,0,14,1,8
  1315                        	.sym	bytes,1,110,1,0,3
  1316 04:8944: E2 20        	sep	#$20
  1317                        	longa	off
  Mon Sep 27 2021  9:39                                                Page 26


  1318 04:8946: 64 09        	stz	<L28+index_1
  1319 04:8948: C2 20        	rep	#$20
  1320                        	longa	on
  1321 04:894A: F4 xx xx     	pea	#^L30
  1322 04:894D: F4 xx xx     	pea	#<L30
  1323 04:8950: 18           	clc
  1324 04:8951: 7B           	tdc
  1325 04:8952: 69 0A 00     	adc	#<L28+bytes_1
  1326 04:8955: 85 01        	sta	<R0
  1327 04:8957: A9 00 00     	lda	#$0
  1328 04:895A: 85 03        	sta	<R0+2
  1329 04:895C: D4 03        	pei	<R0+2
  1330 04:895E: D4 01        	pei	<R0
  1331 04:8960: A9 03 00     	lda	#$3
  1332                        	xref	~~~fmov
  1333 04:8963: 22 xx xx xx  	jsl	~~~fmov
  1334                        	.line	81
  1335 04:8967: E2 20        	sep	#$20
  1336                        	longa	off
  1337 04:8969: 64 09        	stz	<L28+index_1
  1338 04:896B: C2 20        	rep	#$20
  1339                        	longa	on
  1340 04:896D: 82 F8 01     	brl	L10004
  1341                        L10003:
  1342                        ;	{
  1343                        	.line	82
  1344                        ;		bytes[0] = 0x08;
  1345                        	.line	83
  1346 04:8970: E2 20        	sep	#$20
  1347                        	longa	off
  1348 04:8972: A9 08        	lda	#$8
  1349 04:8974: 85 0A        	sta	<L28+bytes_1
  1350 04:8976: C2 20        	rep	#$20
  1351                        	longa	on
  1352                        ;
  1353                        ;		_joybyte = JOYSTICK0[index];
  1354                        	.line	85
  1355 04:8978: A5 09        	lda	<L28+index_1
  1356 04:897A: 29 FF 00     	and	#$ff
  1357 04:897D: 85 01        	sta	<R0
  1358 04:897F: A9 00 E8     	lda	#$e800
  1359 04:8982: 85 05        	sta	<R1
  1360 04:8984: A9 AF 00     	lda	#$af
  1361 04:8987: 85 07        	sta	<R1+2
  1362 04:8989: E2 20        	sep	#$20
  1363                        	longa	off
  1364 04:898B: A4 01        	ldy	<R0
  1365 04:898D: B7 05        	lda	[<R1],Y
  1366 04:898F: 8D xx xx     	sta	|~~_joybyte
  1367 04:8992: C2 20        	rep	#$20
  1368                        	longa	on
  1369                        ;		//k_debug_bits("J0:",_joybyte);
  1370                        ;
  1371                        ;		if(index == 1)
  1372                        	.line	88
  1373                        ;		{
  1374 04:8994: E2 20        	sep	#$20
  1375                        	longa	off
  Mon Sep 27 2021  9:39                                                Page 27


  1376 04:8996: A5 09        	lda	<L28+index_1
  1377 04:8998: C9 01        	cmp	#<$1
  1378 04:899A: C2 20        	rep	#$20
  1379                        	longa	on
  1380 04:899C: F0 03        	beq	L31
  1381 04:899E: 82 C1 01     	brl	L10005
  1382                        L31:
  1383                        	.line	89
  1384                        ;			if(_joybyte == 0xDF)
  1385                        	.line	90
  1386                        ;			{
  1387 04:89A1: E2 20        	sep	#$20
  1388                        	longa	off
  1389 04:89A3: AD xx xx     	lda	|~~_joybyte
  1390 04:89A6: C9 DF        	cmp	#<$df
  1391 04:89A8: C2 20        	rep	#$20
  1392                        	longa	on
  1393 04:89AA: F0 03        	beq	L32
  1394 04:89AC: 82 78 00     	brl	L10006
  1395                        L32:
  1396                        	.line	91
  1397                        ;				if(_joyaction[index])
  1398                        	.line	92
  1399                        ;				{
  1400 04:89AF: A5 09        	lda	<L28+index_1
  1401 04:89B1: 29 FF 00     	and	#$ff
  1402 04:89B4: 85 01        	sta	<R0
  1403 04:89B6: A6 01        	ldx	<R0
  1404 04:89B8: BD xx xx     	lda	|~~_joyaction,X
  1405 04:89BB: 29 FF 00     	and	#$ff
  1406 04:89BE: D0 03        	bne	L33
  1407 04:89C0: 82 61 00     	brl	L10007
  1408                        L33:
  1409                        	.line	93
  1410                        ;					_joyaction[index
                    ] = 0;
  1411                        	.line	94
  1412 04:89C3: A5 09        	lda	<L28+index_1
  1413 04:89C5: 29 FF 00     	and	#$ff
  1414 04:89C8: 85 01        	sta	<R0
  1415 04:89CA: E2 20        	sep	#$20
  1416                        	longa	off
  1417 04:89CC: A9 00        	lda	#$0
  1418 04:89CE: A6 01        	ldx	<R0
  1419 04:89D0: 9D xx xx     	sta	|~~_joyaction,X
  1420 04:89D3: C2 20        	rep	#$20
  1421                        	longa	on
  1422                        ;					FXOS_MOUSE_BYTE_
                    T = 0;
  1423                        	.line	95
  1424 04:89D5: E2 20        	sep	#$20
  1425                        	longa	off
  1426 04:89D7: A9 00        	lda	#$0
  1427 04:89D9: 8F 03 15 00  	sta	>5379
  1428 04:89DD: C2 20        	rep	#$20
  1429                        	longa	on
  1430                        ;					FXOS_MOUSE_BYTE_
                    X_L = MOUSE_PTR_X_POS_L[0];
  Mon Sep 27 2021  9:39                                                Page 28


  1431                        	.line	96
  1432 04:89DF: E2 20        	sep	#$20
  1433                        	longa	off
  1434 04:89E1: AF 02 07 AF  	lda	>11470594	; volatile
  1435 04:89E5: 8F 04 15 00  	sta	>5380
  1436 04:89E9: C2 20        	rep	#$20
  1437                        	longa	on
  1438                        ;					FXOS_MOUSE_BYTE_
                    X_H = MOUSE_PTR_X_POS_H[0];
  1439                        	.line	97
  1440 04:89EB: E2 20        	sep	#$20
  1441                        	longa	off
  1442 04:89ED: AF 03 07 AF  	lda	>11470595	; volatile
  1443 04:89F1: 8F 05 15 00  	sta	>5381
  1444 04:89F5: C2 20        	rep	#$20
  1445                        	longa	on
  1446                        ;					FXOS_MOUSE_BYTE_
                    Y_L = MOUSE_PTR_Y_POS_L[0];
  1447                        	.line	98
  1448 04:89F7: E2 20        	sep	#$20
  1449                        	longa	off
  1450 04:89F9: AF 04 07 AF  	lda	>11470596	; volatile
  1451 04:89FD: 8F 06 15 00  	sta	>5382
  1452 04:8A01: C2 20        	rep	#$20
  1453                        	longa	on
  1454                        ;					FXOS_MOUSE_BYTE_
                    Y_H = MOUSE_PTR_Y_POS_H[0];
  1455                        	.line	99
  1456 04:8A03: E2 20        	sep	#$20
  1457                        	longa	off
  1458 04:8A05: AF 05 07 AF  	lda	>11470597	; volatile
  1459 04:8A09: 8F 07 15 00  	sta	>5383
  1460 04:8A0D: C2 20        	rep	#$20
  1461                        	longa	on
  1462                        ;					k_irq_device_eve
                    nt(IRQE_MOUSE,_pseudo_timer,&FXOS_MOUSE_BYTE_T);
  1463                        	.line	100
  1464 04:8A0F: F4 00 00     	pea	#^$1503
  1465 04:8A12: F4 03 15     	pea	#<$1503
  1466 04:8A15: AD xx xx     	lda	|~~_pseudo_timer+2
  1467 04:8A18: 48           	pha
  1468 04:8A19: AD xx xx     	lda	|~~_pseudo_timer
  1469 04:8A1C: 48           	pha
  1470 04:8A1D: F4 02 00     	pea	#<$2
  1471 04:8A20: 22 xx xx xx  	jsl	~~k_irq_device_event
  1472                        ;				}
  1473                        	.line	101
  1474                        ;				continue;
  1475                        L10007:
  1476                        	.line	102
  1477 04:8A24: 82 3B 01     	brl	L10001
  1478                        ;			}
  1479                        	.line	103
  1480                        ;			//if(_pseudo_timer < _trigger_ti
                    mer)
  1481                        ;			//	continue;
  1482                        ;
  1483                        ;
  Mon Sep 27 2021  9:39                                                Page 29


  1484                        ;			//if((_pseudo_timer - _trigger_t
                    imer) < 2)
  1485                        ;			//	continue;
  1486                        ;
  1487                        ;			_trigger_timer = _pseudo_timer;
  1488                        L10006:
  1489                        	.line	111
  1490 04:8A27: AD xx xx     	lda	|~~_pseudo_timer
  1491 04:8A2A: 8D xx xx     	sta	|~~_trigger_timer
  1492 04:8A2D: AD xx xx     	lda	|~~_pseudo_timer+2
  1493 04:8A30: 8D xx xx     	sta	|~~_trigger_timer+2
  1494                        ;
  1495                        ;
  1496                        ;			if(!(_joybyte & JOYPORT_BUTTON0)
                    )
  1497                        	.line	114
  1498                        ;			{
  1499 04:8A33: E2 20        	sep	#$20
  1500                        	longa	off
  1501 04:8A35: AD xx xx     	lda	|~~_joybyte
  1502 04:8A38: 29 10        	and	#<$10
  1503 04:8A3A: C2 20        	rep	#$20
  1504                        	longa	on
  1505 04:8A3C: F0 03        	beq	L34
  1506 04:8A3E: 82 08 00     	brl	L10008
  1507                        L34:
  1508                        	.line	115
  1509                        ;				bytes[0] = bytes[0] | MO
                    USEPORT_BUTTON0;
  1510                        	.line	116
  1511 04:8A41: E2 20        	sep	#$20
  1512                        	longa	off
  1513 04:8A43: A9 01        	lda	#$1
  1514 04:8A45: 04 0A        	tsb	<L28+bytes_1
  1515 04:8A47: C2 20        	rep	#$20
  1516                        	longa	on
  1517                        ;				//k_debug_char_com1('B')
                    ;
  1518                        ;			}
  1519                        	.line	118
  1520                        ;
  1521                        ;			if(!(_joybyte & JOYPORT_BUTTON1)
                    )
  1522                        L10008:
  1523                        	.line	120
  1524                        ;			{
  1525 04:8A49: E2 20        	sep	#$20
  1526                        	longa	off
  1527 04:8A4B: AD xx xx     	lda	|~~_joybyte
  1528 04:8A4E: 29 40        	and	#<$40
  1529 04:8A50: C2 20        	rep	#$20
  1530                        	longa	on
  1531 04:8A52: F0 03        	beq	L35
  1532 04:8A54: 82 08 00     	brl	L10009
  1533                        L35:
  1534                        	.line	121
  1535                        ;				bytes[0] = bytes[0] | MO
                    USEPORT_BUTTON1;
  Mon Sep 27 2021  9:39                                                Page 30


  1536                        	.line	122
  1537 04:8A57: E2 20        	sep	#$20
  1538                        	longa	off
  1539 04:8A59: A9 02        	lda	#$2
  1540 04:8A5B: 04 0A        	tsb	<L28+bytes_1
  1541 04:8A5D: C2 20        	rep	#$20
  1542                        	longa	on
  1543                        ;				//k_debug_char_com1('B')
                    ;
  1544                        ;			}
  1545                        	.line	124
  1546                        ;
  1547                        ;			if(!(_joybyte & JOYPORT_BUTTON2)
                    )
  1548                        L10009:
  1549                        	.line	126
  1550                        ;			{
  1551 04:8A5F: E2 20        	sep	#$20
  1552                        	longa	off
  1553 04:8A61: AD xx xx     	lda	|~~_joybyte
  1554 04:8A64: 29 80        	and	#<$80
  1555 04:8A66: C2 20        	rep	#$20
  1556                        	longa	on
  1557 04:8A68: F0 03        	beq	L36
  1558 04:8A6A: 82 08 00     	brl	L10010
  1559                        L36:
  1560                        	.line	127
  1561                        ;				bytes[0] = bytes[0] | MO
                    USEPORT_BUTTON2;
  1562                        	.line	128
  1563 04:8A6D: E2 20        	sep	#$20
  1564                        	longa	off
  1565 04:8A6F: A9 04        	lda	#$4
  1566 04:8A71: 04 0A        	tsb	<L28+bytes_1
  1567 04:8A73: C2 20        	rep	#$20
  1568                        	longa	on
  1569                        ;				//k_debug_char_com1('B')
                    ;
  1570                        ;			}
  1571                        	.line	130
  1572                        ;
  1573                        ;			if( !(_joybyte & JOYPORT_UP) )
  1574                        L10010:
  1575                        	.line	132
  1576                        ;			{
  1577 04:8A75: E2 20        	sep	#$20
  1578                        	longa	off
  1579 04:8A77: AD xx xx     	lda	|~~_joybyte
  1580 04:8A7A: 29 01        	and	#<$1
  1581 04:8A7C: C2 20        	rep	#$20
  1582                        	longa	on
  1583 04:8A7E: F0 03        	beq	L37
  1584 04:8A80: 82 0B 00     	brl	L10011
  1585                        L37:
  1586                        	.line	133
  1587                        ;				bytes[2] = MICKEY;
  1588                        	.line	134
  1589 04:8A83: E2 20        	sep	#$20
  Mon Sep 27 2021  9:39                                                Page 31


  1590                        	longa	off
  1591 04:8A85: A9 05        	lda	#$5
  1592 04:8A87: 85 0C        	sta	<L28+bytes_1+2
  1593 04:8A89: C2 20        	rep	#$20
  1594                        	longa	on
  1595                        ;				//k_debug_char_com1('W')
                    ;
  1596                        ;			}
  1597                        	.line	136
  1598                        ;			else if( !(_joybyte & JOYPORT_DO
                    WN) )
  1599 04:8A8B: 82 1E 00     	brl	L10012
  1600                        L10011:
  1601                        	.line	137
  1602                        ;			{
  1603 04:8A8E: E2 20        	sep	#$20
  1604                        	longa	off
  1605 04:8A90: AD xx xx     	lda	|~~_joybyte
  1606 04:8A93: 29 02        	and	#<$2
  1607 04:8A95: C2 20        	rep	#$20
  1608                        	longa	on
  1609 04:8A97: F0 03        	beq	L38
  1610 04:8A99: 82 10 00     	brl	L10013
  1611                        L38:
  1612                        	.line	138
  1613                        ;				bytes[0] = bytes[0] | MO
                    USEPORT_Y_SIGN;
  1614                        	.line	139
  1615 04:8A9C: E2 20        	sep	#$20
  1616                        	longa	off
  1617 04:8A9E: A9 20        	lda	#$20
  1618 04:8AA0: 04 0A        	tsb	<L28+bytes_1
  1619 04:8AA2: C2 20        	rep	#$20
  1620                        	longa	on
  1621                        ;				bytes[2] = (255 - MICKEY
                     + 1);
  1622                        	.line	140
  1623 04:8AA4: E2 20        	sep	#$20
  1624                        	longa	off
  1625 04:8AA6: A9 FB        	lda	#$fb
  1626 04:8AA8: 85 0C        	sta	<L28+bytes_1+2
  1627 04:8AAA: C2 20        	rep	#$20
  1628                        	longa	on
  1629                        ;				//k_debug_char_com1('X')
                    ;
  1630                        ;			}
  1631                        	.line	142
  1632                        ;
  1633                        ;			if(!(_joybyte & JOYPORT_LEFT))
  1634                        L10013:
  1635                        L10012:
  1636                        	.line	144
  1637                        ;			{
  1638 04:8AAC: E2 20        	sep	#$20
  1639                        	longa	off
  1640 04:8AAE: AD xx xx     	lda	|~~_joybyte
  1641 04:8AB1: 29 04        	and	#<$4
  1642 04:8AB3: C2 20        	rep	#$20
  Mon Sep 27 2021  9:39                                                Page 32


  1643                        	longa	on
  1644 04:8AB5: F0 03        	beq	L39
  1645 04:8AB7: 82 13 00     	brl	L10014
  1646                        L39:
  1647                        	.line	145
  1648                        ;				bytes[0] = bytes[0] | MO
                    USEPORT_X_SIGN;
  1649                        	.line	146
  1650 04:8ABA: E2 20        	sep	#$20
  1651                        	longa	off
  1652 04:8ABC: A9 10        	lda	#$10
  1653 04:8ABE: 04 0A        	tsb	<L28+bytes_1
  1654 04:8AC0: C2 20        	rep	#$20
  1655                        	longa	on
  1656                        ;				bytes[1] = (255 - MICKEY
                     + 1);
  1657                        	.line	147
  1658 04:8AC2: E2 20        	sep	#$20
  1659                        	longa	off
  1660 04:8AC4: A9 FB        	lda	#$fb
  1661 04:8AC6: 85 0B        	sta	<L28+bytes_1+1
  1662 04:8AC8: C2 20        	rep	#$20
  1663                        	longa	on
  1664                        ;				//k_debug_char_com1('A')
                    ;
  1665                        ;			}
  1666                        	.line	149
  1667                        ;			else if(!(_joybyte & JOYPORT_RIG
                    HT))
  1668 04:8ACA: 82 16 00     	brl	L10015
  1669                        L10014:
  1670                        	.line	150
  1671                        ;			{
  1672 04:8ACD: E2 20        	sep	#$20
  1673                        	longa	off
  1674 04:8ACF: AD xx xx     	lda	|~~_joybyte
  1675 04:8AD2: 29 08        	and	#<$8
  1676 04:8AD4: C2 20        	rep	#$20
  1677                        	longa	on
  1678 04:8AD6: F0 03        	beq	L40
  1679 04:8AD8: 82 08 00     	brl	L10016
  1680                        L40:
  1681                        	.line	151
  1682                        ;				bytes[1] = MICKEY;
  1683                        	.line	152
  1684 04:8ADB: E2 20        	sep	#$20
  1685                        	longa	off
  1686 04:8ADD: A9 05        	lda	#$5
  1687 04:8ADF: 85 0B        	sta	<L28+bytes_1+1
  1688 04:8AE1: C2 20        	rep	#$20
  1689                        	longa	on
  1690                        ;				//k_debug_char_com1('D')
                    ;
  1691                        ;			}
  1692                        	.line	154
  1693                        ;
  1694                        ;			MOUSE_PTR_BYTE0[0] = bytes[0];
  1695                        L10016:
  Mon Sep 27 2021  9:39                                                Page 33


  1696                        L10015:
  1697                        	.line	156
  1698 04:8AE3: E2 20        	sep	#$20
  1699                        	longa	off
  1700 04:8AE5: A5 0A        	lda	<L28+bytes_1
  1701 04:8AE7: 8F 06 07 AF  	sta	>11470598	; volatile
  1702 04:8AEB: C2 20        	rep	#$20
  1703                        	longa	on
  1704                        ;			MOUSE_PTR_BYTE0[1] = bytes[1];
  1705                        	.line	157
  1706 04:8AED: E2 20        	sep	#$20
  1707                        	longa	off
  1708 04:8AEF: A5 0B        	lda	<L28+bytes_1+1
  1709 04:8AF1: 8F 07 07 AF  	sta	>11470599	; volatile
  1710 04:8AF5: C2 20        	rep	#$20
  1711                        	longa	on
  1712                        ;			MOUSE_PTR_BYTE0[2] = bytes[2];
  1713                        	.line	158
  1714 04:8AF7: E2 20        	sep	#$20
  1715                        	longa	off
  1716 04:8AF9: A5 0C        	lda	<L28+bytes_1+2
  1717 04:8AFB: 8F 08 07 AF  	sta	>11470600	; volatile
  1718 04:8AFF: C2 20        	rep	#$20
  1719                        	longa	on
  1720                        ;
  1721                        ;			FXOS_MOUSE_BYTE_T = bytes[0];
  1722                        	.line	160
  1723 04:8B01: E2 20        	sep	#$20
  1724                        	longa	off
  1725 04:8B03: A5 0A        	lda	<L28+bytes_1
  1726 04:8B05: 8F 03 15 00  	sta	>5379
  1727 04:8B09: C2 20        	rep	#$20
  1728                        	longa	on
  1729                        ;			FXOS_MOUSE_BYTE_X_L = MOUSE_PTR_
                    X_POS_L[0];
  1730                        	.line	161
  1731 04:8B0B: E2 20        	sep	#$20
  1732                        	longa	off
  1733 04:8B0D: AF 02 07 AF  	lda	>11470594	; volatile
  1734 04:8B11: 8F 04 15 00  	sta	>5380
  1735 04:8B15: C2 20        	rep	#$20
  1736                        	longa	on
  1737                        ;			FXOS_MOUSE_BYTE_X_H = MOUSE_PTR_
                    X_POS_H[0];
  1738                        	.line	162
  1739 04:8B17: E2 20        	sep	#$20
  1740                        	longa	off
  1741 04:8B19: AF 03 07 AF  	lda	>11470595	; volatile
  1742 04:8B1D: 8F 05 15 00  	sta	>5381
  1743 04:8B21: C2 20        	rep	#$20
  1744                        	longa	on
  1745                        ;			FXOS_MOUSE_BYTE_Y_L = MOUSE_PTR_
                    Y_POS_L[0];
  1746                        	.line	163
  1747 04:8B23: E2 20        	sep	#$20
  1748                        	longa	off
  1749 04:8B25: AF 04 07 AF  	lda	>11470596	; volatile
  1750 04:8B29: 8F 06 15 00  	sta	>5382
  Mon Sep 27 2021  9:39                                                Page 34


  1751 04:8B2D: C2 20        	rep	#$20
  1752                        	longa	on
  1753                        ;			FXOS_MOUSE_BYTE_Y_H = MOUSE_PTR_
                    Y_POS_H[0];
  1754                        	.line	164
  1755 04:8B2F: E2 20        	sep	#$20
  1756                        	longa	off
  1757 04:8B31: AF 05 07 AF  	lda	>11470597	; volatile
  1758 04:8B35: 8F 07 15 00  	sta	>5383
  1759 04:8B39: C2 20        	rep	#$20
  1760                        	longa	on
  1761                        ;
  1762                        ;			k_irq_device_event(IRQE_MOUSE,_p
                    seudo_timer,&FXOS_MOUSE_BYTE_T);
  1763                        	.line	166
  1764 04:8B3B: F4 00 00     	pea	#^$1503
  1765 04:8B3E: F4 03 15     	pea	#<$1503
  1766 04:8B41: AD xx xx     	lda	|~~_pseudo_timer+2
  1767 04:8B44: 48           	pha
  1768 04:8B45: AD xx xx     	lda	|~~_pseudo_timer
  1769 04:8B48: 48           	pha
  1770 04:8B49: F4 02 00     	pea	#<$2
  1771 04:8B4C: 22 xx xx xx  	jsl	~~k_irq_device_event
  1772                        ;
  1773                        ;			_joyaction[index] = 1;
  1774                        	.line	168
  1775 04:8B50: A5 09        	lda	<L28+index_1
  1776 04:8B52: 29 FF 00     	and	#$ff
  1777 04:8B55: 85 01        	sta	<R0
  1778 04:8B57: E2 20        	sep	#$20
  1779                        	longa	off
  1780 04:8B59: A9 01        	lda	#$1
  1781 04:8B5B: A6 01        	ldx	<R0
  1782 04:8B5D: 9D xx xx     	sta	|~~_joyaction,X
  1783 04:8B60: C2 20        	rep	#$20
  1784                        	longa	on
  1785                        ;		}
  1786                        	.line	169
  1787                        ;
  1788                        ;		/*
  1789                        ;		if(index == 0)
  1790                        ;		{
  1791                        ;			_joybyte = SID0_POT_X[0];
  1792                        ;
  1793                        ;			if(_joybyte)
  1794                        ;				k_debug_bits("PX:",_joyb
                    yte);
  1795                        ;
  1796                        ;			_joybyte = SID0_POT_Y[0];
  1797                        ;
  1798                        ;			if(_joybyte)
  1799                        ;				k_debug_bits("PY:",_joyb
                    yte);
  1800                        ;		}
  1801                        ;		*/
  1802                        ;	}
  1803                        L10005:
  1804                        	.line	185
  Mon Sep 27 2021  9:39                                                Page 35


  1805                        L10001:
  1806 04:8B62: E2 20        	sep	#$20
  1807                        	longa	off
  1808 04:8B64: E6 09        	inc	<L28+index_1
  1809 04:8B66: C2 20        	rep	#$20
  1810                        	longa	on
  1811                        L10004:
  1812 04:8B68: E2 20        	sep	#$20
  1813                        	longa	off
  1814 04:8B6A: A9 03        	lda	#$3
  1815 04:8B6C: C5 09        	cmp	<L28+index_1
  1816 04:8B6E: C2 20        	rep	#$20
  1817                        	longa	on
  1818 04:8B70: 90 03        	bcc	L41
  1819 04:8B72: 82 FB FD     	brl	L10003
  1820                        L41:
  1821                        L10002:
  1822                        ;
  1823                        ;}
  1824                        	.line	187
  1825                        L42:
  1826 04:8B75: 2B           	pld
  1827 04:8B76: 3B           	tsc
  1828 04:8B77: 18           	clc
  1829 04:8B78: 69 0C 00     	adc	#L27
  1830 04:8B7B: 1B           	tcs
  1831 04:8B7C: 6B           	rtl
  1832                        	.endblock	187
  1833             0000000C   L27	equ	12
  1834             00000009   L28	equ	9
  1835 04:8B7D:              	ends
  1836                        	efunc
  1837                        	.endfunc	187,9,12
  1838                        	.line	187
  1839                        ;
  1840                        ;
  1841                        	.line	188
  1842                        	.file	"G:\devprojects\c256Foenix\fxos\FXOSWork
                    space\FXOS-Beta\src\drivers/DRIVER_FMXJOYPORT.c",76
  1843                        	xref	~~k_irq_register_handler
  1844                        	xref	~~k_irq_device_event
  1845                        	udata
  1846                        ~~_joybyte
  1847 00:0000:              	ds	1
  1848 00:0001:              	ends
  1849                        	xref	~~_pseudo_timer
  1850                        	.sym	~~f_get_driver,~~f_get_driver,1098,3,32,
                    87
  1851                        	.sym	~~_joyaction,~~_joyaction,110,3,0,4
  1852                        	.sym	~~_joybyte,~~_joybyte,14,3,8
  1853                        	.sym	~~DRIVER_FMXJOYPORT,~~DRIVER_FMXJOYPORT,
                    10,3,776,87
  1854                        	.sym	~~poll_handler,~~poll_handler,65,3,0
  1855                        	.sym	~~_trigger_timer,~~_trigger_timer,18,2,3
                    2
  1856                        	.sym	~~_pseudo_timer,~~_pseudo_timer,18,18,32
  1857                        	.sym	~~f_driver_unload,~~f_driver_unload,78,3
                    ,0
  Mon Sep 27 2021  9:39                                                Page 36


  1858                        	.sym	~~f_driver_write,~~f_driver_write,80,3,0
  1859                        	.sym	~~f_driver_read,~~f_driver_read,80,3,0
  1860                        	.sym	~~f_driver_load,~~f_driver_load,78,3,0
  1861                        	.sym	~~f_driver_irq,~~f_driver_irq,65,3,0
  1862                        	.sym	~~_k_driver_base,~~_k_driver_base,129,3,
                    32
  1863                        	.sym	~~k_irq_register_handler,~~k_irq_registe
                    r_handler,80,18,0
  1864                        	.sym	PIRQCHAIN,0,138,14,32,89
  1865                        	.sym	IRQCHAIN,0,10,14,128,89
  1866                        	.sym	DEVICEDRIVER_COMMAND,0,654,14,32
  1867                        	.sym	DEVICEDRIVER_UNLOAD,0,654,14,32
  1868                        	.sym	DEVICEDRIVER_WRITE,0,654,14,32
  1869                        	.sym	DEVICEDRIVER_READ,0,654,14,32
  1870                        	.sym	DEVICEDRIVER_LOAD,0,654,14,32
  1871                        	.sym	DEVICEDRIVER_IRQ,0,641,14,32
  1872                        	.sym	PFX_BLOCK_DEVICE_DRIVER,0,138,14,32,88
  1873                        	.sym	FX_BLOCK_DEVICE_DRIVER,0,10,14,808,88
  1874                        	.sym	GETDRIVERDEF,0,8842,14,32,87
  1875                        	.sym	PFX_DEVICE_DRIVER,0,138,14,32,87
  1876                        	.sym	FX_DEVICE_DRIVER,0,10,14,776,87
  1877                        	.sym	PSEGMENTHEADER,0,138,14,32,86
  1878                        	.sym	SEGMENTHEADER,0,10,14,160,86
  1879                        	.sym	PDEBUGBYTEBITS,0,138,14,32,85
  1880                        	.sym	DEBUGBYTEBITS,0,10,14,8,85
  1881                        	.sym	PFXENVIRONMENT,0,138,14,32,84
  1882                        	.sym	FXENVIRONMENT,0,10,14,96,84
  1883                        	.sym	PFXZEROPAGE,0,138,14,32,83
  1884                        	.sym	FXZEROPAGE,0,10,14,720,83
  1885                        	.sym	IRQBUFFER,0,10,14,32,82
  1886                        	.sym	KERNELTRAPCALL,0,641,14,32
  1887                        	.sym	PFXKERNEL_API_CALLTABLE,0,138,14,32,81
  1888                        	.sym	FXKERNEL_API_CALLTABLE,0,10,14,8192,81
  1889                        	.sym	FRESULT,0,5,14,16
  1890                        	.sym	MKFS_PARM,0,10,14,80,80
  1891                        	.sym	FILINFO,0,10,14,2224,79
  1892                        	.sym	DIR,0,10,14,416,78
  1893                        	.sym	FIL,0,10,14,4400,77
  1894                        	.sym	FFOBJID,0,10,14,128,76
  1895                        	.sym	FATFS,0,10,14,4504,75
  1896                        	.sym	LBA_t,0,18,14,32
  1897                        	.sym	FSIZE_t,0,18,14,32
  1898                        	.sym	TCHAR,0,14,14,8
  1899                        	.sym	PCOMMANDARGS,0,138,14,32,74
  1900                        	.sym	COMMANDARGS,0,10,14,64,74
  1901                        	.sym	PTOKENIZESTATE,0,133,14,32
  1902                        	.sym	TOKENIZESTATE,0,5,14,16
  1903                        	.sym	PTOKEN,0,138,14,32,73
  1904                        	.sym	TOKEN,0,10,14,64,73
  1905                        	.sym	PTOKENTYPE,0,133,14,32
  1906                        	.sym	TOKENTYPE,0,5,14,16
  1907                        	.sym	FXCommandHandler,0,656,14,32
  1908                        	.sym	PCONSOLECTX,0,138,14,32,72
  1909                        	.sym	CONSOLECTX,0,10,14,1144,72
  1910                        	.sym	PSPINNERCTX,0,138,14,32,71
  1911                        	.sym	SPINNERCTX,0,10,14,48,71
  1912                        	.sym	HCLIP,0,138,14,32,70
  1913                        	.sym	PCLIPBOARD_DATA,0,138,14,32,70
  Mon Sep 27 2021  9:39                                                Page 37


  1914                        	.sym	CLIPBOARD_DATA,0,10,14,168,70
  1915                        	.sym	~~k_irq_device_event,~~k_irq_device_even
                    t,65,18,0
  1916                        	.sym	PEVENTMANAGER,0,138,14,32,69
  1917                        	.sym	EVENTMANAGER,0,10,14,192,69
  1918                        	.sym	EV_RUN,0,656,14,32
  1919                        	.sym	EV_QUERY_METRIC,0,656,14,32
  1920                        	.sym	EV_CONFIGURE,0,656,14,32
  1921                        	.sym	EV_UNINIT,0,641,14,32
  1922                        	.sym	EV_INIT,0,8833,14,32
  1923                        	.sym	PMOUSE_MSG_STATE,0,138,14,32,68
  1924                        	.sym	MOUSE_MSG_STATE,0,10,14,184,68
  1925                        	.sym	PFXEVENTPROCESS,0,138,14,32,67
  1926                        	.sym	FXEVENTPROCESS,0,10,14,64,67
  1927                        	.sym	FXASYNCPROCESS,0,641,14,32
  1928                        	.sym	PMARSHALDATA,0,139,14,32,66
  1929                        	.sym	MARSHALDATA,0,11,14,32,66
  1930                        	.sym	FXIDLEPROCESS,0,641,14,32
  1931                        	.sym	FXEventProc,0,641,14,32
  1932                        	.sym	PMOUSEMSGDATA,0,138,14,32,65
  1933                        	.sym	MOUSEMSGDATA,0,10,14,64,65
  1934                        	.sym	MSGIRQ,0,5,14,16
  1935                        	.sym	MAINLOOPARGS,0,10,14,16,64
  1936                        	.sym	PEACHCHILD_MSG,0,138,14,32,63
  1937                        	.sym	EACHCHILD_MSG,0,10,14,64,63
  1938                        	.sym	PMSGBOX_DATA,0,138,14,32,62
  1939                        	.sym	MSGBOX_DATA,0,10,14,96,62
  1940                        	.sym	PDESKTOP_DATA,0,138,14,32,61
  1941                        	.sym	DESKTOP_DATA,0,10,14,64,61
  1942                        	.sym	PWINDOWMANAGER,0,138,14,32,60
  1943                        	.sym	WINDOWMANAGER,0,10,14,160,60
  1944                        	.sym	WM_DOPROCS,0,641,14,32
  1945                        	.sym	WM_QUERY_METRIC,0,656,14,32
  1946                        	.sym	WM_CONFIGURE,0,656,14,32
  1947                        	.sym	WM_HANDLE_EVENT,0,8833,14,32
  1948                        	.sym	WM_EVENTS,0,641,14,32
  1949                        	.sym	PCUR_PALETTE_MAP,0,138,14,32,59
  1950                        	.sym	CUR_PALETTE_MAP,0,10,14,400,59
  1951                        	.sym	PCLICKDETECTED,0,138,14,32,58
  1952                        	.sym	CLICKDETECTED,0,10,14,64,58
  1953                        	.sym	OBJECTCLICKED,0,641,14,32
  1954                        	.sym	PALLOCATIONHEADER,0,138,14,32,57
  1955                        	.sym	ALLOCATIONHEADER,0,10,14,80,57
  1956                        	.sym	PIPCPORT,0,138,14,32,56
  1957                        	.sym	IPCPORT,0,10,14,144,56
  1958                        	.sym	MemoryCallback,0,641,14,32
  1959                        	.sym	PFXMEMORYMAP,0,138,14,32,55
  1960                        	.sym	FXMEMORYMAP,0,10,14,2072,55
  1961                        	.sym	UMM_HEAP_INFO,0,10,14,256,54
  1962                        	.sym	FOREACHNODEUNTIL,0,654,14,32
  1963                        	.sym	FOREACHNODE,0,641,14,32
  1964                        	.sym	PEXECUTIVE,0,138,14,32,53
  1965                        	.sym	EXECUTIVE,0,10,14,128,53
  1966                        	.sym	EX_QUERY_METRIC,0,656,14,32
  1967                        	.sym	EX_CONFIGURE,0,656,14,32
  1968                        	.sym	EX_UNINIT,0,641,14,32
  1969                        	.sym	EX_INIT,0,8833,14,32
  1970                        	.sym	PFXSTRING,0,138,14,32,52
  Mon Sep 27 2021  9:39                                                Page 38


  1971                        	.sym	FXSTRING,0,10,14,64,52
  1972                        	.sym	PFXRFHEADER_STRING_ENTRY,0,138,14,32,51
  1973                        	.sym	FXRFHEADER_STRING_ENTRY,0,10,14,40,51
  1974                        	.sym	PFXRFHEADER_STRING,0,138,14,32,50
  1975                        	.sym	FXRFHEADER_STRING,0,10,14,32,50
  1976                        	.sym	PFXRFHEADER_FONT,0,138,14,32,49
  1977                        	.sym	FXRFHEADER_FONT,0,10,14,144,49
  1978                        	.sym	PFXRFHEADER,0,138,14,32,48
  1979                        	.sym	FXRFHEADER,0,10,14,72,48
  1980                        	.sym	PFXCOMBUFFER,0,138,14,32,47
  1981                        	.sym	FXCOMBUFFER,0,10,14,2080,47
  1982                        	.sym	PSUBMENULIST,0,138,14,32,46
  1983                        	.sym	SUBMENULIST,0,10,14,40,46
  1984                        	.sym	HSUBMENU,0,7,14,32
  1985                        	.sym	PSUBMENU,0,138,14,32,45
  1986                        	.sym	SUBMENU,0,10,14,64,45
  1987                        	.sym	MenuAction,0,641,14,32
  1988                        	.sym	PMENUANCHOR,0,138,14,32,44
  1989                        	.sym	MENUANCHOR,0,10,14,272,44
  1990                        	.sym	PMSGBOX,0,138,14,32,43
  1991                        	.sym	MSGBOX,0,10,14,144,43
  1992                        	.sym	PTEXTBOX,0,138,14,32,42
  1993                        	.sym	TEXTBOX,0,10,14,144,42
  1994                        	.sym	PLISTBOX,0,138,14,32,41
  1995                        	.sym	LISTBOX,0,10,14,240,41
  1996                        	.sym	PSCROLLBAR,0,138,14,32,40
  1997                        	.sym	SCROLLBAR,0,10,14,240,40
  1998                        	.sym	PBUTTON,0,138,14,32,39
  1999                        	.sym	BUTTON,0,10,14,96,39
  2000                        	.sym	PMENUDROPDOWNDATA,0,138,14,32,38
  2001                        	.sym	MENUDROPDOWNDATA,0,10,14,5152,38
  2002                        	.sym	PMENUTAG,0,138,14,32,37
  2003                        	.sym	MENUTAG,0,10,14,160,37
  2004                        	.sym	PMENU,0,138,14,32,36
  2005                        	.sym	MENU,0,10,14,280,36
  2006                        	.sym	HMENURESOURCE,0,129,14,32
  2007                        	.sym	FONTMETRIC,0,10,14,32,35
  2008                        	.sym	TITLE,0,142,14,32
  2009                        	.sym	PHANDLE,0,1153,14,32
  2010                        	.sym	HANDLE,0,129,14,32
  2011                        	.sym	PWINDOWEX,0,138,14,32,34
  2012                        	.sym	WINDOWEX,0,10,14,3880,34
  2013                        	.sym	PWINDOW,0,138,14,32,33
  2014                        	.sym	WINDOW,0,10,14,3904,33
  2015                        	.sym	PDRAGDATA,0,138,14,32,32
  2016                        	.sym	DRAGDATA,0,10,14,216,32
  2017                        	.sym	PNCCLICKABLE,0,138,14,32,31
  2018                        	.sym	NCCLICKABLE,0,10,14,136,31
  2019                        	.sym	HCLICKABLE,0,7,14,32
  2020                        	.sym	PCLICKABLE,0,138,14,32,30
  2021                        	.sym	CLICKABLE,0,10,14,152,30
  2022                        	.sym	PWNDCLASS,0,138,14,32,29
  2023                        	.sym	WNDCLASS,0,10,14,272,29
  2024                        	.sym	HBRUSH,0,129,14,32
  2025                        	.sym	HCURSOR,0,129,14,32
  2026                        	.sym	HICON,0,129,14,32
  2027                        	.sym	HINSTANCE,0,129,14,32
  2028                        	.sym	FXWndProc,0,654,14,32
  Mon Sep 27 2021  9:39                                                Page 39


  2029                        	.sym	PDRECT,0,138,14,32,28
  2030                        	.sym	DRECT,0,10,14,112,28
  2031                        	.sym	PRECTP,0,138,14,32,27
  2032                        	.sym	RECTP,0,10,14,96,27
  2033                        	.sym	PRECT,0,138,14,32,26
  2034                        	.sym	RECT,0,10,14,112,26
  2035                        	.sym	PPOINT,0,138,14,32,25
  2036                        	.sym	POINT,0,10,14,32,25
  2037                        	.sym	PFXPROPERTY,0,138,14,32,23
  2038                        	.sym	FXPROPERTY,0,10,14,384,23
  2039                        	.sym	PKEYSTATE,0,138,14,32,22
  2040                        	.sym	KEYSTATE,0,10,14,112,22
  2041                        	.sym	SCANCODE,0,14,14,8
  2042                        	.sym	KEYCODE,0,16,14,16
  2043                        	.sym	PFXPROCESSMESSAGE,0,138,14,32,21
  2044                        	.sym	FXPROCESSMESSAGE,0,10,14,112,21
  2045                        	.sym	PFXPROCESS,0,138,14,32,20
  2046                        	.sym	FXPROCESS,0,10,14,800,20
  2047                        	.sym	PDESKTOP_CONTROL,0,138,14,32,19
  2048                        	.sym	DESKTOP_CONTROL,0,10,14,392,19
  2049                        	.sym	PCONSOLE_CONTROL,0,138,14,32,18
  2050                        	.sym	CONSOLE_CONTROL,0,10,14,448,18
  2051                        	.sym	FXProcessProc,0,641,14,32
  2052                        	.sym	PFXCMDMESSAGE,0,138,14,32,17
  2053                        	.sym	FXCMDMESSAGE,0,10,14,312,17
  2054                        	.sym	PFXOSMESSAGE,0,138,14,32,16
  2055                        	.sym	FXOSMESSAGE,0,10,14,312,16
  2056                        	.sym	PINT_REGS,0,138,14,32,15
  2057                        	.sym	INT_REGS,0,10,14,104,15
  2058                        	.sym	TASK_STACK,0,10,14,32,14
  2059                        	.sym	TASK,0,10,14,48,13
  2060                        	.sym	PIRQDATA,0,138,14,32,12
  2061                        	.sym	IRQDATA,0,10,14,48,12
  2062                        	.sym	HMENU,0,129,14,32
  2063                        	.sym	HWND,0,129,14,32
  2064                        	.sym	MSGDATA,0,14,14,8
  2065                        	.sym	MSGDEST,0,18,14,32
  2066                        	.sym	MSGSRC,0,18,14,32
  2067                        	.sym	MSGTYPE,0,16,14,16
  2068                        	.sym	PROCESS_RESOURCE_LIST,0,138,14,32,6
  2069                        	.sym	PROCESS_TLS_LIST,0,138,14,32,6
  2070                        	.sym	SEMAPHORE_LIST,0,138,14,32,6
  2071                        	.sym	FILE_BLOCK_LIST,0,138,14,32,6
  2072                        	.sym	FILE_PATH_LIST,0,138,14,32,6
  2073                        	.sym	PROCEDURE_LIST,0,138,14,32,6
  2074                        	.sym	FILE_HANDLE,0,138,14,32,11
  2075                        	.sym	FILE_BLOCK,0,10,14,552,11
  2076                        	.sym	SEMAPHORE,0,10,14,16,10
  2077                        	.sym	PPROCESS_SIGNAL,0,138,14,32,9
  2078                        	.sym	PROCESS_SIGNAL,0,10,14,16,9
  2079                        	.sym	KRESULT,0,18,14,32
  2080                        	.sym	PKERNEL_ERROR,0,138,14,32,8
  2081                        	.sym	KERNEL_ERROR,0,10,14,32,8
  2082                        	.sym	PROCESS_STATUS,0,16,14,16
  2083                        	.sym	FILE_PATH_NAME,0,142,14,32
  2084                        	.sym	PROCESS_RESOURCE,0,129,14,32
  2085                        	.sym	PROCESS_TLS,0,129,14,32
  2086                        	.sym	PROCESS_CTX,0,129,14,32
  Mon Sep 27 2021  9:39                                                Page 40


  2087                        	.sym	USERID,0,16,14,16
  2088                        	.sym	PROCESS_ID,0,18,14,32
  2089                        	.sym	PROCESS_BANK,0,14,14,8
  2090                        	.sym	PFXQUEUE,0,138,14,32,7
  2091                        	.sym	FXQUEUE,0,10,14,80,7
  2092                        	.sym	PFXNODELIST,0,138,14,32,6
  2093                        	.sym	FXNODELIST,0,10,14,96,6
  2094                        	.sym	NodeListDeallocator,0,641,14,32
  2095                        	.sym	PFXNODE,0,138,14,32,5
  2096                        	.sym	FXNODE,0,10,14,384,5
  2097                        	.sym	PBYTEBITS,0,138,14,32,4
  2098                        	.sym	BYTEBITS,0,10,14,8,4
  2099                        	.sym	HRESULT,0,18,14,32
  2100                        	.sym	LPWCHAR,0,144,14,32
  2101                        	.sym	WCHAR,0,16,14,16
  2102                        	.sym	HSTRINGTABLE,0,129,14,32
  2103                        	.sym	HCOLOR,0,129,14,32
  2104                        	.sym	HFONT,0,129,14,32
  2105                        	.sym	HDC,0,129,14,32
  2106                        	.sym	HPOINTER,0,129,14,32
  2107                        	.sym	uint32_t,0,18,14,32
  2108                        	.sym	uint8_t,0,14,14,8
  2109                        	.sym	LPBOOL,0,142,14,32
  2110                        	.sym	BOOL,0,14,14,8
  2111                        	.sym	DWORD,0,18,14,32
  2112                        	.sym	ULONG,0,18,14,32
  2113                        	.sym	LPLONG,0,135,14,32
  2114                        	.sym	LONG,0,7,14,32
  2115                        	.sym	PUINT,0,144,14,32
  2116                        	.sym	USHORT,0,16,14,16
  2117                        	.sym	UINT,0,16,14,16
  2118                        	.sym	INT,0,5,14,16
  2119                        	.sym	WORD,0,5,14,16
  2120                        	.sym	PBYTE,0,142,14,32
  2121                        	.sym	BYTE,0,14,14,8
  2122                        	.sym	IOPORT,0,142,14,32
  2123                        	.sym	PUCHAR,0,142,14,32
  2124                        	.sym	UCHAR,0,14,14,8
  2125                        	.sym	LPWCSTR,0,142,14,32
  2126                        	.sym	LPCSTR,0,142,14,32
  2127                        	.sym	LPSTR,0,142,14,32
  2128                        	.sym	LPCHAR,0,142,14,32
  2129                        	.sym	CHAR,0,14,14,8
  2130                        	.sym	PUINT_32,0,146,14,32
  2131                        	.sym	UINT_32,0,18,14,32
  2132                        	.sym	PUINT_16,0,144,14,32
  2133                        	.sym	UINT_16,0,16,14,16
  2134                        	.sym	PUINT_8,0,142,14,32
  2135                        	.sym	UINT_8,0,14,14,8
  2136                        	.sym	LPVOID,0,129,14,32
  2137                        	.sym	VOID,0,1,14,32
  2138                        	.sym	Boolean_T,0,5,14,16
  2139                        	.sym	ldiv_t,0,10,14,64,2
  2140                        	.sym	div_t,0,10,14,32,1
  2141                        	.sym	wctype_t,0,16,14,16
  2142                        	.sym	wint_t,0,16,14,16
  2143                        	.sym	wchar_t,0,14,14,8
  2144                        	.sym	ptrdiff_t,0,7,14,32
  Mon Sep 27 2021  9:39                                                Page 41


  2145                        	.sym	size_t,0,16,14,16
  2146                        	end


      Lines assembled: 2146
      Errors: 0
