  Sat Jul 10 2021  1:15                                                Page 1


                     ***************************************
                     **      WDC 65C816 Macro Assembler   **
                     **                                   **
                     **     Version 3.49.1- Feb  6 2006    **
                     ***************************************

     1                        ;:ts=8
     2             00000001   R0	equ	1
     3             00000005   R1	equ	5
     4             00000009   R2	equ	9
     5             0000000D   R3	equ	13
     6                        	.file	"G:\devprojects\c256Foenix\fxos\FXOSWork
                    space\FXOSv1\src\fx_ctl_listbox.c",0
     7                        ;#include "fxwindowmanager.h"
     8                        	.file	"G:\devprojects\c256Foenix\fxos\FXOSWork
                    space\FXOSv1\src\fxwindowmanager.h",0
     9                        	.file	"G:\devprojects\c256Foenix\fxos\FXOSWork
                    space\FXOSv1\src\fxos.h",0
    10                        	.file	"G:\devtools\WDCTools\wdc\Tools\include\
                    stdlib.h",0
    11                        	.file	"G:\devtools\WDCTools\wdc\Tools\include\
                    stddef.h",0
    12                        	.line	88
    13                        	.file	"G:\devtools\WDCTools\wdc\Tools\include\
                    stdlib.h",43
    14                        	.stag	fake1_,32,1
    15                        	.member	quot,0,5,8,16
    16                        	.member	rem,16,5,8,16
    17                        	.eos
    18                        	.stag	fake2_,64,2
    19                        	.member	quot,0,7,8,32
    20                        	.member	rem,32,7,8,32
    21                        	.eos
    22                        	.stag	int_sqrt,32,3
    23                        	.member	sqrt,0,16,8,16
    24                        	.member	frac,16,16,8,16
    25                        	.eos
    26                        	.line	205
    27                        	.file	"G:\devprojects\c256Foenix\fxos\FXOSWork
                    space\FXOSv1\src\fxos.h",4
    28                        	.file	"G:\devtools\WDCTools\wdc\Tools\include\
                    string.h",0
    29                        	.line	134
    30                        	.file	"G:\devprojects\c256Foenix\fxos\FXOSWork
                    space\FXOSv1\src\fxos.h",5
    31                        	.file	"G:\devtools\WDCTools\wdc\Tools\include\
                    ctype.h",0
    32                        	.line	103
    33                        	.file	"G:\devprojects\c256Foenix\fxos\FXOSWork
                    space\FXOSv1\src\fxos.h",6
    34                        	.file	"G:\devprojects\c256Foenix\fxos\FXOSWork
                    space\FXOSv1\src\fxtypes.h",0
    35                        	.stag	_fx_bytebits,8,4
    36                        	.member	b7,0,14,17,1
    37                        	.member	b6,1,14,17,1
    38                        	.member	b5,2,14,17,1
    39                        	.member	b4,3,14,17,1
    40                        	.member	b3,4,14,17,1
  Sat Jul 10 2021  1:15                                                Page 2


    41                        	.member	b2,5,14,17,1
    42                        	.member	b1,6,14,17,1
    43                        	.member	b0,7,14,17,1
    44                        	.eos
    45                        	.stag	_fx_node,384,5
    46                        	.member	type,0,14,8,8
    47                        	.member	Reserved0,8,14,8,8
    48                        	.member	data,16,129,8,32
    49                        	.member	last,48,138,8,32,5
    50                        	.member	next,80,138,8,32,5
    51                        	.member	name,112,110,8,0,32
    52                        	.member	Reserved1,368,16,8,16
    53                        	.eos
    54                        	.stag	_fx_nodelist,96,6
    55                        	.member	listhead,0,138,8,32,5
    56                        	.member	listData,32,129,8,32
    57                        	.member	deallocator,64,641,8,32
    58                        	.eos
    59                        	.stag	_fx_queue,80,7
    60                        	.member	count,0,5,8,16
    61                        	.member	front,16,138,8,32,5
    62                        	.member	rear,48,138,8,32,5
    63                        	.eos
    64                        	.stag	fake8_,32,8
    65                        	.member	subsystem,0,14,8,8
    66                        	.member	level,8,14,8,8
    67                        	.member	error,16,16,8,16
    68                        	.eos
    69                        	.stag	_fx_process_signal,16,9
    70                        	.member	cbSize,0,16,8,16
    71                        	.eos
    72                        	.stag	_fx_semaphore,16,10
    73                        	.member	reserved,0,5,8,16
    74                        	.eos
    75                        	.stag	_fx_fileBlock,552,11
    76                        	.member	openCount,0,16,8,16
    77                        	.member	lockCount,16,16,8,16
    78                        	.member	dirty,32,14,8,8
    79                        	.member	fileBuffer,40,110,8,0,64
    80                        	.eos
    81                        	.stag	_fx_irq_data,48,12
    82                        	.member	line,0,5,8,16
    83                        	.member	keycode,16,142,8,32
    84                        	.eos
    85                        	.stag	_task,48,13
    86                        	.member	SPL,0,14,8,8
    87                        	.member	SPH,8,14,8,8
    88                        	.member	pstack,16,142,8,32
    89                        	.eos
    90                        	.stag	_task_stack,32,14
    91                        	.member	SS,0,142,8,32
    92                        	.eos
    93                        	.stag	int_regs,104,15
    94                        	.member	PB,0,14,8,8
    95                        	.member	PH,8,14,8,8
    96                        	.member	PL,16,14,8,8
    97                        	.member	PP,24,14,8,8
    98                        	.member	DB,32,14,8,8
  Sat Jul 10 2021  1:15                                                Page 3


    99                        	.member	DH,40,14,8,8
   100                        	.member	DL,48,14,8,8
   101                        	.member	AH,56,14,8,8
   102                        	.member	AL,64,14,8,8
   103                        	.member	XH,72,14,8,8
   104                        	.member	XL,80,14,8,8
   105                        	.member	YH,88,14,8,8
   106                        	.member	YL,96,14,8,8
   107                        	.eos
   108                        	.stag	_fx_eventMessage,304,16
   109                        	.member	src,0,18,8,32
   110                        	.member	dest,32,18,8,32
   111                        	.member	type,64,16,8,16
   112                        	.member	hwnd,80,129,8,32
   113                        	.member	pheap,112,129,8,32
   114                        	.member	msgTime,144,18,8,32
   115                        	.member	data,176,110,8,0,16
   116                        	.eos
   117                        	.stag	_fx_cmdMessage,304,17
   118                        	.member	src,0,18,8,32
   119                        	.member	dest,32,18,8,32
   120                        	.member	type,64,16,8,16
   121                        	.member	hwnd,80,129,8,32
   122                        	.member	pheap,112,129,8,32
   123                        	.member	msgTime,144,18,8,32
   124                        	.member	cmdCId,176,16,8,16
   125                        	.member	cmdMId,192,16,8,16
   126                        	.member	parameter1,208,18,8,32
   127                        	.member	parameter2,240,18,8,32
   128                        	.member	parameter3,272,18,8,32
   129                        	.eos
   130                        	.stag	_fx_console_ctl,448,18
   131                        	.member	maxCols,0,5,8,16
   132                        	.member	maxRows,16,5,8,16
   133                        	.member	curX,32,5,8,16
   134                        	.member	curY,48,5,8,16
   135                        	.member	fgColor,64,5,8,16
   136                        	.member	bgColor,80,5,8,16
   137                        	.member	mode,96,14,8,8
   138                        	.member	kbBuffer,104,101,8,0,16
   139                        	.member	screenBuffer,360,142,8,32
   140                        	.member	desktopMode,392,14,8,8
   141                        	.member	lastMouseButton,400,5,8,16
   142                        	.member	lastMouseX,416,5,8,16
   143                        	.member	lastMouseY,432,5,8,16
   144                        	.eos
   145                        	.stag	_fx_desktop_ctl,392,19
   146                        	.member	desktopMode,0,14,8,8
   147                        	.member	cursorCtl,8,5,8,16
   148                        	.member	cursorState,24,5,8,16
   149                        	.member	backgroundColor,40,5,8,16
   150                        	.member	foregroundColor,56,5,8,16
   151                        	.member	menuMode,72,5,8,16
   152                        	.member	lastMouseButton,88,5,8,16
   153                        	.member	lastMouseX,104,5,8,16
   154                        	.member	lastMouseY,120,5,8,16
   155                        	.member	currentDiskName,136,142,8,32
   156                        	.member	diskNodes,168,129,8,32
  Sat Jul 10 2021  1:15                                                Page 4


   157                        	.member	titleNodes,200,129,8,32
   158                        	.member	menuNodes,232,129,8,32
   159                        	.member	iconNodes,264,129,8,32
   160                        	.member	windowNodes,296,129,8,32
   161                        	.member	fontNodes,328,129,8,32
   162                        	.member	wndProc,360,138,8,32,6
   163                        	.eos
   164                        	.stag	_fx_process,800,20
   165                        	.member	cbSize,0,5,8,16
   166                        	.member	procId,16,18,8,32
   167                        	.member	parentId,48,18,8,32
   168                        	.member	ctx,80,129,8,32
   169                        	.member	userId,112,16,8,16
   170                        	.member	status,128,16,8,16
   171                        	.member	foregroundActive,144,14,8,8
   172                        	.member	tls,152,1121,8,32,8
   173                        	.member	commandLine,408,142,8,32
   174                        	.member	semaphores,440,138,8,32,6
   175                        	.member	fileHandles,472,138,8,32,6
   176                        	.member	pathList,504,138,8,32,6
   177                        	.member	resources,536,138,8,32,6
   178                        	.member	timerAware,568,14,8,8
   179                        	.member	timerTicks,576,112,8,0,2
   180                        	.member	timerTickCount,608,112,8,0,2
   181                        	.member	kernelError,640,10,8,32,8
   182                        	.member	consoleCtl,672,138,8,32,18
   183                        	.member	desktopCtl,704,138,8,32,19
   184                        	.member	execProc,736,641,8,32
   185                        	.member	startupArgs,768,129,8,32
   186                        	.eos
   187                        	.stag	_fxProcessMessage,112,21
   188                        	.member	src,0,18,8,32
   189                        	.member	dest,32,18,8,32
   190                        	.member	type,64,16,8,16
   191                        	.member	processInfo,80,138,8,32,20
   192                        	.eos
   193                        	.stag	_k_key_state,112,22
   194                        	.member	scanCode,0,14,8,8
   195                        	.member	isShifted,8,14,8,8
   196                        	.member	isAlt,16,14,8,8
   197                        	.member	isExtended,24,14,8,8
   198                        	.member	isCapsLock,32,14,8,8
   199                        	.member	isNumLock,40,14,8,8
   200                        	.member	isScrollLock,48,14,8,8
   201                        	.member	keyChar,56,16,8,16
   202                        	.member	scanTime,72,18,8,32
   203                        	.member	ledStatus,104,14,8,8
   204                        	.eos
   205                        	.stag	_fx_property,384,23
   206                        	.member	name,0,110,8,0,16
   207                        	.member	value,128,110,8,0,32
   208                        	.eos
   209                        	.utag	_24bitPointer,32,24
   210                        	.member	address,0,142,11,32
   211                        	.member	bytes,0,110,11,0,4
   212                        	.eos
   213                        	.stag	_PointStruct,32,25
   214                        	.member	x,0,5,8,16
  Sat Jul 10 2021  1:15                                                Page 5


   215                        	.member	y,16,5,8,16
   216                        	.eos
   217                        	.stag	_RectStruct,112,26
   218                        	.member	x,0,5,8,16
   219                        	.member	y,16,5,8,16
   220                        	.member	z,32,18,8,32
   221                        	.member	width,64,5,8,16
   222                        	.member	height,80,5,8,16
   223                        	.member	attr,96,5,8,16
   224                        	.eos
   225                        	.stag	fake27_,96,27
   226                        	.member	name,0,142,8,32
   227                        	.member	topLeft,32,10,8,32,25
   228                        	.member	bottomRight,64,10,8,32,25
   229                        	.eos
   230                        	.stag	fake28_,112,28
   231                        	.member	x,0,5,8,16
   232                        	.member	y,16,5,8,16
   233                        	.member	z,32,5,8,16
   234                        	.member	width,48,5,8,16
   235                        	.member	height,64,5,8,16
   236                        	.member	data,80,18,8,32
   237                        	.eos
   238                        	.stag	_k_WindowClass,272,29
   239                        	.member	cbSize,0,16,8,16
   240                        	.member	style,16,16,8,16
   241                        	.member	styleEx,32,16,8,16
   242                        	.member	pWndProc,48,654,8,32
   243                        	.member	hInstance,80,129,8,32
   244                        	.member	hIcon,112,129,8,32
   245                        	.member	hCursor,144,129,8,32
   246                        	.member	hbrBackground,176,129,8,32
   247                        	.member	lpszMenuName,208,142,8,32
   248                        	.member	lpszClassName,240,142,8,32
   249                        	.eos
   250                        	.stag	_ClickableRect,152,30
   251                        	.member	area,0,10,8,112,26
   252                        	.member	z,112,18,8,32
   253                        	.member	enabled,144,14,8,8
   254                        	.eos
   255                        	.stag	_NCClickableRect,136,31
   256                        	.member	area,0,10,8,112,26
   257                        	.member	msgType,112,16,8,16
   258                        	.member	enabled,128,14,8,8
   259                        	.eos
   260                        	.stag	_DragData,216,32
   261                        	.member	area,0,10,8,112,26
   262                        	.member	xoffset,112,5,8,16
   263                        	.member	yoffset,128,5,8,16
   264                        	.member	msgType,144,16,8,16
   265                        	.member	ncAction,160,16,8,16
   266                        	.member	isDrag,176,14,8,8
   267                        	.member	isResize,184,14,8,8
   268                        	.member	canDrag,192,14,8,8
   269                        	.member	canDrop,200,14,8,8
   270                        	.member	didDrag,208,14,8,8
   271                        	.eos
   272                        	.stag	_k_WindowStruct,3904,33
  Sat Jul 10 2021  1:15                                                Page 6


   273                        	.member	cbSize,0,16,8,16
   274                        	.member	style,16,18,8,32
   275                        	.member	styleEx,48,18,8,32
   276                        	.member	win_id,80,5,8,16
   277                        	.member	win_x,96,5,8,16
   278                        	.member	win_y,112,5,8,16
   279                        	.member	win_width,128,5,8,16
   280                        	.member	win_height,144,5,8,16
   281                        	.member	win_xoffset,160,5,8,16
   282                        	.member	win_yoffset,176,5,8,16
   283                        	.member	win_cxoffset,192,5,8,16
   284                        	.member	win_cyoffset,208,5,8,16
   285                        	.member	wndRect,224,10,8,112,26
   286                        	.member	clientRect,336,10,8,112,26
   287                        	.member	nonclientGadgets,448,106,8,0,31,16
   288                        	.member	clickable,2624,129,8,32
   289                        	.member	win_title,2656,110,8,0,32
   290                        	.member	Reserved0,2912,16,8,16
   291                        	.member	win_class,2928,110,8,0,16
   292                        	.member	win_class_name,3056,110,8,0,32
   293                        	.member	nBitmapLayer,3312,16,8,16
   294                        	.member	bgRegion,3328,129,8,32
   295                        	.member	procid,3360,18,8,32
   296                        	.member	pWndClass,3392,138,8,32,29
   297                        	.member	pParentWindow,3424,129,8,32
   298                        	.member	hMenu,3456,129,8,32
   299                        	.member	hPointer,3488,129,8,32
   300                        	.member	hBackground,3520,129,8,32
   301                        	.member	pChildWindows,3552,138,8,32,6
   302                        	.member	pChildHitList,3584,138,8,32,6
   303                        	.member	isVisible,3616,14,8,8
   304                        	.member	windowData,3624,129,8,32
   305                        	.member	clientData,3656,1121,8,32,6
   306                        	.member	isClosed,3848,14,8,8
   307                        	.member	isClosing,3856,14,8,8
   308                        	.member	isDesktop,3864,14,8,8
   309                        	.member	clickableNode,3872,138,8,32,5
   310                        	.eos
   311                        	.stag	_k_WindowStructEx,3880,34
   312                        	.member	cbSize,0,16,8,16
   313                        	.member	style,16,18,8,32
   314                        	.member	styleEx,48,18,8,32
   315                        	.member	win_id,80,5,8,16
   316                        	.member	win_x,96,5,8,16
   317                        	.member	win_y,112,5,8,16
   318                        	.member	win_width,128,5,8,16
   319                        	.member	win_height,144,5,8,16
   320                        	.member	win_xoffset,160,5,8,16
   321                        	.member	win_yoffset,176,5,8,16
   322                        	.member	win_cxoffset,192,5,8,16
   323                        	.member	win_cyoffset,208,5,8,16
   324                        	.member	wndRect,224,10,8,112,26
   325                        	.member	clientRect,336,10,8,112,26
   326                        	.member	nonclientGadgets,448,106,8,0,31,16
   327                        	.member	clickable,2624,129,8,32
   328                        	.member	win_title,2656,110,8,0,32
   329                        	.member	Reserved0,2912,16,8,16
   330                        	.member	win_class,2928,110,8,0,16
  Sat Jul 10 2021  1:15                                                Page 7


   331                        	.member	nBitmapLayer,3056,16,8,16
   332                        	.member	procid,3072,18,8,32
   333                        	.member	pWndClass,3104,138,8,32,29
   334                        	.member	pParentWindow,3136,129,8,32
   335                        	.member	hMenu,3168,129,8,32
   336                        	.member	hPointer,3200,129,8,32
   337                        	.member	hBackground,3232,129,8,32
   338                        	.member	pChildWindows,3264,138,8,32,6
   339                        	.member	pChildHitList,3296,138,8,32,6
   340                        	.member	isVisible,3328,14,8,8
   341                        	.member	windowData,3336,129,8,32
   342                        	.member	clientData,3368,1121,8,32,4
   343                        	.member	isClosed,3496,14,8,8
   344                        	.member	hWnd,3504,129,8,32
   345                        	.member	localRect,3536,10,8,112,26
   346                        	.member	globalRect,3648,10,8,112,26
   347                        	.member	clientOffsetRect,3760,10,8,112,26
   348                        	.member	isDesktop,3872,14,8,8
   349                        	.eos
   350                        	.stag	_FontMetric,32,35
   351                        	.member	width,0,5,8,16
   352                        	.member	height,16,5,8,16
   353                        	.eos
   354                        	.stag	_MenuStruct,280,36
   355                        	.member	cx,0,5,8,16
   356                        	.member	cy,16,5,8,16
   357                        	.member	width,32,5,8,16
   358                        	.member	height,48,5,8,16
   359                        	.member	fcolor,64,14,8,8
   360                        	.member	bcolor,72,14,8,8
   361                        	.member	chromeLeft,80,14,8,8
   362                        	.member	chromeRight1,88,14,8,8
   363                        	.member	chromeRight2,96,14,8,8
   364                        	.member	hFont,104,129,8,32
   365                        	.member	itemId,136,16,8,16
   366                        	.member	pCaption,152,142,8,32
   367                        	.member	subMenus,184,138,8,32,6
   368                        	.member	pBackground,216,129,8,32
   369                        	.member	hWndOwner,248,129,8,32
   370                        	.eos
   371                        	.stag	fake37_,160,37
   372                        	.member	menuId,0,16,8,16
   373                        	.member	caption,16,142,8,32
   374                        	.member	rect,48,10,8,112,26
   375                        	.eos
   376                        	.stag	fake38_,5152,38
   377                        	.member	pParent,0,138,8,32,33
   378                        	.member	rect,32,10,8,112,26
   379                        	.member	captions,144,1134,8,32,24
   380                        	.member	chrome,912,110,8,0,24
   381                        	.member	ids,1104,112,8,0,24
   382                        	.member	clickable,1488,106,8,0,30,24
   383                        	.member	selected,5136,16,8,16
   384                        	.eos
   385                        	.stag	_fx_button_t,96,39
   386                        	.member	pCaption,0,142,8,32
   387                        	.member	cCaption,32,16,8,16
   388                        	.member	data,48,129,8,32
  Sat Jul 10 2021  1:15                                                Page 8


   389                        	.member	captionPixelWidth,80,16,8,16
   390                        	.eos
   391                        	.stag	_fx_scrollbar_t,240,40
   392                        	.member	min,0,16,8,16
   393                        	.member	max,16,16,8,16
   394                        	.member	increment,32,16,8,16
   395                        	.member	stopsize,48,16,8,16
   396                        	.member	location,64,5,8,16
   397                        	.member	state,80,5,8,16
   398                        	.member	rectThumb,96,10,8,112,26
   399                        	.member	data,208,129,8,32
   400                        	.eos
   401                        	.stag	_fx_listbox_t,240,41
   402                        	.member	pos,0,5,8,16
   403                        	.member	selected,16,16,8,16
   404                        	.member	offsetX,32,5,8,16
   405                        	.member	offsetY,48,5,8,16
   406                        	.member	inc,64,5,8,16
   407                        	.member	direction,80,5,8,16
   408                        	.member	top,96,5,8,16
   409                        	.member	bottom,112,5,8,16
   410                        	.member	indexTop,128,5,8,16
   411                        	.member	indexBottom,144,5,8,16
   412                        	.member	maxItems,160,16,8,16
   413                        	.member	fontSet,176,142,8,32
   414                        	.member	data,208,129,8,32
   415                        	.eos
   416                        	.stag	_fx_textbox_t,144,42
   417                        	.member	pos,0,5,8,16
   418                        	.member	selected,16,16,8,16
   419                        	.member	offsetX,32,5,8,16
   420                        	.member	offsetY,48,5,8,16
   421                        	.member	isShifted,64,14,8,8
   422                        	.member	cursorState,72,14,8,8
   423                        	.member	fontSet,80,142,8,32
   424                        	.member	data,112,129,8,32
   425                        	.eos
   426                        	.stag	_fx_msgbox_t,144,43
   427                        	.member	pos,0,5,8,16
   428                        	.member	selected,16,16,8,16
   429                        	.member	offsetX,32,5,8,16
   430                        	.member	offsetY,48,5,8,16
   431                        	.member	isShifted,64,14,8,8
   432                        	.member	cursorState,72,14,8,8
   433                        	.member	fontSet,80,142,8,32
   434                        	.member	data,112,129,8,32
   435                        	.eos
   436                        	.stag	_fx_menuAnchor_t,272,44
   437                        	.member	pCaption,0,142,8,32
   438                        	.member	renderLayoutX,32,16,8,16
   439                        	.member	renderLayoutY,48,16,8,16
   440                        	.member	captionPixelWidth,64,16,8,16
   441                        	.member	data,80,129,8,32
   442                        	.member	droppedWindow,112,138,8,32,33
   443                        	.member	bytes,144,110,8,0,16
   444                        	.eos
   445                        	.stag	_SubMenuStruct,64,45
   446                        	.member	caption,0,142,8,32
  Sat Jul 10 2021  1:15                                                Page 9


   447                        	.member	action,32,641,8,32
   448                        	.eos
   449                        	.stag	_SubMenuListStruct,40,46
   450                        	.member	cMenus,0,14,8,8
   451                        	.member	psubmenus,8,9354,8,32,45
   452                        	.eos
   453                        	.stag	_fx_ComBuffer,2080,47
   454                        	.member	cbSize,0,16,8,16
   455                        	.member	cbBuffer,16,16,8,16
   456                        	.member	buffer,32,110,8,0,256
   457                        	.eos
   458                        	.stag	_fx_resource_header,72,48
   459                        	.member	magic,0,110,8,0,4
   460                        	.member	major,32,14,8,8
   461                        	.member	minor,40,14,8,8
   462                        	.member	type,48,14,8,8
   463                        	.member	reserved,56,14,8,8
   464                        	.member	resheaderSize,64,14,8,8
   465                        	.eos
   466                        	.stag	_fx_resource_header_font,144,49
   467                        	.member	title,0,110,8,0,16
   468                        	.member	height,128,14,8,8
   469                        	.member	width,136,14,8,8
   470                        	.eos
   471                        	.line	1010
   472                        	.file	"G:\devprojects\c256Foenix\fxos\FXOSWork
                    space\FXOSv1\src\fxos.h",8
   473                        	.file	"G:\devprojects\c256Foenix\fxos\FXOSWork
                    space\FXOSv1\src\fxstringtable.h",0
   474                        	.line	89
   475                        	.file	"G:\devprojects\c256Foenix\fxos\FXOSWork
                    space\FXOSv1\src\fxos.h",9
   476                        	.file	"G:\devprojects\c256Foenix\fxos\FXOSWork
                    space\FXOSv1\src\fxc256u.h",0
   477                        	.file	"G:\devprojects\c256Foenix\fxos\FXOSWork
                    space\FXOSv1\src\fxtypes.h",0
   478                        	.line	1010
   479                        	.file	"G:\devprojects\c256Foenix\fxos\FXOSWork
                    space\FXOSv1\src\fxc256u.h",5
   480                        	.file	"G:\devprojects\c256Foenix\fxos\FXOSWork
                    space\FXOSv1\src\fmx_vicky.h",0
   481                        	.file	"G:\devprojects\c256Foenix\fxos\FXOSWork
                    space\FXOSv1\src\fxtypes.h",0
   482                        	.line	1010
   483                        	.file	"G:\devprojects\c256Foenix\fxos\FXOSWork
                    space\FXOSv1\src\fmx_vicky.h",11
   484                        	.line	72
   485                        	.file	"G:\devprojects\c256Foenix\fxos\FXOSWork
                    space\FXOSv1\src\fxc256u.h",6
   486                        	.line	1960
   487                        	.file	"G:\devprojects\c256Foenix\fxos\FXOSWork
                    space\FXOSv1\src\fxos.h",16
   488                        	.file	"G:\devprojects\c256Foenix\fxos\FXOSWork
                    space\FXOSv1\src\fxkernel.h",0
   489                        	.file	"G:\devprojects\c256Foenix\fxos\FXOSWork
                    space\FXOSv1\src\fxos.h",0
   490                        	.line	30
   491                        	.file	"G:\devprojects\c256Foenix\fxos\FXOSWork
  Sat Jul 10 2021  1:15                                                Page 10


                    space\FXOSv1\src\fxkernel.h",5
   492                        	.file	"G:\devprojects\c256Foenix\fxos\FXOSWork
                    space\FXOSv1\src\fxnode.h",0
   493                        	.file	"G:\devprojects\c256Foenix\fxos\FXOSWork
                    space\FXOSv1\src\fxtypes.h",0
   494                        	.line	1010
   495                        	.file	"G:\devprojects\c256Foenix\fxos\FXOSWork
                    space\FXOSv1\src\fxnode.h",11
   496                        	.line	114
   497                        	.file	"G:\devprojects\c256Foenix\fxos\FXOSWork
                    space\FXOSv1\src\fxkernel.h",6
   498                        	.stag	_fx_api_call_table,8192,50
   499                        	.member	call_table,0,1121,8,32,256
   500                        	.eos
   501                        	.stag	_fx_zero_page,824,51
   502                        	.member	fxos_mouse_byte_0,0,14,8,8
   503                        	.member	fxos_mouse_byte_1,8,14,8,8
   504                        	.member	fxos_mouse_byte_2,16,14,8,8
   505                        	.member	fxos_mouse_byte_t,24,14,8,8
   506                        	.member	fxos_mouse_byte_x_l,32,14,8,8
   507                        	.member	fxos_mouse_byte_x_h,40,14,8,8
   508                        	.member	fxos_mouse_byte_y_l,48,14,8,8
   509                        	.member	fxos_mouse_byte_y_h,56,14,8,8
   510                        	.member	fxos_key_byte_0,64,14,8,8
   511                        	.member	fxos_key_byte_1,72,14,8,8
   512                        	.member	fxos_key_byte_2,80,14,8,8
   513                        	.member	fxos_mouse_ctl,88,14,8,8
   514                        	.member	fxos_mouse_index,96,14,8,8
   515                        	.member	fxos_mouse_status,104,14,8,8
   516                        	.member	fxos_mouse_dbg_1,112,18,8,32
   517                        	.member	fxos_mouse_dbg_2,144,18,8,32
   518                        	.member	fxos_mouse_dbg_3,176,18,8,32
   519                        	.member	fxos_vicky_byte_0,208,14,8,8
   520                        	.member	fxos_vicky_byte_1,216,14,8,8
   521                        	.member	fxos_vicky_byte_2,224,14,8,8
   522                        	.member	VersionMajor,232,16,8,16
   523                        	.member	VersionMinor,248,16,8,16
   524                        	.member	VersionRelease,264,16,8,16
   525                        	.member	topMemory,280,18,8,32
   526                        	.member	bottomMemory,312,18,8,32
   527                        	.member	availableMemory,344,18,8,32
   528                        	.member	availableMemoryK,376,18,8,32
   529                        	.member	availableHeapMemory,408,18,8,32
   530                        	.member	availableHeapMemoryK,440,18,8,32
   531                        	.member	fxos_console_row,472,16,8,16
   532                        	.member	fxos_console_col,488,16,8,16
   533                        	.member	executive,504,129,8,32
   534                        	.member	eventmanager,536,129,8,32
   535                        	.member	devicemanager,568,129,8,32
   536                        	.member	windowmanager,600,129,8,32
   537                        	.member	fxos_kernel_api,632,138,8,32,50
   538                        	.member	fxos_dos_api,664,138,8,32,50
   539                        	.member	fxos_gfx_api,696,138,8,32,50
   540                        	.member	fxos_gui_api,728,138,8,32,50
   541                        	.member	fxos_con_api,760,138,8,32,50
   542                        	.member	fxos_reserved_2_api,792,138,8,32,50
   543                        	.eos
   544                        	.stag	_fx_environment,96,52
  Sat Jul 10 2021  1:15                                                Page 11


   545                        	.member	variables,0,142,8,32
   546                        	.member	reserved1,32,5,8,16
   547                        	.member	reserved2,48,5,8,16
   548                        	.member	reserved3,64,5,8,16
   549                        	.member	reserved4,80,5,8,16
   550                        	.eos
   551                        	.stag	_debug_byte_bits,8,53
   552                        	.member	bit7,0,14,17,1
   553                        	.member	bit6,1,14,17,1
   554                        	.member	bit5,2,14,17,1
   555                        	.member	bit4,3,14,17,1
   556                        	.member	bit3,4,14,17,1
   557                        	.member	bit2,5,14,17,1
   558                        	.member	bit1,6,14,17,1
   559                        	.member	bit0,7,14,17,1
   560                        	.eos
   561                        	.stag	_k_segmentheader,160,54
   562                        	.member	version_major,0,14,8,8
   563                        	.member	version_minor,8,14,8,8
   564                        	.member	length,16,5,8,16
   565                        	.member	segment_start_addr,32,7,8,32
   566                        	.member	segment_end_addr,64,7,8,32
   567                        	.member	segment_size,96,7,8,32
   568                        	.member	main_entry_addr,128,7,8,32
   569                        	.eos
   570                        	.stag	_fx_device_driver,776,55
   571                        	.member	name,0,110,8,0,32
   572                        	.member	version,256,110,8,0,16
   573                        	.member	hmajor,384,110,8,0,8
   574                        	.member	hminor,448,110,8,0,8
   575                        	.member	type,512,14,8,8
   576                        	.member	designation,520,110,8,0,6
   577                        	.member	reserved_1,568,16,8,16
   578                        	.member	f_driver_irq,584,129,8,32
   579                        	.member	driver_context,616,129,8,32
   580                        	.member	f_driver_load,648,129,8,32
   581                        	.member	f_driver_read,680,129,8,32
   582                        	.member	f_driver_write,712,129,8,32
   583                        	.member	f_driver_unload,744,129,8,32
   584                        	.eos
   585                        	.stag	_fx_block_device_driver,808,56
   586                        	.member	name,0,110,8,0,32
   587                        	.member	version,256,110,8,0,16
   588                        	.member	hmajor,384,110,8,0,8
   589                        	.member	hminor,448,110,8,0,8
   590                        	.member	type,512,14,8,8
   591                        	.member	designation,520,110,8,0,6
   592                        	.member	reserved_1,568,16,8,16
   593                        	.member	f_driver_irq,584,129,8,32
   594                        	.member	driver_context,616,129,8,32
   595                        	.member	f_driver_load,648,129,8,32
   596                        	.member	f_driver_read,680,129,8,32
   597                        	.member	f_driver_write,712,129,8,32
   598                        	.member	f_driver_unload,744,129,8,32
   599                        	.member	f_driver_command,776,129,8,32
   600                        	.eos
   601                        	.line	400
   602                        	.file	"G:\devprojects\c256Foenix\fxos\FXOSWork
  Sat Jul 10 2021  1:15                                                Page 12


                    space\FXOSv1\src\fxos.h",22
   603                        	.file	"G:\devprojects\c256Foenix\fxos\FXOSWork
                    space\FXOSv1\src\fxconsole.h",0
   604                        	.file	"G:\devtools\WDCTools\wdc\Tools\include\
                    string.h",0
   605                        	.line	134
   606                        	.file	"G:\devprojects\c256Foenix\fxos\FXOSWork
                    space\FXOSv1\src\fxconsole.h",5
   607                        	.file	"G:\devtools\WDCTools\wdc\Tools\include\
                    stdlib.h",0
   608                        	.line	205
   609                        	.file	"G:\devprojects\c256Foenix\fxos\FXOSWork
                    space\FXOSv1\src\fxconsole.h",6
   610                        	.file	"G:\devprojects\c256Foenix\fxos\FXOSWork
                    space\FXOSv1\src\fxtypes.h",0
   611                        	.line	1010
   612                        	.file	"G:\devprojects\c256Foenix\fxos\FXOSWork
                    space\FXOSv1\src\fxconsole.h",7
   613                        	.file	"G:\devprojects\c256Foenix\fxos\FXOSWork
                    space\FXOSv1\src\fxc256u.h",0
   614                        	.line	1960
   615                        	.file	"G:\devprojects\c256Foenix\fxos\FXOSWork
                    space\FXOSv1\src\fxconsole.h",12
   616                        	.file	"G:\devprojects\c256Foenix\fxos\FXOSWork
                    space\FXOSv1\src\fxstring.h",0
   617                        	.file	"G:\devtools\WDCTools\wdc\Tools\include\
                    stdlib.h",0
   618                        	.line	205
   619                        	.file	"G:\devprojects\c256Foenix\fxos\FXOSWork
                    space\FXOSv1\src\fxstring.h",5
   620                        	.file	"G:\devtools\WDCTools\wdc\Tools\include\
                    string.h",0
   621                        	.line	134
   622                        	.file	"G:\devprojects\c256Foenix\fxos\FXOSWork
                    space\FXOSv1\src\fxstring.h",6
   623                        	.file	"G:\devprojects\c256Foenix\fxos\FXOSWork
                    space\FXOSv1\src\fxtypes.h",0
   624                        	.line	1010
   625                        	.file	"G:\devprojects\c256Foenix\fxos\FXOSWork
                    space\FXOSv1\src\fxstring.h",7
   626                        	.stag	_fx_string,64,57
   627                        	.member	size,0,16,8,16
   628                        	.member	pos,16,5,8,16
   629                        	.member	buffer,32,142,8,32
   630                        	.eos
   631                        	.line	139
   632                        	.file	"G:\devprojects\c256Foenix\fxos\FXOSWork
                    space\FXOSv1\src\fxconsole.h",17
   633                        	.file	"G:\devprojects\c256Foenix\fxos\FXOSWork
                    space\FXOSv1\src\fxeventmanager.h",0
   634                        	.file	"G:\devprojects\c256Foenix\fxos\FXOSWork
                    space\FXOSv1\src\fxos.h",0
   635                        	.line	30
   636                        	.file	"G:\devprojects\c256Foenix\fxos\FXOSWork
                    space\FXOSv1\src\fxeventmanager.h",5
   637                        	.file	"G:\devprojects\c256Foenix\fxos\FXOSWork
                    space\FXOSv1\src\fxexec.h",0
   638                        	.file	"G:\devprojects\c256Foenix\fxos\FXOSWork
  Sat Jul 10 2021  1:15                                                Page 13


                    space\FXOSv1\src\fxtypes.h",0
   639                        	.line	1010
   640                        	.file	"G:\devprojects\c256Foenix\fxos\FXOSWork
                    space\FXOSv1\src\fxexec.h",5
   641                        	.stag	_fxos_executive_vtable,128,58
   642                        	.member	Init,0,8833,8,32
   643                        	.member	Configure,32,656,8,32
   644                        	.member	Query,64,656,8,32
   645                        	.member	Uninit,96,641,8,32
   646                        	.eos
   647                        	.line	86
   648                        	.file	"G:\devprojects\c256Foenix\fxos\FXOSWork
                    space\FXOSv1\src\fxeventmanager.h",6
   649                        	.file	"G:\devprojects\c256Foenix\fxos\FXOSWork
                    space\FXOSv1\src\fxnode.h",0
   650                        	.line	114
   651                        	.file	"G:\devprojects\c256Foenix\fxos\FXOSWork
                    space\FXOSv1\src\fxeventmanager.h",7
   652                        	.file	"G:\devprojects\c256Foenix\fxos\FXOSWork
                    space\FXOSv1\src\fxconsole.h",0
   653                        	.line	208
   654                        	.file	"G:\devprojects\c256Foenix\fxos\FXOSWork
                    space\FXOSv1\src\fxeventmanager.h",8
   655                        	.file	"G:\devprojects\c256Foenix\fxos\FXOSWork
                    space\FXOSv1\src\fxwindowmanager.h",0
   656                        	.line	581
   657                        	.file	"G:\devprojects\c256Foenix\fxos\FXOSWork
                    space\FXOSv1\src\fxeventmanager.h",9
   658                        	.stag	_fx_main_loopvars,16,59
   659                        	.member	dummy,0,5,8,16
   660                        	.eos
   661                        	.stag	_fxMouseMessageData,64,60
   662                        	.member	button1,0,14,8,8
   663                        	.member	button2,8,14,8,8
   664                        	.member	button3,16,14,8,8
   665                        	.member	button4,24,14,8,8
   666                        	.member	x,32,16,8,16
   667                        	.member	y,48,16,8,16
   668                        	.eos
   669                        	.utag	marshalled_data,32,61
   670                        	.member	byteValue,0,14,11,8
   671                        	.member	verbValue,0,110,11,0,2
   672                        	.member	intValue,0,16,11,16
   673                        	.member	longValue,0,18,11,32
   674                        	.member	pointerValue,0,129,11,32
   675                        	.eos
   676                        	.stag	_fx_eventProcess,64,62
   677                        	.member	process,0,138,8,32,20
   678                        	.member	eventProc,32,641,8,32
   679                        	.eos
   680                        	.stag	_mouse_msg_state,184,63
   681                        	.member	lastEvent,0,18,8,32
   682                        	.member	buttonLeftDown,32,14,8,8
   683                        	.member	lastLeftDown,40,18,8,32
   684                        	.member	buttonRightDown,72,14,8,8
   685                        	.member	lastRightDown,80,18,8,32
   686                        	.member	buttonMiddleDown,112,14,8,8
   687                        	.member	lastMiddleDown,120,18,8,32
  Sat Jul 10 2021  1:15                                                Page 14


   688                        	.member	lastX,152,16,8,16
   689                        	.member	lastY,168,16,8,16
   690                        	.eos
   691                        	.stag	_fxos_eventmanager_vtable,192,64
   692                        	.member	EventQueue,0,138,8,32,7
   693                        	.member	Init,32,8833,8,32
   694                        	.member	Run,64,656,8,32
   695                        	.member	Configure,96,656,8,32
   696                        	.member	Query,128,656,8,32
   697                        	.member	Uninit,160,641,8,32
   698                        	.eos
   699                        	.stag	_k_clipboard_data,168,65
   700                        	.member	type,0,14,8,8
   701                        	.member	readable,8,110,8,0,16
   702                        	.member	data,136,129,8,32
   703                        	.eos
   704                        	.line	564
   705                        	.file	"G:\devprojects\c256Foenix\fxos\FXOSWork
                    space\FXOSv1\src\fxconsole.h",18
   706                        	.stag	_fx_spinner_ctx,48,66
   707                        	.member	index,0,5,8,16
   708                        	.member	spinner,16,142,8,32
   709                        	.eos
   710                        	.stag	_fx_console_ctx,1144,67
   711                        	.member	lineBufferIndex,0,5,8,16
   712                        	.member	lineBuffer,16,110,8,0,128
   713                        	.member	isShifted,1040,14,8,8
   714                        	.member	userData,1048,129,8,32
   715                        	.member	screenBuffer,1080,129,8,32
   716                        	.member	Reserved1,1112,129,8,32
   717                        	.eos
   718                        	.stag	_token,64,68
   719                        	.member	type,0,5,8,16
   720                        	.member	depth,16,16,8,16
   721                        	.member	text,32,142,8,32
   722                        	.eos
   723                        	.stag	_command_args,64,69
   724                        	.member	proc,0,656,8,32
   725                        	.member	tokens,32,138,8,32,5
   726                        	.eos
   727                        	.line	208
   728                        	.file	"G:\devprojects\c256Foenix\fxos\FXOSWork
                    space\FXOSv1\src\fxos.h",23
   729                        	.file	"G:\devprojects\c256Foenix\fxos\FXOSWork
                    space\FXOSv1\src\fxstring.h",0
   730                        	.line	139
   731                        	.file	"G:\devprojects\c256Foenix\fxos\FXOSWork
                    space\FXOSv1\src\fxos.h",24
   732                        	.file	"G:\devprojects\c256Foenix\fxos\FXOSWork
                    space\FXOSv1\src\fxnode.h",0
   733                        	.line	114
   734                        	.file	"G:\devprojects\c256Foenix\fxos\FXOSWork
                    space\FXOSv1\src\fxos.h",25
   735                        	.file	"G:\devprojects\c256Foenix\fxos\FXOSWork
                    space\FXOSv1\src\ff.h",0
   736                        	.file	"G:\devprojects\c256Foenix\fxos\FXOSWork
                    space\FXOSv1\src\ffconf.h",0
   737                        	.line	298
  Sat Jul 10 2021  1:15                                                Page 15


   738                        	.file	"G:\devprojects\c256Foenix\fxos\FXOSWork
                    space\FXOSv1\src\ff.h",29
   739                        	.file	"G:\devprojects\c256Foenix\fxos\FXOSWork
                    space\FXOSv1\src\fxtypes.h",0
   740                        	.line	1010
   741                        	.file	"G:\devprojects\c256Foenix\fxos\FXOSWork
                    space\FXOSv1\src\ff.h",30
   742                        	.stag	fake70_,4504,70
   743                        	.member	fs_type,0,14,8,8
   744                        	.member	pdrv,8,14,8,8
   745                        	.member	n_fats,16,14,8,8
   746                        	.member	wflag,24,14,8,8
   747                        	.member	fsi_flag,32,14,8,8
   748                        	.member	id,40,5,8,16
   749                        	.member	n_rootdir,56,5,8,16
   750                        	.member	csize,72,5,8,16
   751                        	.member	lfnbuf,88,144,8,32
   752                        	.member	last_clst,120,18,8,32
   753                        	.member	free_clst,152,18,8,32
   754                        	.member	n_fatent,184,18,8,32
   755                        	.member	fsize,216,18,8,32
   756                        	.member	volbase,248,18,8,32
   757                        	.member	fatbase,280,18,8,32
   758                        	.member	dirbase,312,18,8,32
   759                        	.member	database,344,18,8,32
   760                        	.member	winsect,376,18,8,32
   761                        	.member	win,408,110,8,0,512
   762                        	.eos
   763                        	.stag	fake71_,128,71
   764                        	.member	fs,0,138,8,32,70
   765                        	.member	id,32,5,8,16
   766                        	.member	attr,48,14,8,8
   767                        	.member	stat,56,14,8,8
   768                        	.member	sclust,64,18,8,32
   769                        	.member	objsize,96,18,8,32
   770                        	.eos
   771                        	.stag	fake72_,4400,72
   772                        	.member	obj,0,10,8,128,71
   773                        	.member	flag,128,14,8,8
   774                        	.member	err,136,14,8,8
   775                        	.member	fptr,144,18,8,32
   776                        	.member	clust,176,18,8,32
   777                        	.member	sect,208,18,8,32
   778                        	.member	dir_sect,240,18,8,32
   779                        	.member	dir_ptr,272,142,8,32
   780                        	.member	buf,304,110,8,0,512
   781                        	.eos
   782                        	.stag	fake73_,416,73
   783                        	.member	obj,0,10,8,128,71
   784                        	.member	dptr,128,18,8,32
   785                        	.member	clust,160,18,8,32
   786                        	.member	sect,192,18,8,32
   787                        	.member	dir,224,142,8,32
   788                        	.member	fn,256,110,8,0,12
   789                        	.member	blk_ofs,352,18,8,32
   790                        	.member	pat,384,142,8,32
   791                        	.eos
   792                        	.stag	fake74_,2224,74
  Sat Jul 10 2021  1:15                                                Page 16


   793                        	.member	fsize,0,18,8,32
   794                        	.member	fdate,32,5,8,16
   795                        	.member	ftime,48,5,8,16
   796                        	.member	fattrib,64,14,8,8
   797                        	.member	altname,72,110,8,0,13
   798                        	.member	fname,176,110,8,0,256
   799                        	.eos
   800                        	.stag	fake75_,80,75
   801                        	.member	fmt,0,14,8,8
   802                        	.member	n_fat,8,14,8,8
   803                        	.member	align,16,16,8,16
   804                        	.member	n_root,32,16,8,16
   805                        	.member	au_size,48,18,8,32
   806                        	.eos
   807                        	.line	429
   808                        	.file	"G:\devprojects\c256Foenix\fxos\FXOSWork
                    space\FXOSv1\src\fxos.h",26
   809                        	.line	30
   810                        	.file	"G:\devprojects\c256Foenix\fxos\FXOSWork
                    space\FXOSv1\src\fxwindowmanager.h",5
   811                        	.file	"G:\devprojects\c256Foenix\fxos\FXOSWork
                    space\FXOSv1\src\fxmemorymanager.h",0
   812                        	.file	"G:\devprojects\c256Foenix\fxos\FXOSWork
                    space\FXOSv1\src\fxos.h",0
   813                        	.line	30
   814                        	.file	"G:\devprojects\c256Foenix\fxos\FXOSWork
                    space\FXOSv1\src\fxmemorymanager.h",5
   815                        	.file	"G:\devprojects\c256Foenix\fxos\FXOSWork
                    space\FXOSv1\src\umm_malloc_cfg.h",0
   816                        	.file	"G:\devprojects\c256Foenix\fxos\FXOSWork
                    space\FXOSv1\src\fxos_build_parameters.h",0
   817                        	.line	35
   818                        	.file	"G:\devprojects\c256Foenix\fxos\FXOSWork
                    space\FXOSv1\src\umm_malloc_cfg.h",8
   819                        	.stag	UMM_HEAP_INFO_t,256,76
   820                        	.member	totalEntries,0,18,8,32
   821                        	.member	usedEntries,32,18,8,32
   822                        	.member	freeEntries,64,18,8,32
   823                        	.member	totalBlocks,96,18,8,32
   824                        	.member	usedBlocks,128,18,8,32
   825                        	.member	freeBlocks,160,18,8,32
   826                        	.member	maxFreeContiguousBlocks,192,18,8,32
   827                        	.member	blockSize,224,18,8,32
   828                        	.eos
   829                        	.line	199
   830                        	.file	"G:\devprojects\c256Foenix\fxos\FXOSWork
                    space\FXOSv1\src\fxmemorymanager.h",6
   831                        	.file	"G:\devprojects\c256Foenix\fxos\FXOSWork
                    space\FXOSv1\src\umm_malloc.h",0
   832                        	.file	"G:\devprojects\c256Foenix\fxos\FXOSWork
                    space\FXOSv1\src\fxtypes.h",0
   833                        	.line	1010
   834                        	.file	"G:\devprojects\c256Foenix\fxos\FXOSWork
                    space\FXOSv1\src\umm_malloc.h",11
   835                        	.line	24
   836                        	.file	"G:\devprojects\c256Foenix\fxos\FXOSWork
                    space\FXOSv1\src\fxmemorymanager.h",7
   837                        	.stag	_fx_memory_map,2072,77
  Sat Jul 10 2021  1:15                                                Page 17


   838                        	.member	availableMemory,0,18,8,32
   839                        	.member	valid_segments,32,110,8,0,255
   840                        	.eos
   841                        	.stag	_fx_ipc_port,144,78
   842                        	.member	id,0,18,8,32
   843                        	.member	type,32,14,8,8
   844                        	.member	name,40,138,8,32,57
   845                        	.member	time,72,18,8,32
   846                        	.member	queue,104,138,8,32,7
   847                        	.member	reserved_1,136,14,8,8
   848                        	.eos
   849                        	.line	105
   850                        	.file	"G:\devprojects\c256Foenix\fxos\FXOSWork
                    space\FXOSv1\src\fxwindowmanager.h",6
   851                        	.file	"G:\devprojects\c256Foenix\fxos\FXOSWork
                    space\FXOSv1\src\fxeventmanager.h",0
   852                        	.line	564
   853                        	.file	"G:\devprojects\c256Foenix\fxos\FXOSWork
                    space\FXOSv1\src\fxwindowmanager.h",7
   854                        	.file	"G:\devprojects\c256Foenix\fxos\FXOSWork
                    space\FXOSv1\src\fxgui.h",0
   855                        	.file	"G:\devprojects\c256Foenix\fxos\FXOSWork
                    space\FXOSv1\src\fxfont.h",0
   856                        	.file	"G:\devprojects\c256Foenix\fxos\FXOSWork
                    space\FXOSv1\src\fxtypes.h",0
   857                        	.line	1010
   858                        	.file	"G:\devprojects\c256Foenix\fxos\FXOSWork
                    space\FXOSv1\src\fxfont.h",6
   859                        	.line	74
   860                        	.file	"G:\devprojects\c256Foenix\fxos\FXOSWork
                    space\FXOSv1\src\fxgui.h",5
   861                        	.stag	_click_detected,64,79
   862                        	.member	window,0,138,8,32,33
   863                        	.member	handler,32,641,8,32
   864                        	.eos
   865                        	.stag	_current_palette_map,400,80
   866                        	.member	CUR_DESKTOP,0,5,8,16
   867                        	.member	CUR_BACKGROUND,16,5,8,16
   868                        	.member	CUR_FONT,32,5,8,16
   869                        	.member	CUR_SELECTED_FONT,48,5,8,16
   870                        	.member	CUR_HIGHLIGHT_COLOR,64,5,8,16
   871                        	.member	CUR_WINDOWFRAME,80,5,8,16
   872                        	.member	CUR_WINDOWBORDER,96,5,8,16
   873                        	.member	CUR_WINDOWSHADOW,112,5,8,16
   874                        	.member	CUR_MENU,128,5,8,16
   875                        	.member	CUR_GADGET,144,5,8,16
   876                        	.member	CUR_COLOR,160,101,8,0,15
   877                        	.eos
   878                        	.line	359
   879                        	.file	"G:\devprojects\c256Foenix\fxos\FXOSWork
                    space\FXOSv1\src\fxwindowmanager.h",8
   880                        	.stag	_fxos_winman_vtable,160,81
   881                        	.member	Events,0,641,8,32
   882                        	.member	ConfigureWindowManager,32,656,8,32
   883                        	.member	ProcessWindowEvent,64,8833,8,32
   884                        	.member	QueryWindowManager,96,656,8,32
   885                        	.member	DoWndProcs,128,641,8,32
   886                        	.eos
  Sat Jul 10 2021  1:15                                                Page 18


   887                        	.stag	fake82_,64,82
   888                        	.member	type,0,16,8,16
   889                        	.member	size,16,16,8,16
   890                        	.member	desktopAction,32,129,8,32
   891                        	.eos
   892                        	.stag	fake83_,96,83
   893                        	.member	type,0,16,8,16
   894                        	.member	caption,16,138,8,32,57
   895                        	.member	buttonType,48,16,8,16
   896                        	.member	x,64,5,8,16
   897                        	.member	y,80,5,8,16
   898                        	.eos
   899                        	.stag	_childMessage_t,64,84
   900                        	.member	msgType,0,16,8,16
   901                        	.member	msgData,16,129,8,32
   902                        	.member	dataSize,48,16,8,16
   903                        	.eos
   904                        	.line	581
   905                        	.file	"G:\devprojects\c256Foenix\fxos\FXOSWork
                    space\FXOSv1\src\fx_ctl_listbox.c",1
   906                        ;#include "fxfont.h"
   907                        	.file	"G:\devprojects\c256Foenix\fxos\FXOSWork
                    space\FXOSv1\src\fxfont.h",0
   908                        	.line	74
   909                        	.file	"G:\devprojects\c256Foenix\fxos\FXOSWork
                    space\FXOSv1\src\fx_ctl_listbox.c",2
   910                        ;
   911                        ;LPCHAR listtext[] =
   912                        	data
   913                        	xdef	~~listtext
   914                        ~~listtext:
   915                        ;{
   916                        ;"List Item 1",
   917 00:0000: xx xx xx xx  	dl	L1+0
   918                        ;"List Item 2",
   919 00:0004: xx xx xx xx  	dl	L1+12
   920                        ;"List Item 3",
   921 00:0008: xx xx xx xx  	dl	L1+24
   922                        ;"List Item 4",
   923 00:000C: xx xx xx xx  	dl	L1+36
   924                        ;"List Item 5",
   925 00:0010: xx xx xx xx  	dl	L1+48
   926                        ;"List Item 6",
   927 00:0014: xx xx xx xx  	dl	L1+60
   928                        ;"List Item 7",
   929 00:0018: xx xx xx xx  	dl	L1+72
   930                        ;"List Item 8",
   931 00:001C: xx xx xx xx  	dl	L1+84
   932                        ;"List Item 9",
   933 00:0020: xx xx xx xx  	dl	L1+96
   934                        ;"List Item 10",
   935 00:0024: xx xx xx xx  	dl	L1+108
   936                        ;"List Item 11",
   937 00:0028: xx xx xx xx  	dl	L1+121
   938                        ;"List Item 12",
   939 00:002C: xx xx xx xx  	dl	L1+134
   940                        ;"List Item 13",
   941 00:0030: xx xx xx xx  	dl	L1+147
  Sat Jul 10 2021  1:15                                                Page 19


   942                        ;"List Item 14",
   943 00:0034: xx xx xx xx  	dl	L1+160
   944                        ;"List Item 15",
   945 00:0038: xx xx xx xx  	dl	L1+173
   946                        ;"List Item 16",
   947 00:003C: xx xx xx xx  	dl	L1+186
   948                        ;"List Item 17",
   949 00:0040: xx xx xx xx  	dl	L1+199
   950                        ;"List Item 18",
   951 00:0044: xx xx xx xx  	dl	L1+212
   952                        ;"List Item 19",
   953 00:0048: xx xx xx xx  	dl	L1+225
   954                        ;"List Item 20",
   955 00:004C: xx xx xx xx  	dl	L1+238
   956                        ;"List Item 21",
   957 00:0050: xx xx xx xx  	dl	L1+251
   958                        ;"List Item 22",
   959 00:0054: xx xx xx xx  	dl	L1+264
   960                        ;"List Item 23",
   961 00:0058: xx xx xx xx  	dl	L1+277
   962                        ;"List Item 24",
   963 00:005C: xx xx xx xx  	dl	L1+290
   964                        ;"List Item 25",
   965 00:0060: xx xx xx xx  	dl	L1+303
   966                        ;"List Item 26",
   967 00:0064: xx xx xx xx  	dl	L1+316
   968                        ;"List Item 27",
   969 00:0068: xx xx xx xx  	dl	L1+329
   970                        ;"List Item 28",
   971 00:006C: xx xx xx xx  	dl	L1+342
   972                        ;"List Item 29",
   973 00:0070: xx xx xx xx  	dl	L1+355
   974                        ;"List Item 30",
   975 00:0074: xx xx xx xx  	dl	L1+368
   976                        ;NULL,
   977 00:0078: 00 00 00 00  	dl	$0
   978                        ;};
   979 00:007C:              	ends
   980                        	data
   981                        L1:
   982 00:007C: 4C 69 73 74  	db	$4C,$69,$73,$74,$20,$49,$74,$65,$6D,$20,
                    $31,$00,$4C,$69,$73
       00:0080: 20 49 74 65 
       00:0084: 6D 20 31 00 
       00:0088: 4C 69 73 
   983 00:008B: 74 20 49 74  	db	$74,$20,$49,$74,$65,$6D,$20,$32,$00,$4C,
                    $69,$73,$74,$20,$49
       00:008F: 65 6D 20 32 
       00:0093: 00 4C 69 73 
       00:0097: 74 20 49 
   984 00:009A: 74 65 6D 20  	db	$74,$65,$6D,$20,$33,$00,$4C,$69,$73,$74,
                    $20,$49,$74,$65,$6D
       00:009E: 33 00 4C 69 
       00:00A2: 73 74 20 49 
       00:00A6: 74 65 6D 
   985 00:00A9: 20 34 00 4C  	db	$20,$34,$00,$4C,$69,$73,$74,$20,$49,$74,
                    $65,$6D,$20,$35,$00
       00:00AD: 69 73 74 20 
  Sat Jul 10 2021  1:15                                                Page 20


       00:00B1: 49 74 65 6D 
       00:00B5: 20 35 00 
   986 00:00B8: 4C 69 73 74  	db	$4C,$69,$73,$74,$20,$49,$74,$65,$6D,$20,
                    $36,$00,$4C,$69,$73
       00:00BC: 20 49 74 65 
       00:00C0: 6D 20 36 00 
       00:00C4: 4C 69 73 
   987 00:00C7: 74 20 49 74  	db	$74,$20,$49,$74,$65,$6D,$20,$37,$00,$4C,
                    $69,$73,$74,$20,$49
       00:00CB: 65 6D 20 37 
       00:00CF: 00 4C 69 73 
       00:00D3: 74 20 49 
   988 00:00D6: 74 65 6D 20  	db	$74,$65,$6D,$20,$38,$00,$4C,$69,$73,$74,
                    $20,$49,$74,$65,$6D
       00:00DA: 38 00 4C 69 
       00:00DE: 73 74 20 49 
       00:00E2: 74 65 6D 
   989 00:00E5: 20 39 00 4C  	db	$20,$39,$00,$4C,$69,$73,$74,$20,$49,$74,
                    $65,$6D,$20,$31,$30
       00:00E9: 69 73 74 20 
       00:00ED: 49 74 65 6D 
       00:00F1: 20 31 30 
   990 00:00F4: 00 4C 69 73  	db	$00,$4C,$69,$73,$74,$20,$49,$74,$65,$6D,
                    $20,$31,$31,$00,$4C
       00:00F8: 74 20 49 74 
       00:00FC: 65 6D 20 31 
       00:0100: 31 00 4C 
   991 00:0103: 69 73 74 20  	db	$69,$73,$74,$20,$49,$74,$65,$6D,$20,$31,
                    $32,$00,$4C,$69,$73
       00:0107: 49 74 65 6D 
       00:010B: 20 31 32 00 
       00:010F: 4C 69 73 
   992 00:0112: 74 20 49 74  	db	$74,$20,$49,$74,$65,$6D,$20,$31,$33,$00,
                    $4C,$69,$73,$74,$20
       00:0116: 65 6D 20 31 
       00:011A: 33 00 4C 69 
       00:011E: 73 74 20 
   993 00:0121: 49 74 65 6D  	db	$49,$74,$65,$6D,$20,$31,$34,$00,$4C,$69,
                    $73,$74,$20,$49,$74
       00:0125: 20 31 34 00 
       00:0129: 4C 69 73 74 
       00:012D: 20 49 74 
   994 00:0130: 65 6D 20 31  	db	$65,$6D,$20,$31,$35,$00,$4C,$69,$73,$74,
                    $20,$49,$74,$65,$6D
       00:0134: 35 00 4C 69 
       00:0138: 73 74 20 49 
       00:013C: 74 65 6D 
   995 00:013F: 20 31 36 00  	db	$20,$31,$36,$00,$4C,$69,$73,$74,$20,$49,
                    $74,$65,$6D,$20,$31
       00:0143: 4C 69 73 74 
       00:0147: 20 49 74 65 
       00:014B: 6D 20 31 
   996 00:014E: 37 00 4C 69  	db	$37,$00,$4C,$69,$73,$74,$20,$49,$74,$65,
                    $6D,$20,$31,$38,$00
       00:0152: 73 74 20 49 
       00:0156: 74 65 6D 20 
       00:015A: 31 38 00 
   997 00:015D: 4C 69 73 74  	db	$4C,$69,$73,$74,$20,$49,$74,$65,$6D,$20,
  Sat Jul 10 2021  1:15                                                Page 21


                    $31,$39,$00,$4C,$69
       00:0161: 20 49 74 65 
       00:0165: 6D 20 31 39 
       00:0169: 00 4C 69 
   998 00:016C: 73 74 20 49  	db	$73,$74,$20,$49,$74,$65,$6D,$20,$32,$30,
                    $00,$4C,$69,$73,$74
       00:0170: 74 65 6D 20 
       00:0174: 32 30 00 4C 
       00:0178: 69 73 74 
   999 00:017B: 20 49 74 65  	db	$20,$49,$74,$65,$6D,$20,$32,$31,$00,$4C,
                    $69,$73,$74,$20,$49
       00:017F: 6D 20 32 31 
       00:0183: 00 4C 69 73 
       00:0187: 74 20 49 
  1000 00:018A: 74 65 6D 20  	db	$74,$65,$6D,$20,$32,$32,$00,$4C,$69,$73,
                    $74,$20,$49,$74,$65
       00:018E: 32 32 00 4C 
       00:0192: 69 73 74 20 
       00:0196: 49 74 65 
  1001 00:0199: 6D 20 32 33  	db	$6D,$20,$32,$33,$00,$4C,$69,$73,$74,$20,
                    $49,$74,$65,$6D,$20
       00:019D: 00 4C 69 73 
       00:01A1: 74 20 49 74 
       00:01A5: 65 6D 20 
  1002 00:01A8: 32 34 00 4C  	db	$32,$34,$00,$4C,$69,$73,$74,$20,$49,$74,
                    $65,$6D,$20,$32,$35
       00:01AC: 69 73 74 20 
       00:01B0: 49 74 65 6D 
       00:01B4: 20 32 35 
  1003 00:01B7: 00 4C 69 73  	db	$00,$4C,$69,$73,$74,$20,$49,$74,$65,$6D,
                    $20,$32,$36,$00,$4C
       00:01BB: 74 20 49 74 
       00:01BF: 65 6D 20 32 
       00:01C3: 36 00 4C 
  1004 00:01C6: 69 73 74 20  	db	$69,$73,$74,$20,$49,$74,$65,$6D,$20,$32,
                    $37,$00,$4C,$69,$73
       00:01CA: 49 74 65 6D 
       00:01CE: 20 32 37 00 
       00:01D2: 4C 69 73 
  1005 00:01D5: 74 20 49 74  	db	$74,$20,$49,$74,$65,$6D,$20,$32,$38,$00,
                    $4C,$69,$73,$74,$20
       00:01D9: 65 6D 20 32 
       00:01DD: 38 00 4C 69 
       00:01E1: 73 74 20 
  1006 00:01E4: 49 74 65 6D  	db	$49,$74,$65,$6D,$20,$32,$39,$00,$4C,$69,
                    $73,$74,$20,$49,$74
       00:01E8: 20 32 39 00 
       00:01EC: 4C 69 73 74 
       00:01F0: 20 49 74 
  1007 00:01F3: 65 6D 20 33  	db	$65,$6D,$20,$33,$30,$00
       00:01F7: 30 00 
  1008 00:01F9:              	ends
  1009                        ;
  1010                        ;
  1011                        ;
  1012                        ;BOOL listboxWindowProc(PFXOSMESSAGE pMsg)
  1013                        ;{
  1014                        	.line	41
  Sat Jul 10 2021  1:15                                                Page 22


  1015                        	.line	42
  1016                        	code
  1017                        	xdef	~~listboxWindowProc
  1018                        	func
  1019                        	.function	42
  1020                        ~~listboxWindowProc:
  1021                        	longa	on
  1022                        	longi	on
  1023 00:0000: 3B           	tsc
  1024 00:0001: 38           	sec
  1025 00:0002: E9 46 00     	sbc	#L3
  1026 00:0005: 1B           	tcs
  1027 00:0006: 0B           	phd
  1028 00:0007: 5B           	tcd
  1029             00000004   pMsg_0	set	4
  1030                        	.block	42
  1031                        ;	UINT i;
  1032                        ;	RECT r;
  1033                        ;	PFXPROCESS p = NULL;
  1034                        ;	PWINDOW pWin = NULL;
  1035                        ;	UCHAR buffer[16];
  1036                        ;	LPCHAR listItem;
  1037                        ;	PLISTBOX listbox = NULL;
  1038                        ;	HWND hWnd;
  1039                        ;	INT cMenu;
  1040                        ;	LPCSTR pFont;
  1041                        ;
  1042                        ;	if(pMsg!=NULL)
  1043             00000000   i_1	set	0
  1044             00000002   r_1	set	2
  1045             00000010   p_1	set	16
  1046             00000014   pWin_1	set	20
  1047             00000018   buffer_1	set	24
  1048             00000028   listItem_1	set	40
  1049             0000002C   listbox_1	set	44
  1050             00000030   hWnd_1	set	48
  1051             00000034   cMenu_1	set	52
  1052             00000036   pFont_1	set	54
  1053                        	.sym	i,0,16,1,16
  1054                        	.sym	r,2,10,1,112,26
  1055                        	.sym	p,16,138,1,32,20
  1056                        	.sym	pWin,20,138,1,32,33
  1057                        	.sym	buffer,24,110,1,0,16
  1058                        	.sym	listItem,40,142,1,32
  1059                        	.sym	listbox,44,138,1,32,41
  1060                        	.sym	hWnd,48,129,1,32
  1061                        	.sym	cMenu,52,5,1,16
  1062                        	.sym	pFont,54,142,1,32
  1063                        	.sym	pMsg,4,138,6,32,16
  1064 00:0008: 64 1D        	stz	<L4+p_1
  1065 00:000A: 64 1F        	stz	<L4+p_1+2
  1066 00:000C: 64 21        	stz	<L4+pWin_1
  1067 00:000E: 64 23        	stz	<L4+pWin_1+2
  1068 00:0010: 64 39        	stz	<L4+listbox_1
  1069 00:0012: 64 3B        	stz	<L4+listbox_1+2
  1070                        	.line	54
  1071                        ;	{
  1072 00:0014: A5 4A        	lda	<L3+pMsg_0
  Sat Jul 10 2021  1:15                                                Page 23


  1073 00:0016: 05 4C        	ora	<L3+pMsg_0+2
  1074 00:0018: D0 03        	bne	L6
  1075 00:001A: 82 12 07     	brl	L10001
  1076                        L6:
  1077                        	.line	55
  1078                        ;		p = k_exec_get_current_process();
  1079                        	.line	56
  1080 00:001D: 22 xx xx xx  	jsl	~~k_exec_get_current_process
  1081 00:0021: 85 1D        	sta	<L4+p_1
  1082 00:0023: 86 1F        	stx	<L4+p_1+2
  1083                        ;		pWin = k_getWindowFromHandle(pMsg->hwnd)
                    ;
  1084                        	.line	57
  1085 00:0025: A0 0C 00     	ldy	#$c
  1086 00:0028: B7 4A        	lda	[<L3+pMsg_0],Y
  1087 00:002A: 48           	pha
  1088 00:002B: A0 0A 00     	ldy	#$a
  1089 00:002E: B7 4A        	lda	[<L3+pMsg_0],Y
  1090 00:0030: 48           	pha
  1091 00:0031: 22 xx xx xx  	jsl	~~k_getWindowFromHandle
  1092 00:0035: 85 21        	sta	<L4+pWin_1
  1093 00:0037: 86 23        	stx	<L4+pWin_1+2
  1094                        ;		hWnd = k_getHandleFromWindow(pWin);
  1095                        	.line	58
  1096 00:0039: D4 23        	pei	<L4+pWin_1+2
  1097 00:003B: D4 21        	pei	<L4+pWin_1
  1098 00:003D: 22 xx xx xx  	jsl	~~k_getHandleFromWindow
  1099 00:0041: 85 3D        	sta	<L4+hWnd_1
  1100 00:0043: 86 3F        	stx	<L4+hWnd_1+2
  1101                        ;		listbox = pWin->windowData;
  1102                        	.line	59
  1103 00:0045: A0 C5 01     	ldy	#$1c5
  1104 00:0048: B7 21        	lda	[<L4+pWin_1],Y
  1105 00:004A: 85 39        	sta	<L4+listbox_1
  1106 00:004C: A0 C7 01     	ldy	#$1c7
  1107 00:004F: B7 21        	lda	[<L4+pWin_1],Y
  1108 00:0051: 85 3B        	sta	<L4+listbox_1+2
  1109                        ;		cMenu = k_getUIMenuColor();
  1110                        	.line	60
  1111 00:0053: 22 xx xx xx  	jsl	~~k_getUIMenuColor
  1112 00:0057: 85 41        	sta	<L4+cMenu_1
  1113                        ;
  1114                        ;
  1115                        ;		switch(pMsg->type)
  1116                        	.line	63
  1117 00:0059: A0 08 00     	ldy	#$8
  1118 00:005C: B7 4A        	lda	[<L3+pMsg_0],Y
  1119 00:005E: 82 B2 06     	brl	L10002
  1120                        ;		{
  1121                        	.line	64
  1122                        ;		case FX_CREATE_WINDOW:
  1123                        	.line	65
  1124                        L10004:
  1125                        ;			if(p)
  1126                        	.line	66
  1127                        ;			{
  1128 00:0061: A5 1D        	lda	<L4+p_1
  1129 00:0063: 05 1F        	ora	<L4+p_1+2
  Sat Jul 10 2021  1:15                                                Page 24


  1130 00:0065: D0 03        	bne	L7
  1131 00:0067: 82 AA 00     	brl	L10005
  1132                        L7:
  1133                        	.line	67
  1134                        ;				k_debug_long("listboxWin
                    dowProc::FX_CREATE_WINDOW:",p->procId);
  1135                        	.line	68
  1136 00:006A: A0 04 00     	ldy	#$4
  1137 00:006D: B7 1D        	lda	[<L4+p_1],Y
  1138 00:006F: 48           	pha
  1139 00:0070: A0 02 00     	ldy	#$2
  1140 00:0073: B7 1D        	lda	[<L4+p_1],Y
  1141 00:0075: 48           	pha
  1142 00:0076: F4 xx xx     	pea	#^L2
  1143 00:0079: F4 xx xx     	pea	#<L2
  1144 00:007C: 22 xx xx xx  	jsl	~~k_debug_long
  1145                        ;				listbox = pWin->windowDa
                    ta = k_mem_allocate_heap(sizeof(LISTBOX));
  1146                        	.line	69
  1147 00:0080: F4 1E 00     	pea	#<$1e
  1148 00:0083: 22 xx xx xx  	jsl	~~k_mem_allocate_heap
  1149 00:0087: 85 01        	sta	<R0
  1150 00:0089: 86 03        	stx	<R0+2
  1151 00:008B: A5 01        	lda	<R0
  1152 00:008D: A0 C5 01     	ldy	#$1c5
  1153 00:0090: 97 21        	sta	[<L4+pWin_1],Y
  1154 00:0092: A5 03        	lda	<R0+2
  1155 00:0094: A0 C7 01     	ldy	#$1c7
  1156 00:0097: 97 21        	sta	[<L4+pWin_1],Y
  1157 00:0099: A5 01        	lda	<R0
  1158 00:009B: 85 39        	sta	<L4+listbox_1
  1159 00:009D: A5 03        	lda	<R0+2
  1160 00:009F: 85 3B        	sta	<L4+listbox_1+2
  1161                        ;				memset(listbox,0,sizeof(
                    LISTBOX));
  1162                        	.line	70
  1163 00:00A1: F4 1E 00     	pea	#<$1e
  1164 00:00A4: F4 00 00     	pea	#<$0
  1165 00:00A7: D4 3B        	pei	<L4+listbox_1+2
  1166 00:00A9: D4 39        	pei	<L4+listbox_1
  1167 00:00AB: 22 xx xx xx  	jsl	~~memset
  1168                        ;
  1169                        ;				listbox->data = listtext
                    ;
  1170                        	.line	72
  1171 00:00AF: A9 xx xx     	lda	#<~~listtext
  1172 00:00B2: 85 01        	sta	<R0
  1173                        	xref	_BEG_DATA
  1174 00:00B4: A9 xx xx     	lda	#_BEG_DATA>>16
  1175 00:00B7: 85 03        	sta	<R0+2
  1176 00:00B9: A5 01        	lda	<R0
  1177 00:00BB: A0 1A 00     	ldy	#$1a
  1178 00:00BE: 97 39        	sta	[<L4+listbox_1],Y
  1179 00:00C0: A5 03        	lda	<R0+2
  1180 00:00C2: A0 1C 00     	ldy	#$1c
  1181 00:00C5: 97 39        	sta	[<L4+listbox_1],Y
  1182                        ;				listbox->fontSet = (LPCH
                    AR)k_user_getFontClass("ToshibaLCD8x8");
  Sat Jul 10 2021  1:15                                                Page 25


  1183                        	.line	73
  1184 00:00C7: F4 xx xx     	pea	#^L2+37
  1185 00:00CA: F4 xx xx     	pea	#<L2+37
  1186 00:00CD: 22 xx xx xx  	jsl	~~k_user_getFontClass
  1187 00:00D1: 85 01        	sta	<R0
  1188 00:00D3: 86 03        	stx	<R0+2
  1189 00:00D5: A5 01        	lda	<R0
  1190 00:00D7: A0 16 00     	ldy	#$16
  1191 00:00DA: 97 39        	sta	[<L4+listbox_1],Y
  1192 00:00DC: A5 03        	lda	<R0+2
  1193 00:00DE: A0 18 00     	ldy	#$18
  1194 00:00E1: 97 39        	sta	[<L4+listbox_1],Y
  1195                        ;				listbox->offsetY = 0;
  1196                        	.line	74
  1197 00:00E3: A9 00 00     	lda	#$0
  1198 00:00E6: A0 06 00     	ldy	#$6
  1199 00:00E9: 97 39        	sta	[<L4+listbox_1],Y
  1200                        ;
  1201                        ;				listbox->maxItems = 30;
  1202                        	.line	76
  1203 00:00EB: A9 1E 00     	lda	#$1e
  1204 00:00EE: A0 14 00     	ldy	#$14
  1205 00:00F1: 97 39        	sta	[<L4+listbox_1],Y
  1206                        ;
  1207                        ;
  1208                        ;				listbox->indexTop 	
                     = 0;
  1209                        	.line	79
  1210 00:00F3: A9 00 00     	lda	#$0
  1211 00:00F6: A0 10 00     	ldy	#$10
  1212 00:00F9: 97 39        	sta	[<L4+listbox_1],Y
  1213                        ;				listbox->indexBottom = 1
                    9;
  1214                        	.line	80
  1215 00:00FB: A9 13 00     	lda	#$13
  1216 00:00FE: A0 12 00     	ldy	#$12
  1217 00:0101: 97 39        	sta	[<L4+listbox_1],Y
  1218                        ;
  1219                        ;				/*
  1220                        ;	int			pos;
  1221                        ;	UINT		selected;
  1222                        ;	int 		offsetX;
  1223                        ;	int 		offsetY;
  1224                        ;	int 		inc;
  1225                        ;	int 		direction;
  1226                        ;	int 		top;
  1227                        ;	int 		bottom;
  1228                        ;	int			indexTop;
  1229                        ;	int			indexBottom;
  1230                        ;	LPVOID  	data;
  1231                        ;
  1232                        ;				 */
  1233                        ;
  1234                        ;				k_user_CreateVerticalScr
                    ollBar(pWin,"",1);
  1235                        	.line	97
  1236 00:0103: F4 01 00     	pea	#<$1
  1237 00:0106: F4 xx xx     	pea	#^L2+51
  Sat Jul 10 2021  1:15                                                Page 26


  1238 00:0109: F4 xx xx     	pea	#<L2+51
  1239 00:010C: D4 23        	pei	<L4+pWin_1+2
  1240 00:010E: D4 21        	pei	<L4+pWin_1
  1241 00:0110: 22 xx xx xx  	jsl	~~k_user_CreateVerticalScrollBar
  1242                        ;				//k_debug_integer("testW
                    indowProc::MessageId:",pMsg->type);
  1243                        ;			}
  1244                        	.line	99
  1245                        ;			break;
  1246                        L10005:
  1247                        	.line	100
  1248 00:0114: 82 18 06     	brl	L10003
  1249                        ;		case FX_DRAW_WINDOW:
  1250                        	.line	101
  1251                        L10006:
  1252                        ;			k_debug_string("listboxWindowPro
                    c::FX_DRAW_WINDOW\r\n");
  1253                        	.line	102
  1254 00:0117: F4 xx xx     	pea	#^L2+52
  1255 00:011A: F4 xx xx     	pea	#<L2+52
  1256 00:011D: 22 xx xx xx  	jsl	~~k_debug_string
  1257                        ;
  1258                        ;			//pFont = (LPCSTR)k_user_getFont
                    Class("ToshibaLCD8x8");
  1259                        ;
  1260                        ;			r.x = 1;
  1261                        	.line	106
  1262 00:0121: A9 01 00     	lda	#$1
  1263 00:0124: 85 0F        	sta	<L4+r_1
  1264                        ;			r.y = 1;
  1265                        	.line	107
  1266 00:0126: A9 01 00     	lda	#$1
  1267 00:0129: 85 11        	sta	<L4+r_1+2
  1268                        ;
  1269                        ;			k_vdma_fill_rect(pWin->win_x + 2
                    ,
  1270                        	.line	109
  1271                        ;					         pWin->w
                    in_y + 1,
  1272                        ;							
                     pWin->win_width - k_user_getSystemMetric(SM_CXVSCROLL) -  (
                    k_user_getSystemMetric(SM_CXBORDER) * 2) - 2,
  1273                        ;							
                     pWin->win_height - 1,
  1274                        ;							
                     k_getUIBackgroundColor()
  1275                        ;							
                     //3
  1276                        ;							
                     );
  1277 00:012B: 22 xx xx xx  	jsl	~~k_getUIBackgroundColor
  1278 00:012F: 48           	pha
  1279 00:0130: 18           	clc
  1280 00:0131: A9 FF FF     	lda	#$ffff
  1281 00:0134: A0 12 00     	ldy	#$12
  1282 00:0137: 77 21        	adc	[<L4+pWin_1],Y
  1283 00:0139: 48           	pha
  1284 00:013A: F4 05 00     	pea	#<$5
  Sat Jul 10 2021  1:15                                                Page 27


  1285 00:013D: 22 xx xx xx  	jsl	~~k_user_getSystemMetric
  1286 00:0141: 85 05        	sta	<R1
  1287 00:0143: A5 05        	lda	<R1
  1288 00:0145: 0A           	asl	A
  1289 00:0146: 85 01        	sta	<R0
  1290 00:0148: F4 02 00     	pea	#<$2
  1291 00:014B: 22 xx xx xx  	jsl	~~k_user_getSystemMetric
  1292 00:014F: 85 05        	sta	<R1
  1293 00:0151: 38           	sec
  1294 00:0152: A0 10 00     	ldy	#$10
  1295 00:0155: B7 21        	lda	[<L4+pWin_1],Y
  1296 00:0157: E5 05        	sbc	<R1
  1297 00:0159: 85 09        	sta	<R2
  1298 00:015B: 38           	sec
  1299 00:015C: A5 09        	lda	<R2
  1300 00:015E: E5 01        	sbc	<R0
  1301 00:0160: 85 05        	sta	<R1
  1302 00:0162: 18           	clc
  1303 00:0163: A9 FE FF     	lda	#$fffe
  1304 00:0166: 65 05        	adc	<R1
  1305 00:0168: 48           	pha
  1306 00:0169: A0 0E 00     	ldy	#$e
  1307 00:016C: B7 21        	lda	[<L4+pWin_1],Y
  1308 00:016E: 1A           	ina
  1309 00:016F: 85 01        	sta	<R0
  1310 00:0171: A0 00 00     	ldy	#$0
  1311 00:0174: A5 01        	lda	<R0
  1312 00:0176: 10 01        	bpl	L8
  1313 00:0178: 88           	dey
  1314                        L8:
  1315 00:0179: 85 01        	sta	<R0
  1316 00:017B: 84 03        	sty	<R0+2
  1317 00:017D: D4 03        	pei	<R0+2
  1318 00:017F: D4 01        	pei	<R0
  1319 00:0181: 18           	clc
  1320 00:0182: A9 02 00     	lda	#$2
  1321 00:0185: A0 0C 00     	ldy	#$c
  1322 00:0188: 77 21        	adc	[<L4+pWin_1],Y
  1323 00:018A: 85 05        	sta	<R1
  1324 00:018C: A0 00 00     	ldy	#$0
  1325 00:018F: A5 05        	lda	<R1
  1326 00:0191: 10 01        	bpl	L9
  1327 00:0193: 88           	dey
  1328                        L9:
  1329 00:0194: 85 05        	sta	<R1
  1330 00:0196: 84 07        	sty	<R1+2
  1331 00:0198: D4 07        	pei	<R1+2
  1332 00:019A: D4 05        	pei	<R1
  1333 00:019C: 22 xx xx xx  	jsl	~~k_vdma_fill_rect
  1334                        ;
  1335                        ;			for(i=listbox->pos;i<listbox->ma
                    xItems;i++)
  1336                        	.line	117
  1337 00:01A0: A7 39        	lda	[<L4+listbox_1]
  1338 00:01A2: 85 0D        	sta	<L4+i_1
  1339 00:01A4: 82 7B 00     	brl	L10010
  1340                        L10009:
  1341                        ;			{
  Sat Jul 10 2021  1:15                                                Page 28


  1342                        	.line	118
  1343                        ;				listItem = ((LPCHAR*)lis
                    tbox->data)[i];//k_string_append_integer("List Item #", i);
  1344                        	.line	119
  1345 00:01A7: A5 0D        	lda	<L4+i_1
  1346 00:01A9: 85 05        	sta	<R1
  1347 00:01AB: 64 07        	stz	<R1+2
  1348 00:01AD: D4 07        	pei	<R1+2
  1349 00:01AF: D4 05        	pei	<R1
  1350 00:01B1: A9 02 00     	lda	#$2
  1351                        	xref	~~~lasl
  1352 00:01B4: 22 xx xx xx  	jsl	~~~lasl
  1353 00:01B8: 85 01        	sta	<R0
  1354 00:01BA: 86 03        	stx	<R0+2
  1355 00:01BC: 18           	clc
  1356 00:01BD: A0 1A 00     	ldy	#$1a
  1357 00:01C0: B7 39        	lda	[<L4+listbox_1],Y
  1358 00:01C2: 65 01        	adc	<R0
  1359 00:01C4: 85 09        	sta	<R2
  1360 00:01C6: A0 1C 00     	ldy	#$1c
  1361 00:01C9: B7 39        	lda	[<L4+listbox_1],Y
  1362 00:01CB: 65 03        	adc	<R0+2
  1363 00:01CD: 85 0B        	sta	<R2+2
  1364 00:01CF: A7 09        	lda	[<R2]
  1365 00:01D1: 85 35        	sta	<L4+listItem_1
  1366 00:01D3: A0 02 00     	ldy	#$2
  1367 00:01D6: B7 09        	lda	[<R2],Y
  1368 00:01D8: 85 37        	sta	<L4+listItem_1+2
  1369                        ;
  1370                        ;				if(listItem)
  1371                        	.line	121
  1372                        ;				{
  1373 00:01DA: A5 35        	lda	<L4+listItem_1
  1374 00:01DC: 05 37        	ora	<L4+listItem_1+2
  1375 00:01DE: D0 03        	bne	L10
  1376 00:01E0: 82 3D 00     	brl	L10011
  1377                        L10:
  1378                        	.line	122
  1379                        ;					k_user_DrawWindo
                    wTextToPointWithFont(hWnd,
  1380                        	.line	123
  1381                        ;							
                    							 listIte
                    m,
  1382                        ;							
                    							 cMenu,
  1383                        ;							
                    							 &r,
  1384                        ;							
                    							 listbox
                    ->fontSet);
  1385 00:01E3: A0 18 00     	ldy	#$18
  1386 00:01E6: B7 39        	lda	[<L4+listbox_1],Y
  1387 00:01E8: 48           	pha
  1388 00:01E9: A0 16 00     	ldy	#$16
  1389 00:01EC: B7 39        	lda	[<L4+listbox_1],Y
  1390 00:01EE: 48           	pha
  1391 00:01EF: F4 00 00     	pea	#0
  Sat Jul 10 2021  1:15                                                Page 29


  1392 00:01F2: 18           	clc
  1393 00:01F3: 7B           	tdc
  1394 00:01F4: 69 0F 00     	adc	#<L4+r_1
  1395 00:01F7: 48           	pha
  1396 00:01F8: D4 41        	pei	<L4+cMenu_1
  1397 00:01FA: D4 37        	pei	<L4+listItem_1+2
  1398 00:01FC: D4 35        	pei	<L4+listItem_1
  1399 00:01FE: D4 3F        	pei	<L4+hWnd_1+2
  1400 00:0200: D4 3D        	pei	<L4+hWnd_1
  1401 00:0202: 22 xx xx xx  	jsl	~~k_user_DrawWindowTextToPointWithFont
  1402                        ;					//k_debug_intege
                    r("listboxWindowProc:x:",r.x);
  1403                        ;				//	k_debug_integer(
                    "listboxWindowProc:y:",r.y);
  1404                        ;					//k_debug_intege
                    r("listboxWindowProc:w:",r.width);
  1405                        ;					//k_debug_intege
                    r("listboxWindowProc:h:",r.height);
  1406                        ;					r.y += 10;
  1407                        	.line	132
  1408 00:0206: 18           	clc
  1409 00:0207: A9 0A 00     	lda	#$a
  1410 00:020A: 65 11        	adc	<L4+r_1+2
  1411 00:020C: 85 11        	sta	<L4+r_1+2
  1412                        ;
  1413                        ;					if(r.y > pWin->w
                    in_height)
  1414                        	.line	134
  1415                        ;						break;
  1416 00:020E: 38           	sec
  1417 00:020F: A0 12 00     	ldy	#$12
  1418 00:0212: B7 21        	lda	[<L4+pWin_1],Y
  1419 00:0214: E5 11        	sbc	<L4+r_1+2
  1420 00:0216: 70 03        	bvs	L11
  1421 00:0218: 49 00 80     	eor	#$8000
  1422                        L11:
  1423 00:021B: 30 03        	bmi	L12
  1424 00:021D: 82 0E 00     	brl	L10008
  1425                        L12:
  1426                        ;					//k_mem_dealloca
                    te_heap(listItem);
  1427                        ;				}
  1428                        	.line	137
  1429                        ;			}
  1430                        L10011:
  1431                        	.line	138
  1432                        L10007:
  1433 00:0220: E6 0D        	inc	<L4+i_1
  1434                        L10010:
  1435 00:0222: A5 0D        	lda	<L4+i_1
  1436 00:0224: A0 14 00     	ldy	#$14
  1437 00:0227: D7 39        	cmp	[<L4+listbox_1],Y
  1438 00:0229: B0 03        	bcs	L13
  1439 00:022B: 82 79 FF     	brl	L10009
  1440                        L13:
  1441                        L10008:
  1442                        ;
  1443                        ;
  Sat Jul 10 2021  1:15                                                Page 30


  1444                        ;			//k_vdma_fill_rect(100,100,100,5
                    0,4);
  1445                        ;			break;
  1446                        	.line	142
  1447 00:022E: 82 FE 04     	brl	L10003
  1448                        ;		case FX_SCROLLBAR_COMMAND:
  1449                        	.line	143
  1450                        L10012:
  1451                        ;			//k_debug_integer("listboxWindow
                    Proc::FX_SCROLLBAR_COMMAND:", ((PFXCMDMESSAGE)pMsg)->cmdCId 
                    );
  1452                        ;			if(((PFXCMDMESSAGE)pMsg)->cmdCId
                     == CTL_VERT_SCROLL )
  1453                        	.line	145
  1454                        ;			{
  1455 00:0231: A0 16 00     	ldy	#$16
  1456 00:0234: B7 4A        	lda	[<L3+pMsg_0],Y
  1457 00:0236: C9 01 00     	cmp	#<$1
  1458 00:0239: F0 03        	beq	L14
  1459 00:023B: 82 F7 03     	brl	L10013
  1460                        L14:
  1461                        	.line	146
  1462                        ;				//k_debug_integer("listb
                    oxWindowProc::FX_SCROLLBAR_COMMAND:LOCATION:", ((PFXCMDMESSA
                    GE)pMsg)->cmdMId );
  1463                        ;				//k_debug_integer("listb
                    oxWindowProc::FX_SCROLLBAR_COMMAND:VALUE:", ((PFXCMDMESSAGE)
                    pMsg)->parameter1);
  1464                        ;				//k_debug_integer("listb
                    oxWindowProc::FX_SCROLLBAR_COMMAND:DIRECTION:", ((PFXCMDMESS
                    AGE)pMsg)->parameter2);
  1465                        ;
  1466                        ;				if(((PFXCMDMESSAGE)pMsg)
                    ->parameter2)
  1467                        	.line	151
  1468                        ;				{
  1469 00:023E: A0 1E 00     	ldy	#$1e
  1470 00:0241: B7 4A        	lda	[<L3+pMsg_0],Y
  1471 00:0243: A0 20 00     	ldy	#$20
  1472 00:0246: 17 4A        	ora	[<L3+pMsg_0],Y
  1473 00:0248: D0 03        	bne	L15
  1474 00:024A: 82 4A 01     	brl	L10014
  1475                        L15:
  1476                        	.line	152
  1477                        ;					listbox->offsetY
                    +=10;
  1478                        	.line	153
  1479 00:024D: 18           	clc
  1480 00:024E: A9 06 00     	lda	#$6
  1481 00:0251: 65 39        	adc	<L4+listbox_1
  1482 00:0253: 85 01        	sta	<R0
  1483 00:0255: A9 00 00     	lda	#$0
  1484 00:0258: 65 3B        	adc	<L4+listbox_1+2
  1485 00:025A: 85 03        	sta	<R0+2
  1486 00:025C: 18           	clc
  1487 00:025D: A9 0A 00     	lda	#$a
  1488 00:0260: 67 01        	adc	[<R0]
  1489 00:0262: 87 01        	sta	[<R0]
  Sat Jul 10 2021  1:15                                                Page 31


  1490                        ;					listbox->indexTo
                    p++;
  1491                        	.line	154
  1492 00:0264: A0 10 00     	ldy	#$10
  1493 00:0267: B7 39        	lda	[<L4+listbox_1],Y
  1494 00:0269: 1A           	ina
  1495 00:026A: A0 10 00     	ldy	#$10
  1496 00:026D: 97 39        	sta	[<L4+listbox_1],Y
  1497                        ;					listbox->indexBo
                    ttom++;
  1498                        	.line	155
  1499 00:026F: A0 12 00     	ldy	#$12
  1500 00:0272: B7 39        	lda	[<L4+listbox_1],Y
  1501 00:0274: 1A           	ina
  1502 00:0275: A0 12 00     	ldy	#$12
  1503 00:0278: 97 39        	sta	[<L4+listbox_1],Y
  1504                        ;
  1505                        ;					if(listbox->inde
                    xBottom > listbox->maxItems - 1)
  1506                        	.line	157
  1507                        ;					{
  1508 00:027A: 18           	clc
  1509 00:027B: A9 FF FF     	lda	#$ffff
  1510 00:027E: A0 14 00     	ldy	#$14
  1511 00:0281: 77 39        	adc	[<L4+listbox_1],Y
  1512 00:0283: 85 01        	sta	<R0
  1513 00:0285: A5 01        	lda	<R0
  1514 00:0287: A0 12 00     	ldy	#$12
  1515 00:028A: D7 39        	cmp	[<L4+listbox_1],Y
  1516 00:028C: 90 03        	bcc	L16
  1517 00:028E: 82 21 00     	brl	L10015
  1518                        L16:
  1519                        	.line	158
  1520                        ;						listbox-
                    >indexBottom = (listbox->maxItems - 1);
  1521                        	.line	159
  1522 00:0291: 18           	clc
  1523 00:0292: A9 FF FF     	lda	#$ffff
  1524 00:0295: A0 14 00     	ldy	#$14
  1525 00:0298: 77 39        	adc	[<L4+listbox_1],Y
  1526 00:029A: A0 12 00     	ldy	#$12
  1527 00:029D: 97 39        	sta	[<L4+listbox_1],Y
  1528                        ;						k_debug_
                    integer("listboxWindowProc::FX_SCROLLBAR_COMMAND:BOUND listb
                    ox->indexBottom:", listbox->indexBottom);
  1529                        	.line	160
  1530 00:029F: A0 12 00     	ldy	#$12
  1531 00:02A2: B7 39        	lda	[<L4+listbox_1],Y
  1532 00:02A4: 48           	pha
  1533 00:02A5: F4 xx xx     	pea	#^L2+88
  1534 00:02A8: F4 xx xx     	pea	#<L2+88
  1535 00:02AB: 22 xx xx xx  	jsl	~~k_debug_integer
  1536                        ;						break;
  1537                        	.line	161
  1538 00:02AF: 82 7D 04     	brl	L10003
  1539                        ;					}
  1540                        	.line	162
  1541                        ;
  Sat Jul 10 2021  1:15                                                Page 32


  1542                        ;					k_memory_bitblt(
                    SHADOW_BANK_0,
  1543                        L10015:
  1544                        	.line	164
  1545                        ;							
                            pWin->win_x + 2,
  1546                        ;							
                            //pWin->win_y + listbox->offsetY,
  1547                        ;							
                    		pWin->win_y + 11,
  1548                        ;							
                    		//pWin->win_width - k_user_getSystemMetric(SM_CX
                    VSCROLL),
  1549                        ;							
                    		pWin->win_width - k_user_getSystemMetric(SM_CXVS
                    CROLL) -  (k_user_getSystemMetric(SM_CXBORDER) * 2) - 2,
  1550                        ;							
                    		pWin->win_height - 11 - 2,
  1551                        ;							
                            BITMAP_BANK_0,
  1552                        ;							
                    		pWin->win_x + 2,
  1553                        ;							
                    		pWin->win_y + 1, BLT_DIR_TOPDOWN);
  1554 00:02B2: F4 01 00     	pea	#<$1
  1555 00:02B5: A0 0E 00     	ldy	#$e
  1556 00:02B8: B7 21        	lda	[<L4+pWin_1],Y
  1557 00:02BA: 1A           	ina
  1558 00:02BB: 48           	pha
  1559 00:02BC: 18           	clc
  1560 00:02BD: A9 02 00     	lda	#$2
  1561 00:02C0: A0 0C 00     	ldy	#$c
  1562 00:02C3: 77 21        	adc	[<L4+pWin_1],Y
  1563 00:02C5: 48           	pha
  1564 00:02C6: F4 B0 00     	pea	#^$b00000
  1565 00:02C9: F4 00 00     	pea	#<$b00000
  1566 00:02CC: 18           	clc
  1567 00:02CD: A9 F3 FF     	lda	#$fff3
  1568 00:02D0: A0 12 00     	ldy	#$12
  1569 00:02D3: 77 21        	adc	[<L4+pWin_1],Y
  1570 00:02D5: 48           	pha
  1571 00:02D6: F4 05 00     	pea	#<$5
  1572 00:02D9: 22 xx xx xx  	jsl	~~k_user_getSystemMetric
  1573 00:02DD: 85 05        	sta	<R1
  1574 00:02DF: A5 05        	lda	<R1
  1575 00:02E1: 0A           	asl	A
  1576 00:02E2: 85 01        	sta	<R0
  1577 00:02E4: F4 02 00     	pea	#<$2
  1578 00:02E7: 22 xx xx xx  	jsl	~~k_user_getSystemMetric
  1579 00:02EB: 85 05        	sta	<R1
  1580 00:02ED: 38           	sec
  1581 00:02EE: A0 10 00     	ldy	#$10
  1582 00:02F1: B7 21        	lda	[<L4+pWin_1],Y
  1583 00:02F3: E5 05        	sbc	<R1
  1584 00:02F5: 85 09        	sta	<R2
  1585 00:02F7: 38           	sec
  1586 00:02F8: A5 09        	lda	<R2
  1587 00:02FA: E5 01        	sbc	<R0
  Sat Jul 10 2021  1:15                                                Page 33


  1588 00:02FC: 85 05        	sta	<R1
  1589 00:02FE: 18           	clc
  1590 00:02FF: A9 FE FF     	lda	#$fffe
  1591 00:0302: 65 05        	adc	<R1
  1592 00:0304: 48           	pha
  1593 00:0305: 18           	clc
  1594 00:0306: A9 0B 00     	lda	#$b
  1595 00:0309: A0 0E 00     	ldy	#$e
  1596 00:030C: 77 21        	adc	[<L4+pWin_1],Y
  1597 00:030E: 48           	pha
  1598 00:030F: 18           	clc
  1599 00:0310: A9 02 00     	lda	#$2
  1600 00:0313: A0 0C 00     	ldy	#$c
  1601 00:0316: 77 21        	adc	[<L4+pWin_1],Y
  1602 00:0318: 48           	pha
  1603 00:0319: F4 0A 00     	pea	#^$a0000
  1604 00:031C: F4 00 00     	pea	#<$a0000
  1605 00:031F: 22 xx xx xx  	jsl	~~k_memory_bitblt
  1606                        ;
  1607                        ;
  1608                        ;					k_memory_bitblt(
                    SHADOW_BANK_0,
  1609                        	.line	176
  1610                        ;							
                    		pWin->win_x + 2,
  1611                        ;							
                    		//pWin->win_y + listbox->offsetY,
  1612                        ;							
                    		pWin->win_y + 11,
  1613                        ;							
                    		//pWin->win_width - k_user_getSystemMetric(SM_CX
                    VSCROLL),
  1614                        ;							
                    		pWin->win_width - k_user_getSystemMetric(SM_CXVS
                    CROLL) -  (k_user_getSystemMetric(SM_CXBORDER) * 2) - 2,
  1615                        ;							
                    		pWin->win_height - 11 - 2,
  1616                        ;							
                    		SHADOW_BANK_0,
  1617                        ;							
                    		pWin->win_x + 2,
  1618                        ;							
                    		pWin->win_y + 1, BLT_DIR_TOPDOWN);
  1619 00:0323: F4 01 00     	pea	#<$1
  1620 00:0326: A0 0E 00     	ldy	#$e
  1621 00:0329: B7 21        	lda	[<L4+pWin_1],Y
  1622 00:032B: 1A           	ina
  1623 00:032C: 48           	pha
  1624 00:032D: 18           	clc
  1625 00:032E: A9 02 00     	lda	#$2
  1626 00:0331: A0 0C 00     	ldy	#$c
  1627 00:0334: 77 21        	adc	[<L4+pWin_1],Y
  1628 00:0336: 48           	pha
  1629 00:0337: F4 0A 00     	pea	#^$a0000
  1630 00:033A: F4 00 00     	pea	#<$a0000
  1631 00:033D: 18           	clc
  1632 00:033E: A9 F3 FF     	lda	#$fff3
  1633 00:0341: A0 12 00     	ldy	#$12
  Sat Jul 10 2021  1:15                                                Page 34


  1634 00:0344: 77 21        	adc	[<L4+pWin_1],Y
  1635 00:0346: 48           	pha
  1636 00:0347: F4 05 00     	pea	#<$5
  1637 00:034A: 22 xx xx xx  	jsl	~~k_user_getSystemMetric
  1638 00:034E: 85 05        	sta	<R1
  1639 00:0350: A5 05        	lda	<R1
  1640 00:0352: 0A           	asl	A
  1641 00:0353: 85 01        	sta	<R0
  1642 00:0355: F4 02 00     	pea	#<$2
  1643 00:0358: 22 xx xx xx  	jsl	~~k_user_getSystemMetric
  1644 00:035C: 85 05        	sta	<R1
  1645 00:035E: 38           	sec
  1646 00:035F: A0 10 00     	ldy	#$10
  1647 00:0362: B7 21        	lda	[<L4+pWin_1],Y
  1648 00:0364: E5 05        	sbc	<R1
  1649 00:0366: 85 09        	sta	<R2
  1650 00:0368: 38           	sec
  1651 00:0369: A5 09        	lda	<R2
  1652 00:036B: E5 01        	sbc	<R0
  1653 00:036D: 85 05        	sta	<R1
  1654 00:036F: 18           	clc
  1655 00:0370: A9 FE FF     	lda	#$fffe
  1656 00:0373: 65 05        	adc	<R1
  1657 00:0375: 48           	pha
  1658 00:0376: 18           	clc
  1659 00:0377: A9 0B 00     	lda	#$b
  1660 00:037A: A0 0E 00     	ldy	#$e
  1661 00:037D: 77 21        	adc	[<L4+pWin_1],Y
  1662 00:037F: 48           	pha
  1663 00:0380: 18           	clc
  1664 00:0381: A9 02 00     	lda	#$2
  1665 00:0384: A0 0C 00     	ldy	#$c
  1666 00:0387: 77 21        	adc	[<L4+pWin_1],Y
  1667 00:0389: 48           	pha
  1668 00:038A: F4 0A 00     	pea	#^$a0000
  1669 00:038D: F4 00 00     	pea	#<$a0000
  1670 00:0390: 22 xx xx xx  	jsl	~~k_memory_bitblt
  1671                        ;
  1672                        ;				}
  1673                        	.line	187
  1674                        ;				else
  1675 00:0394: 82 4C 01     	brl	L10016
  1676                        L10014:
  1677                        ;				{
  1678                        	.line	189
  1679                        ;
  1680                        ;					listbox->offsetY
                    -=10;
  1681                        	.line	191
  1682 00:0397: 18           	clc
  1683 00:0398: A9 06 00     	lda	#$6
  1684 00:039B: 65 39        	adc	<L4+listbox_1
  1685 00:039D: 85 01        	sta	<R0
  1686 00:039F: A9 00 00     	lda	#$0
  1687 00:03A2: 65 3B        	adc	<L4+listbox_1+2
  1688 00:03A4: 85 03        	sta	<R0+2
  1689 00:03A6: 18           	clc
  1690 00:03A7: A9 F6 FF     	lda	#$fff6
  Sat Jul 10 2021  1:15                                                Page 35


  1691 00:03AA: 67 01        	adc	[<R0]
  1692 00:03AC: 87 01        	sta	[<R0]
  1693                        ;					if(listbox->offs
                    etY < 0)
  1694                        	.line	192
  1695                        ;						listbox-
                    >offsetY = 0;
  1696 00:03AE: A0 06 00     	ldy	#$6
  1697 00:03B1: B7 39        	lda	[<L4+listbox_1],Y
  1698 00:03B3: 30 03        	bmi	L17
  1699 00:03B5: 82 08 00     	brl	L10017
  1700                        L17:
  1701                        	.line	193
  1702 00:03B8: A9 00 00     	lda	#$0
  1703 00:03BB: A0 06 00     	ldy	#$6
  1704 00:03BE: 97 39        	sta	[<L4+listbox_1],Y
  1705                        ;
  1706                        ;					listbox->indexTo
                    p--;
  1707                        L10017:
  1708                        	.line	195
  1709 00:03C0: 18           	clc
  1710 00:03C1: A9 FF FF     	lda	#$ffff
  1711 00:03C4: A0 10 00     	ldy	#$10
  1712 00:03C7: 77 39        	adc	[<L4+listbox_1],Y
  1713 00:03C9: A0 10 00     	ldy	#$10
  1714 00:03CC: 97 39        	sta	[<L4+listbox_1],Y
  1715                        ;					listbox->indexBo
                    ttom--;
  1716                        	.line	196
  1717 00:03CE: 18           	clc
  1718 00:03CF: A9 FF FF     	lda	#$ffff
  1719 00:03D2: A0 12 00     	ldy	#$12
  1720 00:03D5: 77 39        	adc	[<L4+listbox_1],Y
  1721 00:03D7: A0 12 00     	ldy	#$12
  1722 00:03DA: 97 39        	sta	[<L4+listbox_1],Y
  1723                        ;
  1724                        ;					if(listbox->inde
                    xTop < 0)
  1725                        	.line	198
  1726                        ;					{
  1727 00:03DC: A0 10 00     	ldy	#$10
  1728 00:03DF: B7 39        	lda	[<L4+listbox_1],Y
  1729 00:03E1: 30 03        	bmi	L18
  1730 00:03E3: 82 1B 00     	brl	L10018
  1731                        L18:
  1732                        	.line	199
  1733                        ;						listbox-
                    >indexTop = 0;
  1734                        	.line	200
  1735 00:03E6: A9 00 00     	lda	#$0
  1736 00:03E9: A0 10 00     	ldy	#$10
  1737 00:03EC: 97 39        	sta	[<L4+listbox_1],Y
  1738                        ;						k_debug_
                    integer("listboxWindowProc::FX_SCROLLBAR_COMMAND:BOUND listb
                    ox->indexTop:", listbox->indexTop);
  1739                        	.line	201
  1740 00:03EE: A0 10 00     	ldy	#$10
  Sat Jul 10 2021  1:15                                                Page 36


  1741 00:03F1: B7 39        	lda	[<L4+listbox_1],Y
  1742 00:03F3: 48           	pha
  1743 00:03F4: F4 xx xx     	pea	#^L2+156
  1744 00:03F7: F4 xx xx     	pea	#<L2+156
  1745 00:03FA: 22 xx xx xx  	jsl	~~k_debug_integer
  1746                        ;						break;
  1747                        	.line	202
  1748 00:03FE: 82 2E 03     	brl	L10003
  1749                        ;					}
  1750                        	.line	203
  1751                        ;
  1752                        ;					k_memory_bitblt(
                    SHADOW_BANK_0,
  1753                        L10018:
  1754                        	.line	205
  1755                        ;							
                            pWin->win_x + 2,
  1756                        ;							
                    		pWin->win_y + 1,
  1757                        ;							
                    		//pWin->win_width - k_user_getSystemMetric(SM_CX
                    VSCROLL),
  1758                        ;							
                    		pWin->win_width - k_user_getSystemMetric(SM_CXVS
                    CROLL) -  (k_user_getSystemMetric(SM_CXBORDER) * 2) - 2,
  1759                        ;							
                    		//pWin->win_height - 10 - 1,
  1760                        ;							
                    		pWin->win_height - 11 - 2,
  1761                        ;							
                            BITMAP_BANK_0,
  1762                        ;							
                    		pWin->win_x + 2,
  1763                        ;							
                    		pWin->win_y + 11,
  1764                        ;							
                    		BLT_DIR_TOPDOWN);
  1765 00:0401: F4 01 00     	pea	#<$1
  1766 00:0404: 18           	clc
  1767 00:0405: A9 0B 00     	lda	#$b
  1768 00:0408: A0 0E 00     	ldy	#$e
  1769 00:040B: 77 21        	adc	[<L4+pWin_1],Y
  1770 00:040D: 48           	pha
  1771 00:040E: 18           	clc
  1772 00:040F: A9 02 00     	lda	#$2
  1773 00:0412: A0 0C 00     	ldy	#$c
  1774 00:0415: 77 21        	adc	[<L4+pWin_1],Y
  1775 00:0417: 48           	pha
  1776 00:0418: F4 B0 00     	pea	#^$b00000
  1777 00:041B: F4 00 00     	pea	#<$b00000
  1778 00:041E: 18           	clc
  1779 00:041F: A9 F3 FF     	lda	#$fff3
  1780 00:0422: A0 12 00     	ldy	#$12
  1781 00:0425: 77 21        	adc	[<L4+pWin_1],Y
  1782 00:0427: 48           	pha
  1783 00:0428: F4 05 00     	pea	#<$5
  1784 00:042B: 22 xx xx xx  	jsl	~~k_user_getSystemMetric
  1785 00:042F: 85 05        	sta	<R1
  Sat Jul 10 2021  1:15                                                Page 37


  1786 00:0431: A5 05        	lda	<R1
  1787 00:0433: 0A           	asl	A
  1788 00:0434: 85 01        	sta	<R0
  1789 00:0436: F4 02 00     	pea	#<$2
  1790 00:0439: 22 xx xx xx  	jsl	~~k_user_getSystemMetric
  1791 00:043D: 85 05        	sta	<R1
  1792 00:043F: 38           	sec
  1793 00:0440: A0 10 00     	ldy	#$10
  1794 00:0443: B7 21        	lda	[<L4+pWin_1],Y
  1795 00:0445: E5 05        	sbc	<R1
  1796 00:0447: 85 09        	sta	<R2
  1797 00:0449: 38           	sec
  1798 00:044A: A5 09        	lda	<R2
  1799 00:044C: E5 01        	sbc	<R0
  1800 00:044E: 85 05        	sta	<R1
  1801 00:0450: 18           	clc
  1802 00:0451: A9 FE FF     	lda	#$fffe
  1803 00:0454: 65 05        	adc	<R1
  1804 00:0456: 48           	pha
  1805 00:0457: A0 0E 00     	ldy	#$e
  1806 00:045A: B7 21        	lda	[<L4+pWin_1],Y
  1807 00:045C: 1A           	ina
  1808 00:045D: 48           	pha
  1809 00:045E: 18           	clc
  1810 00:045F: A9 02 00     	lda	#$2
  1811 00:0462: A0 0C 00     	ldy	#$c
  1812 00:0465: 77 21        	adc	[<L4+pWin_1],Y
  1813 00:0467: 48           	pha
  1814 00:0468: F4 0A 00     	pea	#^$a0000
  1815 00:046B: F4 00 00     	pea	#<$a0000
  1816 00:046E: 22 xx xx xx  	jsl	~~k_memory_bitblt
  1817                        ;
  1818                        ;
  1819                        ;					k_memory_bitblt(
                    SHADOW_BANK_0,
  1820                        	.line	218
  1821                        ;							
                    		pWin->win_x + 2,
  1822                        ;							
                    		pWin->win_y + 1,
  1823                        ;							
                    		//pWin->win_width - k_user_getSystemMetric(SM_CX
                    VSCROLL),
  1824                        ;							
                    		pWin->win_width - k_user_getSystemMetric(SM_CXVS
                    CROLL) -  (k_user_getSystemMetric(SM_CXBORDER) * 2) - 2,
  1825                        ;							
                    		//pWin->win_height - 10 - 2,
  1826                        ;							
                    		pWin->win_height - 11 - 2,
  1827                        ;							
                    		SHADOW_BANK_0,
  1828                        ;							
                    		pWin->win_x + 2,
  1829                        ;							
                    		pWin->win_y + 11,
  1830                        ;							
                    		BLT_DIR_BOTTOMUP);
  Sat Jul 10 2021  1:15                                                Page 38


  1831 00:0472: F4 FF FF     	pea	#<$ffffffff
  1832 00:0475: 18           	clc
  1833 00:0476: A9 0B 00     	lda	#$b
  1834 00:0479: A0 0E 00     	ldy	#$e
  1835 00:047C: 77 21        	adc	[<L4+pWin_1],Y
  1836 00:047E: 48           	pha
  1837 00:047F: 18           	clc
  1838 00:0480: A9 02 00     	lda	#$2
  1839 00:0483: A0 0C 00     	ldy	#$c
  1840 00:0486: 77 21        	adc	[<L4+pWin_1],Y
  1841 00:0488: 48           	pha
  1842 00:0489: F4 0A 00     	pea	#^$a0000
  1843 00:048C: F4 00 00     	pea	#<$a0000
  1844 00:048F: 18           	clc
  1845 00:0490: A9 F3 FF     	lda	#$fff3
  1846 00:0493: A0 12 00     	ldy	#$12
  1847 00:0496: 77 21        	adc	[<L4+pWin_1],Y
  1848 00:0498: 48           	pha
  1849 00:0499: F4 05 00     	pea	#<$5
  1850 00:049C: 22 xx xx xx  	jsl	~~k_user_getSystemMetric
  1851 00:04A0: 85 05        	sta	<R1
  1852 00:04A2: A5 05        	lda	<R1
  1853 00:04A4: 0A           	asl	A
  1854 00:04A5: 85 01        	sta	<R0
  1855 00:04A7: F4 02 00     	pea	#<$2
  1856 00:04AA: 22 xx xx xx  	jsl	~~k_user_getSystemMetric
  1857 00:04AE: 85 05        	sta	<R1
  1858 00:04B0: 38           	sec
  1859 00:04B1: A0 10 00     	ldy	#$10
  1860 00:04B4: B7 21        	lda	[<L4+pWin_1],Y
  1861 00:04B6: E5 05        	sbc	<R1
  1862 00:04B8: 85 09        	sta	<R2
  1863 00:04BA: 38           	sec
  1864 00:04BB: A5 09        	lda	<R2
  1865 00:04BD: E5 01        	sbc	<R0
  1866 00:04BF: 85 05        	sta	<R1
  1867 00:04C1: 18           	clc
  1868 00:04C2: A9 FE FF     	lda	#$fffe
  1869 00:04C5: 65 05        	adc	<R1
  1870 00:04C7: 48           	pha
  1871 00:04C8: A0 0E 00     	ldy	#$e
  1872 00:04CB: B7 21        	lda	[<L4+pWin_1],Y
  1873 00:04CD: 1A           	ina
  1874 00:04CE: 48           	pha
  1875 00:04CF: 18           	clc
  1876 00:04D0: A9 02 00     	lda	#$2
  1877 00:04D3: A0 0C 00     	ldy	#$c
  1878 00:04D6: 77 21        	adc	[<L4+pWin_1],Y
  1879 00:04D8: 48           	pha
  1880 00:04D9: F4 0A 00     	pea	#^$a0000
  1881 00:04DC: F4 00 00     	pea	#<$a0000
  1882 00:04DF: 22 xx xx xx  	jsl	~~k_memory_bitblt
  1883                        ;
  1884                        ;				}
  1885                        	.line	230
  1886                        L10016:
  1887                        ;
  1888                        ;
  Sat Jul 10 2021  1:15                                                Page 39


  1889                        ;
  1890                        ;				if(((PFXCMDMESSAGE)pMsg)
                    ->parameter2)
  1891                        	.line	234
  1892                        ;				{
  1893 00:04E3: A0 1E 00     	ldy	#$1e
  1894 00:04E6: B7 4A        	lda	[<L3+pMsg_0],Y
  1895 00:04E8: A0 20 00     	ldy	#$20
  1896 00:04EB: 17 4A        	ora	[<L3+pMsg_0],Y
  1897 00:04ED: D0 03        	bne	L19
  1898 00:04EF: 82 A0 00     	brl	L10019
  1899                        L19:
  1900                        	.line	235
  1901                        ;					r.x = 1;
  1902                        	.line	236
  1903 00:04F2: A9 01 00     	lda	#$1
  1904 00:04F5: 85 0F        	sta	<L4+r_1
  1905                        ;					r.y = (19 * 10) 
                    + 1;
  1906                        	.line	237
  1907 00:04F7: A9 BF 00     	lda	#$bf
  1908 00:04FA: 85 11        	sta	<L4+r_1+2
  1909                        ;
  1910                        ;					k_user_DrawWindo
                    wTextToPointWithFont(hWnd,
  1911                        	.line	239
  1912                        ;							
                    							 "\xDB\x
                    DB\xDB\xDB\xDB\xDB\xDB\xDB\xDB\xDB\xDB\xDB\xDB\xDB\xDB",
  1913                        ;							
                    							 k_getUI
                    BackgroundColor(),
  1914                        ;							
                    							 &r,
  1915                        ;							
                    							 (LPCSTR
                    )k_user_getFontClass("TINYTYPE8x8"));
  1916 00:04FC: F4 xx xx     	pea	#^L2+237
  1917 00:04FF: F4 xx xx     	pea	#<L2+237
  1918 00:0502: 22 xx xx xx  	jsl	~~k_user_getFontClass
  1919 00:0506: 85 01        	sta	<R0
  1920 00:0508: 86 03        	stx	<R0+2
  1921 00:050A: DA           	phx
  1922 00:050B: 48           	pha
  1923 00:050C: F4 00 00     	pea	#0
  1924 00:050F: 18           	clc
  1925 00:0510: 7B           	tdc
  1926 00:0511: 69 0F 00     	adc	#<L4+r_1
  1927 00:0514: 48           	pha
  1928 00:0515: 22 xx xx xx  	jsl	~~k_getUIBackgroundColor
  1929 00:0519: 48           	pha
  1930 00:051A: F4 xx xx     	pea	#^L2+221
  1931 00:051D: F4 xx xx     	pea	#<L2+221
  1932 00:0520: D4 3F        	pei	<L4+hWnd_1+2
  1933 00:0522: D4 3D        	pei	<L4+hWnd_1
  1934 00:0524: 22 xx xx xx  	jsl	~~k_user_DrawWindowTextToPointWithFont
  1935                        ;					r.x = 1;
  1936                        	.line	244
  Sat Jul 10 2021  1:15                                                Page 40


  1937 00:0528: A9 01 00     	lda	#$1
  1938 00:052B: 85 0F        	sta	<L4+r_1
  1939                        ;					r.y = (19 * 10) 
                    + 1;
  1940                        	.line	245
  1941 00:052D: A9 BF 00     	lda	#$bf
  1942 00:0530: 85 11        	sta	<L4+r_1+2
  1943                        ;
  1944                        ;					k_user_DrawWindo
                    wTextToPointWithFont(hWnd,
  1945                        	.line	247
  1946                        ;							
                    							 ((LPCHA
                    R*)listbox->data)[listbox->indexBottom],
  1947                        ;							
                    							 cMenu,
  1948                        ;							
                    							 &r,
  1949                        ;							
                    							 listbox
                    ->fontSet);
  1950 00:0532: A0 18 00     	ldy	#$18
  1951 00:0535: B7 39        	lda	[<L4+listbox_1],Y
  1952 00:0537: 48           	pha
  1953 00:0538: A0 16 00     	ldy	#$16
  1954 00:053B: B7 39        	lda	[<L4+listbox_1],Y
  1955 00:053D: 48           	pha
  1956 00:053E: F4 00 00     	pea	#0
  1957 00:0541: 18           	clc
  1958 00:0542: 7B           	tdc
  1959 00:0543: 69 0F 00     	adc	#<L4+r_1
  1960 00:0546: 48           	pha
  1961 00:0547: D4 41        	pei	<L4+cMenu_1
  1962 00:0549: A0 00 00     	ldy	#$0
  1963 00:054C: 5A           	phy
  1964 00:054D: A0 12 00     	ldy	#$12
  1965 00:0550: B7 39        	lda	[<L4+listbox_1],Y
  1966 00:0552: 7A           	ply
  1967 00:0553: 2A           	rol	A
  1968 00:0554: 6A           	ror	A
  1969 00:0555: 10 01        	bpl	L20
  1970 00:0557: 88           	dey
  1971                        L20:
  1972 00:0558: 85 05        	sta	<R1
  1973 00:055A: 84 07        	sty	<R1+2
  1974 00:055C: D4 07        	pei	<R1+2
  1975 00:055E: D4 05        	pei	<R1
  1976 00:0560: A9 02 00     	lda	#$2
  1977                        	xref	~~~lasl
  1978 00:0563: 22 xx xx xx  	jsl	~~~lasl
  1979 00:0567: 85 01        	sta	<R0
  1980 00:0569: 86 03        	stx	<R0+2
  1981 00:056B: 18           	clc
  1982 00:056C: A0 1A 00     	ldy	#$1a
  1983 00:056F: B7 39        	lda	[<L4+listbox_1],Y
  1984 00:0571: 65 01        	adc	<R0
  1985 00:0573: 85 09        	sta	<R2
  1986 00:0575: A0 1C 00     	ldy	#$1c
  Sat Jul 10 2021  1:15                                                Page 41


  1987 00:0578: B7 39        	lda	[<L4+listbox_1],Y
  1988 00:057A: 65 03        	adc	<R0+2
  1989 00:057C: 85 0B        	sta	<R2+2
  1990 00:057E: A0 02 00     	ldy	#$2
  1991 00:0581: B7 09        	lda	[<R2],Y
  1992 00:0583: 48           	pha
  1993 00:0584: A7 09        	lda	[<R2]
  1994 00:0586: 48           	pha
  1995 00:0587: D4 3F        	pei	<L4+hWnd_1+2
  1996 00:0589: D4 3D        	pei	<L4+hWnd_1
  1997 00:058B: 22 xx xx xx  	jsl	~~k_user_DrawWindowTextToPointWithFont
  1998                        ;
  1999                        ;				}
  2000                        	.line	253
  2001                        ;				else
  2002 00:058F: 82 A3 00     	brl	L10020
  2003                        L10019:
  2004                        ;				{
  2005                        	.line	255
  2006                        ;
  2007                        ;					r.x = 1;
  2008                        	.line	257
  2009 00:0592: A9 01 00     	lda	#$1
  2010 00:0595: 85 0F        	sta	<L4+r_1
  2011                        ;					r.y = 1;
  2012                        	.line	258
  2013 00:0597: A9 01 00     	lda	#$1
  2014 00:059A: 85 11        	sta	<L4+r_1+2
  2015                        ;
  2016                        ;					k_user_DrawWindo
                    wTextToPointWithFont(hWnd,
  2017                        	.line	260
  2018                        ;							
                    							 "\xDB\x
                    DB\xDB\xDB\xDB\xDB\xDB\xDB\xDB\xDB\xDB\xDB\xDB\xDB\xDB",
  2019                        ;							
                    							 k_getUI
                    BackgroundColor(),
  2020                        ;							
                    							 &r,
  2021                        ;							
                    							 (LPCSTR
                    )k_user_getFontClass("TINYTYPE8x8"));
  2022 00:059C: F4 xx xx     	pea	#^L2+265
  2023 00:059F: F4 xx xx     	pea	#<L2+265
  2024 00:05A2: 22 xx xx xx  	jsl	~~k_user_getFontClass
  2025 00:05A6: 85 01        	sta	<R0
  2026 00:05A8: 86 03        	stx	<R0+2
  2027 00:05AA: DA           	phx
  2028 00:05AB: 48           	pha
  2029 00:05AC: F4 00 00     	pea	#0
  2030 00:05AF: 18           	clc
  2031 00:05B0: 7B           	tdc
  2032 00:05B1: 69 0F 00     	adc	#<L4+r_1
  2033 00:05B4: 48           	pha
  2034 00:05B5: 22 xx xx xx  	jsl	~~k_getUIBackgroundColor
  2035 00:05B9: 48           	pha
  2036 00:05BA: F4 xx xx     	pea	#^L2+249
  Sat Jul 10 2021  1:15                                                Page 42


  2037 00:05BD: F4 xx xx     	pea	#<L2+249
  2038 00:05C0: D4 3F        	pei	<L4+hWnd_1+2
  2039 00:05C2: D4 3D        	pei	<L4+hWnd_1
  2040 00:05C4: 22 xx xx xx  	jsl	~~k_user_DrawWindowTextToPointWithFont
  2041                        ;
  2042                        ;					r.x = 1;
  2043                        	.line	266
  2044 00:05C8: A9 01 00     	lda	#$1
  2045 00:05CB: 85 0F        	sta	<L4+r_1
  2046                        ;					r.y = 1;
  2047                        	.line	267
  2048 00:05CD: A9 01 00     	lda	#$1
  2049 00:05D0: 85 11        	sta	<L4+r_1+2
  2050                        ;					k_user_DrawWindo
                    wTextToPointWithFont(hWnd,
  2051                        	.line	268
  2052                        ;							
                    							 listIte
                    m = ((LPCHAR*)listbox->data)[listbox->indexTop],
  2053                        ;							
                    							 cMenu,
  2054                        ;							
                    							 &r,
  2055                        ;							
                    							 listbox
                    ->fontSet);
  2056 00:05D2: A0 18 00     	ldy	#$18
  2057 00:05D5: B7 39        	lda	[<L4+listbox_1],Y
  2058 00:05D7: 48           	pha
  2059 00:05D8: A0 16 00     	ldy	#$16
  2060 00:05DB: B7 39        	lda	[<L4+listbox_1],Y
  2061 00:05DD: 48           	pha
  2062 00:05DE: F4 00 00     	pea	#0
  2063 00:05E1: 18           	clc
  2064 00:05E2: 7B           	tdc
  2065 00:05E3: 69 0F 00     	adc	#<L4+r_1
  2066 00:05E6: 48           	pha
  2067 00:05E7: D4 41        	pei	<L4+cMenu_1
  2068 00:05E9: A0 00 00     	ldy	#$0
  2069 00:05EC: 5A           	phy
  2070 00:05ED: A0 10 00     	ldy	#$10
  2071 00:05F0: B7 39        	lda	[<L4+listbox_1],Y
  2072 00:05F2: 7A           	ply
  2073 00:05F3: 2A           	rol	A
  2074 00:05F4: 6A           	ror	A
  2075 00:05F5: 10 01        	bpl	L21
  2076 00:05F7: 88           	dey
  2077                        L21:
  2078 00:05F8: 85 05        	sta	<R1
  2079 00:05FA: 84 07        	sty	<R1+2
  2080 00:05FC: D4 07        	pei	<R1+2
  2081 00:05FE: D4 05        	pei	<R1
  2082 00:0600: A9 02 00     	lda	#$2
  2083                        	xref	~~~lasl
  2084 00:0603: 22 xx xx xx  	jsl	~~~lasl
  2085 00:0607: 85 01        	sta	<R0
  2086 00:0609: 86 03        	stx	<R0+2
  2087 00:060B: 18           	clc
  Sat Jul 10 2021  1:15                                                Page 43


  2088 00:060C: A0 1A 00     	ldy	#$1a
  2089 00:060F: B7 39        	lda	[<L4+listbox_1],Y
  2090 00:0611: 65 01        	adc	<R0
  2091 00:0613: 85 09        	sta	<R2
  2092 00:0615: A0 1C 00     	ldy	#$1c
  2093 00:0618: B7 39        	lda	[<L4+listbox_1],Y
  2094 00:061A: 65 03        	adc	<R0+2
  2095 00:061C: 85 0B        	sta	<R2+2
  2096 00:061E: A7 09        	lda	[<R2]
  2097 00:0620: 85 35        	sta	<L4+listItem_1
  2098 00:0622: A0 02 00     	ldy	#$2
  2099 00:0625: B7 09        	lda	[<R2],Y
  2100 00:0627: 85 37        	sta	<L4+listItem_1+2
  2101 00:0629: D4 37        	pei	<L4+listItem_1+2
  2102 00:062B: D4 35        	pei	<L4+listItem_1
  2103 00:062D: D4 3F        	pei	<L4+hWnd_1+2
  2104 00:062F: D4 3D        	pei	<L4+hWnd_1
  2105 00:0631: 22 xx xx xx  	jsl	~~k_user_DrawWindowTextToPointWithFont
  2106                        ;
  2107                        ;				}
  2108                        	.line	274
  2109                        L10020:
  2110                        ;
  2111                        ;				/*
  2112                        ;				k_vdma_fill_rect(400,50,
                    pWin->win_width,pWin->win_height,k_getUIBackgroundColor());
  2113                        ;				k_memory_bitblt(SHADOW_B
                    ANK_0,
  2114                        ;						        
                    pWin->win_x + 2,
  2115                        ;						        
                    //pWin->win_y + listbox->offsetY,
  2116                        ;							
                    	pWin->win_y + 1,
  2117                        ;							
                    	pWin->win_width - 10 ,
  2118                        ;							
                    	pWin->win_height,
  2119                        ;						        
                    BITMAP_BANK_0,
  2120                        ;							
                    	400,50,BLT_DIR_TOPDOWN);
  2121                        ;				*/
  2122                        ;
  2123                        ;			}
  2124                        	.line	288
  2125                        ;			break;
  2126                        L10013:
  2127                        	.line	289
  2128 00:0635: 82 F7 00     	brl	L10003
  2129                        ;
  2130                        ;		case FX_KEY_DOWN:
  2131                        	.line	291
  2132                        L10021:
  2133                        ;			if(pMsg->data[0] == 80)
  2134                        	.line	292
  2135                        ;			{
  2136 00:0638: E2 20        	sep	#$20
  Sat Jul 10 2021  1:15                                                Page 44


  2137                        	longa	off
  2138 00:063A: A0 16 00     	ldy	#$16
  2139 00:063D: B7 4A        	lda	[<L3+pMsg_0],Y
  2140 00:063F: C9 50        	cmp	#<$50
  2141 00:0641: C2 20        	rep	#$20
  2142                        	longa	on
  2143 00:0643: F0 03        	beq	L22
  2144 00:0645: 82 4E 00     	brl	L10022
  2145                        L22:
  2146                        	.line	293
  2147                        ;				k_debug_integer("listbox
                    WindowProc::FX_KEY_DOWN:ARROWUP:",pMsg->data[0]);
  2148                        	.line	294
  2149 00:0648: A0 16 00     	ldy	#$16
  2150 00:064B: B7 4A        	lda	[<L3+pMsg_0],Y
  2151 00:064D: 29 FF 00     	and	#$ff
  2152 00:0650: 48           	pha
  2153 00:0651: F4 xx xx     	pea	#^L2+277
  2154 00:0654: F4 xx xx     	pea	#<L2+277
  2155 00:0657: 22 xx xx xx  	jsl	~~k_debug_integer
  2156                        ;				listbox->pos++;
  2157                        	.line	295
  2158 00:065B: A7 39        	lda	[<L4+listbox_1]
  2159 00:065D: 1A           	ina
  2160 00:065E: 87 39        	sta	[<L4+listbox_1]
  2161                        ;				if(listbox->pos > 29)
  2162                        	.line	296
  2163                        ;					listbox->pos = 2
                    9;
  2164 00:0660: 38           	sec
  2165 00:0661: A9 1D 00     	lda	#$1d
  2166 00:0664: E7 39        	sbc	[<L4+listbox_1]
  2167 00:0666: 70 03        	bvs	L23
  2168 00:0668: 49 00 80     	eor	#$8000
  2169                        L23:
  2170 00:066B: 10 03        	bpl	L24
  2171 00:066D: 82 05 00     	brl	L10023
  2172                        L24:
  2173                        	.line	297
  2174 00:0670: A9 1D 00     	lda	#$1d
  2175 00:0673: 87 39        	sta	[<L4+listbox_1]
  2176                        ;				k_send_window_message(k_
                    getHandleFromWindow(pWin),FX_DRAW_WINDOW,0,0);
  2177                        L10023:
  2178                        	.line	298
  2179 00:0675: F4 00 00     	pea	#<$0
  2180 00:0678: F4 00 00     	pea	#^$0
  2181 00:067B: F4 00 00     	pea	#<$0
  2182 00:067E: F4 00 FB     	pea	#<$fb00
  2183 00:0681: D4 23        	pei	<L4+pWin_1+2
  2184 00:0683: D4 21        	pei	<L4+pWin_1
  2185 00:0685: 22 xx xx xx  	jsl	~~k_getHandleFromWindow
  2186 00:0689: 85 01        	sta	<R0
  2187 00:068B: 86 03        	stx	<R0+2
  2188 00:068D: DA           	phx
  2189 00:068E: 48           	pha
  2190 00:068F: 22 xx xx xx  	jsl	~~k_send_window_message
  2191                        ;			}
  Sat Jul 10 2021  1:15                                                Page 45


  2192                        	.line	299
  2193                        ;			else if(pMsg->data[0] == 72)
  2194 00:0693: 82 55 00     	brl	L10024
  2195                        L10022:
  2196                        	.line	300
  2197                        ;			{
  2198 00:0696: E2 20        	sep	#$20
  2199                        	longa	off
  2200 00:0698: A0 16 00     	ldy	#$16
  2201 00:069B: B7 4A        	lda	[<L3+pMsg_0],Y
  2202 00:069D: C9 48        	cmp	#<$48
  2203 00:069F: C2 20        	rep	#$20
  2204                        	longa	on
  2205 00:06A1: F0 03        	beq	L25
  2206 00:06A3: 82 45 00     	brl	L10025
  2207                        L25:
  2208                        	.line	301
  2209                        ;				k_debug_integer("listbox
                    WindowProc::FX_KEY_DOWN:ARROWDOWN:",pMsg->data[0]);
  2210                        	.line	302
  2211 00:06A6: A0 16 00     	ldy	#$16
  2212 00:06A9: B7 4A        	lda	[<L3+pMsg_0],Y
  2213 00:06AB: 29 FF 00     	and	#$ff
  2214 00:06AE: 48           	pha
  2215 00:06AF: F4 xx xx     	pea	#^L2+317
  2216 00:06B2: F4 xx xx     	pea	#<L2+317
  2217 00:06B5: 22 xx xx xx  	jsl	~~k_debug_integer
  2218                        ;				listbox->pos--;
  2219                        	.line	303
  2220 00:06B9: 18           	clc
  2221 00:06BA: A9 FF FF     	lda	#$ffff
  2222 00:06BD: 67 39        	adc	[<L4+listbox_1]
  2223 00:06BF: 87 39        	sta	[<L4+listbox_1]
  2224                        ;				if(listbox->pos < 0)
  2225                        	.line	304
  2226                        ;					listbox->pos = 0
                    ;
  2227 00:06C1: A7 39        	lda	[<L4+listbox_1]
  2228 00:06C3: 30 03        	bmi	L26
  2229 00:06C5: 82 05 00     	brl	L10026
  2230                        L26:
  2231                        	.line	305
  2232 00:06C8: A9 00 00     	lda	#$0
  2233 00:06CB: 87 39        	sta	[<L4+listbox_1]
  2234                        ;				k_send_window_message(k_
                    getHandleFromWindow(pWin),FX_DRAW_WINDOW,0,0);
  2235                        L10026:
  2236                        	.line	306
  2237 00:06CD: F4 00 00     	pea	#<$0
  2238 00:06D0: F4 00 00     	pea	#^$0
  2239 00:06D3: F4 00 00     	pea	#<$0
  2240 00:06D6: F4 00 FB     	pea	#<$fb00
  2241 00:06D9: D4 23        	pei	<L4+pWin_1+2
  2242 00:06DB: D4 21        	pei	<L4+pWin_1
  2243 00:06DD: 22 xx xx xx  	jsl	~~k_getHandleFromWindow
  2244 00:06E1: 85 01        	sta	<R0
  2245 00:06E3: 86 03        	stx	<R0+2
  2246 00:06E5: DA           	phx
  Sat Jul 10 2021  1:15                                                Page 46


  2247 00:06E6: 48           	pha
  2248 00:06E7: 22 xx xx xx  	jsl	~~k_send_window_message
  2249                        ;			}
  2250                        	.line	307
  2251                        ;			break;
  2252                        L10025:
  2253                        L10024:
  2254                        	.line	308
  2255 00:06EB: 82 41 00     	brl	L10003
  2256                        ;		case FX_MBUTTON_DOWN:
  2257                        	.line	309
  2258                        L10027:
  2259                        ;			if(pMsg->type!=FX_PROCESS)
  2260                        	.line	310
  2261                        ;			{
  2262 00:06EE: A0 08 00     	ldy	#$8
  2263 00:06F1: B7 4A        	lda	[<L3+pMsg_0],Y
  2264 00:06F3: C9 00 FF     	cmp	#<$ff00
  2265 00:06F6: D0 03        	bne	L27
  2266 00:06F8: 82 0A 00     	brl	L10028
  2267                        L27:
  2268                        	.line	311
  2269                        ;				//k_debug_integer("conso
                    leWindowProc::ProcessId:",p->procId);
  2270                        ;				k_debug_string("testWind
                    owProc::FX_MBUTTON_DOWN\r\n");
  2271                        	.line	313
  2272 00:06FB: F4 xx xx     	pea	#^L2+359
  2273 00:06FE: F4 xx xx     	pea	#<L2+359
  2274 00:0701: 22 xx xx xx  	jsl	~~k_debug_string
  2275                        ;			}
  2276                        	.line	314
  2277                        ;
  2278                        ;			break;
  2279                        L10028:
  2280                        	.line	316
  2281 00:0705: 82 27 00     	brl	L10003
  2282                        ;		default:
  2283                        	.line	317
  2284                        L10029:
  2285                        ;			DefWindowProc(pMsg);
  2286                        	.line	318
  2287 00:0708: D4 4C        	pei	<L3+pMsg_0+2
  2288 00:070A: D4 4A        	pei	<L3+pMsg_0
  2289 00:070C: 22 xx xx xx  	jsl	~~DefWindowProc
  2290                        ;			break;
  2291                        	.line	319
  2292 00:0710: 82 1C 00     	brl	L10003
  2293                        ;		}
  2294                        	.line	320
  2295                        L10002:
  2296                        	xref	~~~swt
  2297 00:0713: 22 xx xx xx  	jsl	~~~swt
  2298 00:0717: 05 00        	dw	5
  2299 00:0719: 0C 0F        	dw	3852
  2300 00:071B: xx xx        	dw	L10027-1
  2301 00:071D: 10 0F        	dw	3856
  2302 00:071F: xx xx        	dw	L10021-1
  Sat Jul 10 2021  1:15                                                Page 47


  2303 00:0721: 02 FA        	dw	64002
  2304 00:0723: xx xx        	dw	L10012-1
  2305 00:0725: 00 FB        	dw	64256
  2306 00:0727: xx xx        	dw	L10006-1
  2307 00:0729: 03 FF        	dw	65283
  2308 00:072B: xx xx        	dw	L10004-1
  2309 00:072D: xx xx        	dw	L10029-1
  2310                        L10003:
  2311                        ;	}
  2312                        	.line	321
  2313                        ;
  2314                        ;	return TRUE;
  2315                        L10001:
  2316                        	.line	323
  2317 00:072F: A9 01 00     	lda	#$1
  2318                        L28:
  2319 00:0732: A8           	tay
  2320 00:0733: A5 48        	lda	<L3+2
  2321 00:0735: 85 4C        	sta	<L3+2+4
  2322 00:0737: A5 47        	lda	<L3+1
  2323 00:0739: 85 4B        	sta	<L3+1+4
  2324 00:073B: 2B           	pld
  2325 00:073C: 3B           	tsc
  2326 00:073D: 18           	clc
  2327 00:073E: 69 4A 00     	adc	#L3+4
  2328 00:0741: 1B           	tcs
  2329 00:0742: 98           	tya
  2330 00:0743: 6B           	rtl
  2331                        ;}
  2332                        	.line	324
  2333                        	.endblock	324
  2334             00000046   L3	equ	70
  2335             0000000D   L4	equ	13
  2336                        	ends
  2337                        	efunc
  2338                        	.endfunc	324,13,70
  2339                        	.line	324
  2340                        	data
  2341                        L2:
  2342 00:01F9: 6C 69 73 74  	db	$6C,$69,$73,$74,$62,$6F,$78,$57,$69,$6E,
                    $64,$6F,$77,$50,$72
       00:01FD: 62 6F 78 57 
       00:0201: 69 6E 64 6F 
       00:0205: 77 50 72 
  2343 00:0208: 6F 63 3A 3A  	db	$6F,$63,$3A,$3A,$46,$58,$5F,$43,$52,$45,
                    $41,$54,$45,$5F,$57
       00:020C: 46 58 5F 43 
       00:0210: 52 45 41 54 
       00:0214: 45 5F 57 
  2344 00:0217: 49 4E 44 4F  	db	$49,$4E,$44,$4F,$57,$3A,$00,$54,$6F,$73,
                    $68,$69,$62,$61,$4C
       00:021B: 57 3A 00 54 
       00:021F: 6F 73 68 69 
       00:0223: 62 61 4C 
  2345 00:0226: 43 44 38 78  	db	$43,$44,$38,$78,$38,$00,$00,$6C,$69,$73,
                    $74,$62,$6F,$78,$57
       00:022A: 38 00 00 6C 
       00:022E: 69 73 74 62 
  Sat Jul 10 2021  1:15                                                Page 48


       00:0232: 6F 78 57 
  2346 00:0235: 69 6E 64 6F  	db	$69,$6E,$64,$6F,$77,$50,$72,$6F,$63,$3A,
                    $3A,$46,$58,$5F,$44
       00:0239: 77 50 72 6F 
       00:023D: 63 3A 3A 46 
       00:0241: 58 5F 44 
  2347 00:0244: 52 41 57 5F  	db	$52,$41,$57,$5F,$57,$49,$4E,$44,$4F,$57,
                    $0D,$0A,$00,$6C,$69
       00:0248: 57 49 4E 44 
       00:024C: 4F 57 0D 0A 
       00:0250: 00 6C 69 
  2348 00:0253: 73 74 62 6F  	db	$73,$74,$62,$6F,$78,$57,$69,$6E,$64,$6F,
                    $77,$50,$72,$6F,$63
       00:0257: 78 57 69 6E 
       00:025B: 64 6F 77 50 
       00:025F: 72 6F 63 
  2349 00:0262: 3A 3A 46 58  	db	$3A,$3A,$46,$58,$5F,$53,$43,$52,$4F,$4C,
                    $4C,$42,$41,$52,$5F
       00:0266: 5F 53 43 52 
       00:026A: 4F 4C 4C 42 
       00:026E: 41 52 5F 
  2350 00:0271: 43 4F 4D 4D  	db	$43,$4F,$4D,$4D,$41,$4E,$44,$3A,$42,$4F,
                    $55,$4E,$44,$20,$6C
       00:0275: 41 4E 44 3A 
       00:0279: 42 4F 55 4E 
       00:027D: 44 20 6C 
  2351 00:0280: 69 73 74 62  	db	$69,$73,$74,$62,$6F,$78,$2D,$3E,$69,$6E,
                    $64,$65,$78,$42,$6F
       00:0284: 6F 78 2D 3E 
       00:0288: 69 6E 64 65 
       00:028C: 78 42 6F 
  2352 00:028F: 74 74 6F 6D  	db	$74,$74,$6F,$6D,$3A,$00,$6C,$69,$73,$74,
                    $62,$6F,$78,$57,$69
       00:0293: 3A 00 6C 69 
       00:0297: 73 74 62 6F 
       00:029B: 78 57 69 
  2353 00:029E: 6E 64 6F 77  	db	$6E,$64,$6F,$77,$50,$72,$6F,$63,$3A,$3A,
                    $46,$58,$5F,$53,$43
       00:02A2: 50 72 6F 63 
       00:02A6: 3A 3A 46 58 
       00:02AA: 5F 53 43 
  2354 00:02AD: 52 4F 4C 4C  	db	$52,$4F,$4C,$4C,$42,$41,$52,$5F,$43,$4F,
                    $4D,$4D,$41,$4E,$44
       00:02B1: 42 41 52 5F 
       00:02B5: 43 4F 4D 4D 
       00:02B9: 41 4E 44 
  2355 00:02BC: 3A 42 4F 55  	db	$3A,$42,$4F,$55,$4E,$44,$20,$6C,$69,$73,
                    $74,$62,$6F,$78,$2D
       00:02C0: 4E 44 20 6C 
       00:02C4: 69 73 74 62 
       00:02C8: 6F 78 2D 
  2356 00:02CB: 3E 69 6E 64  	db	$3E,$69,$6E,$64,$65,$78,$54,$6F,$70,$3A,
                    $00,$FFFFFFDB,$FFFFFFDB,$FFFFFFDB,$FFFFFFDB
       00:02CF: 65 78 54 6F 
       00:02D3: 70 3A 00 DB 
       00:02D7: DB DB DB 
  2357 00:02DA: DB DB DB DB  	db	$DB,$FFFFFFDB,$FFFFFFDB,$FFFFFFDB,$FFFFF
                    FDB,$FFFFFFDB,$FFFFFFDB,$FFFFFFDB,$FFFFFFDB,$FFFFFFDB,$FFFFF
  Sat Jul 10 2021  1:15                                                Page 49


                    FDB,$00,$54,$49,$4E
       00:02DE: DB DB DB DB 
       00:02E2: DB DB DB 00 
       00:02E6: 54 49 4E 
  2358 00:02E9: 59 54 59 50  	db	$59,$54,$59,$50,$45,$38,$78,$38,$00,$FFF
                    FFFDB,$FFFFFFDB,$FFFFFFDB,$FFFFFFDB,$FFFFFFDB,$FFFFFFDB
       00:02ED: 45 38 78 38 
       00:02F1: 00 DB DB DB 
       00:02F5: DB DB DB 
  2359 00:02F8: DB DB DB DB  	db	$DB,$FFFFFFDB,$FFFFFFDB,$FFFFFFDB,$FFFFF
                    FDB,$FFFFFFDB,$FFFFFFDB,$FFFFFFDB,$FFFFFFDB,$00,$54,$49,$4E,
                    $59,$54
       00:02FC: DB DB DB DB 
       00:0300: DB 00 54 49 
       00:0304: 4E 59 54 
  2360 00:0307: 59 50 45 38  	db	$59,$50,$45,$38,$78,$38,$00,$6C,$69,$73,
                    $74,$62,$6F,$78,$57
       00:030B: 78 38 00 6C 
       00:030F: 69 73 74 62 
       00:0313: 6F 78 57 
  2361 00:0316: 69 6E 64 6F  	db	$69,$6E,$64,$6F,$77,$50,$72,$6F,$63,$3A,
                    $3A,$46,$58,$5F,$4B
       00:031A: 77 50 72 6F 
       00:031E: 63 3A 3A 46 
       00:0322: 58 5F 4B 
  2362 00:0325: 45 59 5F 44  	db	$45,$59,$5F,$44,$4F,$57,$4E,$3A,$41,$52,
                    $52,$4F,$57,$55,$50
       00:0329: 4F 57 4E 3A 
       00:032D: 41 52 52 4F 
       00:0331: 57 55 50 
  2363 00:0334: 3A 00 6C 69  	db	$3A,$00,$6C,$69,$73,$74,$62,$6F,$78,$57,
                    $69,$6E,$64,$6F,$77
       00:0338: 73 74 62 6F 
       00:033C: 78 57 69 6E 
       00:0340: 64 6F 77 
  2364 00:0343: 50 72 6F 63  	db	$50,$72,$6F,$63,$3A,$3A,$46,$58,$5F,$4B,
                    $45,$59,$5F,$44,$4F
       00:0347: 3A 3A 46 58 
       00:034B: 5F 4B 45 59 
       00:034F: 5F 44 4F 
  2365 00:0352: 57 4E 3A 41  	db	$57,$4E,$3A,$41,$52,$52,$4F,$57,$44,$4F,
                    $57,$4E,$3A,$00,$74
       00:0356: 52 52 4F 57 
       00:035A: 44 4F 57 4E 
       00:035E: 3A 00 74 
  2366 00:0361: 65 73 74 57  	db	$65,$73,$74,$57,$69,$6E,$64,$6F,$77,$50,
                    $72,$6F,$63,$3A,$3A
       00:0365: 69 6E 64 6F 
       00:0369: 77 50 72 6F 
       00:036D: 63 3A 3A 
  2367 00:0370: 46 58 5F 4D  	db	$46,$58,$5F,$4D,$42,$55,$54,$54,$4F,$4E,
                    $5F,$44,$4F,$57,$4E
       00:0374: 42 55 54 54 
       00:0378: 4F 4E 5F 44 
       00:037C: 4F 57 4E 
  2368 00:037F: 0D 0A 00     	db	$0D,$0A,$00
  2369 00:0382:              	ends
  2370                        ;
  Sat Jul 10 2021  1:15                                                Page 50


  2371                        	.line	324
  2372                        	.file	"G:\devprojects\c256Foenix\fxos\FXOSWork
                    space\FXOSv1\src\fx_ctl_listbox.c",41
  2373                        	xref	~~DefWindowProc
  2374                        	xref	~~k_user_DrawWindowTextToPointWithFont
  2375                        	xref	~~k_user_CreateVerticalScrollBar
  2376                        	xref	~~k_user_getFontClass
  2377                        	xref	~~k_user_getSystemMetric
  2378                        	xref	~~k_getHandleFromWindow
  2379                        	xref	~~k_getWindowFromHandle
  2380                        	xref	~~k_vdma_fill_rect
  2381                        	xref	~~k_memory_bitblt
  2382                        	xref	~~k_getUIMenuColor
  2383                        	xref	~~k_getUIBackgroundColor
  2384                        	xref	~~k_mem_allocate_heap
  2385                        	xref	~~k_send_window_message
  2386                        	xref	~~k_exec_get_current_process
  2387                        	xref	~~k_debug_long
  2388                        	xref	~~k_debug_integer
  2389                        	xref	~~k_debug_string
  2390                        	xref	~~memset
  2391                        	.sym	~~listtext,~~listtext,1134,2,32,31
  2392                        	.sym	PEACHCHILD_MSG,0,138,14,32,84
  2393                        	.sym	EACHCHILD_MSG,0,10,14,64,84
  2394                        	.sym	~~listboxWindowProc,~~listboxWindowProc,
                    78,2,0
  2395                        	.sym	~~DefWindowProc,~~DefWindowProc,78,18,0
  2396                        	.sym	~~k_user_DrawWindowTextToPointWithFont,~
                    ~k_user_DrawWindowTextToPointWithFont,80,18,0
  2397                        	.sym	PMSGBOX_DATA,0,138,14,32,83
  2398                        	.sym	MSGBOX_DATA,0,10,14,96,83
  2399                        	.sym	PDESKTOP_DATA,0,138,14,32,82
  2400                        	.sym	DESKTOP_DATA,0,10,14,64,82
  2401                        	.sym	~~k_user_CreateVerticalScrollBar,~~k_use
                    r_CreateVerticalScrollBar,1098,18,32,33
  2402                        	.sym	~~k_user_getFontClass,~~k_user_getFontCl
                    ass,1089,18,32
  2403                        	.sym	~~k_user_getSystemMetric,~~k_user_getSys
                    temMetric,69,18,0
  2404                        	.sym	~~k_getHandleFromWindow,~~k_getHandleFro
                    mWindow,1089,18,32
  2405                        	.sym	~~k_getWindowFromHandle,~~k_getWindowFro
                    mHandle,1098,18,32,33
  2406                        	.sym	PWINDOWMANAGER,0,138,14,32,81
  2407                        	.sym	WINDOWMANAGER,0,10,14,160,81
  2408                        	.sym	WM_DOPROCS,0,641,14,32
  2409                        	.sym	WM_QUERY_METRIC,0,656,14,32
  2410                        	.sym	WM_CONFIGURE,0,656,14,32
  2411                        	.sym	WM_HANDLE_EVENT,0,8833,14,32
  2412                        	.sym	WM_EVENTS,0,641,14,32
  2413                        	.sym	~~k_vdma_fill_rect,~~k_vdma_fill_rect,65
                    ,18,0
  2414                        	.sym	~~k_memory_bitblt,~~k_memory_bitblt,65,1
                    8,0
  2415                        	.sym	~~k_getUIMenuColor,~~k_getUIMenuColor,69
                    ,18,0
  2416                        	.sym	~~k_getUIBackgroundColor,~~k_getUIBackgr
                    oundColor,69,18,0
  Sat Jul 10 2021  1:15                                                Page 51


  2417                        	.sym	PCUR_PALETTE_MAP,0,138,14,32,80
  2418                        	.sym	CUR_PALETTE_MAP,0,10,14,400,80
  2419                        	.sym	PCLICKDETECTED,0,138,14,32,79
  2420                        	.sym	CLICKDETECTED,0,10,14,64,79
  2421                        	.sym	OBJECTCLICKED,0,641,14,32
  2422                        	.sym	PIPCPORT,0,138,14,32,78
  2423                        	.sym	IPCPORT,0,10,14,144,78
  2424                        	.sym	~~k_mem_allocate_heap,~~k_mem_allocate_h
                    eap,1089,18,32
  2425                        	.sym	MemoryCallback,0,641,14,32
  2426                        	.sym	PFXMEMORYMAP,0,138,14,32,77
  2427                        	.sym	FXMEMORYMAP,0,10,14,2072,77
  2428                        	.sym	UMM_HEAP_INFO,0,10,14,256,76
  2429                        	.sym	FRESULT,0,5,14,16
  2430                        	.sym	MKFS_PARM,0,10,14,80,75
  2431                        	.sym	FILINFO,0,10,14,2224,74
  2432                        	.sym	DIR,0,10,14,416,73
  2433                        	.sym	FIL,0,10,14,4400,72
  2434                        	.sym	FFOBJID,0,10,14,128,71
  2435                        	.sym	FATFS,0,10,14,4504,70
  2436                        	.sym	LBA_t,0,18,14,32
  2437                        	.sym	FSIZE_t,0,18,14,32
  2438                        	.sym	TCHAR,0,14,14,8
  2439                        	.sym	PCOMMANDARGS,0,138,14,32,69
  2440                        	.sym	COMMANDARGS,0,10,14,64,69
  2441                        	.sym	PTOKENIZESTATE,0,133,14,32
  2442                        	.sym	TOKENIZESTATE,0,5,14,16
  2443                        	.sym	PTOKEN,0,138,14,32,68
  2444                        	.sym	TOKEN,0,10,14,64,68
  2445                        	.sym	PTOKENTYPE,0,133,14,32
  2446                        	.sym	TOKENTYPE,0,5,14,16
  2447                        	.sym	FXCommandHandler,0,656,14,32
  2448                        	.sym	PCONSOLECTX,0,138,14,32,67
  2449                        	.sym	CONSOLECTX,0,10,14,1144,67
  2450                        	.sym	PSPINNERCTX,0,138,14,32,66
  2451                        	.sym	SPINNERCTX,0,10,14,48,66
  2452                        	.sym	HCLIP,0,138,14,32,65
  2453                        	.sym	PCLIPBOARD_DATA,0,138,14,32,65
  2454                        	.sym	CLIPBOARD_DATA,0,10,14,168,65
  2455                        	.sym	~~k_send_window_message,~~k_send_window_
                    message,78,18,0
  2456                        	.sym	PEVENTMANAGER,0,138,14,32,64
  2457                        	.sym	EVENTMANAGER,0,10,14,192,64
  2458                        	.sym	EV_RUN,0,656,14,32
  2459                        	.sym	EV_QUERY_METRIC,0,656,14,32
  2460                        	.sym	EV_CONFIGURE,0,656,14,32
  2461                        	.sym	EV_UNINIT,0,641,14,32
  2462                        	.sym	EV_INIT,0,8833,14,32
  2463                        	.sym	PMOUSE_MSG_STATE,0,138,14,32,63
  2464                        	.sym	MOUSE_MSG_STATE,0,10,14,184,63
  2465                        	.sym	PFXEVENTPROCESS,0,138,14,32,62
  2466                        	.sym	FXEVENTPROCESS,0,10,14,64,62
  2467                        	.sym	PMARSHALDATA,0,139,14,32,61
  2468                        	.sym	MARSHALDATA,0,11,14,32,61
  2469                        	.sym	FXIDLEPROCESS,0,641,14,32
  2470                        	.sym	FXEventProc,0,641,14,32
  2471                        	.sym	PMOUSEMSGDATA,0,138,14,32,60
  2472                        	.sym	MOUSEMSGDATA,0,10,14,64,60
  Sat Jul 10 2021  1:15                                                Page 52


  2473                        	.sym	MSGIRQ,0,5,14,16
  2474                        	.sym	MAINLOOPARGS,0,10,14,16,59
  2475                        	.sym	~~k_exec_get_current_process,~~k_exec_ge
                    t_current_process,1098,18,32,20
  2476                        	.sym	PEXECUTIVE,0,138,14,32,58
  2477                        	.sym	EXECUTIVE,0,10,14,128,58
  2478                        	.sym	EX_QUERY_METRIC,0,656,14,32
  2479                        	.sym	EX_CONFIGURE,0,656,14,32
  2480                        	.sym	EX_UNINIT,0,641,14,32
  2481                        	.sym	EX_INIT,0,8833,14,32
  2482                        	.sym	PFXSTRING,0,138,14,32,57
  2483                        	.sym	FXSTRING,0,10,14,64,57
  2484                        	.sym	DEVICEDRIVER_COMMAND,0,656,14,32
  2485                        	.sym	DEVICEDRIVER_UNLOAD,0,654,14,32
  2486                        	.sym	DEVICEDRIVER_WRITE,0,656,14,32
  2487                        	.sym	DEVICEDRIVER_READ,0,656,14,32
  2488                        	.sym	DEVICEDRIVER_LOAD,0,654,14,32
  2489                        	.sym	DEVICEDRIVER_IRQ,0,654,14,32
  2490                        	.sym	PFX_BLOCK_DEVICE_DRIVER,0,138,14,32,56
  2491                        	.sym	FX_BLOCK_DEVICE_DRIVER,0,10,14,808,56
  2492                        	.sym	GETDRIVERDEF,0,8842,14,32,55
  2493                        	.sym	PFX_DEVICE_DRIVER,0,138,14,32,55
  2494                        	.sym	FX_DEVICE_DRIVER,0,10,14,776,55
  2495                        	.sym	~~k_debug_long,~~k_debug_long,65,18,0
  2496                        	.sym	~~k_debug_integer,~~k_debug_integer,65,1
                    8,0
  2497                        	.sym	~~k_debug_string,~~k_debug_string,65,18,
                    0
  2498                        	.sym	PSEGMENTHEADER,0,138,14,32,54
  2499                        	.sym	SEGMENTHEADER,0,10,14,160,54
  2500                        	.sym	PDEBUGBYTEBITS,0,138,14,32,53
  2501                        	.sym	DEBUGBYTEBITS,0,10,14,8,53
  2502                        	.sym	PFXENVIRONMENT,0,138,14,32,52
  2503                        	.sym	FXENVIRONMENT,0,10,14,96,52
  2504                        	.sym	PFXZEROPAGE,0,138,14,32,51
  2505                        	.sym	FXZEROPAGE,0,10,14,824,51
  2506                        	.sym	KERNELTRAPCALL,0,641,14,32
  2507                        	.sym	PFXKERNEL_API_CALLTABLE,0,138,14,32,50
  2508                        	.sym	FXKERNEL_API_CALLTABLE,0,10,14,8192,50
  2509                        	.sym	FOREACHNODEUNTIL,0,654,14,32
  2510                        	.sym	FOREACHNODE,0,641,14,32
  2511                        	.sym	PFXRFHEADER_FONT,0,138,14,32,49
  2512                        	.sym	FXRFHEADER_FONT,0,10,14,144,49
  2513                        	.sym	PFXRFHEADER,0,138,14,32,48
  2514                        	.sym	FXRFHEADER,0,10,14,72,48
  2515                        	.sym	PFXCOMBUFFER,0,138,14,32,47
  2516                        	.sym	FXCOMBUFFER,0,10,14,2080,47
  2517                        	.sym	PSUBMENULIST,0,138,14,32,46
  2518                        	.sym	SUBMENULIST,0,10,14,40,46
  2519                        	.sym	HSUBMENU,0,7,14,32
  2520                        	.sym	PSUBMENU,0,138,14,32,45
  2521                        	.sym	SUBMENU,0,10,14,64,45
  2522                        	.sym	MenuAction,0,641,14,32
  2523                        	.sym	PMENUANCHOR,0,138,14,32,44
  2524                        	.sym	MENUANCHOR,0,10,14,272,44
  2525                        	.sym	PMSGBOX,0,138,14,32,43
  2526                        	.sym	MSGBOX,0,10,14,144,43
  2527                        	.sym	PTEXTBOX,0,138,14,32,42
  Sat Jul 10 2021  1:15                                                Page 53


  2528                        	.sym	TEXTBOX,0,10,14,144,42
  2529                        	.sym	PLISTBOX,0,138,14,32,41
  2530                        	.sym	LISTBOX,0,10,14,240,41
  2531                        	.sym	PSCROLLBAR,0,138,14,32,40
  2532                        	.sym	SCROLLBAR,0,10,14,240,40
  2533                        	.sym	PBUTTON,0,138,14,32,39
  2534                        	.sym	BUTTON,0,10,14,96,39
  2535                        	.sym	PMENUDROPDOWNDATA,0,138,14,32,38
  2536                        	.sym	MENUDROPDOWNDATA,0,10,14,5152,38
  2537                        	.sym	PMENUTAG,0,138,14,32,37
  2538                        	.sym	MENUTAG,0,10,14,160,37
  2539                        	.sym	PMENU,0,138,14,32,36
  2540                        	.sym	MENU,0,10,14,280,36
  2541                        	.sym	HMENURESOURCE,0,129,14,32
  2542                        	.sym	FONTMETRIC,0,10,14,32,35
  2543                        	.sym	TITLE,0,142,14,32
  2544                        	.sym	PHANDLE,0,1153,14,32
  2545                        	.sym	HANDLE,0,129,14,32
  2546                        	.sym	PWINDOWEX,0,138,14,32,34
  2547                        	.sym	WINDOWEX,0,10,14,3880,34
  2548                        	.sym	PWINDOW,0,138,14,32,33
  2549                        	.sym	WINDOW,0,10,14,3904,33
  2550                        	.sym	PDRAGDATA,0,138,14,32,32
  2551                        	.sym	DRAGDATA,0,10,14,216,32
  2552                        	.sym	PNCCLICKABLE,0,138,14,32,31
  2553                        	.sym	NCCLICKABLE,0,10,14,136,31
  2554                        	.sym	HCLICKABLE,0,7,14,32
  2555                        	.sym	PCLICKABLE,0,138,14,32,30
  2556                        	.sym	CLICKABLE,0,10,14,152,30
  2557                        	.sym	PWNDCLASS,0,138,14,32,29
  2558                        	.sym	WNDCLASS,0,10,14,272,29
  2559                        	.sym	HBRUSH,0,129,14,32
  2560                        	.sym	HCURSOR,0,129,14,32
  2561                        	.sym	HICON,0,129,14,32
  2562                        	.sym	HINSTANCE,0,129,14,32
  2563                        	.sym	FXWndProc,0,654,14,32
  2564                        	.sym	PDRECT,0,138,14,32,28
  2565                        	.sym	DRECT,0,10,14,112,28
  2566                        	.sym	PRECTP,0,138,14,32,27
  2567                        	.sym	RECTP,0,10,14,96,27
  2568                        	.sym	PRECT,0,138,14,32,26
  2569                        	.sym	RECT,0,10,14,112,26
  2570                        	.sym	PPOINT,0,138,14,32,25
  2571                        	.sym	POINT,0,10,14,32,25
  2572                        	.sym	PFXPROPERTY,0,138,14,32,23
  2573                        	.sym	FXPROPERTY,0,10,14,384,23
  2574                        	.sym	PKEYSTATE,0,138,14,32,22
  2575                        	.sym	KEYSTATE,0,10,14,112,22
  2576                        	.sym	SCANCODE,0,14,14,8
  2577                        	.sym	KEYCODE,0,16,14,16
  2578                        	.sym	PFXPROCESSMESSAGE,0,138,14,32,21
  2579                        	.sym	FXPROCESSMESSAGE,0,10,14,112,21
  2580                        	.sym	PFXPROCESS,0,138,14,32,20
  2581                        	.sym	FXPROCESS,0,10,14,800,20
  2582                        	.sym	PDESKTOP_CONTROL,0,138,14,32,19
  2583                        	.sym	DESKTOP_CONTROL,0,10,14,392,19
  2584                        	.sym	PCONSOLE_CONTROL,0,138,14,32,18
  2585                        	.sym	CONSOLE_CONTROL,0,10,14,448,18
  Sat Jul 10 2021  1:15                                                Page 54


  2586                        	.sym	FXProcessProc,0,641,14,32
  2587                        	.sym	PFXCMDMESSAGE,0,138,14,32,17
  2588                        	.sym	FXCMDMESSAGE,0,10,14,304,17
  2589                        	.sym	PFXOSMESSAGE,0,138,14,32,16
  2590                        	.sym	FXOSMESSAGE,0,10,14,304,16
  2591                        	.sym	PINT_REGS,0,138,14,32,15
  2592                        	.sym	INT_REGS,0,10,14,104,15
  2593                        	.sym	TASK_STACK,0,10,14,32,14
  2594                        	.sym	TASK,0,10,14,48,13
  2595                        	.sym	PIRQDATA,0,138,14,32,12
  2596                        	.sym	IRQDATA,0,10,14,48,12
  2597                        	.sym	HMENU,0,129,14,32
  2598                        	.sym	HWND,0,129,14,32
  2599                        	.sym	MSGDATA,0,14,14,8
  2600                        	.sym	MSGDEST,0,18,14,32
  2601                        	.sym	MSGSRC,0,18,14,32
  2602                        	.sym	MSGTYPE,0,16,14,16
  2603                        	.sym	PROCESS_RESOURCE_LIST,0,138,14,32,6
  2604                        	.sym	PROCESS_TLS_LIST,0,138,14,32,6
  2605                        	.sym	SEMAPHORE_LIST,0,138,14,32,6
  2606                        	.sym	FILE_BLOCK_LIST,0,138,14,32,6
  2607                        	.sym	FILE_PATH_LIST,0,138,14,32,6
  2608                        	.sym	PROCEDURE_LIST,0,138,14,32,6
  2609                        	.sym	FILE_HANDLE,0,138,14,32,11
  2610                        	.sym	FILE_BLOCK,0,10,14,552,11
  2611                        	.sym	SEMAPHORE,0,10,14,16,10
  2612                        	.sym	PPROCESS_SIGNAL,0,138,14,32,9
  2613                        	.sym	PROCESS_SIGNAL,0,10,14,16,9
  2614                        	.sym	KRESULT,0,18,14,32
  2615                        	.sym	PKERNEL_ERROR,0,138,14,32,8
  2616                        	.sym	KERNEL_ERROR,0,10,14,32,8
  2617                        	.sym	PROCESS_STATUS,0,16,14,16
  2618                        	.sym	FILE_PATH_NAME,0,142,14,32
  2619                        	.sym	PROCESS_RESOURCE,0,129,14,32
  2620                        	.sym	PROCESS_TLS,0,129,14,32
  2621                        	.sym	PROCESS_CTX,0,129,14,32
  2622                        	.sym	USERID,0,16,14,16
  2623                        	.sym	PROCESS_ID,0,18,14,32
  2624                        	.sym	PROCESS_BANK,0,14,14,8
  2625                        	.sym	PFXQUEUE,0,138,14,32,7
  2626                        	.sym	FXQUEUE,0,10,14,80,7
  2627                        	.sym	PFXNODELIST,0,138,14,32,6
  2628                        	.sym	FXNODELIST,0,10,14,96,6
  2629                        	.sym	NodeListDeallocator,0,641,14,32
  2630                        	.sym	PFXNODE,0,138,14,32,5
  2631                        	.sym	FXNODE,0,10,14,384,5
  2632                        	.sym	PBYTEBITS,0,138,14,32,4
  2633                        	.sym	BYTEBITS,0,10,14,8,4
  2634                        	.sym	HRESULT,0,18,14,32
  2635                        	.sym	LPWCHAR,0,144,14,32
  2636                        	.sym	WCHAR,0,16,14,16
  2637                        	.sym	HCOLOR,0,129,14,32
  2638                        	.sym	HFONT,0,129,14,32
  2639                        	.sym	HDC,0,129,14,32
  2640                        	.sym	HPOINTER,0,129,14,32
  2641                        	.sym	uint32_t,0,18,14,32
  2642                        	.sym	uint8_t,0,14,14,8
  2643                        	.sym	LPBOOL,0,142,14,32
  Sat Jul 10 2021  1:15                                                Page 55


  2644                        	.sym	BOOL,0,14,14,8
  2645                        	.sym	DWORD,0,18,14,32
  2646                        	.sym	ULONG,0,18,14,32
  2647                        	.sym	LPLONG,0,135,14,32
  2648                        	.sym	LONG,0,7,14,32
  2649                        	.sym	PUINT,0,144,14,32
  2650                        	.sym	USHORT,0,16,14,16
  2651                        	.sym	UINT,0,16,14,16
  2652                        	.sym	INT,0,5,14,16
  2653                        	.sym	WORD,0,5,14,16
  2654                        	.sym	PBYTE,0,142,14,32
  2655                        	.sym	BYTE,0,14,14,8
  2656                        	.sym	IOPORT,0,142,14,32
  2657                        	.sym	PUCHAR,0,142,14,32
  2658                        	.sym	UCHAR,0,14,14,8
  2659                        	.sym	LPWCSTR,0,142,14,32
  2660                        	.sym	LPCSTR,0,142,14,32
  2661                        	.sym	LPSTR,0,142,14,32
  2662                        	.sym	LPCHAR,0,142,14,32
  2663                        	.sym	CHAR,0,14,14,8
  2664                        	.sym	LPVOID,0,129,14,32
  2665                        	.sym	VOID,0,1,14,32
  2666                        	.sym	~~memset,~~memset,1089,18,32
  2667                        	.sym	Boolean_T,0,5,14,16
  2668                        	.sym	ldiv_t,0,10,14,64,2
  2669                        	.sym	div_t,0,10,14,32,1
  2670                        	.sym	wctype_t,0,16,14,16
  2671                        	.sym	wint_t,0,16,14,16
  2672                        	.sym	wchar_t,0,14,14,8
  2673                        	.sym	ptrdiff_t,0,7,14,32
  2674                        	.sym	size_t,0,16,14,16
  2675                        	end


      Lines assembled: 2675
      Errors: 0
