  Mon Sep 27 2021  9:39                                                Page 1


                     ***************************************
                     **      WDC 65C816 Macro Assembler   **
                     **                                   **
                     **     Version 1.00- Aug 10 2021    **
                     ***************************************

     1                        ;:ts=8
     2             00000001   R0	equ	1
     3             00000005   R1	equ	5
     4             00000009   R2	equ	9
     5             0000000D   R3	equ	13
     6                        	.file	"G:\devprojects\c256Foenix\fxos\FXOSWork
                    space\FXOS-Beta\src\fxcon_cmd.c",0
     7                        ;
     8                        ;#include "fxconsole.h"
     9                        	.file	"G:\devprojects\c256Foenix\fxos\FXOSWork
                    space\FXOS-Beta\src\fxconsole.h",0
    10                        	.file	"G:\devtools\WDCTools\wdc\Tools\include\
                    string.h",0
    11                        	.line	134
    12                        	.file	"G:\devprojects\c256Foenix\fxos\FXOSWork
                    space\FXOS-Beta\src\fxconsole.h",5
    13                        	.file	"G:\devtools\WDCTools\wdc\Tools\include\
                    stdlib.h",0
    14                        	.file	"G:\devtools\WDCTools\wdc\Tools\include\
                    stddef.h",0
    15                        	.line	88
    16                        	.file	"G:\devtools\WDCTools\wdc\Tools\include\
                    stdlib.h",43
    17                        	.stag	fake1_,32,1
    18                        	.member	quot,0,5,8,16
    19                        	.member	rem,16,5,8,16
    20                        	.eos
    21                        	.stag	fake2_,64,2
    22                        	.member	quot,0,7,8,32
    23                        	.member	rem,32,7,8,32
    24                        	.eos
    25                        	.stag	int_sqrt,32,3
    26                        	.member	sqrt,0,16,8,16
    27                        	.member	frac,16,16,8,16
    28                        	.eos
    29                        	.line	205
    30                        	.file	"G:\devprojects\c256Foenix\fxos\FXOSWork
                    space\FXOS-Beta\src\fxconsole.h",6
    31                        	.file	"G:\devprojects\c256Foenix\fxos\FXOSWork
                    space\FXOS-Beta\src\fxtypes.h",0
    32                        	.stag	_fx_bytebits,8,4
    33                        	.member	b7,0,14,17,1
    34                        	.member	b6,1,14,17,1
    35                        	.member	b5,2,14,17,1
    36                        	.member	b4,3,14,17,1
    37                        	.member	b3,4,14,17,1
    38                        	.member	b2,5,14,17,1
    39                        	.member	b1,6,14,17,1
    40                        	.member	b0,7,14,17,1
    41                        	.eos
    42                        	.stag	_fx_node,384,5
    43                        	.member	type,0,14,8,8
  Mon Sep 27 2021  9:39                                                Page 2


    44                        	.member	Reserved0,8,14,8,8
    45                        	.member	data,16,129,8,32
    46                        	.member	last,48,138,8,32,5
    47                        	.member	next,80,138,8,32,5
    48                        	.member	name,112,110,8,0,32
    49                        	.member	Reserved1,368,16,8,16
    50                        	.eos
    51                        	.stag	_fx_nodelist,96,6
    52                        	.member	listhead,0,138,8,32,5
    53                        	.member	listData,32,129,8,32
    54                        	.member	deallocator,64,641,8,32
    55                        	.eos
    56                        	.stag	_fx_queue,80,7
    57                        	.member	count,0,5,8,16
    58                        	.member	front,16,138,8,32,5
    59                        	.member	rear,48,138,8,32,5
    60                        	.eos
    61                        	.stag	fake8_,32,8
    62                        	.member	subsystem,0,14,8,8
    63                        	.member	level,8,14,8,8
    64                        	.member	error,16,16,8,16
    65                        	.eos
    66                        	.stag	_fx_process_signal,16,9
    67                        	.member	cbSize,0,16,8,16
    68                        	.eos
    69                        	.stag	_fx_semaphore,16,10
    70                        	.member	reserved,0,5,8,16
    71                        	.eos
    72                        	.stag	_fx_fileBlock,552,11
    73                        	.member	openCount,0,16,8,16
    74                        	.member	lockCount,16,16,8,16
    75                        	.member	dirty,32,14,8,8
    76                        	.member	fileBuffer,40,110,8,0,64
    77                        	.eos
    78                        	.stag	_fx_irq_data,48,12
    79                        	.member	line,0,5,8,16
    80                        	.member	keycode,16,142,8,32
    81                        	.eos
    82                        	.stag	_task,48,13
    83                        	.member	SPL,0,14,8,8
    84                        	.member	SPH,8,14,8,8
    85                        	.member	pstack,16,142,8,32
    86                        	.eos
    87                        	.stag	_task_stack,32,14
    88                        	.member	SS,0,142,8,32
    89                        	.eos
    90                        	.stag	int_regs,104,15
    91                        	.member	PB,0,14,8,8
    92                        	.member	PH,8,14,8,8
    93                        	.member	PL,16,14,8,8
    94                        	.member	PP,24,14,8,8
    95                        	.member	DB,32,14,8,8
    96                        	.member	DH,40,14,8,8
    97                        	.member	DL,48,14,8,8
    98                        	.member	AH,56,14,8,8
    99                        	.member	AL,64,14,8,8
   100                        	.member	XH,72,14,8,8
   101                        	.member	XL,80,14,8,8
  Mon Sep 27 2021  9:39                                                Page 3


   102                        	.member	YH,88,14,8,8
   103                        	.member	YL,96,14,8,8
   104                        	.eos
   105                        	.stag	_fx_eventMessage,312,16
   106                        	.member	src,0,18,8,32
   107                        	.member	dest,32,18,8,32
   108                        	.member	type,64,16,8,16
   109                        	.member	hwnd,80,129,8,32
   110                        	.member	pheap,112,129,8,32
   111                        	.member	msgTime,144,18,8,32
   112                        	.member	data,176,110,8,0,16
   113                        	.member	attr,304,14,8,8
   114                        	.eos
   115                        	.stag	_fx_cmdMessage,312,17
   116                        	.member	src,0,18,8,32
   117                        	.member	dest,32,18,8,32
   118                        	.member	type,64,16,8,16
   119                        	.member	hwnd,80,129,8,32
   120                        	.member	pheap,112,129,8,32
   121                        	.member	msgTime,144,18,8,32
   122                        	.member	cmdCId,176,16,8,16
   123                        	.member	cmdMId,192,16,8,16
   124                        	.member	parameter1,208,18,8,32
   125                        	.member	parameter2,240,18,8,32
   126                        	.member	parameter3,272,18,8,32
   127                        	.member	attr,304,14,8,8
   128                        	.eos
   129                        	.stag	_fx_console_ctl,448,18
   130                        	.member	maxCols,0,5,8,16
   131                        	.member	maxRows,16,5,8,16
   132                        	.member	curX,32,5,8,16
   133                        	.member	curY,48,5,8,16
   134                        	.member	fgColor,64,5,8,16
   135                        	.member	bgColor,80,5,8,16
   136                        	.member	mode,96,14,8,8
   137                        	.member	kbBuffer,104,101,8,0,16
   138                        	.member	screenBuffer,360,142,8,32
   139                        	.member	desktopMode,392,14,8,8
   140                        	.member	lastMouseButton,400,5,8,16
   141                        	.member	lastMouseX,416,5,8,16
   142                        	.member	lastMouseY,432,5,8,16
   143                        	.eos
   144                        	.stag	_fx_desktop_ctl,392,19
   145                        	.member	desktopMode,0,14,8,8
   146                        	.member	cursorCtl,8,5,8,16
   147                        	.member	cursorState,24,5,8,16
   148                        	.member	backgroundColor,40,5,8,16
   149                        	.member	foregroundColor,56,5,8,16
   150                        	.member	menuMode,72,5,8,16
   151                        	.member	lastMouseButton,88,5,8,16
   152                        	.member	lastMouseX,104,5,8,16
   153                        	.member	lastMouseY,120,5,8,16
   154                        	.member	currentDiskName,136,142,8,32
   155                        	.member	diskNodes,168,129,8,32
   156                        	.member	titleNodes,200,129,8,32
   157                        	.member	menuNodes,232,129,8,32
   158                        	.member	iconNodes,264,129,8,32
   159                        	.member	windowNodes,296,129,8,32
  Mon Sep 27 2021  9:39                                                Page 4


   160                        	.member	fontNodes,328,129,8,32
   161                        	.member	wndProc,360,138,8,32,6
   162                        	.eos
   163                        	.stag	_fx_process,800,20
   164                        	.member	cbSize,0,5,8,16
   165                        	.member	procId,16,18,8,32
   166                        	.member	parentId,48,18,8,32
   167                        	.member	ctx,80,129,8,32
   168                        	.member	userId,112,16,8,16
   169                        	.member	status,128,16,8,16
   170                        	.member	foregroundActive,144,14,8,8
   171                        	.member	tls,152,1121,8,32,8
   172                        	.member	commandLine,408,142,8,32
   173                        	.member	semaphores,440,138,8,32,6
   174                        	.member	fileHandles,472,138,8,32,6
   175                        	.member	pathList,504,138,8,32,6
   176                        	.member	resources,536,138,8,32,6
   177                        	.member	timerAware,568,14,8,8
   178                        	.member	timerTicks,576,112,8,0,2
   179                        	.member	timerTickCount,608,112,8,0,2
   180                        	.member	kernelError,640,10,8,32,8
   181                        	.member	consoleCtl,672,138,8,32,18
   182                        	.member	desktopCtl,704,138,8,32,19
   183                        	.member	execProc,736,641,8,32
   184                        	.member	startupArgs,768,129,8,32
   185                        	.eos
   186                        	.stag	_fxProcessMessage,112,21
   187                        	.member	src,0,18,8,32
   188                        	.member	dest,32,18,8,32
   189                        	.member	type,64,16,8,16
   190                        	.member	processInfo,80,138,8,32,20
   191                        	.eos
   192                        	.stag	_k_key_state,112,22
   193                        	.member	scanCode,0,14,8,8
   194                        	.member	isShifted,8,14,8,8
   195                        	.member	isAlt,16,14,8,8
   196                        	.member	isExtended,24,14,8,8
   197                        	.member	isCapsLock,32,14,8,8
   198                        	.member	isNumLock,40,14,8,8
   199                        	.member	isScrollLock,48,14,8,8
   200                        	.member	keyChar,56,16,8,16
   201                        	.member	scanTime,72,18,8,32
   202                        	.member	ledStatus,104,14,8,8
   203                        	.eos
   204                        	.stag	_fx_property,384,23
   205                        	.member	name,0,110,8,0,16
   206                        	.member	value,128,110,8,0,32
   207                        	.eos
   208                        	.utag	_24bitPointer,32,24
   209                        	.member	address,0,142,11,32
   210                        	.member	bytes,0,110,11,0,4
   211                        	.eos
   212                        	.stag	_PointStruct,32,25
   213                        	.member	x,0,5,8,16
   214                        	.member	y,16,5,8,16
   215                        	.eos
   216                        	.stag	_RectStruct,112,26
   217                        	.member	x,0,5,8,16
  Mon Sep 27 2021  9:39                                                Page 5


   218                        	.member	y,16,5,8,16
   219                        	.member	z,32,18,8,32
   220                        	.member	width,64,5,8,16
   221                        	.member	height,80,5,8,16
   222                        	.member	attr,96,5,8,16
   223                        	.eos
   224                        	.stag	fake27_,96,27
   225                        	.member	name,0,142,8,32
   226                        	.member	topLeft,32,10,8,32,25
   227                        	.member	bottomRight,64,10,8,32,25
   228                        	.eos
   229                        	.stag	fake28_,112,28
   230                        	.member	x,0,5,8,16
   231                        	.member	y,16,5,8,16
   232                        	.member	z,32,5,8,16
   233                        	.member	width,48,5,8,16
   234                        	.member	height,64,5,8,16
   235                        	.member	data,80,18,8,32
   236                        	.eos
   237                        	.stag	_k_WindowClass,272,29
   238                        	.member	cbSize,0,16,8,16
   239                        	.member	style,16,16,8,16
   240                        	.member	styleEx,32,16,8,16
   241                        	.member	pWndProc,48,654,8,32
   242                        	.member	hInstance,80,129,8,32
   243                        	.member	hIcon,112,129,8,32
   244                        	.member	hCursor,144,129,8,32
   245                        	.member	hbrBackground,176,129,8,32
   246                        	.member	lpszMenuName,208,142,8,32
   247                        	.member	lpszClassName,240,142,8,32
   248                        	.eos
   249                        	.stag	_ClickableRect,152,30
   250                        	.member	area,0,10,8,112,26
   251                        	.member	z,112,18,8,32
   252                        	.member	enabled,144,14,8,8
   253                        	.eos
   254                        	.stag	_NCClickableRect,136,31
   255                        	.member	area,0,10,8,112,26
   256                        	.member	msgType,112,16,8,16
   257                        	.member	enabled,128,14,8,8
   258                        	.eos
   259                        	.stag	_DragData,216,32
   260                        	.member	area,0,10,8,112,26
   261                        	.member	xoffset,112,5,8,16
   262                        	.member	yoffset,128,5,8,16
   263                        	.member	msgType,144,16,8,16
   264                        	.member	ncAction,160,16,8,16
   265                        	.member	isDrag,176,14,8,8
   266                        	.member	isResize,184,14,8,8
   267                        	.member	canDrag,192,14,8,8
   268                        	.member	canDrop,200,14,8,8
   269                        	.member	didDrag,208,14,8,8
   270                        	.eos
   271                        	.stag	_k_WindowStruct,3904,33
   272                        	.member	cbSize,0,16,8,16
   273                        	.member	style,16,18,8,32
   274                        	.member	styleEx,48,18,8,32
   275                        	.member	win_id,80,5,8,16
  Mon Sep 27 2021  9:39                                                Page 6


   276                        	.member	win_x,96,5,8,16
   277                        	.member	win_y,112,5,8,16
   278                        	.member	win_width,128,5,8,16
   279                        	.member	win_height,144,5,8,16
   280                        	.member	win_xoffset,160,5,8,16
   281                        	.member	win_yoffset,176,5,8,16
   282                        	.member	win_cxoffset,192,5,8,16
   283                        	.member	win_cyoffset,208,5,8,16
   284                        	.member	wndRect,224,10,8,112,26
   285                        	.member	clientRect,336,10,8,112,26
   286                        	.member	nonclientGadgets,448,106,8,0,31,16
   287                        	.member	clickable,2624,129,8,32
   288                        	.member	win_title,2656,110,8,0,32
   289                        	.member	Reserved0,2912,16,8,16
   290                        	.member	win_class,2928,110,8,0,16
   291                        	.member	win_class_name,3056,110,8,0,32
   292                        	.member	nBitmapLayer,3312,16,8,16
   293                        	.member	bgRegion,3328,129,8,32
   294                        	.member	procid,3360,18,8,32
   295                        	.member	pWndClass,3392,138,8,32,29
   296                        	.member	pParentWindow,3424,129,8,32
   297                        	.member	hMenu,3456,129,8,32
   298                        	.member	hPointer,3488,129,8,32
   299                        	.member	hBackground,3520,129,8,32
   300                        	.member	pChildWindows,3552,138,8,32,6
   301                        	.member	pChildHitList,3584,138,8,32,6
   302                        	.member	isVisible,3616,14,8,8
   303                        	.member	windowData,3624,129,8,32
   304                        	.member	clientData,3656,1121,8,32,6
   305                        	.member	isClosed,3848,14,8,8
   306                        	.member	isClosing,3856,14,8,8
   307                        	.member	isDesktop,3864,14,8,8
   308                        	.member	clickableNode,3872,138,8,32,5
   309                        	.eos
   310                        	.stag	_k_WindowStructEx,3880,34
   311                        	.member	cbSize,0,16,8,16
   312                        	.member	style,16,18,8,32
   313                        	.member	styleEx,48,18,8,32
   314                        	.member	win_id,80,5,8,16
   315                        	.member	win_x,96,5,8,16
   316                        	.member	win_y,112,5,8,16
   317                        	.member	win_width,128,5,8,16
   318                        	.member	win_height,144,5,8,16
   319                        	.member	win_xoffset,160,5,8,16
   320                        	.member	win_yoffset,176,5,8,16
   321                        	.member	win_cxoffset,192,5,8,16
   322                        	.member	win_cyoffset,208,5,8,16
   323                        	.member	wndRect,224,10,8,112,26
   324                        	.member	clientRect,336,10,8,112,26
   325                        	.member	nonclientGadgets,448,106,8,0,31,16
   326                        	.member	clickable,2624,129,8,32
   327                        	.member	win_title,2656,110,8,0,32
   328                        	.member	Reserved0,2912,16,8,16
   329                        	.member	win_class,2928,110,8,0,16
   330                        	.member	nBitmapLayer,3056,16,8,16
   331                        	.member	procid,3072,18,8,32
   332                        	.member	pWndClass,3104,138,8,32,29
   333                        	.member	pParentWindow,3136,129,8,32
  Mon Sep 27 2021  9:39                                                Page 7


   334                        	.member	hMenu,3168,129,8,32
   335                        	.member	hPointer,3200,129,8,32
   336                        	.member	hBackground,3232,129,8,32
   337                        	.member	pChildWindows,3264,138,8,32,6
   338                        	.member	pChildHitList,3296,138,8,32,6
   339                        	.member	isVisible,3328,14,8,8
   340                        	.member	windowData,3336,129,8,32
   341                        	.member	clientData,3368,1121,8,32,4
   342                        	.member	isClosed,3496,14,8,8
   343                        	.member	hWnd,3504,129,8,32
   344                        	.member	localRect,3536,10,8,112,26
   345                        	.member	globalRect,3648,10,8,112,26
   346                        	.member	clientOffsetRect,3760,10,8,112,26
   347                        	.member	isDesktop,3872,14,8,8
   348                        	.eos
   349                        	.stag	_FontMetric,32,35
   350                        	.member	width,0,5,8,16
   351                        	.member	height,16,5,8,16
   352                        	.eos
   353                        	.stag	_MenuStruct,280,36
   354                        	.member	cx,0,5,8,16
   355                        	.member	cy,16,5,8,16
   356                        	.member	width,32,5,8,16
   357                        	.member	height,48,5,8,16
   358                        	.member	fcolor,64,14,8,8
   359                        	.member	bcolor,72,14,8,8
   360                        	.member	chromeLeft,80,14,8,8
   361                        	.member	chromeRight1,88,14,8,8
   362                        	.member	chromeRight2,96,14,8,8
   363                        	.member	hFont,104,129,8,32
   364                        	.member	itemId,136,16,8,16
   365                        	.member	pCaption,152,142,8,32
   366                        	.member	subMenus,184,138,8,32,6
   367                        	.member	pBackground,216,129,8,32
   368                        	.member	hWndOwner,248,129,8,32
   369                        	.eos
   370                        	.stag	fake37_,160,37
   371                        	.member	menuId,0,16,8,16
   372                        	.member	caption,16,142,8,32
   373                        	.member	rect,48,10,8,112,26
   374                        	.eos
   375                        	.stag	fake38_,5152,38
   376                        	.member	pParent,0,138,8,32,33
   377                        	.member	rect,32,10,8,112,26
   378                        	.member	captions,144,1134,8,32,24
   379                        	.member	chrome,912,110,8,0,24
   380                        	.member	ids,1104,112,8,0,24
   381                        	.member	clickable,1488,106,8,0,30,24
   382                        	.member	selected,5136,16,8,16
   383                        	.eos
   384                        	.stag	_fx_button_t,96,39
   385                        	.member	pCaption,0,142,8,32
   386                        	.member	cCaption,32,16,8,16
   387                        	.member	data,48,129,8,32
   388                        	.member	captionPixelWidth,80,16,8,16
   389                        	.eos
   390                        	.stag	_fx_scrollbar_t,240,40
   391                        	.member	min,0,16,8,16
  Mon Sep 27 2021  9:39                                                Page 8


   392                        	.member	max,16,16,8,16
   393                        	.member	increment,32,16,8,16
   394                        	.member	stopsize,48,16,8,16
   395                        	.member	location,64,5,8,16
   396                        	.member	state,80,5,8,16
   397                        	.member	rectThumb,96,10,8,112,26
   398                        	.member	data,208,129,8,32
   399                        	.eos
   400                        	.stag	_fx_listbox_t,240,41
   401                        	.member	pos,0,5,8,16
   402                        	.member	selected,16,16,8,16
   403                        	.member	offsetX,32,5,8,16
   404                        	.member	offsetY,48,5,8,16
   405                        	.member	inc,64,5,8,16
   406                        	.member	direction,80,5,8,16
   407                        	.member	top,96,5,8,16
   408                        	.member	bottom,112,5,8,16
   409                        	.member	indexTop,128,5,8,16
   410                        	.member	indexBottom,144,5,8,16
   411                        	.member	maxItems,160,16,8,16
   412                        	.member	fontSet,176,142,8,32
   413                        	.member	data,208,129,8,32
   414                        	.eos
   415                        	.stag	_fx_textbox_t,144,42
   416                        	.member	pos,0,5,8,16
   417                        	.member	selected,16,16,8,16
   418                        	.member	offsetX,32,5,8,16
   419                        	.member	offsetY,48,5,8,16
   420                        	.member	isShifted,64,14,8,8
   421                        	.member	cursorState,72,14,8,8
   422                        	.member	fontSet,80,142,8,32
   423                        	.member	data,112,129,8,32
   424                        	.eos
   425                        	.stag	_fx_msgbox_t,144,43
   426                        	.member	pos,0,5,8,16
   427                        	.member	selected,16,16,8,16
   428                        	.member	offsetX,32,5,8,16
   429                        	.member	offsetY,48,5,8,16
   430                        	.member	isShifted,64,14,8,8
   431                        	.member	cursorState,72,14,8,8
   432                        	.member	fontSet,80,142,8,32
   433                        	.member	data,112,129,8,32
   434                        	.eos
   435                        	.stag	_fx_menuAnchor_t,272,44
   436                        	.member	pCaption,0,142,8,32
   437                        	.member	renderLayoutX,32,16,8,16
   438                        	.member	renderLayoutY,48,16,8,16
   439                        	.member	captionPixelWidth,64,16,8,16
   440                        	.member	data,80,129,8,32
   441                        	.member	droppedWindow,112,138,8,32,33
   442                        	.member	bytes,144,110,8,0,16
   443                        	.eos
   444                        	.stag	_SubMenuStruct,64,45
   445                        	.member	caption,0,142,8,32
   446                        	.member	action,32,641,8,32
   447                        	.eos
   448                        	.stag	_SubMenuListStruct,40,46
   449                        	.member	cMenus,0,14,8,8
  Mon Sep 27 2021  9:39                                                Page 9


   450                        	.member	psubmenus,8,9354,8,32,45
   451                        	.eos
   452                        	.stag	_fx_ComBuffer,2080,47
   453                        	.member	cbSize,0,16,8,16
   454                        	.member	cbBuffer,16,16,8,16
   455                        	.member	buffer,32,110,8,0,256
   456                        	.eos
   457                        	.stag	_fx_resource_header,72,48
   458                        	.member	magic,0,110,8,0,4
   459                        	.member	major,32,14,8,8
   460                        	.member	minor,40,14,8,8
   461                        	.member	type,48,14,8,8
   462                        	.member	reserved,56,14,8,8
   463                        	.member	resheaderSize,64,14,8,8
   464                        	.eos
   465                        	.stag	_fx_resource_header_font,144,49
   466                        	.member	title,0,110,8,0,16
   467                        	.member	height,128,14,8,8
   468                        	.member	width,136,14,8,8
   469                        	.eos
   470                        	.stag	_fx_resource_string,32,50
   471                        	.member	locale,0,110,8,0,2
   472                        	.member	entries,16,16,8,16
   473                        	.eos
   474                        	.stag	_fx_resource_string_entry,40,51
   475                        	.member	index,0,16,8,16
   476                        	.member	length,16,16,8,16
   477                        	.member	data,32,14,8,8
   478                        	.eos
   479                        	.line	1064
   480                        	.file	"G:\devprojects\c256Foenix\fxos\FXOSWork
                    space\FXOS-Beta\src\fxconsole.h",7
   481                        	.file	"G:\devprojects\c256Foenix\fxos\FXOSWork
                    space\FXOS-Beta\src\fxc256u.h",0
   482                        	.file	"G:\devprojects\c256Foenix\fxos\FXOSWork
                    space\FXOS-Beta\src\fxtypes.h",0
   483                        	.line	1064
   484                        	.file	"G:\devprojects\c256Foenix\fxos\FXOSWork
                    space\FXOS-Beta\src\fxc256u.h",5
   485                        	.file	"G:\devprojects\c256Foenix\fxos\FXOSWork
                    space\FXOS-Beta\src\fmx_vicky.h",0
   486                        	.file	"G:\devprojects\c256Foenix\fxos\FXOSWork
                    space\FXOS-Beta\src\fxtypes.h",0
   487                        	.line	1064
   488                        	.file	"G:\devprojects\c256Foenix\fxos\FXOSWork
                    space\FXOS-Beta\src\fmx_vicky.h",11
   489                        	.line	72
   490                        	.file	"G:\devprojects\c256Foenix\fxos\FXOSWork
                    space\FXOS-Beta\src\fxc256u.h",6
   491                        	.line	1963
   492                        	.file	"G:\devprojects\c256Foenix\fxos\FXOSWork
                    space\FXOS-Beta\src\fxconsole.h",12
   493                        	.file	"G:\devprojects\c256Foenix\fxos\FXOSWork
                    space\FXOS-Beta\src\fxstring.h",0
   494                        	.file	"G:\devtools\WDCTools\wdc\Tools\include\
                    stdlib.h",0
   495                        	.line	205
   496                        	.file	"G:\devprojects\c256Foenix\fxos\FXOSWork
  Mon Sep 27 2021  9:39                                                Page 10


                    space\FXOS-Beta\src\fxstring.h",5
   497                        	.file	"G:\devtools\WDCTools\wdc\Tools\include\
                    string.h",0
   498                        	.line	134
   499                        	.file	"G:\devprojects\c256Foenix\fxos\FXOSWork
                    space\FXOS-Beta\src\fxstring.h",6
   500                        	.file	"G:\devprojects\c256Foenix\fxos\FXOSWork
                    space\FXOS-Beta\src\fxtypes.h",0
   501                        	.line	1064
   502                        	.file	"G:\devprojects\c256Foenix\fxos\FXOSWork
                    space\FXOS-Beta\src\fxstring.h",7
   503                        	.stag	_fx_string,64,52
   504                        	.member	size,0,16,8,16
   505                        	.member	pos,16,5,8,16
   506                        	.member	buffer,32,142,8,32
   507                        	.eos
   508                        	.line	141
   509                        	.file	"G:\devprojects\c256Foenix\fxos\FXOSWork
                    space\FXOS-Beta\src\fxconsole.h",17
   510                        	.file	"G:\devprojects\c256Foenix\fxos\FXOSWork
                    space\FXOS-Beta\src\fxeventmanager.h",0
   511                        	.file	"G:\devprojects\c256Foenix\fxos\FXOSWork
                    space\FXOS-Beta\src\fxos.h",0
   512                        	.file	"G:\devtools\WDCTools\wdc\Tools\include\
                    stdlib.h",0
   513                        	.line	205
   514                        	.file	"G:\devprojects\c256Foenix\fxos\FXOSWork
                    space\FXOS-Beta\src\fxos.h",4
   515                        	.file	"G:\devtools\WDCTools\wdc\Tools\include\
                    string.h",0
   516                        	.line	134
   517                        	.file	"G:\devprojects\c256Foenix\fxos\FXOSWork
                    space\FXOS-Beta\src\fxos.h",5
   518                        	.file	"G:\devtools\WDCTools\wdc\Tools\include\
                    ctype.h",0
   519                        	.line	103
   520                        	.file	"G:\devprojects\c256Foenix\fxos\FXOSWork
                    space\FXOS-Beta\src\fxos.h",6
   521                        	.file	"G:\devprojects\c256Foenix\fxos\FXOSWork
                    space\FXOS-Beta\src\fxtypes.h",0
   522                        	.line	1064
   523                        	.file	"G:\devprojects\c256Foenix\fxos\FXOSWork
                    space\FXOS-Beta\src\fxos.h",8
   524                        	.file	"G:\devprojects\c256Foenix\fxos\FXOSWork
                    space\FXOS-Beta\src\fxstringtable.h",0
   525                        	.line	90
   526                        	.file	"G:\devprojects\c256Foenix\fxos\FXOSWork
                    space\FXOS-Beta\src\fxos.h",9
   527                        	.file	"G:\devprojects\c256Foenix\fxos\FXOSWork
                    space\FXOS-Beta\src\fxc256u.h",0
   528                        	.line	1963
   529                        	.file	"G:\devprojects\c256Foenix\fxos\FXOSWork
                    space\FXOS-Beta\src\fxos.h",16
   530                        	.file	"G:\devprojects\c256Foenix\fxos\FXOSWork
                    space\FXOS-Beta\src\fxkernel.h",0
   531                        	.file	"G:\devprojects\c256Foenix\fxos\FXOSWork
                    space\FXOS-Beta\src\fxos.h",0
   532                        	.line	30
  Mon Sep 27 2021  9:39                                                Page 11


   533                        	.file	"G:\devprojects\c256Foenix\fxos\FXOSWork
                    space\FXOS-Beta\src\fxkernel.h",5
   534                        	.file	"G:\devprojects\c256Foenix\fxos\FXOSWork
                    space\FXOS-Beta\src\fxnode.h",0
   535                        	.file	"G:\devprojects\c256Foenix\fxos\FXOSWork
                    space\FXOS-Beta\src\fxtypes.h",0
   536                        	.line	1064
   537                        	.file	"G:\devprojects\c256Foenix\fxos\FXOSWork
                    space\FXOS-Beta\src\fxnode.h",11
   538                        	.line	118
   539                        	.file	"G:\devprojects\c256Foenix\fxos\FXOSWork
                    space\FXOS-Beta\src\fxkernel.h",6
   540                        	.stag	_fx_api_call_table,8192,53
   541                        	.member	call_table,0,1121,8,32,256
   542                        	.eos
   543                        	.stag	_fx_zero_page_irq_data,32,54
   544                        	.member	data,0,110,8,0,4
   545                        	.eos
   546                        	.stag	_fx_zero_page,720,55
   547                        	.member	fxos_mouse_byte_0,0,14,8,8
   548                        	.member	fxos_mouse_byte_1,8,14,8,8
   549                        	.member	fxos_mouse_byte_2,16,14,8,8
   550                        	.member	fxos_mouse_byte_t,24,14,8,8
   551                        	.member	fxos_mouse_byte_x_l,32,14,8,8
   552                        	.member	fxos_mouse_byte_x_h,40,14,8,8
   553                        	.member	fxos_mouse_byte_y_l,48,14,8,8
   554                        	.member	fxos_mouse_byte_y_h,56,14,8,8
   555                        	.member	fxos_key_byte_0,64,14,8,8
   556                        	.member	fxos_key_byte_1,72,14,8,8
   557                        	.member	fxos_key_byte_2,80,14,8,8
   558                        	.member	fxos_mouse_ctl,88,14,8,8
   559                        	.member	fxos_mouse_index,96,14,8,8
   560                        	.member	fxos_mouse_status,104,14,8,8
   561                        	.member	Endianness,112,16,8,16
   562                        	.member	VersionMajor,128,16,8,16
   563                        	.member	VersionMinor,144,16,8,16
   564                        	.member	VersionRelease,160,16,8,16
   565                        	.member	topMemory,176,18,8,32
   566                        	.member	bottomMemory,208,18,8,32
   567                        	.member	availableMemory,240,18,8,32
   568                        	.member	availableMemoryK,272,18,8,32
   569                        	.member	availableHeapMemory,304,18,8,32
   570                        	.member	availableHeapMemoryK,336,18,8,32
   571                        	.member	fxos_console_row,368,16,8,16
   572                        	.member	fxos_console_col,384,16,8,16
   573                        	.member	executive,400,129,8,32
   574                        	.member	eventmanager,432,129,8,32
   575                        	.member	devicemanager,464,129,8,32
   576                        	.member	windowmanager,496,129,8,32
   577                        	.member	fxos_kernel_api,528,138,8,32,53
   578                        	.member	fxos_dos_api,560,138,8,32,53
   579                        	.member	fxos_gfx_api,592,138,8,32,53
   580                        	.member	fxos_gui_api,624,138,8,32,53
   581                        	.member	fxos_con_api,656,138,8,32,53
   582                        	.member	fxos_reserved_2_api,688,138,8,32,53
   583                        	.eos
   584                        	.stag	_fx_environment,96,56
   585                        	.member	variables,0,142,8,32
  Mon Sep 27 2021  9:39                                                Page 12


   586                        	.member	reserved1,32,5,8,16
   587                        	.member	reserved2,48,5,8,16
   588                        	.member	reserved3,64,5,8,16
   589                        	.member	reserved4,80,5,8,16
   590                        	.eos
   591                        	.stag	_debug_byte_bits,8,57
   592                        	.member	bit7,0,14,17,1
   593                        	.member	bit6,1,14,17,1
   594                        	.member	bit5,2,14,17,1
   595                        	.member	bit4,3,14,17,1
   596                        	.member	bit3,4,14,17,1
   597                        	.member	bit2,5,14,17,1
   598                        	.member	bit1,6,14,17,1
   599                        	.member	bit0,7,14,17,1
   600                        	.eos
   601                        	.stag	_k_segmentheader,160,58
   602                        	.member	version_major,0,14,8,8
   603                        	.member	version_minor,8,14,8,8
   604                        	.member	length,16,5,8,16
   605                        	.member	segment_start_addr,32,7,8,32
   606                        	.member	segment_end_addr,64,7,8,32
   607                        	.member	segment_size,96,7,8,32
   608                        	.member	main_entry_addr,128,7,8,32
   609                        	.eos
   610                        	.stag	_fx_device_driver,776,59
   611                        	.member	name,0,110,8,0,32
   612                        	.member	version,256,110,8,0,16
   613                        	.member	hmajor,384,110,8,0,8
   614                        	.member	hminor,448,110,8,0,8
   615                        	.member	type,512,14,8,8
   616                        	.member	designation,520,110,8,0,6
   617                        	.member	irq_ctl,568,16,8,16
   618                        	.member	f_driver_irq,584,129,8,32
   619                        	.member	driver_context,616,129,8,32
   620                        	.member	f_driver_load,648,129,8,32
   621                        	.member	f_driver_read,680,129,8,32
   622                        	.member	f_driver_write,712,129,8,32
   623                        	.member	f_driver_unload,744,129,8,32
   624                        	.eos
   625                        	.stag	_fx_block_device_driver,808,60
   626                        	.member	name,0,110,8,0,32
   627                        	.member	version,256,110,8,0,16
   628                        	.member	hmajor,384,110,8,0,8
   629                        	.member	hminor,448,110,8,0,8
   630                        	.member	type,512,14,8,8
   631                        	.member	designation,520,110,8,0,6
   632                        	.member	irq_ctl,568,16,8,16
   633                        	.member	f_driver_irq,584,129,8,32
   634                        	.member	driver_context,616,129,8,32
   635                        	.member	f_driver_load,648,129,8,32
   636                        	.member	f_driver_read,680,129,8,32
   637                        	.member	f_driver_write,712,129,8,32
   638                        	.member	f_driver_unload,744,129,8,32
   639                        	.member	f_driver_command,776,129,8,32
   640                        	.eos
   641                        	.stag	_k_irq_chain,128,61
   642                        	.member	handlers,0,5217,8,32,4
   643                        	.eos
  Mon Sep 27 2021  9:39                                                Page 13


   644                        	.line	475
   645                        	.file	"G:\devprojects\c256Foenix\fxos\FXOSWork
                    space\FXOS-Beta\src\fxos.h",22
   646                        	.file	"G:\devprojects\c256Foenix\fxos\FXOSWork
                    space\FXOS-Beta\src\fxconsole.h",0
   647                        	.line	208
   648                        	.file	"G:\devprojects\c256Foenix\fxos\FXOSWork
                    space\FXOS-Beta\src\fxos.h",23
   649                        	.file	"G:\devprojects\c256Foenix\fxos\FXOSWork
                    space\FXOS-Beta\src\fxstring.h",0
   650                        	.line	141
   651                        	.file	"G:\devprojects\c256Foenix\fxos\FXOSWork
                    space\FXOS-Beta\src\fxos.h",24
   652                        	.file	"G:\devprojects\c256Foenix\fxos\FXOSWork
                    space\FXOS-Beta\src\fxnode.h",0
   653                        	.line	118
   654                        	.file	"G:\devprojects\c256Foenix\fxos\FXOSWork
                    space\FXOS-Beta\src\fxos.h",25
   655                        	.file	"G:\devprojects\c256Foenix\fxos\FXOSWork
                    space\FXOS-Beta\src\ff/ff.h",0
   656                        	.file	"G:\devprojects\c256Foenix\fxos\FXOSWork
                    space\FXOS-Beta\src\ff/ffconf.h",0
   657                        	.line	298
   658                        	.file	"G:\devprojects\c256Foenix\fxos\FXOSWork
                    space\FXOS-Beta\src\ff/ff.h",29
   659                        	.file	"G:\devprojects\c256Foenix\fxos\FXOSWork
                    space\FXOS-Beta\src\fxtypes.h",0
   660                        	.line	1064
   661                        	.file	"G:\devprojects\c256Foenix\fxos\FXOSWork
                    space\FXOS-Beta\src\ff/ff.h",30
   662                        	.stag	fake62_,4504,62
   663                        	.member	fs_type,0,14,8,8
   664                        	.member	pdrv,8,14,8,8
   665                        	.member	n_fats,16,14,8,8
   666                        	.member	wflag,24,14,8,8
   667                        	.member	fsi_flag,32,14,8,8
   668                        	.member	id,40,5,8,16
   669                        	.member	n_rootdir,56,5,8,16
   670                        	.member	csize,72,5,8,16
   671                        	.member	lfnbuf,88,144,8,32
   672                        	.member	last_clst,120,18,8,32
   673                        	.member	free_clst,152,18,8,32
   674                        	.member	n_fatent,184,18,8,32
   675                        	.member	fsize,216,18,8,32
   676                        	.member	volbase,248,18,8,32
   677                        	.member	fatbase,280,18,8,32
   678                        	.member	dirbase,312,18,8,32
   679                        	.member	database,344,18,8,32
   680                        	.member	winsect,376,18,8,32
   681                        	.member	win,408,110,8,0,512
   682                        	.eos
   683                        	.stag	fake63_,128,63
   684                        	.member	fs,0,138,8,32,62
   685                        	.member	id,32,5,8,16
   686                        	.member	attr,48,14,8,8
   687                        	.member	stat,56,14,8,8
   688                        	.member	sclust,64,18,8,32
   689                        	.member	objsize,96,18,8,32
  Mon Sep 27 2021  9:39                                                Page 14


   690                        	.eos
   691                        	.stag	fake64_,4400,64
   692                        	.member	obj,0,10,8,128,63
   693                        	.member	flag,128,14,8,8
   694                        	.member	err,136,14,8,8
   695                        	.member	fptr,144,18,8,32
   696                        	.member	clust,176,18,8,32
   697                        	.member	sect,208,18,8,32
   698                        	.member	dir_sect,240,18,8,32
   699                        	.member	dir_ptr,272,142,8,32
   700                        	.member	buf,304,110,8,0,512
   701                        	.eos
   702                        	.stag	fake65_,416,65
   703                        	.member	obj,0,10,8,128,63
   704                        	.member	dptr,128,18,8,32
   705                        	.member	clust,160,18,8,32
   706                        	.member	sect,192,18,8,32
   707                        	.member	dir,224,142,8,32
   708                        	.member	fn,256,110,8,0,12
   709                        	.member	blk_ofs,352,18,8,32
   710                        	.member	pat,384,142,8,32
   711                        	.eos
   712                        	.stag	fake66_,2224,66
   713                        	.member	fsize,0,18,8,32
   714                        	.member	fdate,32,5,8,16
   715                        	.member	ftime,48,5,8,16
   716                        	.member	fattrib,64,14,8,8
   717                        	.member	altname,72,110,8,0,13
   718                        	.member	fname,176,110,8,0,256
   719                        	.eos
   720                        	.stag	fake67_,80,67
   721                        	.member	fmt,0,14,8,8
   722                        	.member	n_fat,8,14,8,8
   723                        	.member	align,16,16,8,16
   724                        	.member	n_root,32,16,8,16
   725                        	.member	au_size,48,18,8,32
   726                        	.eos
   727                        	.line	429
   728                        	.file	"G:\devprojects\c256Foenix\fxos\FXOSWork
                    space\FXOS-Beta\src\fxos.h",26
   729                        	.line	30
   730                        	.file	"G:\devprojects\c256Foenix\fxos\FXOSWork
                    space\FXOS-Beta\src\fxeventmanager.h",5
   731                        	.file	"G:\devprojects\c256Foenix\fxos\FXOSWork
                    space\FXOS-Beta\src\fxexec.h",0
   732                        	.file	"G:\devprojects\c256Foenix\fxos\FXOSWork
                    space\FXOS-Beta\src\fxtypes.h",0
   733                        	.line	1064
   734                        	.file	"G:\devprojects\c256Foenix\fxos\FXOSWork
                    space\FXOS-Beta\src\fxexec.h",5
   735                        	.stag	_fxos_executive_vtable,128,68
   736                        	.member	Init,0,8833,8,32
   737                        	.member	Configure,32,656,8,32
   738                        	.member	Query,64,656,8,32
   739                        	.member	Uninit,96,641,8,32
   740                        	.eos
   741                        	.line	86
   742                        	.file	"G:\devprojects\c256Foenix\fxos\FXOSWork
  Mon Sep 27 2021  9:39                                                Page 15


                    space\FXOS-Beta\src\fxeventmanager.h",6
   743                        	.file	"G:\devprojects\c256Foenix\fxos\FXOSWork
                    space\FXOS-Beta\src\fxnode.h",0
   744                        	.line	118
   745                        	.file	"G:\devprojects\c256Foenix\fxos\FXOSWork
                    space\FXOS-Beta\src\fxeventmanager.h",7
   746                        	.file	"G:\devprojects\c256Foenix\fxos\FXOSWork
                    space\FXOS-Beta\src\fxconsole.h",0
   747                        	.line	208
   748                        	.file	"G:\devprojects\c256Foenix\fxos\FXOSWork
                    space\FXOS-Beta\src\fxeventmanager.h",8
   749                        	.file	"G:\devprojects\c256Foenix\fxos\FXOSWork
                    space\FXOS-Beta\src\fxwindowmanager.h",0
   750                        	.file	"G:\devprojects\c256Foenix\fxos\FXOSWork
                    space\FXOS-Beta\src\fxos.h",0
   751                        	.line	30
   752                        	.file	"G:\devprojects\c256Foenix\fxos\FXOSWork
                    space\FXOS-Beta\src\fxwindowmanager.h",5
   753                        	.file	"G:\devprojects\c256Foenix\fxos\FXOSWork
                    space\FXOS-Beta\src\fxmemorymanager.h",0
   754                        	.file	"G:\devprojects\c256Foenix\fxos\FXOSWork
                    space\FXOS-Beta\src\fxos.h",0
   755                        	.line	30
   756                        	.file	"G:\devprojects\c256Foenix\fxos\FXOSWork
                    space\FXOS-Beta\src\fxmemorymanager.h",5
   757                        	.file	"G:\devprojects\c256Foenix\fxos\FXOSWork
                    space\FXOS-Beta\src\umm_malloc_cfg.h",0
   758                        	.file	"G:\devprojects\c256Foenix\fxos\FXOSWork
                    space\FXOS-Beta\src\fxos_build_parameters.h",0
   759                        	.line	35
   760                        	.file	"G:\devprojects\c256Foenix\fxos\FXOSWork
                    space\FXOS-Beta\src\umm_malloc_cfg.h",8
   761                        	.stag	UMM_HEAP_INFO_t,256,69
   762                        	.member	totalEntries,0,18,8,32
   763                        	.member	usedEntries,32,18,8,32
   764                        	.member	freeEntries,64,18,8,32
   765                        	.member	totalBlocks,96,18,8,32
   766                        	.member	usedBlocks,128,18,8,32
   767                        	.member	freeBlocks,160,18,8,32
   768                        	.member	maxFreeContiguousBlocks,192,18,8,32
   769                        	.member	blockSize,224,18,8,32
   770                        	.eos
   771                        	.line	199
   772                        	.file	"G:\devprojects\c256Foenix\fxos\FXOSWork
                    space\FXOS-Beta\src\fxmemorymanager.h",6
   773                        	.file	"G:\devprojects\c256Foenix\fxos\FXOSWork
                    space\FXOS-Beta\src\umm_malloc.h",0
   774                        	.file	"G:\devprojects\c256Foenix\fxos\FXOSWork
                    space\FXOS-Beta\src\fxtypes.h",0
   775                        	.line	1064
   776                        	.file	"G:\devprojects\c256Foenix\fxos\FXOSWork
                    space\FXOS-Beta\src\umm_malloc.h",11
   777                        	.line	24
   778                        	.file	"G:\devprojects\c256Foenix\fxos\FXOSWork
                    space\FXOS-Beta\src\fxmemorymanager.h",7
   779                        	.stag	_fx_memory_map,2072,70
   780                        	.member	availableMemory,0,18,8,32
   781                        	.member	valid_segments,32,110,8,0,255
  Mon Sep 27 2021  9:39                                                Page 16


   782                        	.eos
   783                        	.stag	_fx_ipc_port,144,71
   784                        	.member	id,0,18,8,32
   785                        	.member	type,32,14,8,8
   786                        	.member	name,40,138,8,32,52
   787                        	.member	time,72,18,8,32
   788                        	.member	queue,104,138,8,32,7
   789                        	.member	reserved_1,136,14,8,8
   790                        	.eos
   791                        	.stag	_k_mem_alloc_header,80,72
   792                        	.member	user,0,14,8,8
   793                        	.member	attr,8,14,8,8
   794                        	.member	size,16,18,8,32
   795                        	.member	virtual,48,129,8,32
   796                        	.eos
   797                        	.line	129
   798                        	.file	"G:\devprojects\c256Foenix\fxos\FXOSWork
                    space\FXOS-Beta\src\fxwindowmanager.h",6
   799                        	.file	"G:\devprojects\c256Foenix\fxos\FXOSWork
                    space\FXOS-Beta\src\fxeventmanager.h",0
   800                        	.line	572
   801                        	.file	"G:\devprojects\c256Foenix\fxos\FXOSWork
                    space\FXOS-Beta\src\fxwindowmanager.h",7
   802                        	.file	"G:\devprojects\c256Foenix\fxos\FXOSWork
                    space\FXOS-Beta\src\fxgfx.h",0
   803                        	.file	"G:\devprojects\c256Foenix\fxos\FXOSWork
                    space\FXOS-Beta\src\fxfont.h",0
   804                        	.file	"G:\devprojects\c256Foenix\fxos\FXOSWork
                    space\FXOS-Beta\src\fxtypes.h",0
   805                        	.line	1064
   806                        	.file	"G:\devprojects\c256Foenix\fxos\FXOSWork
                    space\FXOS-Beta\src\fxfont.h",6
   807                        	.line	74
   808                        	.file	"G:\devprojects\c256Foenix\fxos\FXOSWork
                    space\FXOS-Beta\src\fxgfx.h",5
   809                        	.stag	_click_detected,64,73
   810                        	.member	window,0,138,8,32,33
   811                        	.member	handler,32,641,8,32
   812                        	.eos
   813                        	.stag	_current_palette_map,400,74
   814                        	.member	CUR_DESKTOP,0,5,8,16
   815                        	.member	CUR_BACKGROUND,16,5,8,16
   816                        	.member	CUR_FONT,32,5,8,16
   817                        	.member	CUR_SELECTED_FONT,48,5,8,16
   818                        	.member	CUR_HIGHLIGHT_COLOR,64,5,8,16
   819                        	.member	CUR_WINDOWFRAME,80,5,8,16
   820                        	.member	CUR_WINDOWBORDER,96,5,8,16
   821                        	.member	CUR_WINDOWSHADOW,112,5,8,16
   822                        	.member	CUR_MENU,128,5,8,16
   823                        	.member	CUR_GADGET,144,5,8,16
   824                        	.member	CUR_COLOR,160,101,8,0,15
   825                        	.eos
   826                        	.line	370
   827                        	.file	"G:\devprojects\c256Foenix\fxos\FXOSWork
                    space\FXOS-Beta\src\fxwindowmanager.h",8
   828                        	.stag	_fxos_winman_vtable,160,75
   829                        	.member	Events,0,641,8,32
   830                        	.member	ConfigureWindowManager,32,656,8,32
  Mon Sep 27 2021  9:39                                                Page 17


   831                        	.member	ProcessWindowEvent,64,8833,8,32
   832                        	.member	QueryWindowManager,96,656,8,32
   833                        	.member	DoWndProcs,128,641,8,32
   834                        	.eos
   835                        	.stag	fake76_,64,76
   836                        	.member	type,0,16,8,16
   837                        	.member	size,16,16,8,16
   838                        	.member	desktopAction,32,129,8,32
   839                        	.eos
   840                        	.stag	fake77_,96,77
   841                        	.member	type,0,16,8,16
   842                        	.member	caption,16,138,8,32,52
   843                        	.member	buttonType,48,16,8,16
   844                        	.member	x,64,5,8,16
   845                        	.member	y,80,5,8,16
   846                        	.eos
   847                        	.stag	_childMessage_t,64,78
   848                        	.member	msgType,0,16,8,16
   849                        	.member	msgData,16,129,8,32
   850                        	.member	dataSize,48,16,8,16
   851                        	.eos
   852                        	.line	594
   853                        	.file	"G:\devprojects\c256Foenix\fxos\FXOSWork
                    space\FXOS-Beta\src\fxeventmanager.h",9
   854                        	.stag	_fx_main_loopvars,16,79
   855                        	.member	dummy,0,5,8,16
   856                        	.eos
   857                        	.stag	_fxMouseMessageData,64,80
   858                        	.member	button1,0,14,8,8
   859                        	.member	button2,8,14,8,8
   860                        	.member	button3,16,14,8,8
   861                        	.member	button4,24,14,8,8
   862                        	.member	x,32,16,8,16
   863                        	.member	y,48,16,8,16
   864                        	.eos
   865                        	.utag	marshalled_data,32,81
   866                        	.member	byteValue,0,14,11,8
   867                        	.member	verbValue,0,110,11,0,2
   868                        	.member	intValue,0,16,11,16
   869                        	.member	longValue,0,18,11,32
   870                        	.member	pointerValue,0,129,11,32
   871                        	.eos
   872                        	.stag	_fx_eventProcess,64,82
   873                        	.member	process,0,138,8,32,20
   874                        	.member	eventProc,32,641,8,32
   875                        	.eos
   876                        	.stag	_mouse_msg_state,184,83
   877                        	.member	lastEvent,0,18,8,32
   878                        	.member	buttonLeftDown,32,14,8,8
   879                        	.member	lastLeftDown,40,18,8,32
   880                        	.member	buttonRightDown,72,14,8,8
   881                        	.member	lastRightDown,80,18,8,32
   882                        	.member	buttonMiddleDown,112,14,8,8
   883                        	.member	lastMiddleDown,120,18,8,32
   884                        	.member	lastX,152,16,8,16
   885                        	.member	lastY,168,16,8,16
   886                        	.eos
   887                        	.stag	_fxos_eventmanager_vtable,192,84
  Mon Sep 27 2021  9:39                                                Page 18


   888                        	.member	EventQueue,0,138,8,32,7
   889                        	.member	Init,32,8833,8,32
   890                        	.member	Run,64,656,8,32
   891                        	.member	Configure,96,656,8,32
   892                        	.member	Query,128,656,8,32
   893                        	.member	Uninit,160,641,8,32
   894                        	.eos
   895                        	.stag	_k_clipboard_data,168,85
   896                        	.member	type,0,14,8,8
   897                        	.member	readable,8,110,8,0,16
   898                        	.member	data,136,129,8,32
   899                        	.eos
   900                        	.line	572
   901                        	.file	"G:\devprojects\c256Foenix\fxos\FXOSWork
                    space\FXOS-Beta\src\fxconsole.h",18
   902                        	.stag	_fx_spinner_ctx,48,86
   903                        	.member	index,0,5,8,16
   904                        	.member	spinner,16,142,8,32
   905                        	.eos
   906                        	.stag	_fx_console_ctx,1144,87
   907                        	.member	lineBufferIndex,0,5,8,16
   908                        	.member	lineBuffer,16,110,8,0,128
   909                        	.member	isShifted,1040,14,8,8
   910                        	.member	userData,1048,129,8,32
   911                        	.member	screenBuffer,1080,129,8,32
   912                        	.member	Reserved1,1112,129,8,32
   913                        	.eos
   914                        	.stag	_token,64,88
   915                        	.member	type,0,5,8,16
   916                        	.member	depth,16,16,8,16
   917                        	.member	text,32,142,8,32
   918                        	.eos
   919                        	.stag	_command_args,64,89
   920                        	.member	proc,0,656,8,32
   921                        	.member	tokens,32,138,8,32,5
   922                        	.eos
   923                        	.line	208
   924                        	.file	"G:\devprojects\c256Foenix\fxos\FXOSWork
                    space\FXOS-Beta\src\fxcon_cmd.c",2
   925                        ;#include "fxdos.h"
   926                        	.file	"G:\devprojects\c256Foenix\fxos\FXOSWork
                    space\FXOS-Beta\src\fxdos.h",0
   927                        	.file	"G:\devprojects\c256Foenix\fxos\FXOSWork
                    space\FXOS-Beta\src\fxtypes.h",0
   928                        	.line	1064
   929                        	.file	"G:\devprojects\c256Foenix\fxos\FXOSWork
                    space\FXOS-Beta\src\fxdos.h",5
   930                        	.file	"G:\devprojects\c256Foenix\fxos\FXOSWork
                    space\FXOS-Beta\src\ff/ff.h",0
   931                        	.line	429
   932                        	.file	"G:\devprojects\c256Foenix\fxos\FXOSWork
                    space\FXOS-Beta\src\fxdos.h",6
   933                        	.file	"G:\devprojects\c256Foenix\fxos\FXOSWork
                    space\FXOS-Beta\src\diskio.h",0
   934                        	.line	85
   935                        	.file	"G:\devprojects\c256Foenix\fxos\FXOSWork
                    space\FXOS-Beta\src\fxdos.h",7
   936                        	.stag	_fx_sd_direntry,256,90
  Mon Sep 27 2021  9:39                                                Page 19


   937                        	.member	filename,0,110,8,0,11
   938                        	.member	type,88,14,8,8
   939                        	.member	attrs,96,110,8,0,20
   940                        	.eos
   941                        	.stag	_fx_info,416,91
   942                        	.member	stgName,0,110,8,0,32
   943                        	.member	Reserved1,256,14,8,8
   944                        	.member	stgType,264,16,8,16
   945                        	.member	Reserved2,280,14,8,8
   946                        	.member	stgReserved,288,110,8,0,16
   947                        	.eos
   948                        	.stag	_fx_fileinfo,136,92
   949                        	.member	type,0,14,8,8
   950                        	.member	pFilename,8,142,8,32
   951                        	.member	lSize,40,18,8,32
   952                        	.member	lcreateDate,72,18,8,32
   953                        	.member	lchangeDate,104,18,8,32
   954                        	.eos
   955                        	.stag	_FX_FAT_DIR_INFO,256,93
   956                        	.member	DIR_Name,0,110,8,0,11
   957                        	.member	DIR_Attr,88,14,8,8
   958                        	.member	DIR_NTRes,96,14,8,8
   959                        	.member	DIR_CrtTimeTenth,104,14,8,8
   960                        	.member	DIR_CrtTime,112,16,8,16
   961                        	.member	DIR_CrtDate,128,16,8,16
   962                        	.member	DIR_LstAccDate,144,16,8,16
   963                        	.member	DIR_FstClusHI,160,16,8,16
   964                        	.member	DIR_WrtTime,176,16,8,16
   965                        	.member	DIR_WrtDate,192,16,8,16
   966                        	.member	DIR_FstClusLO,208,16,8,16
   967                        	.member	DIR_FileSize,224,18,8,32
   968                        	.eos
   969                        	.stag	fat_extBS_32,416,94
   970                        	.member	table_size_32,0,18,8,32
   971                        	.member	extended_flags,32,16,8,16
   972                        	.member	fat_version,48,16,8,16
   973                        	.member	root_cluster,64,18,8,32
   974                        	.member	fat_info,96,16,8,16
   975                        	.member	backup_BS_sector,112,16,8,16
   976                        	.member	reserved_0,128,110,8,0,12
   977                        	.member	drive_number,224,14,8,8
   978                        	.member	reserved_1,232,14,8,8
   979                        	.member	boot_signature,240,14,8,8
   980                        	.member	volume_id,248,16,8,16
   981                        	.member	volume_label,264,110,8,0,11
   982                        	.member	fat_type_label,352,110,8,0,8
   983                        	.eos
   984                        	.stag	fat_extBS_16,192,95
   985                        	.member	bios_drive_num,0,14,8,8
   986                        	.member	reserved1,8,14,8,8
   987                        	.member	boot_signature,16,14,8,8
   988                        	.member	volume_id,24,16,8,16
   989                        	.member	volume_label,40,110,8,0,11
   990                        	.member	fat_type_label,128,110,8,0,8
   991                        	.eos
   992                        	.stag	fat_BS,688,96
   993                        	.member	bootjmp,0,110,8,0,3
   994                        	.member	oem_name,24,110,8,0,8
  Mon Sep 27 2021  9:39                                                Page 20


   995                        	.member	bytes_per_sector,88,16,8,16
   996                        	.member	sectors_per_cluster,104,14,8,8
   997                        	.member	reserved_sector_count,112,16,8,16
   998                        	.member	table_count,128,14,8,8
   999                        	.member	root_entry_count,136,16,8,16
  1000                        	.member	total_sectors_16,152,16,8,16
  1001                        	.member	media_type,168,14,8,8
  1002                        	.member	table_size_16,176,16,8,16
  1003                        	.member	sectors_per_track,192,16,8,16
  1004                        	.member	head_side_count,208,16,8,16
  1005                        	.member	hidden_sector_count,224,16,8,16
  1006                        	.member	total_sectors_32,240,16,8,16
  1007                        	.member	extended_section,256,110,8,0,54
  1008                        	.eos
  1009                        	.stag	__FATBootSector,928,97
  1010                        	.member	bootjmp,0,110,8,0,3
  1011                        	.member	oem_name,24,110,8,0,8
  1012                        	.member	bytes_per_sector,88,16,8,16
  1013                        	.member	sectors_per_cluster,104,14,8,8
  1014                        	.member	reserved_sector_count,112,16,8,16
  1015                        	.member	fat_table_count,128,14,8,8
  1016                        	.member	root_entry_count,136,16,8,16
  1017                        	.member	total_sectors_16,152,16,8,16
  1018                        	.member	media_type,168,14,8,8
  1019                        	.member	sectors_per_fat,176,16,8,16
  1020                        	.member	sectors_per_track,192,16,8,16
  1021                        	.member	head_side_count,208,16,8,16
  1022                        	.member	hidden_sector_count,224,18,8,32
  1023                        	.member	total_sectors_32,256,18,8,32
  1024                        	.member	drive_number,288,14,8,8
  1025                        	.member	reserved1,296,14,8,8
  1026                        	.member	boot_sig,304,14,8,8
  1027                        	.member	vol_id,312,18,8,32
  1028                        	.member	vol_name,344,110,8,0,11
  1029                        	.member	file_system_type,432,110,8,0,8
  1030                        	.member	extended_section,496,110,8,0,54
  1031                        	.eos
  1032                        	.stag	__PARTITIONTABLE,128,98
  1033                        	.member	first_byte,0,14,8,8
  1034                        	.member	start_chs,8,110,8,0,3
  1035                        	.member	partition_type,32,14,8,8
  1036                        	.member	end_chs,40,110,8,0,3
  1037                        	.member	start_sector,64,18,8,32
  1038                        	.member	length_sectors,96,18,8,32
  1039                        	.eos
  1040                        	.stag	fake99_,4096,99
  1041                        	.member	jmp,0,110,8,0,3
  1042                        	.member	oem,24,110,8,0,8
  1043                        	.member	sector_size,88,15,8,16
  1044                        	.member	sectors_per_cluster,104,14,8,8
  1045                        	.member	reserved_sectors,112,15,8,16
  1046                        	.member	number_ok_dos_fats,128,14,8,8
  1047                        	.member	root_dir_entries,136,15,8,16
  1048                        	.member	total_sectors_short,152,15,8,16
  1049                        	.member	media_descriptor,168,14,8,8
  1050                        	.member	fat_size_sectors,176,15,8,16
  1051                        	.member	sectors_per_track,192,15,8,16
  1052                        	.member	number_ok_dos_heads,208,15,8,16
  Mon Sep 27 2021  9:39                                                Page 21


  1053                        	.member	hidden_sectors,224,18,8,32
  1054                        	.member	total_sectors_long,256,18,8,32
  1055                        	.member	drive_number,288,14,8,8
  1056                        	.member	current_head,296,14,8,8
  1057                        	.member	boot_signature,304,14,8,8
  1058                        	.member	volume_id,312,18,8,32
  1059                        	.member	volume_label,344,110,8,0,11
  1060                        	.member	fs_type,432,110,8,0,8
  1061                        	.member	boot_code,496,110,8,0,448
  1062                        	.member	boot_sector_signature,4080,15,8,16
  1063                        	.eos
  1064                        	.stag	__FAT16ENTRY,256,100
  1065                        	.member	filename,0,110,8,0,8
  1066                        	.member	ext,64,110,8,0,3
  1067                        	.member	attributes,88,14,8,8
  1068                        	.member	reserved,96,110,8,0,10
  1069                        	.member	modify_time,176,16,8,16
  1070                        	.member	modify_date,192,16,8,16
  1071                        	.member	starting_cluster,208,16,8,16
  1072                        	.member	file_size,224,18,8,32
  1073                        	.eos
  1074                        	.stag	__FAT16ENTRYLONG,288,101
  1075                        	.member	filename,0,110,8,0,8
  1076                        	.member	ext,64,110,8,0,3
  1077                        	.member	attributes,88,14,8,8
  1078                        	.member	reserved,96,110,8,0,10
  1079                        	.member	modify_time,176,16,8,16
  1080                        	.member	modify_date,192,16,8,16
  1081                        	.member	starting_cluster,208,16,8,16
  1082                        	.member	file_size,224,18,8,32
  1083                        	.member	plongfileName,256,142,8,32
  1084                        	.eos
  1085                        	.stag	_LongFileName,256,102
  1086                        	.member	sequenceNo,0,14,8,8
  1087                        	.member	fileName_Part1,8,110,8,0,10
  1088                        	.member	fileattribute,88,14,8,8
  1089                        	.member	type,96,14,8,8
  1090                        	.member	checksum,104,14,8,8
  1091                        	.member	fileName_Part2,112,110,8,0,12
  1092                        	.member	fstclusLO,208,5,8,16
  1093                        	.member	fileName_Part3,224,110,8,0,4
  1094                        	.eos
  1095                        	.stag	_IDSECTOR,2048,103
  1096                        	.member	wGenConfig,0,16,8,16
  1097                        	.member	wNumCyls,16,16,8,16
  1098                        	.member	wReserved,32,16,8,16
  1099                        	.member	wNumHeads,48,16,8,16
  1100                        	.member	wBytesPerTrack,64,16,8,16
  1101                        	.member	wBytesPerSector,80,16,8,16
  1102                        	.member	wSectorsPerTrack,96,16,8,16
  1103                        	.member	wVendorUnique,112,112,8,0,3
  1104                        	.member	sSerialNumber,160,110,8,0,20
  1105                        	.member	wBufferType,320,16,8,16
  1106                        	.member	wBufferSize,336,16,8,16
  1107                        	.member	wECCSize,352,16,8,16
  1108                        	.member	sFirmwareRev,368,110,8,0,8
  1109                        	.member	sModelNumber,432,110,8,0,40
  1110                        	.member	wMoreVendorUnique,752,16,8,16
  Mon Sep 27 2021  9:39                                                Page 22


  1111                        	.member	wDoubleWordIO,768,16,8,16
  1112                        	.member	wCapabilities,784,16,8,16
  1113                        	.member	wReserved1,800,16,8,16
  1114                        	.member	wPIOTiming,816,16,8,16
  1115                        	.member	wDMATiming,832,16,8,16
  1116                        	.member	wBS,848,16,8,16
  1117                        	.member	wNumCurrentCyls,864,16,8,16
  1118                        	.member	wNumCurrentHeads,880,16,8,16
  1119                        	.member	wNumCurrentSectorsPerTrack,896,16,8,16
  1120                        	.member	ulCurrentSectorCapacity,912,18,8,32
  1121                        	.member	wMultSectorStuff,944,16,8,16
  1122                        	.member	ulTotalAddressableSectors,960,18,8,32
  1123                        	.member	wSingleWordDMA,992,16,8,16
  1124                        	.member	wMultiWordDMA,1008,16,8,16
  1125                        	.member	bReserved,1024,110,8,0,128
  1126                        	.eos
  1127                        	.stag	fake104_,16,104
  1128                        	.member	Reserved1,0,16,17,1
  1129                        	.member	Retired3,1,16,17,1
  1130                        	.member	ResponseIncomplete,2,16,17,1
  1131                        	.member	Retired2,3,16,17,3
  1132                        	.member	FixedDevice,6,16,17,1
  1133                        	.member	RemovableMedia,7,16,17,1
  1134                        	.member	Retired1,8,16,17,7
  1135                        	.member	DeviceType,15,16,17,1
  1136                        	.eos
  1137                        	.stag	fake105_,16,105
  1138                        	.member	FeatureSupported,0,16,17,1
  1139                        	.member	Reserved,1,16,17,15
  1140                        	.eos
  1141                        	.stag	fake106_,32,106
  1142                        	.member	CurrentLongPhysicalSectorAlignment,0,14,
                    17,2
  1143                        	.member	ReservedByte49,2,14,17,6
  1144                        	.member	DmaSupported,8,14,17,1
  1145                        	.member	LbaSupported,9,14,17,1
  1146                        	.member	IordyDisable,10,14,17,1
  1147                        	.member	IordySupported,11,14,17,1
  1148                        	.member	Reserved1,12,14,17,1
  1149                        	.member	StandybyTimerSupport,13,14,17,1
  1150                        	.member	Reserved2,14,14,17,2
  1151                        	.member	ReservedWord50,16,16,8,16
  1152                        	.eos
  1153                        	.stag	fake107_,16,107
  1154                        	.member	ZonedCapabilities,0,16,17,2
  1155                        	.member	NonVolatileWriteCache,2,16,17,1
  1156                        	.member	ExtendedUserAddressableSectorsSupported,
                    3,16,17,1
  1157                        	.member	DeviceEncryptsAllUserData,4,16,17,1
  1158                        	.member	ReadZeroAfterTrimSupported,5,16,17,1
  1159                        	.member	Optional28BitCommandsSupported,6,16,17,1
  1160                        	.member	IEEE1667,7,16,17,1
  1161                        	.member	DownloadMicrocodeDmaSupported,8,16,17,1
  1162                        	.member	SetMaxSetPasswordUnlockDmaSupported,9,16
                    ,17,1
  1163                        	.member	WriteBufferDmaSupported,10,16,17,1
  1164                        	.member	ReadBufferDmaSupported,11,16,17,1
  1165                        	.member	DeviceConfigIdentifySetDmaSupported,12,1
  Mon Sep 27 2021  9:39                                                Page 23


                    6,17,1
  1166                        	.member	LPSAERCSupported,13,16,17,1
  1167                        	.member	DeterministicReadAfterTrimSupported,14,1
                    6,17,1
  1168                        	.member	CFastSpecSupported,15,16,17,1
  1169                        	.eos
  1170                        	.stag	fake108_,32,108
  1171                        	.member	Reserved0,0,16,17,1
  1172                        	.member	SataGen1,1,16,17,1
  1173                        	.member	SataGen2,2,16,17,1
  1174                        	.member	SataGen3,3,16,17,1
  1175                        	.member	Reserved1,4,16,17,4
  1176                        	.member	NCQ,8,16,17,1
  1177                        	.member	HIPM,9,16,17,1
  1178                        	.member	PhyEvents,10,16,17,1
  1179                        	.member	NcqUnload,11,16,17,1
  1180                        	.member	NcqPriority,12,16,17,1
  1181                        	.member	HostAutoPS,13,16,17,1
  1182                        	.member	DeviceAutoPS,14,16,17,1
  1183                        	.member	ReadLogDMA,15,16,17,1
  1184                        	.member	Reserved2,16,16,17,1
  1185                        	.member	CurrentSpeed,17,16,17,3
  1186                        	.member	NcqStreaming,20,16,17,1
  1187                        	.member	NcqQueueMgmt,21,16,17,1
  1188                        	.member	NcqReceiveSend,22,16,17,1
  1189                        	.member	DEVSLPtoReducedPwrState,23,16,17,1
  1190                        	.member	Reserved3,24,16,17,8
  1191                        	.eos
  1192                        	.stag	fake109_,16,109
  1193                        	.member	Reserved0,0,16,17,1
  1194                        	.member	NonZeroOffsets,1,16,17,1
  1195                        	.member	DmaSetupAutoActivate,2,16,17,1
  1196                        	.member	DIPM,3,16,17,1
  1197                        	.member	InOrderData,4,16,17,1
  1198                        	.member	HardwareFeatureControl,5,16,17,1
  1199                        	.member	SoftwareSettingsPreservation,6,16,17,1
  1200                        	.member	NCQAutosense,7,16,17,1
  1201                        	.member	DEVSLP,8,16,17,1
  1202                        	.member	HybridInformation,9,16,17,1
  1203                        	.member	Reserved1,10,16,17,6
  1204                        	.eos
  1205                        	.stag	fake110_,16,110
  1206                        	.member	Reserved0,0,16,17,1
  1207                        	.member	NonZeroOffsets,1,16,17,1
  1208                        	.member	DmaSetupAutoActivate,2,16,17,1
  1209                        	.member	DIPM,3,16,17,1
  1210                        	.member	InOrderData,4,16,17,1
  1211                        	.member	HardwareFeatureControl,5,16,17,1
  1212                        	.member	SoftwareSettingsPreservation,6,16,17,1
  1213                        	.member	DeviceAutoPS,7,16,17,1
  1214                        	.member	DEVSLP,8,16,17,1
  1215                        	.member	HybridInformation,9,16,17,1
  1216                        	.member	Reserved1,10,16,17,6
  1217                        	.eos
  1218                        	.stag	fake111_,48,111
  1219                        	.member	SmartCommands,0,16,17,1
  1220                        	.member	SecurityMode,1,16,17,1
  1221                        	.member	RemovableMediaFeature,2,16,17,1
  Mon Sep 27 2021  9:39                                                Page 24


  1222                        	.member	PowerManagement,3,16,17,1
  1223                        	.member	Reserved1,4,16,17,1
  1224                        	.member	WriteCache,5,16,17,1
  1225                        	.member	LookAhead,6,16,17,1
  1226                        	.member	ReleaseInterrupt,7,16,17,1
  1227                        	.member	ServiceInterrupt,8,16,17,1
  1228                        	.member	DeviceReset,9,16,17,1
  1229                        	.member	HostProtectedArea,10,16,17,1
  1230                        	.member	Obsolete1,11,16,17,1
  1231                        	.member	WriteBuffer,12,16,17,1
  1232                        	.member	ReadBuffer,13,16,17,1
  1233                        	.member	Nop,14,16,17,1
  1234                        	.member	Obsolete2,15,16,17,1
  1235                        	.member	DownloadMicrocode,16,16,17,1
  1236                        	.member	DmaQueued,17,16,17,1
  1237                        	.member	Cfa,18,16,17,1
  1238                        	.member	AdvancedPm,19,16,17,1
  1239                        	.member	Msn,20,16,17,1
  1240                        	.member	PowerUpInStandby,21,16,17,1
  1241                        	.member	ManualPowerUp,22,16,17,1
  1242                        	.member	Reserved2,23,16,17,1
  1243                        	.member	SetMax,24,16,17,1
  1244                        	.member	Acoustics,25,16,17,1
  1245                        	.member	BigLba,26,16,17,1
  1246                        	.member	DeviceConfigOverlay,27,16,17,1
  1247                        	.member	FlushCache,28,16,17,1
  1248                        	.member	FlushCacheExt,29,16,17,1
  1249                        	.member	WordValid83,30,16,17,2
  1250                        	.member	SmartErrorLog,32,16,17,1
  1251                        	.member	SmartSelfTest,33,16,17,1
  1252                        	.member	MediaSerialNumber,34,16,17,1
  1253                        	.member	MediaCardPassThrough,35,16,17,1
  1254                        	.member	StreamingFeature,36,16,17,1
  1255                        	.member	GpLogging,37,16,17,1
  1256                        	.member	WriteFua,38,16,17,1
  1257                        	.member	WriteQueuedFua,39,16,17,1
  1258                        	.member	WWN64Bit,40,16,17,1
  1259                        	.member	URGReadStream,41,16,17,1
  1260                        	.member	URGWriteStream,42,16,17,1
  1261                        	.member	ReservedForTechReport,43,16,17,2
  1262                        	.member	IdleWithUnloadFeature,45,16,17,1
  1263                        	.member	WordValid,46,16,17,2
  1264                        	.eos
  1265                        	.stag	fake112_,48,112
  1266                        	.member	SmartCommands,0,16,17,1
  1267                        	.member	SecurityMode,1,16,17,1
  1268                        	.member	RemovableMediaFeature,2,16,17,1
  1269                        	.member	PowerManagement,3,16,17,1
  1270                        	.member	Reserved1,4,16,17,1
  1271                        	.member	WriteCache,5,16,17,1
  1272                        	.member	LookAhead,6,16,17,1
  1273                        	.member	ReleaseInterrupt,7,16,17,1
  1274                        	.member	ServiceInterrupt,8,16,17,1
  1275                        	.member	DeviceReset,9,16,17,1
  1276                        	.member	HostProtectedArea,10,16,17,1
  1277                        	.member	Obsolete1,11,16,17,1
  1278                        	.member	WriteBuffer,12,16,17,1
  1279                        	.member	ReadBuffer,13,16,17,1
  Mon Sep 27 2021  9:39                                                Page 25


  1280                        	.member	Nop,14,16,17,1
  1281                        	.member	Obsolete2,15,16,17,1
  1282                        	.member	DownloadMicrocode,16,16,17,1
  1283                        	.member	DmaQueued,17,16,17,1
  1284                        	.member	Cfa,18,16,17,1
  1285                        	.member	AdvancedPm,19,16,17,1
  1286                        	.member	Msn,20,16,17,1
  1287                        	.member	PowerUpInStandby,21,16,17,1
  1288                        	.member	ManualPowerUp,22,16,17,1
  1289                        	.member	Reserved2,23,16,17,1
  1290                        	.member	SetMax,24,16,17,1
  1291                        	.member	Acoustics,25,16,17,1
  1292                        	.member	BigLba,26,16,17,1
  1293                        	.member	DeviceConfigOverlay,27,16,17,1
  1294                        	.member	FlushCache,28,16,17,1
  1295                        	.member	FlushCacheExt,29,16,17,1
  1296                        	.member	Resrved3,30,16,17,1
  1297                        	.member	Words119_120Valid,31,16,17,1
  1298                        	.member	SmartErrorLog,32,16,17,1
  1299                        	.member	SmartSelfTest,33,16,17,1
  1300                        	.member	MediaSerialNumber,34,16,17,1
  1301                        	.member	MediaCardPassThrough,35,16,17,1
  1302                        	.member	StreamingFeature,36,16,17,1
  1303                        	.member	GpLogging,37,16,17,1
  1304                        	.member	WriteFua,38,16,17,1
  1305                        	.member	WriteQueuedFua,39,16,17,1
  1306                        	.member	WWN64Bit,40,16,17,1
  1307                        	.member	URGReadStream,41,16,17,1
  1308                        	.member	URGWriteStream,42,16,17,1
  1309                        	.member	ReservedForTechReport,43,16,17,2
  1310                        	.member	IdleWithUnloadFeature,45,16,17,1
  1311                        	.member	Reserved4,46,16,17,2
  1312                        	.eos
  1313                        	.stag	fake113_,16,113
  1314                        	.member	TimeRequired,0,16,17,15
  1315                        	.member	ExtendedTimeReported,15,16,17,1
  1316                        	.eos
  1317                        	.stag	fake114_,16,114
  1318                        	.member	TimeRequired,0,16,17,15
  1319                        	.member	ExtendedTimeReported,15,16,17,1
  1320                        	.eos
  1321                        	.stag	fake115_,16,115
  1322                        	.member	LogicalSectorsPerPhysicalSector,0,16,17,
                    4
  1323                        	.member	Reserved0,4,16,17,8
  1324                        	.member	LogicalSectorLongerThan256Words,12,16,17
                    ,1
  1325                        	.member	MultipleLogicalSectorsPerPhysicalSector,
                    13,16,17,1
  1326                        	.member	Reserved1,14,16,17,2
  1327                        	.eos
  1328                        	.stag	fake116_,16,116
  1329                        	.member	ReservedForDrqTechnicalReport,0,16,17,1
  1330                        	.member	WriteReadVerify,1,16,17,1
  1331                        	.member	WriteUncorrectableExt,2,16,17,1
  1332                        	.member	ReadWriteLogDmaExt,3,16,17,1
  1333                        	.member	DownloadMicrocodeMode3,4,16,17,1
  1334                        	.member	FreefallControl,5,16,17,1
  Mon Sep 27 2021  9:39                                                Page 26


  1335                        	.member	SenseDataReporting,6,16,17,1
  1336                        	.member	ExtendedPowerConditions,7,16,17,1
  1337                        	.member	Reserved0,8,16,17,6
  1338                        	.member	WordValid,14,16,17,2
  1339                        	.eos
  1340                        	.stag	fake117_,16,117
  1341                        	.member	ReservedForDrqTechnicalReport,0,16,17,1
  1342                        	.member	WriteReadVerify,1,16,17,1
  1343                        	.member	WriteUncorrectableExt,2,16,17,1
  1344                        	.member	ReadWriteLogDmaExt,3,16,17,1
  1345                        	.member	DownloadMicrocodeMode3,4,16,17,1
  1346                        	.member	FreefallControl,5,16,17,1
  1347                        	.member	SenseDataReporting,6,16,17,1
  1348                        	.member	ExtendedPowerConditions,7,16,17,1
  1349                        	.member	Reserved0,8,16,17,6
  1350                        	.member	Reserved1,14,16,17,2
  1351                        	.eos
  1352                        	.stag	fake118_,16,118
  1353                        	.member	SecuritySupported,0,16,17,1
  1354                        	.member	SecurityEnabled,1,16,17,1
  1355                        	.member	SecurityLocked,2,16,17,1
  1356                        	.member	SecurityFrozen,3,16,17,1
  1357                        	.member	SecurityCountExpired,4,16,17,1
  1358                        	.member	EnhancedSecurityEraseSupported,5,16,17,1
  1359                        	.member	Reserved0,6,16,17,2
  1360                        	.member	SecurityLevel,8,16,17,1
  1361                        	.member	Reserved1,9,16,17,7
  1362                        	.eos
  1363                        	.stag	fake119_,16,119
  1364                        	.member	MaximumCurrentInMA,0,16,17,12
  1365                        	.member	CfaPowerMode1Disabled,12,16,17,1
  1366                        	.member	CfaPowerMode1Required,13,16,17,1
  1367                        	.member	Reserved0,14,16,17,1
  1368                        	.member	Word160Supported,15,16,17,1
  1369                        	.eos
  1370                        	.stag	fake120_,16,120
  1371                        	.member	SupportsTrim,0,16,17,1
  1372                        	.member	Reserved0,1,16,17,15
  1373                        	.eos
  1374                        	.stag	fake121_,16,121
  1375                        	.member	Supported,0,16,17,1
  1376                        	.member	Reserved0,1,16,17,1
  1377                        	.member	WriteSameSuported,2,16,17,1
  1378                        	.member	ErrorRecoveryControlSupported,3,16,17,1
  1379                        	.member	FeatureControlSuported,4,16,17,1
  1380                        	.member	DataTablesSuported,5,16,17,1
  1381                        	.member	Reserved1,6,16,17,6
  1382                        	.member	VendorSpecific,12,16,17,4
  1383                        	.eos
  1384                        	.stag	fake122_,16,122
  1385                        	.member	AlignmentOfLogicalWithinPhysical,0,16,17
                    ,14
  1386                        	.member	Word209Supported,14,16,17,1
  1387                        	.member	Reserved0,15,16,17,1
  1388                        	.eos
  1389                        	.stag	fake123_,16,123
  1390                        	.member	NVCachePowerModeEnabled,0,16,17,1
  1391                        	.member	Reserved0,1,16,17,3
  Mon Sep 27 2021  9:39                                                Page 27


  1392                        	.member	NVCacheFeatureSetEnabled,4,16,17,1
  1393                        	.member	Reserved1,5,16,17,3
  1394                        	.member	NVCachePowerModeVersion,8,16,17,4
  1395                        	.member	NVCacheFeatureSetVersion,12,16,17,4
  1396                        	.eos
  1397                        	.stag	fake124_,16,124
  1398                        	.member	NVCacheEstimatedTimeToSpinUpInSeconds,0,
                    14,8,8
  1399                        	.member	Reserved,8,14,8,8
  1400                        	.eos
  1401                        	.stag	fake125_,16,125
  1402                        	.member	MajorVersion,0,16,17,12
  1403                        	.member	TransportType,12,16,17,4
  1404                        	.eos
  1405                        	.stag	_IDENTIFY_DEVICE_DATA,4096,126
  1406                        	.member	GeneralConfiguration,0,10,8,16,104
  1407                        	.member	NumCylinders,16,16,8,16
  1408                        	.member	SpecificConfiguration,32,16,8,16
  1409                        	.member	NumHeads,48,16,8,16
  1410                        	.member	Retired1Bytes,64,110,8,0,4
  1411                        	.member	NumSectorsPerTrack,96,16,8,16
  1412                        	.member	VendorUnique1Bytes,112,110,8,0,6
  1413                        	.member	SerialNumber,160,110,8,0,20
  1414                        	.member	Retired2,320,112,8,0,2
  1415                        	.member	Obsolete1,352,16,8,16
  1416                        	.member	FirmwareRevision,368,110,8,0,8
  1417                        	.member	ModelNumber,432,110,8,0,40
  1418                        	.member	MaximumBlockTransfer,752,14,8,8
  1419                        	.member	VendorUnique2,760,14,8,8
  1420                        	.member	TrustedComputing,768,10,8,16,105
  1421                        	.member	Capabilities,784,10,8,32,106
  1422                        	.member	ObsoleteWords51,816,112,8,0,2
  1423                        	.member	TranslationFieldsValid,848,16,17,3
  1424                        	.member	Reserved3,851,16,17,5
  1425                        	.member	FreeFallControlSensitivity,856,16,17,8
  1426                        	.member	NumberOfCurrentCylinders,864,16,8,16
  1427                        	.member	NumberOfCurrentHeads,880,16,8,16
  1428                        	.member	CurrentSectorsPerTrack,896,16,8,16
  1429                        	.member	CurrentSectorCapacity,912,18,8,32
  1430                        	.member	CurrentMultiSectorSetting,944,14,8,8
  1431                        	.member	MultiSectorSettingValid,952,14,17,1
  1432                        	.member	ReservedByte59,953,14,17,3
  1433                        	.member	SanitizeFeatureSupported,956,14,17,1
  1434                        	.member	CryptoScrambleExtCommandSupported,957,14
                    ,17,1
  1435                        	.member	OverwriteExtCommandSupported,958,14,17,1
  1436                        	.member	BlockEraseExtCommandSupported,959,14,17,
                    1
  1437                        	.member	UserAddressableSectors,960,18,8,32
  1438                        	.member	ObsoleteWord62,992,16,8,16
  1439                        	.member	MultiWordDMASupport,1008,16,17,8
  1440                        	.member	MultiWordDMAActive,1016,16,17,8
  1441                        	.member	AdvancedPIOModes,1024,16,17,8
  1442                        	.member	ReservedByte64,1032,16,17,8
  1443                        	.member	MinimumMWXferCycleTime,1040,16,8,16
  1444                        	.member	RecommendedMWXferCycleTime,1056,16,8,16
  1445                        	.member	MinimumPIOCycleTime,1072,16,8,16
  1446                        	.member	MinimumPIOCycleTimeIORDY,1088,16,8,16
  Mon Sep 27 2021  9:39                                                Page 28


  1447                        	.member	AdditionalSupported,1104,10,8,16,107
  1448                        	.member	ReservedWords70,1120,112,8,0,5
  1449                        	.member	QueueDepth,1200,16,17,5
  1450                        	.member	ReservedWord75,1205,16,17,11
  1451                        	.member	SerialAtaCapabilities,1216,10,8,32,108
  1452                        	.member	SerialAtaFeaturesSupported,1248,10,8,16,
                    109
  1453                        	.member	SerialAtaFeaturesEnabled,1264,10,8,16,11
                    0
  1454                        	.member	MajorRevision,1280,16,8,16
  1455                        	.member	MinorRevision,1296,16,8,16
  1456                        	.member	CommandSetSupport,1312,10,8,48,111
  1457                        	.member	CommandSetActive,1360,10,8,48,112
  1458                        	.member	UltraDMASupport,1408,16,17,8
  1459                        	.member	UltraDMAActive,1416,16,17,8
  1460                        	.member	NormalSecurityEraseUnit,1424,10,8,16,113
  1461                        	.member	EnhancedSecurityEraseUnit,1440,10,8,16,1
                    14
  1462                        	.member	CurrentAPMLevel,1456,16,17,8
  1463                        	.member	ReservedWord91,1464,16,17,8
  1464                        	.member	MasterPasswordID,1472,16,8,16
  1465                        	.member	HardwareResetResult,1488,16,8,16
  1466                        	.member	CurrentAcousticValue,1504,16,17,8
  1467                        	.member	RecommendedAcousticValue,1512,16,17,8
  1468                        	.member	StreamMinRequestSize,1520,16,8,16
  1469                        	.member	StreamingTransferTimeDMA,1536,16,8,16
  1470                        	.member	StreamingAccessLatencyDMAPIO,1552,16,8,1
                    6
  1471                        	.member	StreamingPerfGranularity,1568,18,8,32
  1472                        	.member	Max48BitLBA,1600,114,8,0,2
  1473                        	.member	StreamingTransferTime,1664,16,8,16
  1474                        	.member	DsmCap,1680,16,8,16
  1475                        	.member	PhysicalLogicalSectorSize,1696,10,8,16,1
                    15
  1476                        	.member	InterSeekDelay,1712,16,8,16
  1477                        	.member	WorldWideName,1728,112,8,0,4
  1478                        	.member	ReservedForWorldWideName128,1792,112,8,0
                    ,4
  1479                        	.member	ReservedForTlcTechnicalReport,1856,16,8,
                    16
  1480                        	.member	WordsPerLogicalSector,1872,112,8,0,2
  1481                        	.member	CommandSetSupportExt,1904,10,8,16,116
  1482                        	.member	CommandSetActiveExt,1920,10,8,16,117
  1483                        	.member	ReservedForExpandedSupportandActive,1936
                    ,112,8,0,6
  1484                        	.member	MsnSupport,2032,16,17,2
  1485                        	.member	ReservedWord127,2034,16,17,14
  1486                        	.member	SecurityStatus,2048,10,8,16,118
  1487                        	.member	ReservedWord129,2064,112,8,0,31
  1488                        	.member	CfaPowerMode1,2560,10,8,16,119
  1489                        	.member	ReservedForCfaWord161,2576,112,8,0,7
  1490                        	.member	NominalFormFactor,2688,16,17,4
  1491                        	.member	ReservedWord168,2692,16,17,12
  1492                        	.member	DataSetManagementFeature,2704,10,8,16,12
                    0
  1493                        	.member	AdditionalProductID,2720,112,8,0,4
  1494                        	.member	ReservedForCfaWord174,2784,112,8,0,2
  1495                        	.member	CurrentMediaSerialNumber,2816,112,8,0,30
  Mon Sep 27 2021  9:39                                                Page 29


  1496                        	.member	SCTCommandTransport,3296,10,8,16,121
  1497                        	.member	ReservedWord207,3312,112,8,0,2
  1498                        	.member	BlockAlignment,3344,10,8,16,122
  1499                        	.member	WriteReadVerifySectorCountMode3Only,3360
                    ,112,8,0,2
  1500                        	.member	WriteReadVerifySectorCountMode2Only,3392
                    ,112,8,0,2
  1501                        	.member	NVCacheCapabilities,3424,10,8,16,123
  1502                        	.member	NVCacheSizeLSW,3440,16,8,16
  1503                        	.member	NVCacheSizeMSW,3456,16,8,16
  1504                        	.member	NominalMediaRotationRate,3472,16,8,16
  1505                        	.member	ReservedWord218,3488,16,8,16
  1506                        	.member	NVCacheOptions,3504,10,8,16,124
  1507                        	.member	WriteReadVerifySectorCountMode,3520,16,1
                    7,8
  1508                        	.member	ReservedWord220,3528,16,17,8
  1509                        	.member	ReservedWord221,3536,16,8,16
  1510                        	.member	TransportMajorVersion,3552,10,8,16,125
  1511                        	.member	TransportMinorVersion,3568,16,8,16
  1512                        	.member	ReservedWord224,3584,112,8,0,6
  1513                        	.member	ExtendedNumberOfUserAddressableSectors,3
                    680,114,8,0,2
  1514                        	.member	MinBlocksPerDownloadMicrocodeMode03,3744
                    ,16,8,16
  1515                        	.member	MaxBlocksPerDownloadMicrocodeMode03,3760
                    ,16,8,16
  1516                        	.member	ReservedWord236,3776,112,8,0,19
  1517                        	.member	Signature,4080,16,17,8
  1518                        	.member	CheckSum,4088,16,17,8
  1519                        	.eos
  1520                        	.stag	_FXDosDevice,5744,127
  1521                        	.member	type,0,14,8,8
  1522                        	.member	initialized,8,14,8,8
  1523                        	.member	devdata,16,129,8,32
  1524                        	.member	devstatus,48,14,8,8
  1525                        	.member	bootSector,56,10,8,928,97
  1526                        	.member	partitionTable,984,10,8,128,98
  1527                        	.member	fileAllocationTable,1112,110,8,0,512
  1528                        	.member	bsOffset,5208,18,8,32
  1529                        	.member	rootDirSectors,5240,18,8,32
  1530                        	.member	root_entry_count,5272,5,8,16
  1531                        	.member	rootEntriesPerPage,5288,5,8,16
  1532                        	.member	sectors_per_cluster,5304,5,8,16
  1533                        	.member	firstDataSector,5320,18,8,32
  1534                        	.member	fatTableOffset,5352,18,8,32
  1535                        	.member	volume_name,5384,110,8,0,12
  1536                        	.member	root_volume_name,5480,110,8,0,12
  1537                        	.member	errorCode,5576,14,8,8
  1538                        	.member	pfInit,5584,641,8,32
  1539                        	.member	pfReset,5616,641,8,32
  1540                        	.member	pfUninit,5648,641,8,32
  1541                        	.member	pfReader,5680,654,8,32
  1542                        	.member	pfWriter,5712,654,8,32
  1543                        	.eos
  1544                        	.utag	item,32,128
  1545                        	.member	dir,0,138,11,32,65
  1546                        	.member	file,0,138,11,32,64
  1547                        	.member	fileInfo,0,138,11,32,66
  Mon Sep 27 2021  9:39                                                Page 30


  1548                        	.eos
  1549                        	.stag	_dos_handle,80,129
  1550                        	.member	fs,0,138,8,32,62
  1551                        	.member	fr,32,5,8,16
  1552                        	.member	path,48,142,8,32
  1553                        	.eos
  1554                        	.stag	fx_file,112,130
  1555                        	.member	fs,0,138,8,32,62
  1556                        	.member	fileInfo,32,138,8,32,66
  1557                        	.member	f,64,138,8,32,64
  1558                        	.member	fr,96,5,8,16
  1559                        	.eos
  1560                        	.line	812
  1561                        	.file	"G:\devprojects\c256Foenix\fxos\FXOSWork
                    space\FXOS-Beta\src\fxcon_cmd.c",3
  1562                        ;#include "fxnode.h"
  1563                        	.file	"G:\devprojects\c256Foenix\fxos\FXOSWork
                    space\FXOS-Beta\src\fxnode.h",0
  1564                        	.line	118
  1565                        	.file	"G:\devprojects\c256Foenix\fxos\FXOSWork
                    space\FXOS-Beta\src\fxcon_cmd.c",4
  1566                        ;#include "fxmemorymanager.h"
  1567                        	.file	"G:\devprojects\c256Foenix\fxos\FXOSWork
                    space\FXOS-Beta\src\fxmemorymanager.h",0
  1568                        	.line	129
  1569                        	.file	"G:\devprojects\c256Foenix\fxos\FXOSWork
                    space\FXOS-Beta\src\fxcon_cmd.c",5
  1570                        ;#include "fxgfx.h"
  1571                        	.file	"G:\devprojects\c256Foenix\fxos\FXOSWork
                    space\FXOS-Beta\src\fxgfx.h",0
  1572                        	.line	370
  1573                        	.file	"G:\devprojects\c256Foenix\fxos\FXOSWork
                    space\FXOS-Beta\src\fxcon_cmd.c",6
  1574                        ;
  1575                        ;#pragma section CODE=CONMAN,offset $07:0000 //$07
                    :0000
  1576                        CONMAN	section	offset $07:0000 //$07:0000
  1577 07:0000:              	ends
  1578                        ;
  1579                        ;static int consoleAppOffset = 10;
  1580                        	data
  1581                        ~~consoleAppOffset:
  1582 00:0000: 0A 00        	dw	$A
  1583 00:0002:              	ends
  1584                        ;
  1585                        ;UINT cmd_TIME(PFXPROCESS process,PFXNODE tokens)
  1586                        ;{
  1587                        	.line	12
  1588                        	.line	13
  1589                        	CONMAN
  1590                        	xdef	~~cmd_TIME
  1591                        	func
  1592                        	.function	13
  1593                        ~~cmd_TIME:
  1594                        	longa	on
  1595                        	longi	on
  1596 07:0000: 3B           	tsc
  1597 07:0001: 38           	sec
  Mon Sep 27 2021  9:39                                                Page 31


  1598 07:0002: E9 32 00     	sbc	#L2
  1599 07:0005: 1B           	tcs
  1600 07:0006: 0B           	phd
  1601 07:0007: 5B           	tcd
  1602             00000004   process_0	set	4
  1603             00000008   tokens_0	set	8
  1604                        	.block	13
  1605                        ;	BYTE   signature[8];
  1606                        ;	CHAR   time[16];
  1607                        ;	RECT   rect;
  1608                        ;	HANDLE hWin;
  1609                        ;	UINT   seed;
  1610                        ;
  1611                        ;	int random;
  1612                        ;
  1613                        ;	k_debug_string("cmd_TIME\r\n");
  1614             00000000   signature_1	set	0
  1615             00000008   time_1	set	8
  1616             00000018   rect_1	set	24
  1617             00000026   hWin_1	set	38
  1618             0000002A   seed_1	set	42
  1619             0000002C   random_1	set	44
  1620                        	.sym	signature,0,110,1,0,8
  1621                        	.sym	time,8,110,1,0,16
  1622                        	.sym	rect,24,10,1,112,26
  1623                        	.sym	hWin,38,129,1,32
  1624                        	.sym	seed,42,16,1,16
  1625                        	.sym	random,44,5,1,16
  1626                        	.sym	process,4,138,6,32,20
  1627                        	.sym	tokens,8,138,6,32,5
  1628                        	.line	22
  1629 07:0008: F4 xx xx     	pea	#^L1
  1630 07:000B: F4 xx xx     	pea	#<L1
  1631 07:000E: 22 xx xx xx  	jsl	~~k_debug_string
  1632                        ;
  1633                        ;	getTokenSig(tokens,signature);
  1634                        	.line	24
  1635 07:0012: F4 00 00     	pea	#0
  1636 07:0015: 18           	clc
  1637 07:0016: 7B           	tdc
  1638 07:0017: 69 05 00     	adc	#<L3+signature_1
  1639 07:001A: 48           	pha
  1640 07:001B: D4 3C        	pei	<L2+tokens_0+2
  1641 07:001D: D4 3A        	pei	<L2+tokens_0
  1642 07:001F: 22 xx xx xx  	jsl	~~getTokenSig
  1643                        ;
  1644                        ;	k_get_localtime_string(time);
  1645                        	.line	26
  1646 07:0023: F4 00 00     	pea	#0
  1647 07:0026: 18           	clc
  1648 07:0027: 7B           	tdc
  1649 07:0028: 69 0D 00     	adc	#<L3+time_1
  1650 07:002B: 48           	pha
  1651 07:002C: 22 xx xx xx  	jsl	~~k_get_localtime_string
  1652                        ;
  1653                        ;
  1654                        ;	seed = k_get_rtc_second();
  1655                        	.line	29
  Mon Sep 27 2021  9:39                                                Page 32


  1656 07:0030: 22 xx xx xx  	jsl	~~k_get_rtc_second
  1657 07:0034: 85 2F        	sta	<L3+seed_1
  1658                        ;	srand(seed);
  1659                        	.line	30
  1660 07:0036: D4 2F        	pei	<L3+seed_1
  1661 07:0038: 22 xx xx xx  	jsl	~~srand
  1662                        ;	for(seed = 0;seed<5;seed++)
  1663                        	.line	31
  1664 07:003C: 64 2F        	stz	<L3+seed_1
  1665                        L10003:
  1666                        ;		k_debug_integer("cmd_TIME::random:",rand
                    ());
  1667                        	.line	32
  1668 07:003E: 22 xx xx xx  	jsl	~~rand
  1669 07:0042: 48           	pha
  1670 07:0043: F4 xx xx     	pea	#^L1+11
  1671 07:0046: F4 xx xx     	pea	#<L1+11
  1672 07:0049: 22 xx xx xx  	jsl	~~k_debug_integer
  1673                        L10001:
  1674 07:004D: E6 2F        	inc	<L3+seed_1
  1675 07:004F: A5 2F        	lda	<L3+seed_1
  1676 07:0051: C9 05 00     	cmp	#<$5
  1677 07:0054: B0 03        	bcs	L5
  1678 07:0056: 82 E5 FF     	brl	L10003
  1679                        L5:
  1680                        L10002:
  1681                        ;
  1682                        ;
  1683                        ;	k_send_process_command_message(process,FX_CONTRO
                    L_COMMAND,CTL_CMD_CAPTION,0,(ULONG)k_string_copy_string(time
                    ),0L);
  1684                        	.line	35
  1685 07:0059: F4 00 00     	pea	#^$0
  1686 07:005C: F4 00 00     	pea	#<$0
  1687 07:005F: F4 00 00     	pea	#0
  1688 07:0062: 18           	clc
  1689 07:0063: 7B           	tdc
  1690 07:0064: 69 0D 00     	adc	#<L3+time_1
  1691 07:0067: 48           	pha
  1692 07:0068: 22 xx xx xx  	jsl	~~k_string_copy_string
  1693 07:006C: 85 01        	sta	<R0
  1694 07:006E: 86 03        	stx	<R0+2
  1695 07:0070: D4 03        	pei	<R0+2
  1696 07:0072: D4 01        	pei	<R0
  1697 07:0074: F4 00 00     	pea	#<$0
  1698 07:0077: F4 01 00     	pea	#<$1
  1699 07:007A: F4 00 FA     	pea	#<$fa00
  1700 07:007D: D4 38        	pei	<L2+process_0+2
  1701 07:007F: D4 36        	pei	<L2+process_0
  1702 07:0081: 22 xx xx xx  	jsl	~~k_send_process_command_message
  1703                        ;
  1704                        ;
  1705                        ;	k_debug_strings("cmd_TIME::time:",time);
  1706                        	.line	38
  1707 07:0085: F4 00 00     	pea	#0
  1708 07:0088: 18           	clc
  1709 07:0089: 7B           	tdc
  1710 07:008A: 69 0D 00     	adc	#<L3+time_1
  Mon Sep 27 2021  9:39                                                Page 33


  1711 07:008D: 48           	pha
  1712 07:008E: F4 xx xx     	pea	#^L1+29
  1713 07:0091: F4 xx xx     	pea	#<L1+29
  1714 07:0094: 22 xx xx xx  	jsl	~~k_debug_strings
  1715                        ;
  1716                        ;	return 0;
  1717                        	.line	40
  1718 07:0098: A9 00 00     	lda	#$0
  1719                        L6:
  1720 07:009B: A8           	tay
  1721 07:009C: A5 34        	lda	<L2+2
  1722 07:009E: 85 3C        	sta	<L2+2+8
  1723 07:00A0: A5 33        	lda	<L2+1
  1724 07:00A2: 85 3B        	sta	<L2+1+8
  1725 07:00A4: 2B           	pld
  1726 07:00A5: 3B           	tsc
  1727 07:00A6: 18           	clc
  1728 07:00A7: 69 3A 00     	adc	#L2+8
  1729 07:00AA: 1B           	tcs
  1730 07:00AB: 98           	tya
  1731 07:00AC: 6B           	rtl
  1732                        ;}
  1733                        	.line	41
  1734                        	.endblock	41
  1735             00000032   L2	equ	50
  1736             00000005   L3	equ	5
  1737 07:00AD:              	ends
  1738                        	efunc
  1739                        	.endfunc	41,5,50
  1740                        	.line	41
  1741                        	data
  1742                        L1:
  1743 00:0002: 63 6D 64 5F  	db	$63,$6D,$64,$5F,$54,$49,$4D,$45,$0D,$0A,
                    $00,$63,$6D,$64,$5F
       00:0006: 54 49 4D 45 
       00:000A: 0D 0A 00 63 
       00:000E: 6D 64 5F 
  1744 00:0011: 54 49 4D 45  	db	$54,$49,$4D,$45,$3A,$3A,$72,$61,$6E,$64,
                    $6F,$6D,$3A,$00,$63
       00:0015: 3A 3A 72 61 
       00:0019: 6E 64 6F 6D 
       00:001D: 3A 00 63 
  1745 00:0020: 6D 64 5F 54  	db	$6D,$64,$5F,$54,$49,$4D,$45,$3A,$3A,$74,
                    $69,$6D,$65,$3A,$00
       00:0024: 49 4D 45 3A 
       00:0028: 3A 74 69 6D 
       00:002C: 65 3A 00 
  1746 00:002F:              	ends
  1747                        ;
  1748                        ;UINT cmd_Window(PFXPROCESS process,PFXNODE tokens
                    )
  1749                        ;{
  1750                        	.line	43
  1751                        	.line	44
  1752                        	CONMAN
  1753                        	xdef	~~cmd_Window
  1754                        	func
  1755                        	.function	44
  Mon Sep 27 2021  9:39                                                Page 34


  1756                        ~~cmd_Window:
  1757                        	longa	on
  1758                        	longi	on
  1759 07:00AD: 3B           	tsc
  1760 07:00AE: 38           	sec
  1761 07:00AF: E9 1A 00     	sbc	#L8
  1762 07:00B2: 1B           	tcs
  1763 07:00B3: 0B           	phd
  1764 07:00B4: 5B           	tcd
  1765             00000004   process_0	set	4
  1766             00000008   tokens_0	set	8
  1767                        	.block	44
  1768                        ;	BYTE 	signature[8];
  1769                        ;	RECT rect;
  1770                        ;	HANDLE hWin;
  1771                        ;
  1772                        ;	k_debug_string("cmd_Window\r\n");
  1773             00000000   signature_1	set	0
  1774             00000008   rect_1	set	8
  1775             00000016   hWin_1	set	22
  1776                        	.sym	signature,0,110,1,0,8
  1777                        	.sym	rect,8,10,1,112,26
  1778                        	.sym	hWin,22,129,1,32
  1779                        	.sym	process,4,138,6,32,20
  1780                        	.sym	tokens,8,138,6,32,5
  1781                        	.line	49
  1782 07:00B5: F4 xx xx     	pea	#^L7
  1783 07:00B8: F4 xx xx     	pea	#<L7
  1784 07:00BB: 22 xx xx xx  	jsl	~~k_debug_string
  1785                        ;
  1786                        ;	getTokenSig(tokens,signature);
  1787                        	.line	51
  1788 07:00BF: F4 00 00     	pea	#0
  1789 07:00C2: 18           	clc
  1790 07:00C3: 7B           	tdc
  1791 07:00C4: 69 01 00     	adc	#<L9+signature_1
  1792 07:00C7: 48           	pha
  1793 07:00C8: D4 24        	pei	<L8+tokens_0+2
  1794 07:00CA: D4 22        	pei	<L8+tokens_0
  1795 07:00CC: 22 xx xx xx  	jsl	~~getTokenSig
  1796                        ;
  1797                        ;	rect.x = 0;
  1798                        	.line	53
  1799 07:00D0: 64 09        	stz	<L9+rect_1
  1800                        ;	rect.y = 0;
  1801                        	.line	54
  1802 07:00D2: 64 0B        	stz	<L9+rect_1+2
  1803                        ;	rect.width = 50;
  1804                        	.line	55
  1805 07:00D4: A9 32 00     	lda	#$32
  1806 07:00D7: 85 11        	sta	<L9+rect_1+8
  1807                        ;	rect.height = 25;
  1808                        	.line	56
  1809 07:00D9: A9 19 00     	lda	#$19
  1810 07:00DC: 85 13        	sta	<L9+rect_1+10
  1811                        ;	k_create_text_window(&rect,"Text Window",&hWin);
  1812                        	.line	57
  1813 07:00DE: F4 00 00     	pea	#0
  Mon Sep 27 2021  9:39                                                Page 35


  1814 07:00E1: 18           	clc
  1815 07:00E2: 7B           	tdc
  1816 07:00E3: 69 17 00     	adc	#<L9+hWin_1
  1817 07:00E6: 48           	pha
  1818 07:00E7: F4 xx xx     	pea	#^L7+13
  1819 07:00EA: F4 xx xx     	pea	#<L7+13
  1820 07:00ED: F4 00 00     	pea	#0
  1821 07:00F0: 18           	clc
  1822 07:00F1: 7B           	tdc
  1823 07:00F2: 69 09 00     	adc	#<L9+rect_1
  1824 07:00F5: 48           	pha
  1825 07:00F6: 22 xx xx xx  	jsl	~~k_create_text_window
  1826                        ;
  1827                        ;	return 0;
  1828                        	.line	59
  1829 07:00FA: A9 00 00     	lda	#$0
  1830                        L11:
  1831 07:00FD: A8           	tay
  1832 07:00FE: A5 1C        	lda	<L8+2
  1833 07:0100: 85 24        	sta	<L8+2+8
  1834 07:0102: A5 1B        	lda	<L8+1
  1835 07:0104: 85 23        	sta	<L8+1+8
  1836 07:0106: 2B           	pld
  1837 07:0107: 3B           	tsc
  1838 07:0108: 18           	clc
  1839 07:0109: 69 22 00     	adc	#L8+8
  1840 07:010C: 1B           	tcs
  1841 07:010D: 98           	tya
  1842 07:010E: 6B           	rtl
  1843                        ;}
  1844                        	.line	60
  1845                        	.endblock	60
  1846             0000001A   L8	equ	26
  1847             00000001   L9	equ	1
  1848 07:010F:              	ends
  1849                        	efunc
  1850                        	.endfunc	60,1,26
  1851                        	.line	60
  1852                        	data
  1853                        L7:
  1854 00:002F: 63 6D 64 5F  	db	$63,$6D,$64,$5F,$57,$69,$6E,$64,$6F,$77,
                    $0D,$0A,$00,$54,$65
       00:0033: 57 69 6E 64 
       00:0037: 6F 77 0D 0A 
       00:003B: 00 54 65 
  1855 00:003E: 78 74 20 57  	db	$78,$74,$20,$57,$69,$6E,$64,$6F,$77,$00
       00:0042: 69 6E 64 6F 
       00:0046: 77 00 
  1856 00:0048:              	ends
  1857                        ;
  1858                        ;UINT cmd_START(PFXPROCESS process,PFXNODE tokens)
  1859                        ;{
  1860                        	.line	62
  1861                        	.line	63
  1862                        	CONMAN
  1863                        	xdef	~~cmd_START
  1864                        	func
  1865                        	.function	63
  Mon Sep 27 2021  9:39                                                Page 36


  1866                        ~~cmd_START:
  1867                        	longa	on
  1868                        	longi	on
  1869 07:010F: 3B           	tsc
  1870 07:0110: 38           	sec
  1871 07:0111: E9 64 00     	sbc	#L13
  1872 07:0114: 1B           	tcs
  1873 07:0115: 0B           	phd
  1874 07:0116: 5B           	tcd
  1875             00000004   process_0	set	4
  1876             00000008   tokens_0	set	8
  1877                        	.block	63
  1878                        ;	LPCHAR  name = NULL;
  1879                        ;	LPCHAR  offset = NULL;
  1880                        ;	CHAR 	signature[16];
  1881                        ;
  1882                        ;	PFXPROCESS pprocess = NULL;
  1883                        ;
  1884                        ;	CHAR message[64];
  1885                        ;
  1886                        ;	k_debug_string("cmd_START\r\n");
  1887             00000000   name_1	set	0
  1888             00000004   offset_1	set	4
  1889             00000008   signature_1	set	8
  1890             00000018   pprocess_1	set	24
  1891             0000001C   message_1	set	28
  1892                        	.sym	name,0,142,1,32
  1893                        	.sym	offset,4,142,1,32
  1894                        	.sym	signature,8,110,1,0,16
  1895                        	.sym	pprocess,24,138,1,32,20
  1896                        	.sym	message,28,110,1,0,64
  1897                        	.sym	process,4,138,6,32,20
  1898                        	.sym	tokens,8,138,6,32,5
  1899 07:0117: 64 09        	stz	<L14+name_1
  1900 07:0119: 64 0B        	stz	<L14+name_1+2
  1901 07:011B: 64 0D        	stz	<L14+offset_1
  1902 07:011D: 64 0F        	stz	<L14+offset_1+2
  1903 07:011F: 64 21        	stz	<L14+pprocess_1
  1904 07:0121: 64 23        	stz	<L14+pprocess_1+2
  1905                        	.line	72
  1906 07:0123: F4 xx xx     	pea	#^L12
  1907 07:0126: F4 xx xx     	pea	#<L12
  1908 07:0129: 22 xx xx xx  	jsl	~~k_debug_string
  1909                        ;
  1910                        ;	getTokenSig(tokens,signature);
  1911                        	.line	74
  1912 07:012D: F4 00 00     	pea	#0
  1913 07:0130: 18           	clc
  1914 07:0131: 7B           	tdc
  1915 07:0132: 69 11 00     	adc	#<L14+signature_1
  1916 07:0135: 48           	pha
  1917 07:0136: D4 6E        	pei	<L13+tokens_0+2
  1918 07:0138: D4 6C        	pei	<L13+tokens_0
  1919 07:013A: 22 xx xx xx  	jsl	~~getTokenSig
  1920                        ;
  1921                        ;	if(strcmp(signature,"#AAB") == 0)
  1922                        	.line	76
  1923                        ;	{
  Mon Sep 27 2021  9:39                                                Page 37


  1924 07:013E: F4 xx xx     	pea	#^L12+12
  1925 07:0141: F4 xx xx     	pea	#<L12+12
  1926 07:0144: F4 00 00     	pea	#0
  1927 07:0147: 18           	clc
  1928 07:0148: 7B           	tdc
  1929 07:0149: 69 11 00     	adc	#<L14+signature_1
  1930 07:014C: 48           	pha
  1931 07:014D: 22 xx xx xx  	jsl	~~strcmp
  1932 07:0151: AA           	tax
  1933 07:0152: F0 03        	beq	L16
  1934 07:0154: 82 42 01     	brl	L10004
  1935                        L16:
  1936                        	.line	77
  1937                        ;		name    = (LPCHAR)((PTOKEN)k_nodelist_ge
                    t(tokens,3)->data)->text;
  1938                        	.line	78
  1939 07:0157: F4 03 00     	pea	#<$3
  1940 07:015A: D4 6E        	pei	<L13+tokens_0+2
  1941 07:015C: D4 6C        	pei	<L13+tokens_0
  1942 07:015E: 22 xx xx xx  	jsl	~~k_nodelist_get
  1943 07:0162: 85 01        	sta	<R0
  1944 07:0164: 86 03        	stx	<R0+2
  1945 07:0166: A0 02 00     	ldy	#$2
  1946 07:0169: B7 01        	lda	[<R0],Y
  1947 07:016B: 85 05        	sta	<R1
  1948 07:016D: A0 04 00     	ldy	#$4
  1949 07:0170: B7 01        	lda	[<R0],Y
  1950 07:0172: 85 07        	sta	<R1+2
  1951 07:0174: A0 04 00     	ldy	#$4
  1952 07:0177: B7 05        	lda	[<R1],Y
  1953 07:0179: 85 09        	sta	<L14+name_1
  1954 07:017B: A0 06 00     	ldy	#$6
  1955 07:017E: B7 05        	lda	[<R1],Y
  1956 07:0180: 85 0B        	sta	<L14+name_1+2
  1957                        ;		offset  = (LPCHAR)((PTOKEN)k_nodelist_ge
                    t(tokens,4)->data)->text;
  1958                        	.line	79
  1959 07:0182: F4 04 00     	pea	#<$4
  1960 07:0185: D4 6E        	pei	<L13+tokens_0+2
  1961 07:0187: D4 6C        	pei	<L13+tokens_0
  1962 07:0189: 22 xx xx xx  	jsl	~~k_nodelist_get
  1963 07:018D: 85 01        	sta	<R0
  1964 07:018F: 86 03        	stx	<R0+2
  1965 07:0191: A0 02 00     	ldy	#$2
  1966 07:0194: B7 01        	lda	[<R0],Y
  1967 07:0196: 85 05        	sta	<R1
  1968 07:0198: A0 04 00     	ldy	#$4
  1969 07:019B: B7 01        	lda	[<R0],Y
  1970 07:019D: 85 07        	sta	<R1+2
  1971 07:019F: A0 04 00     	ldy	#$4
  1972 07:01A2: B7 05        	lda	[<R1],Y
  1973 07:01A4: 85 0D        	sta	<L14+offset_1
  1974 07:01A6: A0 06 00     	ldy	#$6
  1975 07:01A9: B7 05        	lda	[<R1],Y
  1976 07:01AB: 85 0F        	sta	<L14+offset_1+2
  1977                        ;
  1978                        ;		k_debug_strings("cmd_START::name:",name)
                    ;
  Mon Sep 27 2021  9:39                                                Page 38


  1979                        	.line	81
  1980 07:01AD: D4 0B        	pei	<L14+name_1+2
  1981 07:01AF: D4 09        	pei	<L14+name_1
  1982 07:01B1: F4 xx xx     	pea	#^L12+17
  1983 07:01B4: F4 xx xx     	pea	#<L12+17
  1984 07:01B7: 22 xx xx xx  	jsl	~~k_debug_strings
  1985                        ;		k_debug_strings("cmd_START::name:",offse
                    t);
  1986                        	.line	82
  1987 07:01BB: D4 0F        	pei	<L14+offset_1+2
  1988 07:01BD: D4 0D        	pei	<L14+offset_1
  1989 07:01BF: F4 xx xx     	pea	#^L12+34
  1990 07:01C2: F4 xx xx     	pea	#<L12+34
  1991 07:01C5: 22 xx xx xx  	jsl	~~k_debug_strings
  1992                        ;
  1993                        ;		if(strcmp(name,"consoleapp") == 0)
  1994                        	.line	84
  1995                        ;		{
  1996 07:01C9: F4 xx xx     	pea	#^L12+51
  1997 07:01CC: F4 xx xx     	pea	#<L12+51
  1998 07:01CF: D4 0B        	pei	<L14+name_1+2
  1999 07:01D1: D4 09        	pei	<L14+name_1
  2000 07:01D3: 22 xx xx xx  	jsl	~~strcmp
  2001 07:01D7: AA           	tax
  2002 07:01D8: F0 03        	beq	L17
  2003 07:01DA: 82 BC 00     	brl	L10005
  2004                        L17:
  2005                        	.line	85
  2006                        ;			pprocess =  k_exec_createProcess
                    ("consoleApp",DefConsoleProc2,(LPVOID)consoleAppOffset++);
  2007                        	.line	86
  2008 07:01DD: AD xx xx     	lda	|~~consoleAppOffset
  2009 07:01E0: 85 01        	sta	<R0
  2010 07:01E2: EE xx xx     	inc	|~~consoleAppOffset
  2011 07:01E5: A0 00 00     	ldy	#$0
  2012 07:01E8: A5 01        	lda	<R0
  2013 07:01EA: 10 01        	bpl	L18
  2014 07:01EC: 88           	dey
  2015                        L18:
  2016 07:01ED: 85 01        	sta	<R0
  2017 07:01EF: 84 03        	sty	<R0+2
  2018 07:01F1: D4 03        	pei	<R0+2
  2019 07:01F3: D4 01        	pei	<R0
  2020 07:01F5: F4 xx xx     	pea	#^~~DefConsoleProc2
  2021 07:01F8: F4 xx xx     	pea	#<~~DefConsoleProc2
  2022 07:01FB: F4 xx xx     	pea	#^L12+62
  2023 07:01FE: F4 xx xx     	pea	#<L12+62
  2024 07:0201: 22 xx xx xx  	jsl	~~k_exec_createProcess
  2025 07:0205: 85 21        	sta	<L14+pprocess_1
  2026 07:0207: 86 23        	stx	<L14+pprocess_1+2
  2027                        ;			if(pprocess!=NULL)
  2028                        	.line	87
  2029                        ;			{
  2030 07:0209: A5 21        	lda	<L14+pprocess_1
  2031 07:020B: 05 23        	ora	<L14+pprocess_1+2
  2032 07:020D: D0 03        	bne	L19
  2033 07:020F: 82 87 00     	brl	L10006
  2034                        L19:
  Mon Sep 27 2021  9:39                                                Page 39


  2035                        	.line	88
  2036                        ;				k_attach_process_events(
                    pprocess->execProc,pprocess);
  2037                        	.line	89
  2038 07:0212: D4 23        	pei	<L14+pprocess_1+2
  2039 07:0214: D4 21        	pei	<L14+pprocess_1
  2040 07:0216: A0 5E 00     	ldy	#$5e
  2041 07:0219: B7 21        	lda	[<L14+pprocess_1],Y
  2042 07:021B: 48           	pha
  2043 07:021C: A0 5C 00     	ldy	#$5c
  2044 07:021F: B7 21        	lda	[<L14+pprocess_1],Y
  2045 07:0221: 48           	pha
  2046 07:0222: 22 xx xx xx  	jsl	~~k_attach_process_events
  2047                        ;				k_exec_set_process_foreg
                    round(pprocess,FALSE);
  2048                        	.line	90
  2049 07:0226: F4 00 00     	pea	#<$0
  2050 07:0229: D4 23        	pei	<L14+pprocess_1+2
  2051 07:022B: D4 21        	pei	<L14+pprocess_1
  2052 07:022D: 22 xx xx xx  	jsl	~~k_exec_set_process_foreground
  2053                        ;
  2054                        ;				k_inttodec(pprocess->pro
                    cId,signature);
  2055                        	.line	92
  2056 07:0231: F4 00 00     	pea	#0
  2057 07:0234: 18           	clc
  2058 07:0235: 7B           	tdc
  2059 07:0236: 69 11 00     	adc	#<L14+signature_1
  2060 07:0239: 48           	pha
  2061 07:023A: A0 02 00     	ldy	#$2
  2062 07:023D: B7 21        	lda	[<L14+pprocess_1],Y
  2063 07:023F: 48           	pha
  2064 07:0240: 22 xx xx xx  	jsl	~~k_inttodec
  2065                        ;
  2066                        ;				strcpy(message,"Started 
                    process:");
  2067                        	.line	94
  2068 07:0244: F4 xx xx     	pea	#^L12+73
  2069 07:0247: F4 xx xx     	pea	#<L12+73
  2070 07:024A: F4 00 00     	pea	#0
  2071 07:024D: 18           	clc
  2072 07:024E: 7B           	tdc
  2073 07:024F: 69 25 00     	adc	#<L14+message_1
  2074 07:0252: 48           	pha
  2075 07:0253: 22 xx xx xx  	jsl	~~strcpy
  2076                        ;				strcat(message,signature
                    );
  2077                        	.line	95
  2078 07:0257: F4 00 00     	pea	#0
  2079 07:025A: 18           	clc
  2080 07:025B: 7B           	tdc
  2081 07:025C: 69 11 00     	adc	#<L14+signature_1
  2082 07:025F: 48           	pha
  2083 07:0260: F4 00 00     	pea	#0
  2084 07:0263: 18           	clc
  2085 07:0264: 7B           	tdc
  2086 07:0265: 69 25 00     	adc	#<L14+message_1
  2087 07:0268: 48           	pha
  Mon Sep 27 2021  9:39                                                Page 40


  2088 07:0269: 22 xx xx xx  	jsl	~~strcat
  2089                        ;
  2090                        ;				k_send_process_command_m
                    essage(process,FX_CONTROL_COMMAND,CTL_CMD_CAPTION,0,(ULONG)k
                    _string_copy_string((LPCSTR)message),0L);
  2091                        	.line	97
  2092 07:026D: F4 00 00     	pea	#^$0
  2093 07:0270: F4 00 00     	pea	#<$0
  2094 07:0273: F4 00 00     	pea	#0
  2095 07:0276: 18           	clc
  2096 07:0277: 7B           	tdc
  2097 07:0278: 69 25 00     	adc	#<L14+message_1
  2098 07:027B: 48           	pha
  2099 07:027C: 22 xx xx xx  	jsl	~~k_string_copy_string
  2100 07:0280: 85 01        	sta	<R0
  2101 07:0282: 86 03        	stx	<R0+2
  2102 07:0284: D4 03        	pei	<R0+2
  2103 07:0286: D4 01        	pei	<R0
  2104 07:0288: F4 00 00     	pea	#<$0
  2105 07:028B: F4 01 00     	pea	#<$1
  2106 07:028E: F4 00 FA     	pea	#<$fa00
  2107 07:0291: D4 6A        	pei	<L13+process_0+2
  2108 07:0293: D4 68        	pei	<L13+process_0
  2109 07:0295: 22 xx xx xx  	jsl	~~k_send_process_command_message
  2110                        ;			}
  2111                        	.line	98
  2112                        ;		}
  2113                        L10006:
  2114                        	.line	99
  2115                        ;
  2116                        ;	}
  2117                        L10005:
  2118                        	.line	101
  2119                        ;
  2120                        ;	return 0;
  2121                        L10004:
  2122                        	.line	103
  2123 07:0299: A9 00 00     	lda	#$0
  2124                        L20:
  2125 07:029C: A8           	tay
  2126 07:029D: A5 66        	lda	<L13+2
  2127 07:029F: 85 6E        	sta	<L13+2+8
  2128 07:02A1: A5 65        	lda	<L13+1
  2129 07:02A3: 85 6D        	sta	<L13+1+8
  2130 07:02A5: 2B           	pld
  2131 07:02A6: 3B           	tsc
  2132 07:02A7: 18           	clc
  2133 07:02A8: 69 6C 00     	adc	#L13+8
  2134 07:02AB: 1B           	tcs
  2135 07:02AC: 98           	tya
  2136 07:02AD: 6B           	rtl
  2137                        ;}
  2138                        	.line	104
  2139                        	.endblock	104
  2140             00000064   L13	equ	100
  2141             00000009   L14	equ	9
  2142 07:02AE:              	ends
  2143                        	efunc
  Mon Sep 27 2021  9:39                                                Page 41


  2144                        	.endfunc	104,9,100
  2145                        	.line	104
  2146                        	data
  2147                        L12:
  2148 00:0048: 63 6D 64 5F  	db	$63,$6D,$64,$5F,$53,$54,$41,$52,$54,$0D,
                    $0A,$00,$23,$41,$41
       00:004C: 53 54 41 52 
       00:0050: 54 0D 0A 00 
       00:0054: 23 41 41 
  2149 00:0057: 42 00 63 6D  	db	$42,$00,$63,$6D,$64,$5F,$53,$54,$41,$52,
                    $54,$3A,$3A,$6E,$61
       00:005B: 64 5F 53 54 
       00:005F: 41 52 54 3A 
       00:0063: 3A 6E 61 
  2150 00:0066: 6D 65 3A 00  	db	$6D,$65,$3A,$00,$63,$6D,$64,$5F,$53,$54,
                    $41,$52,$54,$3A,$3A
       00:006A: 63 6D 64 5F 
       00:006E: 53 54 41 52 
       00:0072: 54 3A 3A 
  2151 00:0075: 6E 61 6D 65  	db	$6E,$61,$6D,$65,$3A,$00,$63,$6F,$6E,$73,
                    $6F,$6C,$65,$61,$70
       00:0079: 3A 00 63 6F 
       00:007D: 6E 73 6F 6C 
       00:0081: 65 61 70 
  2152 00:0084: 70 00 63 6F  	db	$70,$00,$63,$6F,$6E,$73,$6F,$6C,$65,$41,
                    $70,$70,$00,$53,$74
       00:0088: 6E 73 6F 6C 
       00:008C: 65 41 70 70 
       00:0090: 00 53 74 
  2153 00:0093: 61 72 74 65  	db	$61,$72,$74,$65,$64,$20,$70,$72,$6F,$63,
                    $65,$73,$73,$3A,$00
       00:0097: 64 20 70 72 
       00:009B: 6F 63 65 73 
       00:009F: 73 3A 00 
  2154 00:00A2:              	ends
  2155                        ;
  2156                        ;UINT cmd_EXIT(PFXPROCESS process,PFXNODE tokens)
  2157                        ;{
  2158                        	.line	106
  2159                        	.line	107
  2160                        	CONMAN
  2161                        	xdef	~~cmd_EXIT
  2162                        	func
  2163                        	.function	107
  2164                        ~~cmd_EXIT:
  2165                        	longa	on
  2166                        	longi	on
  2167 07:02AE: 3B           	tsc
  2168 07:02AF: 38           	sec
  2169 07:02B0: E9 64 00     	sbc	#L22
  2170 07:02B3: 1B           	tcs
  2171 07:02B4: 0B           	phd
  2172 07:02B5: 5B           	tcd
  2173             00000004   process_0	set	4
  2174             00000008   tokens_0	set	8
  2175                        	.block	107
  2176                        ;	LPCHAR  name = NULL;
  2177                        ;	LONG    procId = 0;
  Mon Sep 27 2021  9:39                                                Page 42


  2178                        ;	CHAR 	signature[16];
  2179                        ;
  2180                        ;	PFXPROCESS pprocess = NULL;
  2181                        ;
  2182                        ;	CHAR message[64];
  2183                        ;
  2184                        ;	k_debug_string("cmd_EXIT\r\n");
  2185             00000000   name_1	set	0
  2186             00000004   procId_1	set	4
  2187             00000008   signature_1	set	8
  2188             00000018   pprocess_1	set	24
  2189             0000001C   message_1	set	28
  2190                        	.sym	name,0,142,1,32
  2191                        	.sym	procId,4,7,1,32
  2192                        	.sym	signature,8,110,1,0,16
  2193                        	.sym	pprocess,24,138,1,32,20
  2194                        	.sym	message,28,110,1,0,64
  2195                        	.sym	process,4,138,6,32,20
  2196                        	.sym	tokens,8,138,6,32,5
  2197 07:02B6: 64 09        	stz	<L23+name_1
  2198 07:02B8: 64 0B        	stz	<L23+name_1+2
  2199 07:02BA: 64 0D        	stz	<L23+procId_1
  2200 07:02BC: 64 0F        	stz	<L23+procId_1+2
  2201 07:02BE: 64 21        	stz	<L23+pprocess_1
  2202 07:02C0: 64 23        	stz	<L23+pprocess_1+2
  2203                        	.line	116
  2204 07:02C2: F4 xx xx     	pea	#^L21
  2205 07:02C5: F4 xx xx     	pea	#<L21
  2206 07:02C8: 22 xx xx xx  	jsl	~~k_debug_string
  2207                        ;
  2208                        ;	getTokenSig(tokens,signature);
  2209                        	.line	118
  2210 07:02CC: F4 00 00     	pea	#0
  2211 07:02CF: 18           	clc
  2212 07:02D0: 7B           	tdc
  2213 07:02D1: 69 11 00     	adc	#<L23+signature_1
  2214 07:02D4: 48           	pha
  2215 07:02D5: D4 6E        	pei	<L22+tokens_0+2
  2216 07:02D7: D4 6C        	pei	<L22+tokens_0
  2217 07:02D9: 22 xx xx xx  	jsl	~~getTokenSig
  2218                        ;
  2219                        ;	if(strcmp(signature,"#AB") == 0)
  2220                        	.line	120
  2221                        ;	{
  2222 07:02DD: F4 xx xx     	pea	#^L21+11
  2223 07:02E0: F4 xx xx     	pea	#<L21+11
  2224 07:02E3: F4 00 00     	pea	#0
  2225 07:02E6: 18           	clc
  2226 07:02E7: 7B           	tdc
  2227 07:02E8: 69 11 00     	adc	#<L23+signature_1
  2228 07:02EB: 48           	pha
  2229 07:02EC: 22 xx xx xx  	jsl	~~strcmp
  2230 07:02F0: AA           	tax
  2231 07:02F1: F0 03        	beq	L25
  2232 07:02F3: 82 5B 00     	brl	L10007
  2233                        L25:
  2234                        	.line	121
  2235                        ;		name    = (LPCHAR)((PTOKEN)k_nodelist_ge
  Mon Sep 27 2021  9:39                                                Page 43


                    t(tokens,3)->data)->text;
  2236                        	.line	122
  2237 07:02F6: F4 03 00     	pea	#<$3
  2238 07:02F9: D4 6E        	pei	<L22+tokens_0+2
  2239 07:02FB: D4 6C        	pei	<L22+tokens_0
  2240 07:02FD: 22 xx xx xx  	jsl	~~k_nodelist_get
  2241 07:0301: 85 01        	sta	<R0
  2242 07:0303: 86 03        	stx	<R0+2
  2243 07:0305: A0 02 00     	ldy	#$2
  2244 07:0308: B7 01        	lda	[<R0],Y
  2245 07:030A: 85 05        	sta	<R1
  2246 07:030C: A0 04 00     	ldy	#$4
  2247 07:030F: B7 01        	lda	[<R0],Y
  2248 07:0311: 85 07        	sta	<R1+2
  2249 07:0313: A0 04 00     	ldy	#$4
  2250 07:0316: B7 05        	lda	[<R1],Y
  2251 07:0318: 85 09        	sta	<L23+name_1
  2252 07:031A: A0 06 00     	ldy	#$6
  2253 07:031D: B7 05        	lda	[<R1],Y
  2254 07:031F: 85 0B        	sta	<L23+name_1+2
  2255                        ;
  2256                        ;		k_debug_strings("cmd_EXIT::name:",name);
  2257                        	.line	124
  2258 07:0321: D4 0B        	pei	<L23+name_1+2
  2259 07:0323: D4 09        	pei	<L23+name_1
  2260 07:0325: F4 xx xx     	pea	#^L21+15
  2261 07:0328: F4 xx xx     	pea	#<L21+15
  2262 07:032B: 22 xx xx xx  	jsl	~~k_debug_strings
  2263                        ;
  2264                        ;		procId = atol(name);
  2265                        	.line	126
  2266 07:032F: D4 0B        	pei	<L23+name_1+2
  2267 07:0331: D4 09        	pei	<L23+name_1
  2268 07:0333: 22 xx xx xx  	jsl	~~atol
  2269 07:0337: 85 0D        	sta	<L23+procId_1
  2270 07:0339: 86 0F        	stx	<L23+procId_1+2
  2271                        ;
  2272                        ;		k_debug_long("cmd_EXIT::procid:",procId)
                    ;
  2273                        	.line	128
  2274 07:033B: D4 0F        	pei	<L23+procId_1+2
  2275 07:033D: D4 0D        	pei	<L23+procId_1
  2276 07:033F: F4 xx xx     	pea	#^L21+31
  2277 07:0342: F4 xx xx     	pea	#<L21+31
  2278 07:0345: 22 xx xx xx  	jsl	~~k_debug_long
  2279                        ;
  2280                        ;		k_exec_signal_terminate(procId);
  2281                        	.line	130
  2282 07:0349: D4 0F        	pei	<L23+procId_1+2
  2283 07:034B: D4 0D        	pei	<L23+procId_1
  2284 07:034D: 22 xx xx xx  	jsl	~~k_exec_signal_terminate
  2285                        ;	}
  2286                        	.line	131
  2287                        ;
  2288                        ;	return 0;
  2289                        L10007:
  2290                        	.line	133
  2291 07:0351: A9 00 00     	lda	#$0
  Mon Sep 27 2021  9:39                                                Page 44


  2292                        L26:
  2293 07:0354: A8           	tay
  2294 07:0355: A5 66        	lda	<L22+2
  2295 07:0357: 85 6E        	sta	<L22+2+8
  2296 07:0359: A5 65        	lda	<L22+1
  2297 07:035B: 85 6D        	sta	<L22+1+8
  2298 07:035D: 2B           	pld
  2299 07:035E: 3B           	tsc
  2300 07:035F: 18           	clc
  2301 07:0360: 69 6C 00     	adc	#L22+8
  2302 07:0363: 1B           	tcs
  2303 07:0364: 98           	tya
  2304 07:0365: 6B           	rtl
  2305                        ;}
  2306                        	.line	134
  2307                        	.endblock	134
  2308             00000064   L22	equ	100
  2309             00000009   L23	equ	9
  2310 07:0366:              	ends
  2311                        	efunc
  2312                        	.endfunc	134,9,100
  2313                        	.line	134
  2314                        	data
  2315                        L21:
  2316 00:00A2: 63 6D 64 5F  	db	$63,$6D,$64,$5F,$45,$58,$49,$54,$0D,$0A,
                    $00,$23,$41,$42,$00
       00:00A6: 45 58 49 54 
       00:00AA: 0D 0A 00 23 
       00:00AE: 41 42 00 
  2317 00:00B1: 63 6D 64 5F  	db	$63,$6D,$64,$5F,$45,$58,$49,$54,$3A,$3A,
                    $6E,$61,$6D,$65,$3A
       00:00B5: 45 58 49 54 
       00:00B9: 3A 3A 6E 61 
       00:00BD: 6D 65 3A 
  2318 00:00C0: 00 63 6D 64  	db	$00,$63,$6D,$64,$5F,$45,$58,$49,$54,$3A,
                    $3A,$70,$72,$6F,$63
       00:00C4: 5F 45 58 49 
       00:00C8: 54 3A 3A 70 
       00:00CC: 72 6F 63 
  2319 00:00CF: 69 64 3A 00  	db	$69,$64,$3A,$00
  2320 00:00D3:              	ends
  2321                        ;
  2322                        ;UINT cmd_RESUME(PFXPROCESS process,PFXNODE tokens
                    )
  2323                        ;{
  2324                        	.line	136
  2325                        	.line	137
  2326                        	CONMAN
  2327                        	xdef	~~cmd_RESUME
  2328                        	func
  2329                        	.function	137
  2330                        ~~cmd_RESUME:
  2331                        	longa	on
  2332                        	longi	on
  2333 07:0366: 3B           	tsc
  2334 07:0367: 38           	sec
  2335 07:0368: E9 64 00     	sbc	#L28
  2336 07:036B: 1B           	tcs
  Mon Sep 27 2021  9:39                                                Page 45


  2337 07:036C: 0B           	phd
  2338 07:036D: 5B           	tcd
  2339             00000004   process_0	set	4
  2340             00000008   tokens_0	set	8
  2341                        	.block	137
  2342                        ;	LPCHAR  name = NULL;
  2343                        ;	LONG    procId = 0;
  2344                        ;	CHAR 	signature[16];
  2345                        ;
  2346                        ;	PFXPROCESS pprocess = NULL;
  2347                        ;
  2348                        ;	CHAR message[64];
  2349                        ;
  2350                        ;	k_debug_string("cmd_RESUME\r\n");
  2351             00000000   name_1	set	0
  2352             00000004   procId_1	set	4
  2353             00000008   signature_1	set	8
  2354             00000018   pprocess_1	set	24
  2355             0000001C   message_1	set	28
  2356                        	.sym	name,0,142,1,32
  2357                        	.sym	procId,4,7,1,32
  2358                        	.sym	signature,8,110,1,0,16
  2359                        	.sym	pprocess,24,138,1,32,20
  2360                        	.sym	message,28,110,1,0,64
  2361                        	.sym	process,4,138,6,32,20
  2362                        	.sym	tokens,8,138,6,32,5
  2363 07:036E: 64 09        	stz	<L29+name_1
  2364 07:0370: 64 0B        	stz	<L29+name_1+2
  2365 07:0372: 64 0D        	stz	<L29+procId_1
  2366 07:0374: 64 0F        	stz	<L29+procId_1+2
  2367 07:0376: 64 21        	stz	<L29+pprocess_1
  2368 07:0378: 64 23        	stz	<L29+pprocess_1+2
  2369                        	.line	146
  2370 07:037A: F4 xx xx     	pea	#^L27
  2371 07:037D: F4 xx xx     	pea	#<L27
  2372 07:0380: 22 xx xx xx  	jsl	~~k_debug_string
  2373                        ;
  2374                        ;	getTokenSig(tokens,signature);
  2375                        	.line	148
  2376 07:0384: F4 00 00     	pea	#0
  2377 07:0387: 18           	clc
  2378 07:0388: 7B           	tdc
  2379 07:0389: 69 11 00     	adc	#<L29+signature_1
  2380 07:038C: 48           	pha
  2381 07:038D: D4 6E        	pei	<L28+tokens_0+2
  2382 07:038F: D4 6C        	pei	<L28+tokens_0
  2383 07:0391: 22 xx xx xx  	jsl	~~getTokenSig
  2384                        ;
  2385                        ;	if(strcmp(signature,"#AB") == 0)
  2386                        	.line	150
  2387                        ;	{
  2388 07:0395: F4 xx xx     	pea	#^L27+13
  2389 07:0398: F4 xx xx     	pea	#<L27+13
  2390 07:039B: F4 00 00     	pea	#0
  2391 07:039E: 18           	clc
  2392 07:039F: 7B           	tdc
  2393 07:03A0: 69 11 00     	adc	#<L29+signature_1
  2394 07:03A3: 48           	pha
  Mon Sep 27 2021  9:39                                                Page 46


  2395 07:03A4: 22 xx xx xx  	jsl	~~strcmp
  2396 07:03A8: AA           	tax
  2397 07:03A9: F0 03        	beq	L31
  2398 07:03AB: 82 5B 00     	brl	L10008
  2399                        L31:
  2400                        	.line	151
  2401                        ;		name    = (LPCHAR)((PTOKEN)k_nodelist_ge
                    t(tokens,3)->data)->text;
  2402                        	.line	152
  2403 07:03AE: F4 03 00     	pea	#<$3
  2404 07:03B1: D4 6E        	pei	<L28+tokens_0+2
  2405 07:03B3: D4 6C        	pei	<L28+tokens_0
  2406 07:03B5: 22 xx xx xx  	jsl	~~k_nodelist_get
  2407 07:03B9: 85 01        	sta	<R0
  2408 07:03BB: 86 03        	stx	<R0+2
  2409 07:03BD: A0 02 00     	ldy	#$2
  2410 07:03C0: B7 01        	lda	[<R0],Y
  2411 07:03C2: 85 05        	sta	<R1
  2412 07:03C4: A0 04 00     	ldy	#$4
  2413 07:03C7: B7 01        	lda	[<R0],Y
  2414 07:03C9: 85 07        	sta	<R1+2
  2415 07:03CB: A0 04 00     	ldy	#$4
  2416 07:03CE: B7 05        	lda	[<R1],Y
  2417 07:03D0: 85 09        	sta	<L29+name_1
  2418 07:03D2: A0 06 00     	ldy	#$6
  2419 07:03D5: B7 05        	lda	[<R1],Y
  2420 07:03D7: 85 0B        	sta	<L29+name_1+2
  2421                        ;
  2422                        ;		k_debug_strings("cmd_RESUME::name:",name
                    );
  2423                        	.line	154
  2424 07:03D9: D4 0B        	pei	<L29+name_1+2
  2425 07:03DB: D4 09        	pei	<L29+name_1
  2426 07:03DD: F4 xx xx     	pea	#^L27+17
  2427 07:03E0: F4 xx xx     	pea	#<L27+17
  2428 07:03E3: 22 xx xx xx  	jsl	~~k_debug_strings
  2429                        ;
  2430                        ;		procId = atol(name);
  2431                        	.line	156
  2432 07:03E7: D4 0B        	pei	<L29+name_1+2
  2433 07:03E9: D4 09        	pei	<L29+name_1
  2434 07:03EB: 22 xx xx xx  	jsl	~~atol
  2435 07:03EF: 85 0D        	sta	<L29+procId_1
  2436 07:03F1: 86 0F        	stx	<L29+procId_1+2
  2437                        ;
  2438                        ;		k_debug_long("cmd_RESUME::procid:",procI
                    d);
  2439                        	.line	158
  2440 07:03F3: D4 0F        	pei	<L29+procId_1+2
  2441 07:03F5: D4 0D        	pei	<L29+procId_1
  2442 07:03F7: F4 xx xx     	pea	#^L27+35
  2443 07:03FA: F4 xx xx     	pea	#<L27+35
  2444 07:03FD: 22 xx xx xx  	jsl	~~k_debug_long
  2445                        ;
  2446                        ;		k_exec_signal_start(procId);
  2447                        	.line	160
  2448 07:0401: D4 0F        	pei	<L29+procId_1+2
  2449 07:0403: D4 0D        	pei	<L29+procId_1
  Mon Sep 27 2021  9:39                                                Page 47


  2450 07:0405: 22 xx xx xx  	jsl	~~k_exec_signal_start
  2451                        ;	}
  2452                        	.line	161
  2453                        ;
  2454                        ;	return 0;
  2455                        L10008:
  2456                        	.line	163
  2457 07:0409: A9 00 00     	lda	#$0
  2458                        L32:
  2459 07:040C: A8           	tay
  2460 07:040D: A5 66        	lda	<L28+2
  2461 07:040F: 85 6E        	sta	<L28+2+8
  2462 07:0411: A5 65        	lda	<L28+1
  2463 07:0413: 85 6D        	sta	<L28+1+8
  2464 07:0415: 2B           	pld
  2465 07:0416: 3B           	tsc
  2466 07:0417: 18           	clc
  2467 07:0418: 69 6C 00     	adc	#L28+8
  2468 07:041B: 1B           	tcs
  2469 07:041C: 98           	tya
  2470 07:041D: 6B           	rtl
  2471                        ;}
  2472                        	.line	164
  2473                        	.endblock	164
  2474             00000064   L28	equ	100
  2475             00000009   L29	equ	9
  2476 07:041E:              	ends
  2477                        	efunc
  2478                        	.endfunc	164,9,100
  2479                        	.line	164
  2480                        	data
  2481                        L27:
  2482 00:00D3: 63 6D 64 5F  	db	$63,$6D,$64,$5F,$52,$45,$53,$55,$4D,$45,
                    $0D,$0A,$00,$23,$41
       00:00D7: 52 45 53 55 
       00:00DB: 4D 45 0D 0A 
       00:00DF: 00 23 41 
  2483 00:00E2: 42 00 63 6D  	db	$42,$00,$63,$6D,$64,$5F,$52,$45,$53,$55,
                    $4D,$45,$3A,$3A,$6E
       00:00E6: 64 5F 52 45 
       00:00EA: 53 55 4D 45 
       00:00EE: 3A 3A 6E 
  2484 00:00F1: 61 6D 65 3A  	db	$61,$6D,$65,$3A,$00,$63,$6D,$64,$5F,$52,
                    $45,$53,$55,$4D,$45
       00:00F5: 00 63 6D 64 
       00:00F9: 5F 52 45 53 
       00:00FD: 55 4D 45 
  2485 00:0100: 3A 3A 70 72  	db	$3A,$3A,$70,$72,$6F,$63,$69,$64,$3A,$00
       00:0104: 6F 63 69 64 
       00:0108: 3A 00 
  2486 00:010A:              	ends
  2487                        ;
  2488                        ;UINT cmd_PAUSE(PFXPROCESS process,PFXNODE tokens)
  2489                        ;{
  2490                        	.line	166
  2491                        	.line	167
  2492                        	CONMAN
  2493                        	xdef	~~cmd_PAUSE
  Mon Sep 27 2021  9:39                                                Page 48


  2494                        	func
  2495                        	.function	167
  2496                        ~~cmd_PAUSE:
  2497                        	longa	on
  2498                        	longi	on
  2499 07:041E: 3B           	tsc
  2500 07:041F: 38           	sec
  2501 07:0420: E9 64 00     	sbc	#L34
  2502 07:0423: 1B           	tcs
  2503 07:0424: 0B           	phd
  2504 07:0425: 5B           	tcd
  2505             00000004   process_0	set	4
  2506             00000008   tokens_0	set	8
  2507                        	.block	167
  2508                        ;	LPCHAR  name = NULL;
  2509                        ;	LONG    procId = 0;
  2510                        ;	CHAR 	signature[16];
  2511                        ;
  2512                        ;	PFXPROCESS pprocess = NULL;
  2513                        ;
  2514                        ;	CHAR message[64];
  2515                        ;
  2516                        ;	k_debug_string("cmd_PAUSE\r\n");
  2517             00000000   name_1	set	0
  2518             00000004   procId_1	set	4
  2519             00000008   signature_1	set	8
  2520             00000018   pprocess_1	set	24
  2521             0000001C   message_1	set	28
  2522                        	.sym	name,0,142,1,32
  2523                        	.sym	procId,4,7,1,32
  2524                        	.sym	signature,8,110,1,0,16
  2525                        	.sym	pprocess,24,138,1,32,20
  2526                        	.sym	message,28,110,1,0,64
  2527                        	.sym	process,4,138,6,32,20
  2528                        	.sym	tokens,8,138,6,32,5
  2529 07:0426: 64 09        	stz	<L35+name_1
  2530 07:0428: 64 0B        	stz	<L35+name_1+2
  2531 07:042A: 64 0D        	stz	<L35+procId_1
  2532 07:042C: 64 0F        	stz	<L35+procId_1+2
  2533 07:042E: 64 21        	stz	<L35+pprocess_1
  2534 07:0430: 64 23        	stz	<L35+pprocess_1+2
  2535                        	.line	176
  2536 07:0432: F4 xx xx     	pea	#^L33
  2537 07:0435: F4 xx xx     	pea	#<L33
  2538 07:0438: 22 xx xx xx  	jsl	~~k_debug_string
  2539                        ;
  2540                        ;	getTokenSig(tokens,signature);
  2541                        	.line	178
  2542 07:043C: F4 00 00     	pea	#0
  2543 07:043F: 18           	clc
  2544 07:0440: 7B           	tdc
  2545 07:0441: 69 11 00     	adc	#<L35+signature_1
  2546 07:0444: 48           	pha
  2547 07:0445: D4 6E        	pei	<L34+tokens_0+2
  2548 07:0447: D4 6C        	pei	<L34+tokens_0
  2549 07:0449: 22 xx xx xx  	jsl	~~getTokenSig
  2550                        ;
  2551                        ;	if(strcmp(signature,"#AB") == 0)
  Mon Sep 27 2021  9:39                                                Page 49


  2552                        	.line	180
  2553                        ;	{
  2554 07:044D: F4 xx xx     	pea	#^L33+12
  2555 07:0450: F4 xx xx     	pea	#<L33+12
  2556 07:0453: F4 00 00     	pea	#0
  2557 07:0456: 18           	clc
  2558 07:0457: 7B           	tdc
  2559 07:0458: 69 11 00     	adc	#<L35+signature_1
  2560 07:045B: 48           	pha
  2561 07:045C: 22 xx xx xx  	jsl	~~strcmp
  2562 07:0460: AA           	tax
  2563 07:0461: F0 03        	beq	L37
  2564 07:0463: 82 5B 00     	brl	L10009
  2565                        L37:
  2566                        	.line	181
  2567                        ;		name    = (LPCHAR)((PTOKEN)k_nodelist_ge
                    t(tokens,3)->data)->text;
  2568                        	.line	182
  2569 07:0466: F4 03 00     	pea	#<$3
  2570 07:0469: D4 6E        	pei	<L34+tokens_0+2
  2571 07:046B: D4 6C        	pei	<L34+tokens_0
  2572 07:046D: 22 xx xx xx  	jsl	~~k_nodelist_get
  2573 07:0471: 85 01        	sta	<R0
  2574 07:0473: 86 03        	stx	<R0+2
  2575 07:0475: A0 02 00     	ldy	#$2
  2576 07:0478: B7 01        	lda	[<R0],Y
  2577 07:047A: 85 05        	sta	<R1
  2578 07:047C: A0 04 00     	ldy	#$4
  2579 07:047F: B7 01        	lda	[<R0],Y
  2580 07:0481: 85 07        	sta	<R1+2
  2581 07:0483: A0 04 00     	ldy	#$4
  2582 07:0486: B7 05        	lda	[<R1],Y
  2583 07:0488: 85 09        	sta	<L35+name_1
  2584 07:048A: A0 06 00     	ldy	#$6
  2585 07:048D: B7 05        	lda	[<R1],Y
  2586 07:048F: 85 0B        	sta	<L35+name_1+2
  2587                        ;
  2588                        ;		k_debug_strings("cmd_PAUSE::name:",name)
                    ;
  2589                        	.line	184
  2590 07:0491: D4 0B        	pei	<L35+name_1+2
  2591 07:0493: D4 09        	pei	<L35+name_1
  2592 07:0495: F4 xx xx     	pea	#^L33+16
  2593 07:0498: F4 xx xx     	pea	#<L33+16
  2594 07:049B: 22 xx xx xx  	jsl	~~k_debug_strings
  2595                        ;
  2596                        ;		procId = atol(name);
  2597                        	.line	186
  2598 07:049F: D4 0B        	pei	<L35+name_1+2
  2599 07:04A1: D4 09        	pei	<L35+name_1
  2600 07:04A3: 22 xx xx xx  	jsl	~~atol
  2601 07:04A7: 85 0D        	sta	<L35+procId_1
  2602 07:04A9: 86 0F        	stx	<L35+procId_1+2
  2603                        ;
  2604                        ;		k_debug_long("cmd_PAUSE::procid:",procId
                    );
  2605                        	.line	188
  2606 07:04AB: D4 0F        	pei	<L35+procId_1+2
  Mon Sep 27 2021  9:39                                                Page 50


  2607 07:04AD: D4 0D        	pei	<L35+procId_1
  2608 07:04AF: F4 xx xx     	pea	#^L33+33
  2609 07:04B2: F4 xx xx     	pea	#<L33+33
  2610 07:04B5: 22 xx xx xx  	jsl	~~k_debug_long
  2611                        ;
  2612                        ;		k_exec_signal_sleep(procId);
  2613                        	.line	190
  2614 07:04B9: D4 0F        	pei	<L35+procId_1+2
  2615 07:04BB: D4 0D        	pei	<L35+procId_1
  2616 07:04BD: 22 xx xx xx  	jsl	~~k_exec_signal_sleep
  2617                        ;	}
  2618                        	.line	191
  2619                        ;
  2620                        ;	return 0;
  2621                        L10009:
  2622                        	.line	193
  2623 07:04C1: A9 00 00     	lda	#$0
  2624                        L38:
  2625 07:04C4: A8           	tay
  2626 07:04C5: A5 66        	lda	<L34+2
  2627 07:04C7: 85 6E        	sta	<L34+2+8
  2628 07:04C9: A5 65        	lda	<L34+1
  2629 07:04CB: 85 6D        	sta	<L34+1+8
  2630 07:04CD: 2B           	pld
  2631 07:04CE: 3B           	tsc
  2632 07:04CF: 18           	clc
  2633 07:04D0: 69 6C 00     	adc	#L34+8
  2634 07:04D3: 1B           	tcs
  2635 07:04D4: 98           	tya
  2636 07:04D5: 6B           	rtl
  2637                        ;}
  2638                        	.line	194
  2639                        	.endblock	194
  2640             00000064   L34	equ	100
  2641             00000009   L35	equ	9
  2642 07:04D6:              	ends
  2643                        	efunc
  2644                        	.endfunc	194,9,100
  2645                        	.line	194
  2646                        	data
  2647                        L33:
  2648 00:010A: 63 6D 64 5F  	db	$63,$6D,$64,$5F,$50,$41,$55,$53,$45,$0D,
                    $0A,$00,$23,$41,$42
       00:010E: 50 41 55 53 
       00:0112: 45 0D 0A 00 
       00:0116: 23 41 42 
  2649 00:0119: 00 63 6D 64  	db	$00,$63,$6D,$64,$5F,$50,$41,$55,$53,$45,
                    $3A,$3A,$6E,$61,$6D
       00:011D: 5F 50 41 55 
       00:0121: 53 45 3A 3A 
       00:0125: 6E 61 6D 
  2650 00:0128: 65 3A 00 63  	db	$65,$3A,$00,$63,$6D,$64,$5F,$50,$41,$55,
                    $53,$45,$3A,$3A,$70
       00:012C: 6D 64 5F 50 
       00:0130: 41 55 53 45 
       00:0134: 3A 3A 70 
  2651 00:0137: 72 6F 63 69  	db	$72,$6F,$63,$69,$64,$3A,$00
       00:013B: 64 3A 00 
  Mon Sep 27 2021  9:39                                                Page 51


  2652 00:013E:              	ends
  2653                        ;
  2654                        ;
  2655                        ;UINT cmd_DIR(PFXPROCESS process,PFXNODE tokens)
  2656                        ;{
  2657                        	.line	197
  2658                        	.line	198
  2659                        	CONMAN
  2660                        	xdef	~~cmd_DIR
  2661                        	func
  2662                        	.function	198
  2663                        ~~cmd_DIR:
  2664                        	longa	on
  2665                        	longi	on
  2666 07:04D6: 3B           	tsc
  2667 07:04D7: 38           	sec
  2668 07:04D8: E9 54 00     	sbc	#L40
  2669 07:04DB: 1B           	tcs
  2670 07:04DC: 0B           	phd
  2671 07:04DD: 5B           	tcd
  2672             00000004   process_0	set	4
  2673             00000008   tokens_0	set	8
  2674                        	.block	198
  2675                        ;	BYTE 	signature[8];
  2676                        ;
  2677                        ;	PFXNODE dirList = NULL;
  2678                        ;	LPCHAR  drive   = NULL;
  2679                        ;	LPCHAR  path   = NULL;
  2680                        ;	LPCHAR	diskName = NULL;
  2681                        ;
  2682                        ;	DISKINFO diskInfo;
  2683                        ;
  2684                        ;	k_debug_string("cmd_DIR\r\n");
  2685             00000000   signature_1	set	0
  2686             00000008   dirList_1	set	8
  2687             0000000C   drive_1	set	12
  2688             00000010   path_1	set	16
  2689             00000014   diskName_1	set	20
  2690             00000018   diskInfo_1	set	24
  2691                        	.sym	signature,0,110,1,0,8
  2692                        	.sym	dirList,8,138,1,32,5
  2693                        	.sym	drive,12,142,1,32
  2694                        	.sym	path,16,142,1,32
  2695                        	.sym	diskName,20,142,1,32
  2696                        	.sym	diskInfo,24,10,1,416,91
  2697                        	.sym	process,4,138,6,32,20
  2698                        	.sym	tokens,8,138,6,32,5
  2699 07:04DE: 64 11        	stz	<L41+dirList_1
  2700 07:04E0: 64 13        	stz	<L41+dirList_1+2
  2701 07:04E2: 64 15        	stz	<L41+drive_1
  2702 07:04E4: 64 17        	stz	<L41+drive_1+2
  2703 07:04E6: 64 19        	stz	<L41+path_1
  2704 07:04E8: 64 1B        	stz	<L41+path_1+2
  2705 07:04EA: 64 1D        	stz	<L41+diskName_1
  2706 07:04EC: 64 1F        	stz	<L41+diskName_1+2
  2707                        	.line	208
  2708 07:04EE: F4 xx xx     	pea	#^L39
  2709 07:04F1: F4 xx xx     	pea	#<L39
  Mon Sep 27 2021  9:39                                                Page 52


  2710 07:04F4: 22 xx xx xx  	jsl	~~k_debug_string
  2711                        ;
  2712                        ;	getTokenSig(tokens,signature);
  2713                        	.line	210
  2714 07:04F8: F4 00 00     	pea	#0
  2715 07:04FB: 18           	clc
  2716 07:04FC: 7B           	tdc
  2717 07:04FD: 69 09 00     	adc	#<L41+signature_1
  2718 07:0500: 48           	pha
  2719 07:0501: D4 5E        	pei	<L40+tokens_0+2
  2720 07:0503: D4 5C        	pei	<L40+tokens_0
  2721 07:0505: 22 xx xx xx  	jsl	~~getTokenSig
  2722                        ;
  2723                        ;	if(strcmp(signature,"#AAC") == 0)
  2724                        	.line	212
  2725                        ;	{
  2726 07:0509: F4 xx xx     	pea	#^L39+10
  2727 07:050C: F4 xx xx     	pea	#<L39+10
  2728 07:050F: F4 00 00     	pea	#0
  2729 07:0512: 18           	clc
  2730 07:0513: 7B           	tdc
  2731 07:0514: 69 09 00     	adc	#<L41+signature_1
  2732 07:0517: 48           	pha
  2733 07:0518: 22 xx xx xx  	jsl	~~strcmp
  2734 07:051C: AA           	tax
  2735 07:051D: F0 03        	beq	L43
  2736 07:051F: 82 83 00     	brl	L10010
  2737                        L43:
  2738                        	.line	213
  2739                        ;		drive = (LPCHAR)((PTOKEN)k_nodelist_get(
                    tokens,3)->data)->text;
  2740                        	.line	214
  2741 07:0522: F4 03 00     	pea	#<$3
  2742 07:0525: D4 5E        	pei	<L40+tokens_0+2
  2743 07:0527: D4 5C        	pei	<L40+tokens_0
  2744 07:0529: 22 xx xx xx  	jsl	~~k_nodelist_get
  2745 07:052D: 85 01        	sta	<R0
  2746 07:052F: 86 03        	stx	<R0+2
  2747 07:0531: A0 02 00     	ldy	#$2
  2748 07:0534: B7 01        	lda	[<R0],Y
  2749 07:0536: 85 05        	sta	<R1
  2750 07:0538: A0 04 00     	ldy	#$4
  2751 07:053B: B7 01        	lda	[<R0],Y
  2752 07:053D: 85 07        	sta	<R1+2
  2753 07:053F: A0 04 00     	ldy	#$4
  2754 07:0542: B7 05        	lda	[<R1],Y
  2755 07:0544: 85 15        	sta	<L41+drive_1
  2756 07:0546: A0 06 00     	ldy	#$6
  2757 07:0549: B7 05        	lda	[<R1],Y
  2758 07:054B: 85 17        	sta	<L41+drive_1+2
  2759                        ;		path  = (LPCHAR)((PTOKEN)k_nodelist_get(
                    tokens,4)->data)->text;
  2760                        	.line	215
  2761 07:054D: F4 04 00     	pea	#<$4
  2762 07:0550: D4 5E        	pei	<L40+tokens_0+2
  2763 07:0552: D4 5C        	pei	<L40+tokens_0
  2764 07:0554: 22 xx xx xx  	jsl	~~k_nodelist_get
  2765 07:0558: 85 01        	sta	<R0
  Mon Sep 27 2021  9:39                                                Page 53


  2766 07:055A: 86 03        	stx	<R0+2
  2767 07:055C: A0 02 00     	ldy	#$2
  2768 07:055F: B7 01        	lda	[<R0],Y
  2769 07:0561: 85 05        	sta	<R1
  2770 07:0563: A0 04 00     	ldy	#$4
  2771 07:0566: B7 01        	lda	[<R0],Y
  2772 07:0568: 85 07        	sta	<R1+2
  2773 07:056A: A0 04 00     	ldy	#$4
  2774 07:056D: B7 05        	lda	[<R1],Y
  2775 07:056F: 85 19        	sta	<L41+path_1
  2776 07:0571: A0 06 00     	ldy	#$6
  2777 07:0574: B7 05        	lda	[<R1],Y
  2778 07:0576: 85 1B        	sta	<L41+path_1+2
  2779                        ;
  2780                        ;		k_debug_strings("cmd_DIR::drive:",drive)
                    ;
  2781                        	.line	217
  2782 07:0578: D4 17        	pei	<L41+drive_1+2
  2783 07:057A: D4 15        	pei	<L41+drive_1
  2784 07:057C: F4 xx xx     	pea	#^L39+15
  2785 07:057F: F4 xx xx     	pea	#<L39+15
  2786 07:0582: 22 xx xx xx  	jsl	~~k_debug_strings
  2787                        ;		k_debug_strings("cmd_DIR::path:",path);
  2788                        	.line	218
  2789 07:0586: D4 1B        	pei	<L41+path_1+2
  2790 07:0588: D4 19        	pei	<L41+path_1
  2791 07:058A: F4 xx xx     	pea	#^L39+31
  2792 07:058D: F4 xx xx     	pea	#<L39+31
  2793 07:0590: 22 xx xx xx  	jsl	~~k_debug_strings
  2794                        ;		k_debug_strings("cmd_DIR::drive:",drive)
                    ;
  2795                        	.line	219
  2796 07:0594: D4 17        	pei	<L41+drive_1+2
  2797 07:0596: D4 15        	pei	<L41+drive_1
  2798 07:0598: F4 xx xx     	pea	#^L39+46
  2799 07:059B: F4 xx xx     	pea	#<L39+46
  2800 07:059E: 22 xx xx xx  	jsl	~~k_debug_strings
  2801                        ;
  2802                        ;		/*
  2803                        ;		if(strcmp(drive,"pc") == 0)
  2804                        ;		{
  2805                        ;			k_debug_string_com1("%SUBDIRECTO
                    RY%");
  2806                        ;			k_debug_string_com1(path);
  2807                        ;		}
  2808                        ;		*/
  2809                        ;
  2810                        ;	}
  2811                        	.line	229
  2812                        ;	else if(strcmp(signature,"#AA") == 0)
  2813 07:05A2: 82 6E 00     	brl	L10011
  2814                        L10010:
  2815                        	.line	230
  2816                        ;	{
  2817 07:05A5: F4 xx xx     	pea	#^L39+62
  2818 07:05A8: F4 xx xx     	pea	#<L39+62
  2819 07:05AB: F4 00 00     	pea	#0
  2820 07:05AE: 18           	clc
  Mon Sep 27 2021  9:39                                                Page 54


  2821 07:05AF: 7B           	tdc
  2822 07:05B0: 69 09 00     	adc	#<L41+signature_1
  2823 07:05B3: 48           	pha
  2824 07:05B4: 22 xx xx xx  	jsl	~~strcmp
  2825 07:05B8: AA           	tax
  2826 07:05B9: F0 03        	beq	L44
  2827 07:05BB: 82 3C 00     	brl	L10012
  2828                        L44:
  2829                        	.line	231
  2830                        ;		drive = (LPCHAR)((PTOKEN)k_nodelist_get(
                    tokens,3)->data)->text;
  2831                        	.line	232
  2832 07:05BE: F4 03 00     	pea	#<$3
  2833 07:05C1: D4 5E        	pei	<L40+tokens_0+2
  2834 07:05C3: D4 5C        	pei	<L40+tokens_0
  2835 07:05C5: 22 xx xx xx  	jsl	~~k_nodelist_get
  2836 07:05C9: 85 01        	sta	<R0
  2837 07:05CB: 86 03        	stx	<R0+2
  2838 07:05CD: A0 02 00     	ldy	#$2
  2839 07:05D0: B7 01        	lda	[<R0],Y
  2840 07:05D2: 85 05        	sta	<R1
  2841 07:05D4: A0 04 00     	ldy	#$4
  2842 07:05D7: B7 01        	lda	[<R0],Y
  2843 07:05D9: 85 07        	sta	<R1+2
  2844 07:05DB: A0 04 00     	ldy	#$4
  2845 07:05DE: B7 05        	lda	[<R1],Y
  2846 07:05E0: 85 15        	sta	<L41+drive_1
  2847 07:05E2: A0 06 00     	ldy	#$6
  2848 07:05E5: B7 05        	lda	[<R1],Y
  2849 07:05E7: 85 17        	sta	<L41+drive_1+2
  2850                        ;
  2851                        ;		k_debug_strings("cmd_DIR::drive:",drive)
                    ;
  2852                        	.line	234
  2853 07:05E9: D4 17        	pei	<L41+drive_1+2
  2854 07:05EB: D4 15        	pei	<L41+drive_1
  2855 07:05ED: F4 xx xx     	pea	#^L39+66
  2856 07:05F0: F4 xx xx     	pea	#<L39+66
  2857 07:05F3: 22 xx xx xx  	jsl	~~k_debug_strings
  2858                        ;
  2859                        ;		/*
  2860                        ;		if(strcmp(drive,"pc") == 0)
  2861                        ;		{
  2862                        ;			k_debug_string_com1("%DIRECTORY%
                    ");
  2863                        ;		}
  2864                        ;		else if(strcmp(drive,"sd") == 0)
  2865                        ;		{
  2866                        ;			dirList = k_sd_read_dir();
  2867                        ;			if(dirList!=NULL)
  2868                        ;			{
  2869                        ;				k_clear_screen(0);
  2870                        ;
  2871                        ;				process->consoleCtl->cur
                    X = 0;
  2872                        ;				process->consoleCtl->cur
                    Y = 0;
  2873                        ;
  Mon Sep 27 2021  9:39                                                Page 55


  2874                        ;				k_nodelist_foreach_data(
                    dirList,process,foreach_file_entry);
  2875                        ;				k_dos_dealloc_filelist(d
                    irList);
  2876                        ;				process->consoleCtl->cur
                    Y++;
  2877                        ;			}
  2878                        ;		}
  2879                        ;		*/
  2880                        ;	}
  2881                        	.line	257
  2882                        ;	else if(strcmp(signature,"#A") == 0)
  2883 07:05F7: 82 19 00     	brl	L10013
  2884                        L10012:
  2885                        	.line	258
  2886                        ;	{
  2887 07:05FA: F4 xx xx     	pea	#^L39+82
  2888 07:05FD: F4 xx xx     	pea	#<L39+82
  2889 07:0600: F4 00 00     	pea	#0
  2890 07:0603: 18           	clc
  2891 07:0604: 7B           	tdc
  2892 07:0605: 69 09 00     	adc	#<L41+signature_1
  2893 07:0608: 48           	pha
  2894 07:0609: 22 xx xx xx  	jsl	~~strcmp
  2895 07:060D: AA           	tax
  2896 07:060E: F0 03        	beq	L45
  2897 07:0610: 82 00 00     	brl	L10014
  2898                        L45:
  2899                        	.line	259
  2900                        ;		/*
  2901                        ;		dirList = k_sd_read_dir();
  2902                        ;		if(dirList!=NULL)
  2903                        ;		{
  2904                        ;			k_clear_screen(0);
  2905                        ;
  2906                        ;			process->consoleCtl->curX = 0;
  2907                        ;			process->consoleCtl->curY = 0;
  2908                        ;
  2909                        ;			k_nodelist_foreach_data(dirList,
                    process,foreach_file_entry);
  2910                        ;			k_dos_dealloc_filelist(dirList);
  2911                        ;
  2912                        ;			process->consoleCtl->curY++;
  2913                        ;		}
  2914                        ;		*/
  2915                        ;	}
  2916                        	.line	275
  2917                        ;
  2918                        ;	/*
  2919                        ;	if(strcmp(signature,"#AAC") == 0)
  2920                        ;	{
  2921                        ;		drive = (LPCHAR)((PTOKEN)k_nodelist_get(
                    tokens,3)->data)->text;
  2922                        ;		path  = (LPCHAR)((PTOKEN)k_nodelist_get(
                    tokens,4)->data)->text;
  2923                        ;
  2924                        ;		k_debug_strings("cmd_DIR::drive:",drive)
                    ;
  Mon Sep 27 2021  9:39                                                Page 56


  2925                        ;		k_debug_strings("cmd_DIR::path:",path);
  2926                        ;		k_debug_strings("cmd_DIR::drive:",drive)
                    ;
  2927                        ;
  2928                        ;		if(strcmp(drive,"pc") == 0)
  2929                        ;		{
  2930                        ;			k_debug_string_com1("%SUBDIRECTO
                    RY%");
  2931                        ;			k_debug_string_com1(path);
  2932                        ;		}
  2933                        ;
  2934                        ;	}
  2935                        ;	else if(strcmp(signature,"#AA") == 0)
  2936                        ;	{
  2937                        ;		drive = (LPCHAR)((PTOKEN)k_nodelist_get(
                    tokens,3)->data)->text;
  2938                        ;
  2939                        ;		k_debug_strings("cmd_DIR::drive:",drive)
                    ;
  2940                        ;
  2941                        ;		if(strcmp(drive,"pc") == 0)
  2942                        ;		{
  2943                        ;			k_debug_string_com1("%DIRECTORY%
                    ");
  2944                        ;		}
  2945                        ;		else if(strcmp(drive,"sd") == 0)
  2946                        ;		{
  2947                        ;			dirList = k_sd_read_dir();
  2948                        ;			if(dirList!=NULL)
  2949                        ;			{
  2950                        ;				k_clear_screen(0);
  2951                        ;
  2952                        ;				process->consoleCtl->cur
                    X = 0;
  2953                        ;				process->consoleCtl->cur
                    Y = 0;
  2954                        ;
  2955                        ;				k_nodelist_foreach_data(
                    dirList,process,foreach_file_entry);
  2956                        ;				k_dos_dealloc_filelist(d
                    irList);
  2957                        ;				process->consoleCtl->cur
                    Y++;
  2958                        ;			}
  2959                        ;		}
  2960                        ;	}
  2961                        ;	else if(strcmp(signature,"#A") == 0)
  2962                        ;	{
  2963                        ;		dirList = k_sd_read_dir();
  2964                        ;		if(dirList!=NULL)
  2965                        ;		{
  2966                        ;			k_clear_screen(0);
  2967                        ;
  2968                        ;			process->consoleCtl->curX = 0;
  2969                        ;			process->consoleCtl->curY = 0;
  2970                        ;
  2971                        ;			k_nodelist_foreach_data(dirList,
                    process,foreach_file_entry);
  Mon Sep 27 2021  9:39                                                Page 57


  2972                        ;			k_dos_dealloc_filelist(dirList);
  2973                        ;
  2974                        ;			process->consoleCtl->curY++;
  2975                        ;		}
  2976                        ;	}
  2977                        ;	else
  2978                        ;	{
  2979                        ;		k_debug_string("DIR Syntax Error\r\n");
  2980                        ;	}
  2981                        ;	*/
  2982                        ;
  2983                        ;
  2984                        ;	return 0;
  2985                        L10014:
  2986                        L10013:
  2987                        L10011:
  2988                        	.line	343
  2989 07:0613: A9 00 00     	lda	#$0
  2990                        L46:
  2991 07:0616: A8           	tay
  2992 07:0617: A5 56        	lda	<L40+2
  2993 07:0619: 85 5E        	sta	<L40+2+8
  2994 07:061B: A5 55        	lda	<L40+1
  2995 07:061D: 85 5D        	sta	<L40+1+8
  2996 07:061F: 2B           	pld
  2997 07:0620: 3B           	tsc
  2998 07:0621: 18           	clc
  2999 07:0622: 69 5C 00     	adc	#L40+8
  3000 07:0625: 1B           	tcs
  3001 07:0626: 98           	tya
  3002 07:0627: 6B           	rtl
  3003                        ;}
  3004                        	.line	344
  3005                        	.endblock	344
  3006             00000054   L40	equ	84
  3007             00000009   L41	equ	9
  3008 07:0628:              	ends
  3009                        	efunc
  3010                        	.endfunc	344,9,84
  3011                        	.line	344
  3012                        	data
  3013                        L39:
  3014 00:013E: 63 6D 64 5F  	db	$63,$6D,$64,$5F,$44,$49,$52,$0D,$0A,$00,
                    $23,$41,$41,$43,$00
       00:0142: 44 49 52 0D 
       00:0146: 0A 00 23 41 
       00:014A: 41 43 00 
  3015 00:014D: 63 6D 64 5F  	db	$63,$6D,$64,$5F,$44,$49,$52,$3A,$3A,$64,
                    $72,$69,$76,$65,$3A
       00:0151: 44 49 52 3A 
       00:0155: 3A 64 72 69 
       00:0159: 76 65 3A 
  3016 00:015C: 00 63 6D 64  	db	$00,$63,$6D,$64,$5F,$44,$49,$52,$3A,$3A,
                    $70,$61,$74,$68,$3A
       00:0160: 5F 44 49 52 
       00:0164: 3A 3A 70 61 
       00:0168: 74 68 3A 
  3017 00:016B: 00 63 6D 64  	db	$00,$63,$6D,$64,$5F,$44,$49,$52,$3A,$3A,
  Mon Sep 27 2021  9:39                                                Page 58


                    $64,$72,$69,$76,$65
       00:016F: 5F 44 49 52 
       00:0173: 3A 3A 64 72 
       00:0177: 69 76 65 
  3018 00:017A: 3A 00 23 41  	db	$3A,$00,$23,$41,$41,$00,$63,$6D,$64,$5F,
                    $44,$49,$52,$3A,$3A
       00:017E: 41 00 63 6D 
       00:0182: 64 5F 44 49 
       00:0186: 52 3A 3A 
  3019 00:0189: 64 72 69 76  	db	$64,$72,$69,$76,$65,$3A,$00,$23,$41,$00
       00:018D: 65 3A 00 23 
       00:0191: 41 00 
  3020 00:0193:              	ends
  3021                        ;
  3022                        ;UINT cmd_VOL(PFXPROCESS process,PFXNODE tokens)
  3023                        ;{
  3024                        	.line	346
  3025                        	.line	347
  3026                        	CONMAN
  3027                        	xdef	~~cmd_VOL
  3028                        	func
  3029                        	.function	347
  3030                        ~~cmd_VOL:
  3031                        	longa	on
  3032                        	longi	on
  3033 07:0628: 3B           	tsc
  3034 07:0629: 38           	sec
  3035 07:062A: E9 36 00     	sbc	#L48
  3036 07:062D: 1B           	tcs
  3037 07:062E: 0B           	phd
  3038 07:062F: 5B           	tcd
  3039             00000004   process_0	set	4
  3040             00000008   tokens_0	set	8
  3041                        	.block	347
  3042                        ;	int pos = 0;
  3043                        ;	DISKINFO diskInfo;
  3044                        ;
  3045                        ;	k_debug_string("cmd_VOL\r\n");
  3046             00000000   pos_1	set	0
  3047             00000002   diskInfo_1	set	2
  3048                        	.sym	pos,0,5,1,16
  3049                        	.sym	diskInfo,2,10,1,416,91
  3050                        	.sym	process,4,138,6,32,20
  3051                        	.sym	tokens,8,138,6,32,5
  3052 07:0630: 64 01        	stz	<L49+pos_1
  3053                        	.line	351
  3054 07:0632: F4 xx xx     	pea	#^L47
  3055 07:0635: F4 xx xx     	pea	#<L47
  3056 07:0638: 22 xx xx xx  	jsl	~~k_debug_string
  3057                        ;
  3058                        ;	/*
  3059                        ;	if(k_sd_read_vol(&diskInfo))
  3060                        ;	{
  3061                        ;		k_clear_screen(0);
  3062                        ;
  3063                        ;		process->consoleCtl->curX = 0;
  3064                        ;		process->consoleCtl->curY = 0;
  3065                        ;
  Mon Sep 27 2021  9:39                                                Page 59


  3066                        ;		pos = k_put_string(0,process->consoleCtl
                    ->curY,"Volume:",15,0);
  3067                        ;		process->consoleCtl->curY++;
  3068                        ;		pos = k_put_string(0,process->consoleCtl
                    ->curY,diskInfo.stgName,15,0);
  3069                        ;
  3070                        ;		//k_send_message(NULL,FX_DISK_INSERT,&di
                    skInfo,sizeof(DISKINFO));
  3071                        ;	}
  3072                        ;	else
  3073                        ;	{
  3074                        ;		//k_send_message(NULL,FX_DISK_REMOVE,NUL
                    L,0);
  3075                        ;	}
  3076                        ;	*/
  3077                        ;	return 0;
  3078                        	.line	372
  3079 07:063C: A9 00 00     	lda	#$0
  3080                        L51:
  3081 07:063F: A8           	tay
  3082 07:0640: A5 38        	lda	<L48+2
  3083 07:0642: 85 40        	sta	<L48+2+8
  3084 07:0644: A5 37        	lda	<L48+1
  3085 07:0646: 85 3F        	sta	<L48+1+8
  3086 07:0648: 2B           	pld
  3087 07:0649: 3B           	tsc
  3088 07:064A: 18           	clc
  3089 07:064B: 69 3E 00     	adc	#L48+8
  3090 07:064E: 1B           	tcs
  3091 07:064F: 98           	tya
  3092 07:0650: 6B           	rtl
  3093                        ;}
  3094                        	.line	373
  3095                        	.endblock	373
  3096             00000036   L48	equ	54
  3097             00000001   L49	equ	1
  3098 07:0651:              	ends
  3099                        	efunc
  3100                        	.endfunc	373,1,54
  3101                        	.line	373
  3102                        	data
  3103                        L47:
  3104 00:0193: 63 6D 64 5F  	db	$63,$6D,$64,$5F,$56,$4F,$4C,$0D,$0A,$00
       00:0197: 56 4F 4C 0D 
       00:019B: 0A 00 
  3105 00:019D:              	ends
  3106                        ;
  3107                        ;UINT cmd_TESTSD(PFXPROCESS process,PFXNODE tokens
                    )
  3108                        ;{
  3109                        	.line	375
  3110                        	.line	376
  3111                        	CONMAN
  3112                        	xdef	~~cmd_TESTSD
  3113                        	func
  3114                        	.function	376
  3115                        ~~cmd_TESTSD:
  3116                        	longa	on
  Mon Sep 27 2021  9:39                                                Page 60


  3117                        	longi	on
  3118 07:0651: 3B           	tsc
  3119 07:0652: 38           	sec
  3120 07:0653: E9 00 00     	sbc	#L53
  3121 07:0656: 1B           	tcs
  3122 07:0657: 0B           	phd
  3123 07:0658: 5B           	tcd
  3124             00000004   process_0	set	4
  3125             00000008   tokens_0	set	8
  3126                        	.block	376
  3127                        ;	//k_sd_test();
  3128                        ;
  3129                        ;	return 0;
  3130                        	.sym	process,4,138,6,32,20
  3131                        	.sym	tokens,8,138,6,32,5
  3132                        	.line	379
  3133 07:0659: A9 00 00     	lda	#$0
  3134                        L56:
  3135 07:065C: A8           	tay
  3136 07:065D: A5 02        	lda	<L53+2
  3137 07:065F: 85 0A        	sta	<L53+2+8
  3138 07:0661: A5 01        	lda	<L53+1
  3139 07:0663: 85 09        	sta	<L53+1+8
  3140 07:0665: 2B           	pld
  3141 07:0666: 3B           	tsc
  3142 07:0667: 18           	clc
  3143 07:0668: 69 08 00     	adc	#L53+8
  3144 07:066B: 1B           	tcs
  3145 07:066C: 98           	tya
  3146 07:066D: 6B           	rtl
  3147                        ;}
  3148                        	.line	380
  3149                        	.endblock	380
  3150             00000000   L53	equ	0
  3151             00000001   L54	equ	1
  3152 07:066E:              	ends
  3153                        	efunc
  3154                        	.endfunc	380,1,0
  3155                        	.line	380
  3156                        ;
  3157                        ;
  3158                        ;UINT cmd_WORKBENCH(PFXPROCESS process,PFXNODE tok
                    ens)
  3159                        ;{
  3160                        	.line	383
  3161                        	.line	384
  3162                        	CONMAN
  3163                        	xdef	~~cmd_WORKBENCH
  3164                        	func
  3165                        	.function	384
  3166                        ~~cmd_WORKBENCH:
  3167                        	longa	on
  3168                        	longi	on
  3169 07:066E: 3B           	tsc
  3170 07:066F: 38           	sec
  3171 07:0670: E9 04 00     	sbc	#L57
  3172 07:0673: 1B           	tcs
  3173 07:0674: 0B           	phd
  Mon Sep 27 2021  9:39                                                Page 61


  3174 07:0675: 5B           	tcd
  3175             00000004   process_0	set	4
  3176             00000008   tokens_0	set	8
  3177                        	.block	384
  3178                        ;	k_debug_string("cmd_WORKBENCH\r\n");
  3179                        	.sym	process,4,138,6,32,20
  3180                        	.sym	tokens,8,138,6,32,5
  3181                        	.line	385
  3182 07:0676: F4 xx xx     	pea	#^L52
  3183 07:0679: F4 xx xx     	pea	#<L52
  3184 07:067C: 22 xx xx xx  	jsl	~~k_debug_string
  3185                        ;	k_init_desktop(process);
  3186                        	.line	386
  3187 07:0680: D4 0A        	pei	<L57+process_0+2
  3188 07:0682: D4 08        	pei	<L57+process_0
  3189 07:0684: 22 xx xx xx  	jsl	~~k_init_desktop
  3190                        ;
  3191                        ;	process->consoleCtl->desktopMode = TRUE;
  3192                        	.line	388
  3193 07:0688: A0 54 00     	ldy	#$54
  3194 07:068B: B7 08        	lda	[<L57+process_0],Y
  3195 07:068D: 85 01        	sta	<R0
  3196 07:068F: A0 56 00     	ldy	#$56
  3197 07:0692: B7 08        	lda	[<L57+process_0],Y
  3198 07:0694: 85 03        	sta	<R0+2
  3199 07:0696: E2 20        	sep	#$20
  3200                        	longa	off
  3201 07:0698: A9 01        	lda	#$1
  3202 07:069A: A0 31 00     	ldy	#$31
  3203 07:069D: 97 01        	sta	[<R0],Y
  3204 07:069F: C2 20        	rep	#$20
  3205                        	longa	on
  3206                        ;	//k_sd_initialize();
  3207                        ;
  3208                        ;
  3209                        ;	k_user_CreateWindow(0,
  3210                        	.line	392
  3211                        ;						"console
                    WindowClass",
  3212                        ;						"TestWin
                    dow1",
  3213                        ;						100,100,
  3214                        ;						200,200,
  3215                        ;						NULL,
  3216                        ;						NULL,
  3217                        ;						NULL);
  3218 07:06A1: F4 00 00     	pea	#^$0
  3219 07:06A4: F4 00 00     	pea	#<$0
  3220 07:06A7: F4 00 00     	pea	#^$0
  3221 07:06AA: F4 00 00     	pea	#<$0
  3222 07:06AD: F4 00 00     	pea	#^$0
  3223 07:06B0: F4 00 00     	pea	#<$0
  3224 07:06B3: F4 C8 00     	pea	#<$c8
  3225 07:06B6: F4 C8 00     	pea	#<$c8
  3226 07:06B9: F4 64 00     	pea	#<$64
  3227 07:06BC: F4 64 00     	pea	#<$64
  3228 07:06BF: F4 xx xx     	pea	#^L52+35
  3229 07:06C2: F4 xx xx     	pea	#<L52+35
  Mon Sep 27 2021  9:39                                                Page 62


  3230 07:06C5: F4 xx xx     	pea	#^L52+16
  3231 07:06C8: F4 xx xx     	pea	#<L52+16
  3232 07:06CB: F4 00 00     	pea	#^$0
  3233 07:06CE: F4 00 00     	pea	#<$0
  3234 07:06D1: 22 xx xx xx  	jsl	~~k_user_CreateWindow
  3235                        ;
  3236                        ;	k_user_CreateWindow(0,
  3237                        	.line	401
  3238                        ;						"console
                    WindowClass",
  3239                        ;						"TestWin
                    dow2",
  3240                        ;						250,100,
  3241                        ;						200,200,
  3242                        ;						NULL,
  3243                        ;						NULL,
  3244                        ;						NULL);
  3245 07:06D5: F4 00 00     	pea	#^$0
  3246 07:06D8: F4 00 00     	pea	#<$0
  3247 07:06DB: F4 00 00     	pea	#^$0
  3248 07:06DE: F4 00 00     	pea	#<$0
  3249 07:06E1: F4 00 00     	pea	#^$0
  3250 07:06E4: F4 00 00     	pea	#<$0
  3251 07:06E7: F4 C8 00     	pea	#<$c8
  3252 07:06EA: F4 C8 00     	pea	#<$c8
  3253 07:06ED: F4 64 00     	pea	#<$64
  3254 07:06F0: F4 FA 00     	pea	#<$fa
  3255 07:06F3: F4 xx xx     	pea	#^L52+66
  3256 07:06F6: F4 xx xx     	pea	#<L52+66
  3257 07:06F9: F4 xx xx     	pea	#^L52+47
  3258 07:06FC: F4 xx xx     	pea	#<L52+47
  3259 07:06FF: F4 00 00     	pea	#^$0
  3260 07:0702: F4 00 00     	pea	#<$0
  3261 07:0705: 22 xx xx xx  	jsl	~~k_user_CreateWindow
  3262                        ;
  3263                        ;	k_user_CreateWindow(0,
  3264                        	.line	410
  3265                        ;						"console
                    WindowClass",
  3266                        ;						"TestWin
                    dow3",
  3267                        ;						175,200,
  3268                        ;						200,200,
  3269                        ;						NULL,
  3270                        ;						NULL,
  3271                        ;						NULL);
  3272 07:0709: F4 00 00     	pea	#^$0
  3273 07:070C: F4 00 00     	pea	#<$0
  3274 07:070F: F4 00 00     	pea	#^$0
  3275 07:0712: F4 00 00     	pea	#<$0
  3276 07:0715: F4 00 00     	pea	#^$0
  3277 07:0718: F4 00 00     	pea	#<$0
  3278 07:071B: F4 C8 00     	pea	#<$c8
  3279 07:071E: F4 C8 00     	pea	#<$c8
  3280 07:0721: F4 C8 00     	pea	#<$c8
  3281 07:0724: F4 AF 00     	pea	#<$af
  3282 07:0727: F4 xx xx     	pea	#^L52+97
  3283 07:072A: F4 xx xx     	pea	#<L52+97
  Mon Sep 27 2021  9:39                                                Page 63


  3284 07:072D: F4 xx xx     	pea	#^L52+78
  3285 07:0730: F4 xx xx     	pea	#<L52+78
  3286 07:0733: F4 00 00     	pea	#^$0
  3287 07:0736: F4 00 00     	pea	#<$0
  3288 07:0739: 22 xx xx xx  	jsl	~~k_user_CreateWindow
  3289                        ;
  3290                        ;
  3291                        ;
  3292                        ;	return 0;
  3293                        	.line	421
  3294 07:073D: A9 00 00     	lda	#$0
  3295                        L60:
  3296 07:0740: A8           	tay
  3297 07:0741: A5 06        	lda	<L57+2
  3298 07:0743: 85 0E        	sta	<L57+2+8
  3299 07:0745: A5 05        	lda	<L57+1
  3300 07:0747: 85 0D        	sta	<L57+1+8
  3301 07:0749: 2B           	pld
  3302 07:074A: 3B           	tsc
  3303 07:074B: 18           	clc
  3304 07:074C: 69 0C 00     	adc	#L57+8
  3305 07:074F: 1B           	tcs
  3306 07:0750: 98           	tya
  3307 07:0751: 6B           	rtl
  3308                        ;}
  3309                        	.line	422
  3310                        	.endblock	422
  3311             00000004   L57	equ	4
  3312             00000005   L58	equ	5
  3313 07:0752:              	ends
  3314                        	efunc
  3315                        	.endfunc	422,5,4
  3316                        	.line	422
  3317                        	data
  3318                        L52:
  3319 00:019D: 63 6D 64 5F  	db	$63,$6D,$64,$5F,$57,$4F,$52,$4B,$42,$45,
                    $4E,$43,$48,$0D,$0A
       00:01A1: 57 4F 52 4B 
       00:01A5: 42 45 4E 43 
       00:01A9: 48 0D 0A 
  3320 00:01AC: 00 63 6F 6E  	db	$00,$63,$6F,$6E,$73,$6F,$6C,$65,$57,$69,
                    $6E,$64,$6F,$77,$43
       00:01B0: 73 6F 6C 65 
       00:01B4: 57 69 6E 64 
       00:01B8: 6F 77 43 
  3321 00:01BB: 6C 61 73 73  	db	$6C,$61,$73,$73,$00,$54,$65,$73,$74,$57,
                    $69,$6E,$64,$6F,$77
       00:01BF: 00 54 65 73 
       00:01C3: 74 57 69 6E 
       00:01C7: 64 6F 77 
  3322 00:01CA: 31 00 63 6F  	db	$31,$00,$63,$6F,$6E,$73,$6F,$6C,$65,$57,
                    $69,$6E,$64,$6F,$77
       00:01CE: 6E 73 6F 6C 
       00:01D2: 65 57 69 6E 
       00:01D6: 64 6F 77 
  3323 00:01D9: 43 6C 61 73  	db	$43,$6C,$61,$73,$73,$00,$54,$65,$73,$74,
                    $57,$69,$6E,$64,$6F
       00:01DD: 73 00 54 65 
  Mon Sep 27 2021  9:39                                                Page 64


       00:01E1: 73 74 57 69 
       00:01E5: 6E 64 6F 
  3324 00:01E8: 77 32 00 63  	db	$77,$32,$00,$63,$6F,$6E,$73,$6F,$6C,$65,
                    $57,$69,$6E,$64,$6F
       00:01EC: 6F 6E 73 6F 
       00:01F0: 6C 65 57 69 
       00:01F4: 6E 64 6F 
  3325 00:01F7: 77 43 6C 61  	db	$77,$43,$6C,$61,$73,$73,$00,$54,$65,$73,
                    $74,$57,$69,$6E,$64
       00:01FB: 73 73 00 54 
       00:01FF: 65 73 74 57 
       00:0203: 69 6E 64 
  3326 00:0206: 6F 77 33 00  	db	$6F,$77,$33,$00
  3327 00:020A:              	ends
  3328                        ;
  3329                        ;UINT cmd_CLEAR(PFXPROCESS process,PFXNODE tokens)
  3330                        ;{
  3331                        	.line	424
  3332                        	.line	425
  3333                        	CONMAN
  3334                        	xdef	~~cmd_CLEAR
  3335                        	func
  3336                        	.function	425
  3337                        ~~cmd_CLEAR:
  3338                        	longa	on
  3339                        	longi	on
  3340 07:0752: 3B           	tsc
  3341 07:0753: 38           	sec
  3342 07:0754: E9 04 00     	sbc	#L62
  3343 07:0757: 1B           	tcs
  3344 07:0758: 0B           	phd
  3345 07:0759: 5B           	tcd
  3346             00000004   process_0	set	4
  3347             00000008   tokens_0	set	8
  3348                        	.block	425
  3349                        ;	k_debug_string("cmd_CLEAR\r\n");
  3350                        	.sym	process,4,138,6,32,20
  3351                        	.sym	tokens,8,138,6,32,5
  3352                        	.line	426
  3353 07:075A: F4 xx xx     	pea	#^L61
  3354 07:075D: F4 xx xx     	pea	#<L61
  3355 07:0760: 22 xx xx xx  	jsl	~~k_debug_string
  3356                        ;	k_clear_screen(0);
  3357                        	.line	427
  3358 07:0764: F4 00 00     	pea	#<$0
  3359 07:0767: 22 xx xx xx  	jsl	~~k_clear_screen
  3360                        ;
  3361                        ;	process->consoleCtl->curX = 0;
  3362                        	.line	429
  3363 07:076B: A0 54 00     	ldy	#$54
  3364 07:076E: B7 08        	lda	[<L62+process_0],Y
  3365 07:0770: 85 01        	sta	<R0
  3366 07:0772: A0 56 00     	ldy	#$56
  3367 07:0775: B7 08        	lda	[<L62+process_0],Y
  3368 07:0777: 85 03        	sta	<R0+2
  3369 07:0779: A9 00 00     	lda	#$0
  3370 07:077C: A0 04 00     	ldy	#$4
  3371 07:077F: 97 01        	sta	[<R0],Y
  Mon Sep 27 2021  9:39                                                Page 65


  3372                        ;	process->consoleCtl->curY = 0;
  3373                        	.line	430
  3374 07:0781: A0 54 00     	ldy	#$54
  3375 07:0784: B7 08        	lda	[<L62+process_0],Y
  3376 07:0786: 85 01        	sta	<R0
  3377 07:0788: A0 56 00     	ldy	#$56
  3378 07:078B: B7 08        	lda	[<L62+process_0],Y
  3379 07:078D: 85 03        	sta	<R0+2
  3380 07:078F: A9 00 00     	lda	#$0
  3381 07:0792: A0 06 00     	ldy	#$6
  3382 07:0795: 97 01        	sta	[<R0],Y
  3383                        ;
  3384                        ;	return 0;
  3385                        	.line	432
  3386 07:0797: A9 00 00     	lda	#$0
  3387                        L65:
  3388 07:079A: A8           	tay
  3389 07:079B: A5 06        	lda	<L62+2
  3390 07:079D: 85 0E        	sta	<L62+2+8
  3391 07:079F: A5 05        	lda	<L62+1
  3392 07:07A1: 85 0D        	sta	<L62+1+8
  3393 07:07A3: 2B           	pld
  3394 07:07A4: 3B           	tsc
  3395 07:07A5: 18           	clc
  3396 07:07A6: 69 0C 00     	adc	#L62+8
  3397 07:07A9: 1B           	tcs
  3398 07:07AA: 98           	tya
  3399 07:07AB: 6B           	rtl
  3400                        ;}
  3401                        	.line	433
  3402                        	.endblock	433
  3403             00000004   L62	equ	4
  3404             00000005   L63	equ	5
  3405 07:07AC:              	ends
  3406                        	efunc
  3407                        	.endfunc	433,5,4
  3408                        	.line	433
  3409                        	data
  3410                        L61:
  3411 00:020A: 63 6D 64 5F  	db	$63,$6D,$64,$5F,$43,$4C,$45,$41,$52,$0D,
                    $0A,$00
       00:020E: 43 4C 45 41 
       00:0212: 52 0D 0A 00 
  3412 00:0216:              	ends
  3413                        ;
  3414                        ;
  3415                        ;UINT cmd_FCOLOR(PFXPROCESS process,PFXNODE tokens
                    )
  3416                        ;{
  3417                        	.line	436
  3418                        	.line	437
  3419                        	CONMAN
  3420                        	xdef	~~cmd_FCOLOR
  3421                        	func
  3422                        	.function	437
  3423                        ~~cmd_FCOLOR:
  3424                        	longa	on
  3425                        	longi	on
  Mon Sep 27 2021  9:39                                                Page 66


  3426 07:07AC: 3B           	tsc
  3427 07:07AD: 38           	sec
  3428 07:07AE: E9 00 00     	sbc	#L67
  3429 07:07B1: 1B           	tcs
  3430 07:07B2: 0B           	phd
  3431 07:07B3: 5B           	tcd
  3432             00000004   process_0	set	4
  3433             00000008   tokens_0	set	8
  3434                        	.block	437
  3435                        ;	k_debug_string("cmd_FCOLOR\r\n");
  3436                        	.sym	process,4,138,6,32,20
  3437                        	.sym	tokens,8,138,6,32,5
  3438                        	.line	438
  3439 07:07B4: F4 xx xx     	pea	#^L66
  3440 07:07B7: F4 xx xx     	pea	#<L66
  3441 07:07BA: 22 xx xx xx  	jsl	~~k_debug_string
  3442                        ;	return 0;
  3443                        	.line	439
  3444 07:07BE: A9 00 00     	lda	#$0
  3445                        L70:
  3446 07:07C1: A8           	tay
  3447 07:07C2: A5 02        	lda	<L67+2
  3448 07:07C4: 85 0A        	sta	<L67+2+8
  3449 07:07C6: A5 01        	lda	<L67+1
  3450 07:07C8: 85 09        	sta	<L67+1+8
  3451 07:07CA: 2B           	pld
  3452 07:07CB: 3B           	tsc
  3453 07:07CC: 18           	clc
  3454 07:07CD: 69 08 00     	adc	#L67+8
  3455 07:07D0: 1B           	tcs
  3456 07:07D1: 98           	tya
  3457 07:07D2: 6B           	rtl
  3458                        ;}
  3459                        	.line	440
  3460                        	.endblock	440
  3461             00000000   L67	equ	0
  3462             00000001   L68	equ	1
  3463 07:07D3:              	ends
  3464                        	efunc
  3465                        	.endfunc	440,1,0
  3466                        	.line	440
  3467                        	data
  3468                        L66:
  3469 00:0216: 63 6D 64 5F  	db	$63,$6D,$64,$5F,$46,$43,$4F,$4C,$4F,$52,
                    $0D,$0A,$00
       00:021A: 46 43 4F 4C 
       00:021E: 4F 52 0D 0A 
       00:0222: 00 
  3470 00:0223:              	ends
  3471                        ;
  3472                        ;UINT cmd_BCOLOR(PFXPROCESS process,PFXNODE tokens
                    )
  3473                        ;{
  3474                        	.line	442
  3475                        	.line	443
  3476                        	CONMAN
  3477                        	xdef	~~cmd_BCOLOR
  3478                        	func
  Mon Sep 27 2021  9:39                                                Page 67


  3479                        	.function	443
  3480                        ~~cmd_BCOLOR:
  3481                        	longa	on
  3482                        	longi	on
  3483 07:07D3: 3B           	tsc
  3484 07:07D4: 38           	sec
  3485 07:07D5: E9 00 00     	sbc	#L72
  3486 07:07D8: 1B           	tcs
  3487 07:07D9: 0B           	phd
  3488 07:07DA: 5B           	tcd
  3489             00000004   process_0	set	4
  3490             00000008   tokens_0	set	8
  3491                        	.block	443
  3492                        ;	k_debug_string("cmd_BCOLOR\r\n");
  3493                        	.sym	process,4,138,6,32,20
  3494                        	.sym	tokens,8,138,6,32,5
  3495                        	.line	444
  3496 07:07DB: F4 xx xx     	pea	#^L71
  3497 07:07DE: F4 xx xx     	pea	#<L71
  3498 07:07E1: 22 xx xx xx  	jsl	~~k_debug_string
  3499                        ;	return 0;
  3500                        	.line	445
  3501 07:07E5: A9 00 00     	lda	#$0
  3502                        L75:
  3503 07:07E8: A8           	tay
  3504 07:07E9: A5 02        	lda	<L72+2
  3505 07:07EB: 85 0A        	sta	<L72+2+8
  3506 07:07ED: A5 01        	lda	<L72+1
  3507 07:07EF: 85 09        	sta	<L72+1+8
  3508 07:07F1: 2B           	pld
  3509 07:07F2: 3B           	tsc
  3510 07:07F3: 18           	clc
  3511 07:07F4: 69 08 00     	adc	#L72+8
  3512 07:07F7: 1B           	tcs
  3513 07:07F8: 98           	tya
  3514 07:07F9: 6B           	rtl
  3515                        ;}
  3516                        	.line	446
  3517                        	.endblock	446
  3518             00000000   L72	equ	0
  3519             00000001   L73	equ	1
  3520 07:07FA:              	ends
  3521                        	efunc
  3522                        	.endfunc	446,1,0
  3523                        	.line	446
  3524                        	data
  3525                        L71:
  3526 00:0223: 63 6D 64 5F  	db	$63,$6D,$64,$5F,$42,$43,$4F,$4C,$4F,$52,
                    $0D,$0A,$00
       00:0227: 42 43 4F 4C 
       00:022B: 4F 52 0D 0A 
       00:022F: 00 
  3527 00:0230:              	ends
  3528                        ;
  3529                        ;UINT cmd_INIT(PFXPROCESS process,PFXNODE tokens)
  3530                        ;{
  3531                        	.line	448
  3532                        	.line	449
  Mon Sep 27 2021  9:39                                                Page 68


  3533                        	CONMAN
  3534                        	xdef	~~cmd_INIT
  3535                        	func
  3536                        	.function	449
  3537                        ~~cmd_INIT:
  3538                        	longa	on
  3539                        	longi	on
  3540 07:07FA: 3B           	tsc
  3541 07:07FB: 38           	sec
  3542 07:07FC: E9 48 00     	sbc	#L77
  3543 07:07FF: 1B           	tcs
  3544 07:0800: 0B           	phd
  3545 07:0801: 5B           	tcd
  3546             00000004   process_0	set	4
  3547             00000008   tokens_0	set	8
  3548                        	.block	449
  3549                        ;	BYTE 	signature[8];
  3550                        ;	LPCHAR	diskName = NULL;
  3551                        ;	DISKINFO diskInfo;
  3552                        ;
  3553                        ;	k_debug_string("cmd_INIT\r\n");
  3554             00000000   signature_1	set	0
  3555             00000008   diskName_1	set	8
  3556             0000000C   diskInfo_1	set	12
  3557                        	.sym	signature,0,110,1,0,8
  3558                        	.sym	diskName,8,142,1,32
  3559                        	.sym	diskInfo,12,10,1,416,91
  3560                        	.sym	process,4,138,6,32,20
  3561                        	.sym	tokens,8,138,6,32,5
  3562 07:0802: 64 11        	stz	<L78+diskName_1
  3563 07:0804: 64 13        	stz	<L78+diskName_1+2
  3564                        	.line	454
  3565 07:0806: F4 xx xx     	pea	#^L76
  3566 07:0809: F4 xx xx     	pea	#<L76
  3567 07:080C: 22 xx xx xx  	jsl	~~k_debug_string
  3568                        ;
  3569                        ;	getTokenSig(tokens,signature);
  3570                        	.line	456
  3571 07:0810: F4 00 00     	pea	#0
  3572 07:0813: 18           	clc
  3573 07:0814: 7B           	tdc
  3574 07:0815: 69 09 00     	adc	#<L78+signature_1
  3575 07:0818: 48           	pha
  3576 07:0819: D4 52        	pei	<L77+tokens_0+2
  3577 07:081B: D4 50        	pei	<L77+tokens_0
  3578 07:081D: 22 xx xx xx  	jsl	~~getTokenSig
  3579                        ;
  3580                        ;	if(strcmp(signature,"#AC") == 0)
  3581                        	.line	458
  3582                        ;	{
  3583 07:0821: F4 xx xx     	pea	#^L76+11
  3584 07:0824: F4 xx xx     	pea	#<L76+11
  3585 07:0827: F4 00 00     	pea	#0
  3586 07:082A: 18           	clc
  3587 07:082B: 7B           	tdc
  3588 07:082C: 69 09 00     	adc	#<L78+signature_1
  3589 07:082F: 48           	pha
  3590 07:0830: 22 xx xx xx  	jsl	~~strcmp
  Mon Sep 27 2021  9:39                                                Page 69


  3591 07:0834: AA           	tax
  3592 07:0835: F0 03        	beq	L80
  3593 07:0837: 82 60 00     	brl	L10015
  3594                        L80:
  3595                        	.line	459
  3596                        ;		diskName = ((PTOKEN)k_nodelist_get(token
                    s,3)->data)->text;
  3597                        	.line	460
  3598 07:083A: F4 03 00     	pea	#<$3
  3599 07:083D: D4 52        	pei	<L77+tokens_0+2
  3600 07:083F: D4 50        	pei	<L77+tokens_0
  3601 07:0841: 22 xx xx xx  	jsl	~~k_nodelist_get
  3602 07:0845: 85 01        	sta	<R0
  3603 07:0847: 86 03        	stx	<R0+2
  3604 07:0849: A0 02 00     	ldy	#$2
  3605 07:084C: B7 01        	lda	[<R0],Y
  3606 07:084E: 85 05        	sta	<R1
  3607 07:0850: A0 04 00     	ldy	#$4
  3608 07:0853: B7 01        	lda	[<R0],Y
  3609 07:0855: 85 07        	sta	<R1+2
  3610 07:0857: A0 04 00     	ldy	#$4
  3611 07:085A: B7 05        	lda	[<R1],Y
  3612 07:085C: 85 11        	sta	<L78+diskName_1
  3613 07:085E: A0 06 00     	ldy	#$6
  3614 07:0861: B7 05        	lda	[<R1],Y
  3615 07:0863: 85 13        	sta	<L78+diskName_1+2
  3616                        ;
  3617                        ;		memset(&diskInfo,0,sizeof(DISKINFO));
  3618                        	.line	462
  3619 07:0865: F4 34 00     	pea	#<$34
  3620 07:0868: F4 00 00     	pea	#<$0
  3621 07:086B: F4 00 00     	pea	#0
  3622 07:086E: 18           	clc
  3623 07:086F: 7B           	tdc
  3624 07:0870: 69 15 00     	adc	#<L78+diskInfo_1
  3625 07:0873: 48           	pha
  3626 07:0874: 22 xx xx xx  	jsl	~~memset
  3627                        ;		strcpy(diskInfo.stgName,diskName);
  3628                        	.line	463
  3629 07:0878: D4 13        	pei	<L78+diskName_1+2
  3630 07:087A: D4 11        	pei	<L78+diskName_1
  3631 07:087C: F4 00 00     	pea	#0
  3632 07:087F: 18           	clc
  3633 07:0880: 7B           	tdc
  3634 07:0881: 69 15 00     	adc	#<L78+diskInfo_1
  3635 07:0884: 48           	pha
  3636 07:0885: 22 xx xx xx  	jsl	~~strcpy
  3637                        ;
  3638                        ;		k_debug_message("INIT DISK NAME:",diskNa
                    me);
  3639                        	.line	465
  3640 07:0889: D4 13        	pei	<L78+diskName_1+2
  3641 07:088B: D4 11        	pei	<L78+diskName_1
  3642 07:088D: F4 xx xx     	pea	#^L76+15
  3643 07:0890: F4 xx xx     	pea	#<L76+15
  3644 07:0893: 22 xx xx xx  	jsl	~~k_debug_message
  3645                        ;		//k_sd_write_file(CONST_FXINFO_FILE,&dis
                    kInfo,sizeof(DISKINFO));
  Mon Sep 27 2021  9:39                                                Page 70


  3646                        ;
  3647                        ;	}
  3648                        	.line	468
  3649                        ;	else
  3650 07:0897: 82 0A 00     	brl	L10016
  3651                        L10015:
  3652                        ;	{
  3653                        	.line	470
  3654                        ;		k_debug_string("INIT Syntax Error\r\n");
  3655                        	.line	471
  3656 07:089A: F4 xx xx     	pea	#^L76+31
  3657 07:089D: F4 xx xx     	pea	#<L76+31
  3658 07:08A0: 22 xx xx xx  	jsl	~~k_debug_string
  3659                        ;	}
  3660                        	.line	472
  3661                        L10016:
  3662                        ;
  3663                        ;
  3664                        ;	return 0;
  3665                        	.line	475
  3666 07:08A4: A9 00 00     	lda	#$0
  3667                        L81:
  3668 07:08A7: A8           	tay
  3669 07:08A8: A5 4A        	lda	<L77+2
  3670 07:08AA: 85 52        	sta	<L77+2+8
  3671 07:08AC: A5 49        	lda	<L77+1
  3672 07:08AE: 85 51        	sta	<L77+1+8
  3673 07:08B0: 2B           	pld
  3674 07:08B1: 3B           	tsc
  3675 07:08B2: 18           	clc
  3676 07:08B3: 69 50 00     	adc	#L77+8
  3677 07:08B6: 1B           	tcs
  3678 07:08B7: 98           	tya
  3679 07:08B8: 6B           	rtl
  3680                        ;}
  3681                        	.line	476
  3682                        	.endblock	476
  3683             00000048   L77	equ	72
  3684             00000009   L78	equ	9
  3685 07:08B9:              	ends
  3686                        	efunc
  3687                        	.endfunc	476,9,72
  3688                        	.line	476
  3689                        	data
  3690                        L76:
  3691 00:0230: 63 6D 64 5F  	db	$63,$6D,$64,$5F,$49,$4E,$49,$54,$0D,$0A,
                    $00,$23,$41,$43,$00
       00:0234: 49 4E 49 54 
       00:0238: 0D 0A 00 23 
       00:023C: 41 43 00 
  3692 00:023F: 49 4E 49 54  	db	$49,$4E,$49,$54,$20,$44,$49,$53,$4B,$20,
                    $4E,$41,$4D,$45,$3A
       00:0243: 20 44 49 53 
       00:0247: 4B 20 4E 41 
       00:024B: 4D 45 3A 
  3693 00:024E: 00 49 4E 49  	db	$00,$49,$4E,$49,$54,$20,$53,$79,$6E,$74,
                    $61,$78,$20,$45,$72
       00:0252: 54 20 53 79 
  Mon Sep 27 2021  9:39                                                Page 71


       00:0256: 6E 74 61 78 
       00:025A: 20 45 72 
  3694 00:025D: 72 6F 72 0D  	db	$72,$6F,$72,$0D,$0A,$00
       00:0261: 0A 00 
  3695 00:0263:              	ends
  3696                        ;
  3697                        ;UINT cmd_TASKS(PFXPROCESS process,PFXNODE tokens)
  3698                        ;{
  3699                        	.line	478
  3700                        	.line	479
  3701                        	CONMAN
  3702                        	xdef	~~cmd_TASKS
  3703                        	func
  3704                        	.function	479
  3705                        ~~cmd_TASKS:
  3706                        	longa	on
  3707                        	longi	on
  3708 07:08B9: 3B           	tsc
  3709 07:08BA: 38           	sec
  3710 07:08BB: E9 76 00     	sbc	#L83
  3711 07:08BE: 1B           	tcs
  3712 07:08BF: 0B           	phd
  3713 07:08C0: 5B           	tcd
  3714             00000004   process_0	set	4
  3715             00000008   tokens_0	set	8
  3716                        	.block	479
  3717                        ;	int index = 0;
  3718                        ;	PFXPROCESS FAR *processes = NULL;
  3719                        ;
  3720                        ;	CHAR signature[16];
  3721                        ;	CHAR message[80];
  3722                        ;
  3723                        ;	k_debug_string("cmd_TASKS\r\n");
  3724             00000000   index_1	set	0
  3725             00000002   processes_1	set	2
  3726             00000006   signature_1	set	6
  3727             00000016   message_1	set	22
  3728                        	.sym	index,0,5,1,16
  3729                        	.sym	processes,2,1162,1,32,20
  3730                        	.sym	signature,6,110,1,0,16
  3731                        	.sym	message,22,110,1,0,80
  3732                        	.sym	process,4,138,6,32,20
  3733                        	.sym	tokens,8,138,6,32,5
  3734 07:08C1: 64 11        	stz	<L84+index_1
  3735 07:08C3: 64 13        	stz	<L84+processes_1
  3736 07:08C5: 64 15        	stz	<L84+processes_1+2
  3737                        	.line	486
  3738 07:08C7: F4 xx xx     	pea	#^L82
  3739 07:08CA: F4 xx xx     	pea	#<L82
  3740 07:08CD: 22 xx xx xx  	jsl	~~k_debug_string
  3741                        ;
  3742                        ;	processes = k_exec_process_list();
  3743                        	.line	488
  3744 07:08D1: 22 xx xx xx  	jsl	~~k_exec_process_list
  3745 07:08D5: 85 13        	sta	<L84+processes_1
  3746 07:08D7: 86 15        	stx	<L84+processes_1+2
  3747                        ;
  3748                        ;	for(index=0;index < MAX_PROCESS;index++)
  Mon Sep 27 2021  9:39                                                Page 72


  3749                        	.line	490
  3750 07:08D9: 64 11        	stz	<L84+index_1
  3751                        L10019:
  3752                        ;	{
  3753                        	.line	491
  3754                        ;		if(processes[index]!=NULL && processes[i
                    ndex]->status!=PROCESS_STATUS_TERMINATED)
  3755                        	.line	492
  3756                        ;		{
  3757 07:08DB: A0 00 00     	ldy	#$0
  3758 07:08DE: A5 11        	lda	<L84+index_1
  3759 07:08E0: 10 01        	bpl	L86
  3760 07:08E2: 88           	dey
  3761                        L86:
  3762 07:08E3: 85 05        	sta	<R1
  3763 07:08E5: 84 07        	sty	<R1+2
  3764 07:08E7: D4 07        	pei	<R1+2
  3765 07:08E9: D4 05        	pei	<R1
  3766 07:08EB: A9 02 00     	lda	#$2
  3767                        	xref	~~~lasl
  3768 07:08EE: 22 xx xx xx  	jsl	~~~lasl
  3769 07:08F2: 85 01        	sta	<R0
  3770 07:08F4: 86 03        	stx	<R0+2
  3771 07:08F6: 18           	clc
  3772 07:08F7: A5 13        	lda	<L84+processes_1
  3773 07:08F9: 65 01        	adc	<R0
  3774 07:08FB: 85 09        	sta	<R2
  3775 07:08FD: A5 15        	lda	<L84+processes_1+2
  3776 07:08FF: 65 03        	adc	<R0+2
  3777 07:0901: 85 0B        	sta	<R2+2
  3778 07:0903: A7 09        	lda	[<R2]
  3779 07:0905: A0 02 00     	ldy	#$2
  3780 07:0908: 17 09        	ora	[<R2],Y
  3781 07:090A: D0 03        	bne	L87
  3782 07:090C: 82 3B 02     	brl	L10020
  3783                        L87:
  3784 07:090F: A0 00 00     	ldy	#$0
  3785 07:0912: A5 11        	lda	<L84+index_1
  3786 07:0914: 10 01        	bpl	L88
  3787 07:0916: 88           	dey
  3788                        L88:
  3789 07:0917: 85 09        	sta	<R2
  3790 07:0919: 84 0B        	sty	<R2+2
  3791 07:091B: D4 0B        	pei	<R2+2
  3792 07:091D: D4 09        	pei	<R2
  3793 07:091F: A9 02 00     	lda	#$2
  3794                        	xref	~~~lasl
  3795 07:0922: 22 xx xx xx  	jsl	~~~lasl
  3796 07:0926: 85 01        	sta	<R0
  3797 07:0928: 86 03        	stx	<R0+2
  3798 07:092A: 18           	clc
  3799 07:092B: A5 13        	lda	<L84+processes_1
  3800 07:092D: 65 01        	adc	<R0
  3801 07:092F: 85 0D        	sta	<R3
  3802 07:0931: A5 15        	lda	<L84+processes_1+2
  3803 07:0933: 65 03        	adc	<R0+2
  3804 07:0935: 85 0F        	sta	<R3+2
  3805 07:0937: A7 0D        	lda	[<R3]
  Mon Sep 27 2021  9:39                                                Page 73


  3806 07:0939: 85 01        	sta	<R0
  3807 07:093B: A0 02 00     	ldy	#$2
  3808 07:093E: B7 0D        	lda	[<R3],Y
  3809 07:0940: 85 03        	sta	<R0+2
  3810 07:0942: A0 10 00     	ldy	#$10
  3811 07:0945: B7 01        	lda	[<R0],Y
  3812 07:0947: C9 03 00     	cmp	#<$3
  3813 07:094A: D0 03        	bne	L89
  3814 07:094C: 82 FB 01     	brl	L10020
  3815                        L89:
  3816                        	.line	493
  3817                        ;			k_debug_long   ("Process:",proce
                    sses[index]->procId);
  3818                        	.line	494
  3819 07:094F: A0 00 00     	ldy	#$0
  3820 07:0952: A5 11        	lda	<L84+index_1
  3821 07:0954: 10 01        	bpl	L90
  3822 07:0956: 88           	dey
  3823                        L90:
  3824 07:0957: 85 05        	sta	<R1
  3825 07:0959: 84 07        	sty	<R1+2
  3826 07:095B: D4 07        	pei	<R1+2
  3827 07:095D: D4 05        	pei	<R1
  3828 07:095F: A9 02 00     	lda	#$2
  3829                        	xref	~~~lasl
  3830 07:0962: 22 xx xx xx  	jsl	~~~lasl
  3831 07:0966: 85 01        	sta	<R0
  3832 07:0968: 86 03        	stx	<R0+2
  3833 07:096A: 18           	clc
  3834 07:096B: A5 13        	lda	<L84+processes_1
  3835 07:096D: 65 01        	adc	<R0
  3836 07:096F: 85 09        	sta	<R2
  3837 07:0971: A5 15        	lda	<L84+processes_1+2
  3838 07:0973: 65 03        	adc	<R0+2
  3839 07:0975: 85 0B        	sta	<R2+2
  3840 07:0977: A7 09        	lda	[<R2]
  3841 07:0979: 85 01        	sta	<R0
  3842 07:097B: A0 02 00     	ldy	#$2
  3843 07:097E: B7 09        	lda	[<R2],Y
  3844 07:0980: 85 03        	sta	<R0+2
  3845 07:0982: A0 04 00     	ldy	#$4
  3846 07:0985: B7 01        	lda	[<R0],Y
  3847 07:0987: 48           	pha
  3848 07:0988: A0 02 00     	ldy	#$2
  3849 07:098B: B7 01        	lda	[<R0],Y
  3850 07:098D: 48           	pha
  3851 07:098E: F4 xx xx     	pea	#^L82+12
  3852 07:0991: F4 xx xx     	pea	#<L82+12
  3853 07:0994: 22 xx xx xx  	jsl	~~k_debug_long
  3854                        ;			k_debug_strings("   Name:",(LPST
                    R)processes[index]->commandLine);
  3855                        	.line	495
  3856 07:0998: A0 00 00     	ldy	#$0
  3857 07:099B: A5 11        	lda	<L84+index_1
  3858 07:099D: 10 01        	bpl	L91
  3859 07:099F: 88           	dey
  3860                        L91:
  3861 07:09A0: 85 05        	sta	<R1
  Mon Sep 27 2021  9:39                                                Page 74


  3862 07:09A2: 84 07        	sty	<R1+2
  3863 07:09A4: D4 07        	pei	<R1+2
  3864 07:09A6: D4 05        	pei	<R1
  3865 07:09A8: A9 02 00     	lda	#$2
  3866                        	xref	~~~lasl
  3867 07:09AB: 22 xx xx xx  	jsl	~~~lasl
  3868 07:09AF: 85 01        	sta	<R0
  3869 07:09B1: 86 03        	stx	<R0+2
  3870 07:09B3: 18           	clc
  3871 07:09B4: A5 13        	lda	<L84+processes_1
  3872 07:09B6: 65 01        	adc	<R0
  3873 07:09B8: 85 09        	sta	<R2
  3874 07:09BA: A5 15        	lda	<L84+processes_1+2
  3875 07:09BC: 65 03        	adc	<R0+2
  3876 07:09BE: 85 0B        	sta	<R2+2
  3877 07:09C0: A7 09        	lda	[<R2]
  3878 07:09C2: 85 01        	sta	<R0
  3879 07:09C4: A0 02 00     	ldy	#$2
  3880 07:09C7: B7 09        	lda	[<R2],Y
  3881 07:09C9: 85 03        	sta	<R0+2
  3882 07:09CB: A0 35 00     	ldy	#$35
  3883 07:09CE: B7 01        	lda	[<R0],Y
  3884 07:09D0: 48           	pha
  3885 07:09D1: A0 33 00     	ldy	#$33
  3886 07:09D4: B7 01        	lda	[<R0],Y
  3887 07:09D6: 48           	pha
  3888 07:09D7: F4 xx xx     	pea	#^L82+21
  3889 07:09DA: F4 xx xx     	pea	#<L82+21
  3890 07:09DD: 22 xx xx xx  	jsl	~~k_debug_strings
  3891                        ;
  3892                        ;
  3893                        ;			k_inttodec(processes[index]->pro
                    cId,signature);
  3894                        	.line	498
  3895 07:09E1: F4 00 00     	pea	#0
  3896 07:09E4: 18           	clc
  3897 07:09E5: 7B           	tdc
  3898 07:09E6: 69 17 00     	adc	#<L84+signature_1
  3899 07:09E9: 48           	pha
  3900 07:09EA: A0 00 00     	ldy	#$0
  3901 07:09ED: A5 11        	lda	<L84+index_1
  3902 07:09EF: 10 01        	bpl	L92
  3903 07:09F1: 88           	dey
  3904                        L92:
  3905 07:09F2: 85 05        	sta	<R1
  3906 07:09F4: 84 07        	sty	<R1+2
  3907 07:09F6: D4 07        	pei	<R1+2
  3908 07:09F8: D4 05        	pei	<R1
  3909 07:09FA: A9 02 00     	lda	#$2
  3910                        	xref	~~~lasl
  3911 07:09FD: 22 xx xx xx  	jsl	~~~lasl
  3912 07:0A01: 85 01        	sta	<R0
  3913 07:0A03: 86 03        	stx	<R0+2
  3914 07:0A05: 18           	clc
  3915 07:0A06: A5 13        	lda	<L84+processes_1
  3916 07:0A08: 65 01        	adc	<R0
  3917 07:0A0A: 85 09        	sta	<R2
  3918 07:0A0C: A5 15        	lda	<L84+processes_1+2
  Mon Sep 27 2021  9:39                                                Page 75


  3919 07:0A0E: 65 03        	adc	<R0+2
  3920 07:0A10: 85 0B        	sta	<R2+2
  3921 07:0A12: A7 09        	lda	[<R2]
  3922 07:0A14: 85 01        	sta	<R0
  3923 07:0A16: A0 02 00     	ldy	#$2
  3924 07:0A19: B7 09        	lda	[<R2],Y
  3925 07:0A1B: 85 03        	sta	<R0+2
  3926 07:0A1D: A0 02 00     	ldy	#$2
  3927 07:0A20: B7 01        	lda	[<R0],Y
  3928 07:0A22: 48           	pha
  3929 07:0A23: 22 xx xx xx  	jsl	~~k_inttodec
  3930                        ;
  3931                        ;			strcpy(message,"PID:");
  3932                        	.line	500
  3933 07:0A27: F4 xx xx     	pea	#^L82+30
  3934 07:0A2A: F4 xx xx     	pea	#<L82+30
  3935 07:0A2D: F4 00 00     	pea	#0
  3936 07:0A30: 18           	clc
  3937 07:0A31: 7B           	tdc
  3938 07:0A32: 69 27 00     	adc	#<L84+message_1
  3939 07:0A35: 48           	pha
  3940 07:0A36: 22 xx xx xx  	jsl	~~strcpy
  3941                        ;			strcat(message,signature);
  3942                        	.line	501
  3943 07:0A3A: F4 00 00     	pea	#0
  3944 07:0A3D: 18           	clc
  3945 07:0A3E: 7B           	tdc
  3946 07:0A3F: 69 17 00     	adc	#<L84+signature_1
  3947 07:0A42: 48           	pha
  3948 07:0A43: F4 00 00     	pea	#0
  3949 07:0A46: 18           	clc
  3950 07:0A47: 7B           	tdc
  3951 07:0A48: 69 27 00     	adc	#<L84+message_1
  3952 07:0A4B: 48           	pha
  3953 07:0A4C: 22 xx xx xx  	jsl	~~strcat
  3954                        ;			strcat(message,"[");
  3955                        	.line	502
  3956 07:0A50: F4 xx xx     	pea	#^L82+35
  3957 07:0A53: F4 xx xx     	pea	#<L82+35
  3958 07:0A56: F4 00 00     	pea	#0
  3959 07:0A59: 18           	clc
  3960 07:0A5A: 7B           	tdc
  3961 07:0A5B: 69 27 00     	adc	#<L84+message_1
  3962 07:0A5E: 48           	pha
  3963 07:0A5F: 22 xx xx xx  	jsl	~~strcat
  3964                        ;
  3965                        ;			k_inttodec(processes[index]->sta
                    tus,signature);
  3966                        	.line	504
  3967 07:0A63: F4 00 00     	pea	#0
  3968 07:0A66: 18           	clc
  3969 07:0A67: 7B           	tdc
  3970 07:0A68: 69 17 00     	adc	#<L84+signature_1
  3971 07:0A6B: 48           	pha
  3972 07:0A6C: A0 00 00     	ldy	#$0
  3973 07:0A6F: A5 11        	lda	<L84+index_1
  3974 07:0A71: 10 01        	bpl	L93
  3975 07:0A73: 88           	dey
  Mon Sep 27 2021  9:39                                                Page 76


  3976                        L93:
  3977 07:0A74: 85 05        	sta	<R1
  3978 07:0A76: 84 07        	sty	<R1+2
  3979 07:0A78: D4 07        	pei	<R1+2
  3980 07:0A7A: D4 05        	pei	<R1
  3981 07:0A7C: A9 02 00     	lda	#$2
  3982                        	xref	~~~lasl
  3983 07:0A7F: 22 xx xx xx  	jsl	~~~lasl
  3984 07:0A83: 85 01        	sta	<R0
  3985 07:0A85: 86 03        	stx	<R0+2
  3986 07:0A87: 18           	clc
  3987 07:0A88: A5 13        	lda	<L84+processes_1
  3988 07:0A8A: 65 01        	adc	<R0
  3989 07:0A8C: 85 09        	sta	<R2
  3990 07:0A8E: A5 15        	lda	<L84+processes_1+2
  3991 07:0A90: 65 03        	adc	<R0+2
  3992 07:0A92: 85 0B        	sta	<R2+2
  3993 07:0A94: A7 09        	lda	[<R2]
  3994 07:0A96: 85 01        	sta	<R0
  3995 07:0A98: A0 02 00     	ldy	#$2
  3996 07:0A9B: B7 09        	lda	[<R2],Y
  3997 07:0A9D: 85 03        	sta	<R0+2
  3998 07:0A9F: A0 10 00     	ldy	#$10
  3999 07:0AA2: B7 01        	lda	[<R0],Y
  4000 07:0AA4: 48           	pha
  4001 07:0AA5: 22 xx xx xx  	jsl	~~k_inttodec
  4002                        ;			strcat(message,signature);
  4003                        	.line	505
  4004 07:0AA9: F4 00 00     	pea	#0
  4005 07:0AAC: 18           	clc
  4006 07:0AAD: 7B           	tdc
  4007 07:0AAE: 69 17 00     	adc	#<L84+signature_1
  4008 07:0AB1: 48           	pha
  4009 07:0AB2: F4 00 00     	pea	#0
  4010 07:0AB5: 18           	clc
  4011 07:0AB6: 7B           	tdc
  4012 07:0AB7: 69 27 00     	adc	#<L84+message_1
  4013 07:0ABA: 48           	pha
  4014 07:0ABB: 22 xx xx xx  	jsl	~~strcat
  4015                        ;
  4016                        ;			strcat(message,"] ");
  4017                        	.line	507
  4018 07:0ABF: F4 xx xx     	pea	#^L82+37
  4019 07:0AC2: F4 xx xx     	pea	#<L82+37
  4020 07:0AC5: F4 00 00     	pea	#0
  4021 07:0AC8: 18           	clc
  4022 07:0AC9: 7B           	tdc
  4023 07:0ACA: 69 27 00     	adc	#<L84+message_1
  4024 07:0ACD: 48           	pha
  4025 07:0ACE: 22 xx xx xx  	jsl	~~strcat
  4026                        ;			strcat(message,processes[index]-
                    >commandLine);
  4027                        	.line	508
  4028 07:0AD2: A0 00 00     	ldy	#$0
  4029 07:0AD5: A5 11        	lda	<L84+index_1
  4030 07:0AD7: 10 01        	bpl	L94
  4031 07:0AD9: 88           	dey
  4032                        L94:
  Mon Sep 27 2021  9:39                                                Page 77


  4033 07:0ADA: 85 05        	sta	<R1
  4034 07:0ADC: 84 07        	sty	<R1+2
  4035 07:0ADE: D4 07        	pei	<R1+2
  4036 07:0AE0: D4 05        	pei	<R1
  4037 07:0AE2: A9 02 00     	lda	#$2
  4038                        	xref	~~~lasl
  4039 07:0AE5: 22 xx xx xx  	jsl	~~~lasl
  4040 07:0AE9: 85 01        	sta	<R0
  4041 07:0AEB: 86 03        	stx	<R0+2
  4042 07:0AED: 18           	clc
  4043 07:0AEE: A5 13        	lda	<L84+processes_1
  4044 07:0AF0: 65 01        	adc	<R0
  4045 07:0AF2: 85 09        	sta	<R2
  4046 07:0AF4: A5 15        	lda	<L84+processes_1+2
  4047 07:0AF6: 65 03        	adc	<R0+2
  4048 07:0AF8: 85 0B        	sta	<R2+2
  4049 07:0AFA: A7 09        	lda	[<R2]
  4050 07:0AFC: 85 01        	sta	<R0
  4051 07:0AFE: A0 02 00     	ldy	#$2
  4052 07:0B01: B7 09        	lda	[<R2],Y
  4053 07:0B03: 85 03        	sta	<R0+2
  4054 07:0B05: A0 35 00     	ldy	#$35
  4055 07:0B08: B7 01        	lda	[<R0],Y
  4056 07:0B0A: 48           	pha
  4057 07:0B0B: A0 33 00     	ldy	#$33
  4058 07:0B0E: B7 01        	lda	[<R0],Y
  4059 07:0B10: 48           	pha
  4060 07:0B11: F4 00 00     	pea	#0
  4061 07:0B14: 18           	clc
  4062 07:0B15: 7B           	tdc
  4063 07:0B16: 69 27 00     	adc	#<L84+message_1
  4064 07:0B19: 48           	pha
  4065 07:0B1A: 22 xx xx xx  	jsl	~~strcat
  4066                        ;
  4067                        ;
  4068                        ;			k_send_process_command_message(p
                    rocess,FX_CONTROL_COMMAND,CTL_CMD_CAPTION,0,(ULONG)k_string_
                    copy_string((LPCSTR)message),0L);
  4069                        	.line	511
  4070 07:0B1E: F4 00 00     	pea	#^$0
  4071 07:0B21: F4 00 00     	pea	#<$0
  4072 07:0B24: F4 00 00     	pea	#0
  4073 07:0B27: 18           	clc
  4074 07:0B28: 7B           	tdc
  4075 07:0B29: 69 27 00     	adc	#<L84+message_1
  4076 07:0B2C: 48           	pha
  4077 07:0B2D: 22 xx xx xx  	jsl	~~k_string_copy_string
  4078 07:0B31: 85 01        	sta	<R0
  4079 07:0B33: 86 03        	stx	<R0+2
  4080 07:0B35: D4 03        	pei	<R0+2
  4081 07:0B37: D4 01        	pei	<R0
  4082 07:0B39: F4 00 00     	pea	#<$0
  4083 07:0B3C: F4 01 00     	pea	#<$1
  4084 07:0B3F: F4 00 FA     	pea	#<$fa00
  4085 07:0B42: D4 7C        	pei	<L83+process_0+2
  4086 07:0B44: D4 7A        	pei	<L83+process_0
  4087 07:0B46: 22 xx xx xx  	jsl	~~k_send_process_command_message
  4088                        ;
  Mon Sep 27 2021  9:39                                                Page 78


  4089                        ;
  4090                        ;		}
  4091                        	.line	514
  4092                        ;	}
  4093                        L10020:
  4094                        	.line	515
  4095                        L10017:
  4096 07:0B4A: E6 11        	inc	<L84+index_1
  4097 07:0B4C: 38           	sec
  4098 07:0B4D: A5 11        	lda	<L84+index_1
  4099 07:0B4F: E9 20 00     	sbc	#<$20
  4100 07:0B52: 70 03        	bvs	L95
  4101 07:0B54: 49 00 80     	eor	#$8000
  4102                        L95:
  4103 07:0B57: 30 03        	bmi	L96
  4104 07:0B59: 82 7F FD     	brl	L10019
  4105                        L96:
  4106                        L10018:
  4107                        ;
  4108                        ;
  4109                        ;	return 0;
  4110                        	.line	518
  4111 07:0B5C: A9 00 00     	lda	#$0
  4112                        L97:
  4113 07:0B5F: A8           	tay
  4114 07:0B60: A5 78        	lda	<L83+2
  4115 07:0B62: 85 80        	sta	<L83+2+8
  4116 07:0B64: A5 77        	lda	<L83+1
  4117 07:0B66: 85 7F        	sta	<L83+1+8
  4118 07:0B68: 2B           	pld
  4119 07:0B69: 3B           	tsc
  4120 07:0B6A: 18           	clc
  4121 07:0B6B: 69 7E 00     	adc	#L83+8
  4122 07:0B6E: 1B           	tcs
  4123 07:0B6F: 98           	tya
  4124 07:0B70: 6B           	rtl
  4125                        ;}
  4126                        	.line	519
  4127                        	.endblock	519
  4128             00000076   L83	equ	118
  4129             00000011   L84	equ	17
  4130 07:0B71:              	ends
  4131                        	efunc
  4132                        	.endfunc	519,17,118
  4133                        	.line	519
  4134                        	data
  4135                        L82:
  4136 00:0263: 63 6D 64 5F  	db	$63,$6D,$64,$5F,$54,$41,$53,$4B,$53,$0D,
                    $0A,$00,$50,$72,$6F
       00:0267: 54 41 53 4B 
       00:026B: 53 0D 0A 00 
       00:026F: 50 72 6F 
  4137 00:0272: 63 65 73 73  	db	$63,$65,$73,$73,$3A,$00,$20,$20,$20,$4E,
                    $61,$6D,$65,$3A,$00
       00:0276: 3A 00 20 20 
       00:027A: 20 4E 61 6D 
       00:027E: 65 3A 00 
  4138 00:0281: 50 49 44 3A  	db	$50,$49,$44,$3A,$00,$5B,$00,$5D,$20,$00
  Mon Sep 27 2021  9:39                                                Page 79


       00:0285: 00 5B 00 5D 
       00:0289: 20 00 
  4139 00:028B:              	ends
  4140                        ;
  4141                        ;
  4142                        ;
  4143                        ;UINT cmd_FRONT(PFXPROCESS process,PFXNODE tokens)
  4144                        ;{
  4145                        	.line	523
  4146                        	.line	524
  4147                        	CONMAN
  4148                        	xdef	~~cmd_FRONT
  4149                        	func
  4150                        	.function	524
  4151                        ~~cmd_FRONT:
  4152                        	longa	on
  4153                        	longi	on
  4154 07:0B71: 3B           	tsc
  4155 07:0B72: 38           	sec
  4156 07:0B73: E9 00 00     	sbc	#L99
  4157 07:0B76: 1B           	tcs
  4158 07:0B77: 0B           	phd
  4159 07:0B78: 5B           	tcd
  4160             00000004   process_0	set	4
  4161             00000008   tokens_0	set	8
  4162                        	.block	524
  4163                        ;	k_debug_string("cmd_FRONT\r\n");
  4164                        	.sym	process,4,138,6,32,20
  4165                        	.sym	tokens,8,138,6,32,5
  4166                        	.line	525
  4167 07:0B79: F4 xx xx     	pea	#^L98
  4168 07:0B7C: F4 xx xx     	pea	#<L98
  4169 07:0B7F: 22 xx xx xx  	jsl	~~k_debug_string
  4170                        ;	return 0;
  4171                        	.line	526
  4172 07:0B83: A9 00 00     	lda	#$0
  4173                        L102:
  4174 07:0B86: A8           	tay
  4175 07:0B87: A5 02        	lda	<L99+2
  4176 07:0B89: 85 0A        	sta	<L99+2+8
  4177 07:0B8B: A5 01        	lda	<L99+1
  4178 07:0B8D: 85 09        	sta	<L99+1+8
  4179 07:0B8F: 2B           	pld
  4180 07:0B90: 3B           	tsc
  4181 07:0B91: 18           	clc
  4182 07:0B92: 69 08 00     	adc	#L99+8
  4183 07:0B95: 1B           	tcs
  4184 07:0B96: 98           	tya
  4185 07:0B97: 6B           	rtl
  4186                        ;}
  4187                        	.line	527
  4188                        	.endblock	527
  4189             00000000   L99	equ	0
  4190             00000001   L100	equ	1
  4191 07:0B98:              	ends
  4192                        	efunc
  4193                        	.endfunc	527,1,0
  4194                        	.line	527
  Mon Sep 27 2021  9:39                                                Page 80


  4195                        	data
  4196                        L98:
  4197 00:028B: 63 6D 64 5F  	db	$63,$6D,$64,$5F,$46,$52,$4F,$4E,$54,$0D,
                    $0A,$00
       00:028F: 46 52 4F 4E 
       00:0293: 54 0D 0A 00 
  4198 00:0297:              	ends
  4199                        ;
  4200                        ;UINT cmd_BACK(PFXPROCESS process,PFXNODE tokens)
  4201                        ;{
  4202                        	.line	529
  4203                        	.line	530
  4204                        	CONMAN
  4205                        	xdef	~~cmd_BACK
  4206                        	func
  4207                        	.function	530
  4208                        ~~cmd_BACK:
  4209                        	longa	on
  4210                        	longi	on
  4211 07:0B98: 3B           	tsc
  4212 07:0B99: 38           	sec
  4213 07:0B9A: E9 00 00     	sbc	#L104
  4214 07:0B9D: 1B           	tcs
  4215 07:0B9E: 0B           	phd
  4216 07:0B9F: 5B           	tcd
  4217             00000004   process_0	set	4
  4218             00000008   tokens_0	set	8
  4219                        	.block	530
  4220                        ;	k_debug_string("cmd_BACK\r\n");
  4221                        	.sym	process,4,138,6,32,20
  4222                        	.sym	tokens,8,138,6,32,5
  4223                        	.line	531
  4224 07:0BA0: F4 xx xx     	pea	#^L103
  4225 07:0BA3: F4 xx xx     	pea	#<L103
  4226 07:0BA6: 22 xx xx xx  	jsl	~~k_debug_string
  4227                        ;	return 0;
  4228                        	.line	532
  4229 07:0BAA: A9 00 00     	lda	#$0
  4230                        L107:
  4231 07:0BAD: A8           	tay
  4232 07:0BAE: A5 02        	lda	<L104+2
  4233 07:0BB0: 85 0A        	sta	<L104+2+8
  4234 07:0BB2: A5 01        	lda	<L104+1
  4235 07:0BB4: 85 09        	sta	<L104+1+8
  4236 07:0BB6: 2B           	pld
  4237 07:0BB7: 3B           	tsc
  4238 07:0BB8: 18           	clc
  4239 07:0BB9: 69 08 00     	adc	#L104+8
  4240 07:0BBC: 1B           	tcs
  4241 07:0BBD: 98           	tya
  4242 07:0BBE: 6B           	rtl
  4243                        ;}
  4244                        	.line	533
  4245                        	.endblock	533
  4246             00000000   L104	equ	0
  4247             00000001   L105	equ	1
  4248 07:0BBF:              	ends
  4249                        	efunc
  Mon Sep 27 2021  9:39                                                Page 81


  4250                        	.endfunc	533,1,0
  4251                        	.line	533
  4252                        	data
  4253                        L103:
  4254 00:0297: 63 6D 64 5F  	db	$63,$6D,$64,$5F,$42,$41,$43,$4B,$0D,$0A,
                    $00
       00:029B: 42 41 43 4B 
       00:029F: 0D 0A 00 
  4255 00:02A2:              	ends
  4256                        ;
  4257                        ;UINT cmd_CHRDIR(PFXPROCESS process,PFXNODE tokens
                    )
  4258                        ;{
  4259                        	.line	535
  4260                        	.line	536
  4261                        	CONMAN
  4262                        	xdef	~~cmd_CHRDIR
  4263                        	func
  4264                        	.function	536
  4265                        ~~cmd_CHRDIR:
  4266                        	longa	on
  4267                        	longi	on
  4268 07:0BBF: 3B           	tsc
  4269 07:0BC0: 38           	sec
  4270 07:0BC1: E9 00 00     	sbc	#L109
  4271 07:0BC4: 1B           	tcs
  4272 07:0BC5: 0B           	phd
  4273 07:0BC6: 5B           	tcd
  4274             00000004   process_0	set	4
  4275             00000008   tokens_0	set	8
  4276                        	.block	536
  4277                        ;	k_debug_string("cmd_CHRDIR\r\n");
  4278                        	.sym	process,4,138,6,32,20
  4279                        	.sym	tokens,8,138,6,32,5
  4280                        	.line	537
  4281 07:0BC7: F4 xx xx     	pea	#^L108
  4282 07:0BCA: F4 xx xx     	pea	#<L108
  4283 07:0BCD: 22 xx xx xx  	jsl	~~k_debug_string
  4284                        ;	return 0;
  4285                        	.line	538
  4286 07:0BD1: A9 00 00     	lda	#$0
  4287                        L112:
  4288 07:0BD4: A8           	tay
  4289 07:0BD5: A5 02        	lda	<L109+2
  4290 07:0BD7: 85 0A        	sta	<L109+2+8
  4291 07:0BD9: A5 01        	lda	<L109+1
  4292 07:0BDB: 85 09        	sta	<L109+1+8
  4293 07:0BDD: 2B           	pld
  4294 07:0BDE: 3B           	tsc
  4295 07:0BDF: 18           	clc
  4296 07:0BE0: 69 08 00     	adc	#L109+8
  4297 07:0BE3: 1B           	tcs
  4298 07:0BE4: 98           	tya
  4299 07:0BE5: 6B           	rtl
  4300                        ;}
  4301                        	.line	539
  4302                        	.endblock	539
  4303             00000000   L109	equ	0
  Mon Sep 27 2021  9:39                                                Page 82


  4304             00000001   L110	equ	1
  4305 07:0BE6:              	ends
  4306                        	efunc
  4307                        	.endfunc	539,1,0
  4308                        	.line	539
  4309                        	data
  4310                        L108:
  4311 00:02A2: 63 6D 64 5F  	db	$63,$6D,$64,$5F,$43,$48,$52,$44,$49,$52,
                    $0D,$0A,$00
       00:02A6: 43 48 52 44 
       00:02AA: 49 52 0D 0A 
       00:02AE: 00 
  4312 00:02AF:              	ends
  4313                        ;
  4314                        ;UINT cmd_DISPLAY(PFXPROCESS process,PFXNODE token
                    s)
  4315                        ;{
  4316                        	.line	541
  4317                        	.line	542
  4318                        	CONMAN
  4319                        	xdef	~~cmd_DISPLAY
  4320                        	func
  4321                        	.function	542
  4322                        ~~cmd_DISPLAY:
  4323                        	longa	on
  4324                        	longi	on
  4325 07:0BE6: 3B           	tsc
  4326 07:0BE7: 38           	sec
  4327 07:0BE8: E9 00 00     	sbc	#L114
  4328 07:0BEB: 1B           	tcs
  4329 07:0BEC: 0B           	phd
  4330 07:0BED: 5B           	tcd
  4331             00000004   process_0	set	4
  4332             00000008   tokens_0	set	8
  4333                        	.block	542
  4334                        ;	k_debug_string("cmd_DISPLAY\r\n");
  4335                        	.sym	process,4,138,6,32,20
  4336                        	.sym	tokens,8,138,6,32,5
  4337                        	.line	543
  4338 07:0BEE: F4 xx xx     	pea	#^L113
  4339 07:0BF1: F4 xx xx     	pea	#<L113
  4340 07:0BF4: 22 xx xx xx  	jsl	~~k_debug_string
  4341                        ;	return 0;
  4342                        	.line	544
  4343 07:0BF8: A9 00 00     	lda	#$0
  4344                        L117:
  4345 07:0BFB: A8           	tay
  4346 07:0BFC: A5 02        	lda	<L114+2
  4347 07:0BFE: 85 0A        	sta	<L114+2+8
  4348 07:0C00: A5 01        	lda	<L114+1
  4349 07:0C02: 85 09        	sta	<L114+1+8
  4350 07:0C04: 2B           	pld
  4351 07:0C05: 3B           	tsc
  4352 07:0C06: 18           	clc
  4353 07:0C07: 69 08 00     	adc	#L114+8
  4354 07:0C0A: 1B           	tcs
  4355 07:0C0B: 98           	tya
  4356 07:0C0C: 6B           	rtl
  Mon Sep 27 2021  9:39                                                Page 83


  4357                        ;}
  4358                        	.line	545
  4359                        	.endblock	545
  4360             00000000   L114	equ	0
  4361             00000001   L115	equ	1
  4362 07:0C0D:              	ends
  4363                        	efunc
  4364                        	.endfunc	545,1,0
  4365                        	.line	545
  4366                        	data
  4367                        L113:
  4368 00:02AF: 63 6D 64 5F  	db	$63,$6D,$64,$5F,$44,$49,$53,$50,$4C,$41,
                    $59,$0D,$0A,$00
       00:02B3: 44 49 53 50 
       00:02B7: 4C 41 59 0D 
       00:02BB: 0A 00 
  4369 00:02BD:              	ends
  4370                        ;
  4371                        ;UINT cmd_NEWDIR(PFXPROCESS process,PFXNODE tokens
                    )
  4372                        ;{
  4373                        	.line	547
  4374                        	.line	548
  4375                        	CONMAN
  4376                        	xdef	~~cmd_NEWDIR
  4377                        	func
  4378                        	.function	548
  4379                        ~~cmd_NEWDIR:
  4380                        	longa	on
  4381                        	longi	on
  4382 07:0C0D: 3B           	tsc
  4383 07:0C0E: 38           	sec
  4384 07:0C0F: E9 14 00     	sbc	#L119
  4385 07:0C12: 1B           	tcs
  4386 07:0C13: 0B           	phd
  4387 07:0C14: 5B           	tcd
  4388             00000004   process_0	set	4
  4389             00000008   tokens_0	set	8
  4390                        	.block	548
  4391                        ;	BYTE signature[8];
  4392                        ;	LPCHAR dirName = NULL;
  4393                        ;
  4394                        ;	k_debug_string("cmd_NEWDIR\r\n");
  4395             00000000   signature_1	set	0
  4396             00000008   dirName_1	set	8
  4397                        	.sym	signature,0,110,1,0,8
  4398                        	.sym	dirName,8,142,1,32
  4399                        	.sym	process,4,138,6,32,20
  4400                        	.sym	tokens,8,138,6,32,5
  4401 07:0C15: 64 11        	stz	<L120+dirName_1
  4402 07:0C17: 64 13        	stz	<L120+dirName_1+2
  4403                        	.line	552
  4404 07:0C19: F4 xx xx     	pea	#^L118
  4405 07:0C1C: F4 xx xx     	pea	#<L118
  4406 07:0C1F: 22 xx xx xx  	jsl	~~k_debug_string
  4407                        ;
  4408                        ;	getTokenSig(tokens,signature);
  4409                        	.line	554
  Mon Sep 27 2021  9:39                                                Page 84


  4410 07:0C23: F4 00 00     	pea	#0
  4411 07:0C26: 18           	clc
  4412 07:0C27: 7B           	tdc
  4413 07:0C28: 69 09 00     	adc	#<L120+signature_1
  4414 07:0C2B: 48           	pha
  4415 07:0C2C: D4 1E        	pei	<L119+tokens_0+2
  4416 07:0C2E: D4 1C        	pei	<L119+tokens_0
  4417 07:0C30: 22 xx xx xx  	jsl	~~getTokenSig
  4418                        ;
  4419                        ;	if(strcmp(signature,"#AC") == 0)
  4420                        	.line	556
  4421                        ;	{
  4422 07:0C34: F4 xx xx     	pea	#^L118+13
  4423 07:0C37: F4 xx xx     	pea	#<L118+13
  4424 07:0C3A: F4 00 00     	pea	#0
  4425 07:0C3D: 18           	clc
  4426 07:0C3E: 7B           	tdc
  4427 07:0C3F: 69 09 00     	adc	#<L120+signature_1
  4428 07:0C42: 48           	pha
  4429 07:0C43: 22 xx xx xx  	jsl	~~strcmp
  4430 07:0C47: AA           	tax
  4431 07:0C48: F0 03        	beq	L122
  4432 07:0C4A: 82 3C 00     	brl	L10021
  4433                        L122:
  4434                        	.line	557
  4435                        ;		dirName = ((PTOKEN)k_nodelist_get(tokens
                    ,3)->data)->text;
  4436                        	.line	558
  4437 07:0C4D: F4 03 00     	pea	#<$3
  4438 07:0C50: D4 1E        	pei	<L119+tokens_0+2
  4439 07:0C52: D4 1C        	pei	<L119+tokens_0
  4440 07:0C54: 22 xx xx xx  	jsl	~~k_nodelist_get
  4441 07:0C58: 85 01        	sta	<R0
  4442 07:0C5A: 86 03        	stx	<R0+2
  4443 07:0C5C: A0 02 00     	ldy	#$2
  4444 07:0C5F: B7 01        	lda	[<R0],Y
  4445 07:0C61: 85 05        	sta	<R1
  4446 07:0C63: A0 04 00     	ldy	#$4
  4447 07:0C66: B7 01        	lda	[<R0],Y
  4448 07:0C68: 85 07        	sta	<R1+2
  4449 07:0C6A: A0 04 00     	ldy	#$4
  4450 07:0C6D: B7 05        	lda	[<R1],Y
  4451 07:0C6F: 85 11        	sta	<L120+dirName_1
  4452 07:0C71: A0 06 00     	ldy	#$6
  4453 07:0C74: B7 05        	lda	[<R1],Y
  4454 07:0C76: 85 13        	sta	<L120+dirName_1+2
  4455                        ;
  4456                        ;		k_debug_message("NEWDIR CORRECT:",dirNam
                    e);
  4457                        	.line	560
  4458 07:0C78: D4 13        	pei	<L120+dirName_1+2
  4459 07:0C7A: D4 11        	pei	<L120+dirName_1
  4460 07:0C7C: F4 xx xx     	pea	#^L118+17
  4461 07:0C7F: F4 xx xx     	pea	#<L118+17
  4462 07:0C82: 22 xx xx xx  	jsl	~~k_debug_message
  4463                        ;		//k_sd_create_dir(dirName);
  4464                        ;	}
  4465                        	.line	562
  Mon Sep 27 2021  9:39                                                Page 85


  4466                        ;	else
  4467 07:0C86: 82 0A 00     	brl	L10022
  4468                        L10021:
  4469                        ;	{
  4470                        	.line	564
  4471                        ;		k_debug_string("NEWDIR Syntax Error\r\n"
                    );
  4472                        	.line	565
  4473 07:0C89: F4 xx xx     	pea	#^L118+33
  4474 07:0C8C: F4 xx xx     	pea	#<L118+33
  4475 07:0C8F: 22 xx xx xx  	jsl	~~k_debug_string
  4476                        ;	}
  4477                        	.line	566
  4478                        L10022:
  4479                        ;
  4480                        ;
  4481                        ;	return 0;
  4482                        	.line	569
  4483 07:0C93: A9 00 00     	lda	#$0
  4484                        L123:
  4485 07:0C96: A8           	tay
  4486 07:0C97: A5 16        	lda	<L119+2
  4487 07:0C99: 85 1E        	sta	<L119+2+8
  4488 07:0C9B: A5 15        	lda	<L119+1
  4489 07:0C9D: 85 1D        	sta	<L119+1+8
  4490 07:0C9F: 2B           	pld
  4491 07:0CA0: 3B           	tsc
  4492 07:0CA1: 18           	clc
  4493 07:0CA2: 69 1C 00     	adc	#L119+8
  4494 07:0CA5: 1B           	tcs
  4495 07:0CA6: 98           	tya
  4496 07:0CA7: 6B           	rtl
  4497                        ;}
  4498                        	.line	570
  4499                        	.endblock	570
  4500             00000014   L119	equ	20
  4501             00000009   L120	equ	9
  4502 07:0CA8:              	ends
  4503                        	efunc
  4504                        	.endfunc	570,9,20
  4505                        	.line	570
  4506                        	data
  4507                        L118:
  4508 00:02BD: 63 6D 64 5F  	db	$63,$6D,$64,$5F,$4E,$45,$57,$44,$49,$52,
                    $0D,$0A,$00,$23,$41
       00:02C1: 4E 45 57 44 
       00:02C5: 49 52 0D 0A 
       00:02C9: 00 23 41 
  4509 00:02CC: 43 00 4E 45  	db	$43,$00,$4E,$45,$57,$44,$49,$52,$20,$43,
                    $4F,$52,$52,$45,$43
       00:02D0: 57 44 49 52 
       00:02D4: 20 43 4F 52 
       00:02D8: 52 45 43 
  4510 00:02DB: 54 3A 00 4E  	db	$54,$3A,$00,$4E,$45,$57,$44,$49,$52,$20,
                    $53,$79,$6E,$74,$61
       00:02DF: 45 57 44 49 
       00:02E3: 52 20 53 79 
       00:02E7: 6E 74 61 
  Mon Sep 27 2021  9:39                                                Page 86


  4511 00:02EA: 78 20 45 72  	db	$78,$20,$45,$72,$72,$6F,$72,$0D,$0A,$00
       00:02EE: 72 6F 72 0D 
       00:02F2: 0A 00 
  4512 00:02F4:              	ends
  4513                        ;
  4514                        ;
  4515                        ;UINT cmd_SEND(PFXPROCESS process,PFXNODE tokens)
  4516                        ;{
  4517                        	.line	573
  4518                        	.line	574
  4519                        	CONMAN
  4520                        	xdef	~~cmd_SEND
  4521                        	func
  4522                        	.function	574
  4523                        ~~cmd_SEND:
  4524                        	longa	on
  4525                        	longi	on
  4526 07:0CA8: 3B           	tsc
  4527 07:0CA9: 38           	sec
  4528 07:0CAA: E9 14 00     	sbc	#L125
  4529 07:0CAD: 1B           	tcs
  4530 07:0CAE: 0B           	phd
  4531 07:0CAF: 5B           	tcd
  4532             00000004   process_0	set	4
  4533             00000008   tokens_0	set	8
  4534                        	.block	574
  4535                        ;	BYTE signature[8];
  4536                        ;	LPCHAR dirName = NULL;
  4537                        ;
  4538                        ;
  4539                        ;	k_debug_string("cmd_SEND\r\n");
  4540             00000000   signature_1	set	0
  4541             00000008   dirName_1	set	8
  4542                        	.sym	signature,0,110,1,0,8
  4543                        	.sym	dirName,8,142,1,32
  4544                        	.sym	process,4,138,6,32,20
  4545                        	.sym	tokens,8,138,6,32,5
  4546 07:0CB0: 64 11        	stz	<L126+dirName_1
  4547 07:0CB2: 64 13        	stz	<L126+dirName_1+2
  4548                        	.line	579
  4549 07:0CB4: F4 xx xx     	pea	#^L124
  4550 07:0CB7: F4 xx xx     	pea	#<L124
  4551 07:0CBA: 22 xx xx xx  	jsl	~~k_debug_string
  4552                        ;
  4553                        ;
  4554                        ;	getTokenSig(tokens,signature);
  4555                        	.line	582
  4556 07:0CBE: F4 00 00     	pea	#0
  4557 07:0CC1: 18           	clc
  4558 07:0CC2: 7B           	tdc
  4559 07:0CC3: 69 09 00     	adc	#<L126+signature_1
  4560 07:0CC6: 48           	pha
  4561 07:0CC7: D4 1E        	pei	<L125+tokens_0+2
  4562 07:0CC9: D4 1C        	pei	<L125+tokens_0
  4563 07:0CCB: 22 xx xx xx  	jsl	~~getTokenSig
  4564                        ;
  4565                        ;	if(signature[2] == TTYPE_WORD && signature[3] ==
                     TTYPE_STRING)
  Mon Sep 27 2021  9:39                                                Page 87


  4566                        	.line	584
  4567                        ;	{
  4568 07:0CCF: A5 0B        	lda	<L126+signature_1+2
  4569 07:0CD1: 29 FF 00     	and	#$ff
  4570 07:0CD4: F0 03        	beq	L128
  4571 07:0CD6: 82 51 00     	brl	L10023
  4572                        L128:
  4573 07:0CD9: E2 20        	sep	#$20
  4574                        	longa	off
  4575 07:0CDB: A5 0C        	lda	<L126+signature_1+3
  4576 07:0CDD: C9 02        	cmp	#<$2
  4577 07:0CDF: C2 20        	rep	#$20
  4578                        	longa	on
  4579 07:0CE1: F0 03        	beq	L129
  4580 07:0CE3: 82 44 00     	brl	L10023
  4581                        L129:
  4582                        	.line	585
  4583                        ;		dirName = ((PTOKEN)k_nodelist_get(tokens
                    ,3)->data)->text;
  4584                        	.line	586
  4585 07:0CE6: F4 03 00     	pea	#<$3
  4586 07:0CE9: D4 1E        	pei	<L125+tokens_0+2
  4587 07:0CEB: D4 1C        	pei	<L125+tokens_0
  4588 07:0CED: 22 xx xx xx  	jsl	~~k_nodelist_get
  4589 07:0CF1: 85 01        	sta	<R0
  4590 07:0CF3: 86 03        	stx	<R0+2
  4591 07:0CF5: A0 02 00     	ldy	#$2
  4592 07:0CF8: B7 01        	lda	[<R0],Y
  4593 07:0CFA: 85 05        	sta	<R1
  4594 07:0CFC: A0 04 00     	ldy	#$4
  4595 07:0CFF: B7 01        	lda	[<R0],Y
  4596 07:0D01: 85 07        	sta	<R1+2
  4597 07:0D03: A0 04 00     	ldy	#$4
  4598 07:0D06: B7 05        	lda	[<R1],Y
  4599 07:0D08: 85 11        	sta	<L126+dirName_1
  4600 07:0D0A: A0 06 00     	ldy	#$6
  4601 07:0D0D: B7 05        	lda	[<R1],Y
  4602 07:0D0F: 85 13        	sta	<L126+dirName_1+2
  4603                        ;
  4604                        ;		k_debug_message("SEND CORRECT:",dirName)
                    ;
  4605                        	.line	588
  4606 07:0D11: D4 13        	pei	<L126+dirName_1+2
  4607 07:0D13: D4 11        	pei	<L126+dirName_1
  4608 07:0D15: F4 xx xx     	pea	#^L124+11
  4609 07:0D18: F4 xx xx     	pea	#<L124+11
  4610 07:0D1B: 22 xx xx xx  	jsl	~~k_debug_message
  4611                        ;		k_debug_string_com1(dirName);
  4612                        	.line	589
  4613 07:0D1F: D4 13        	pei	<L126+dirName_1+2
  4614 07:0D21: D4 11        	pei	<L126+dirName_1
  4615 07:0D23: 22 xx xx xx  	jsl	~~k_debug_string_com1
  4616                        ;	}
  4617                        	.line	590
  4618                        ;	else
  4619 07:0D27: 82 0A 00     	brl	L10024
  4620                        L10023:
  4621                        ;	{
  Mon Sep 27 2021  9:39                                                Page 88


  4622                        	.line	592
  4623                        ;		k_debug_string("SEND Syntax Error\r\n");
  4624                        	.line	593
  4625 07:0D2A: F4 xx xx     	pea	#^L124+25
  4626 07:0D2D: F4 xx xx     	pea	#<L124+25
  4627 07:0D30: 22 xx xx xx  	jsl	~~k_debug_string
  4628                        ;	}
  4629                        	.line	594
  4630                        L10024:
  4631                        ;
  4632                        ;	return 0;
  4633                        	.line	596
  4634 07:0D34: A9 00 00     	lda	#$0
  4635                        L130:
  4636 07:0D37: A8           	tay
  4637 07:0D38: A5 16        	lda	<L125+2
  4638 07:0D3A: 85 1E        	sta	<L125+2+8
  4639 07:0D3C: A5 15        	lda	<L125+1
  4640 07:0D3E: 85 1D        	sta	<L125+1+8
  4641 07:0D40: 2B           	pld
  4642 07:0D41: 3B           	tsc
  4643 07:0D42: 18           	clc
  4644 07:0D43: 69 1C 00     	adc	#L125+8
  4645 07:0D46: 1B           	tcs
  4646 07:0D47: 98           	tya
  4647 07:0D48: 6B           	rtl
  4648                        ;}
  4649                        	.line	597
  4650                        	.endblock	597
  4651             00000014   L125	equ	20
  4652             00000009   L126	equ	9
  4653 07:0D49:              	ends
  4654                        	efunc
  4655                        	.endfunc	597,9,20
  4656                        	.line	597
  4657                        	data
  4658                        L124:
  4659 00:02F4: 63 6D 64 5F  	db	$63,$6D,$64,$5F,$53,$45,$4E,$44,$0D,$0A,
                    $00,$53,$45,$4E,$44
       00:02F8: 53 45 4E 44 
       00:02FC: 0D 0A 00 53 
       00:0300: 45 4E 44 
  4660 00:0303: 20 43 4F 52  	db	$20,$43,$4F,$52,$52,$45,$43,$54,$3A,$00,
                    $53,$45,$4E,$44,$20
       00:0307: 52 45 43 54 
       00:030B: 3A 00 53 45 
       00:030F: 4E 44 20 
  4661 00:0312: 53 79 6E 74  	db	$53,$79,$6E,$74,$61,$78,$20,$45,$72,$72,
                    $6F,$72,$0D,$0A,$00
       00:0316: 61 78 20 45 
       00:031A: 72 72 6F 72 
       00:031E: 0D 0A 00 
  4662 00:0321:              	ends
  4663                        ;
  4664                        ;UINT cmd_LINEUP(PFXPROCESS process,PFXNODE tokens
                    )
  4665                        ;{
  4666                        	.line	599
  Mon Sep 27 2021  9:39                                                Page 89


  4667                        	.line	600
  4668                        	CONMAN
  4669                        	xdef	~~cmd_LINEUP
  4670                        	func
  4671                        	.function	600
  4672                        ~~cmd_LINEUP:
  4673                        	longa	on
  4674                        	longi	on
  4675 07:0D49: 3B           	tsc
  4676 07:0D4A: 38           	sec
  4677 07:0D4B: E9 1A 00     	sbc	#L132
  4678 07:0D4E: 1B           	tcs
  4679 07:0D4F: 0B           	phd
  4680 07:0D50: 5B           	tcd
  4681             00000004   process_0	set	4
  4682             00000008   tokens_0	set	8
  4683                        	.block	600
  4684                        ;	LPCHAR  name = NULL;
  4685                        ;	UINT    scrollSize = 0;
  4686                        ;	CHAR 	signature[16];
  4687                        ;	int i = 0;
  4688                        ;	int j = 0;
  4689                        ;
  4690                        ;	k_debug_string("cmd_LINEUP\r\n");
  4691             00000000   name_1	set	0
  4692             00000004   scrollSize_1	set	4
  4693             00000006   signature_1	set	6
  4694             00000016   i_1	set	22
  4695             00000018   j_1	set	24
  4696                        	.sym	name,0,142,1,32
  4697                        	.sym	scrollSize,4,16,1,16
  4698                        	.sym	signature,6,110,1,0,16
  4699                        	.sym	i,22,5,1,16
  4700                        	.sym	j,24,5,1,16
  4701                        	.sym	process,4,138,6,32,20
  4702                        	.sym	tokens,8,138,6,32,5
  4703 07:0D51: 64 01        	stz	<L133+name_1
  4704 07:0D53: 64 03        	stz	<L133+name_1+2
  4705 07:0D55: 64 05        	stz	<L133+scrollSize_1
  4706 07:0D57: 64 17        	stz	<L133+i_1
  4707 07:0D59: 64 19        	stz	<L133+j_1
  4708                        	.line	607
  4709 07:0D5B: F4 xx xx     	pea	#^L131
  4710 07:0D5E: F4 xx xx     	pea	#<L131
  4711 07:0D61: 22 xx xx xx  	jsl	~~k_debug_string
  4712                        ;
  4713                        ;	getTokenSig(tokens,signature);
  4714                        	.line	609
  4715 07:0D65: F4 00 00     	pea	#0
  4716 07:0D68: 18           	clc
  4717 07:0D69: 7B           	tdc
  4718 07:0D6A: 69 07 00     	adc	#<L133+signature_1
  4719 07:0D6D: 48           	pha
  4720 07:0D6E: D4 24        	pei	<L132+tokens_0+2
  4721 07:0D70: D4 22        	pei	<L132+tokens_0
  4722 07:0D72: 22 xx xx xx  	jsl	~~getTokenSig
  4723                        ;	/*
  4724                        ;	if(strcmp(signature,"#A") == 0)
  Mon Sep 27 2021  9:39                                                Page 90


  4725                        ;	{
  4726                        ;		name    = (LPCHAR)((PTOKEN)k_nodelist_ge
                    t(tokens,3)->data)->text;
  4727                        ;
  4728                        ;		k_debug_strings("cmd_LINEUP::arg:",name)
                    ;
  4729                        ;
  4730                        ;		scrollSize = atol(name);
  4731                        ;
  4732                        ;		k_debug_long("cmd_LINEUP::scrollSize:",s
                    crollSize);
  4733                        ;
  4734                        ;		k_bitblt(10,10,100,100,0,0);
  4735                        ;
  4736                        ;	}
  4737                        ;	*/
  4738                        ;
  4739                        ;
  4740                        ;	k_send_process_command_message(process,FX_SCROLL
                    BAR_COMMAND,CTL_VERT_SCROLL,0,1L,0L);
  4741                        	.line	627
  4742 07:0D76: F4 00 00     	pea	#^$0
  4743 07:0D79: F4 00 00     	pea	#<$0
  4744 07:0D7C: F4 00 00     	pea	#^$1
  4745 07:0D7F: F4 01 00     	pea	#<$1
  4746 07:0D82: F4 00 00     	pea	#<$0
  4747 07:0D85: F4 01 00     	pea	#<$1
  4748 07:0D88: F4 02 FA     	pea	#<$fa02
  4749 07:0D8B: D4 20        	pei	<L132+process_0+2
  4750 07:0D8D: D4 1E        	pei	<L132+process_0
  4751 07:0D8F: 22 xx xx xx  	jsl	~~k_send_process_command_message
  4752                        ;
  4753                        ;
  4754                        ;
  4755                        ;	return 0;
  4756                        	.line	631
  4757 07:0D93: A9 00 00     	lda	#$0
  4758                        L135:
  4759 07:0D96: A8           	tay
  4760 07:0D97: A5 1C        	lda	<L132+2
  4761 07:0D99: 85 24        	sta	<L132+2+8
  4762 07:0D9B: A5 1B        	lda	<L132+1
  4763 07:0D9D: 85 23        	sta	<L132+1+8
  4764 07:0D9F: 2B           	pld
  4765 07:0DA0: 3B           	tsc
  4766 07:0DA1: 18           	clc
  4767 07:0DA2: 69 22 00     	adc	#L132+8
  4768 07:0DA5: 1B           	tcs
  4769 07:0DA6: 98           	tya
  4770 07:0DA7: 6B           	rtl
  4771                        ;}
  4772                        	.line	632
  4773                        	.endblock	632
  4774             0000001A   L132	equ	26
  4775             00000001   L133	equ	1
  4776 07:0DA8:              	ends
  4777                        	efunc
  4778                        	.endfunc	632,1,26
  Mon Sep 27 2021  9:39                                                Page 91


  4779                        	.line	632
  4780                        	data
  4781                        L131:
  4782 00:0321: 63 6D 64 5F  	db	$63,$6D,$64,$5F,$4C,$49,$4E,$45,$55,$50,
                    $0D,$0A,$00
       00:0325: 4C 49 4E 45 
       00:0329: 55 50 0D 0A 
       00:032D: 00 
  4783 00:032E:              	ends
  4784                        ;
  4785                        ;
  4786                        ;
  4787                        	.line	634
  4788                        	.file	"G:\devprojects\c256Foenix\fxos\FXOSWork
                    space\FXOS-Beta\src\fxcon_cmd.c",599
  4789                        	xref	~~getTokenSig
  4790                        	xref	~~DefConsoleProc2
  4791                        	xref	~~k_create_text_window
  4792                        	xref	~~k_clear_screen
  4793                        	xref	~~k_send_process_command_message
  4794                        	xref	~~k_attach_process_events
  4795                        	xref	~~k_user_CreateWindow
  4796                        	xref	~~k_init_desktop
  4797                        	xref	~~k_exec_signal_start
  4798                        	xref	~~k_exec_signal_terminate
  4799                        	xref	~~k_exec_signal_sleep
  4800                        	xref	~~k_exec_set_process_foreground
  4801                        	xref	~~k_exec_createProcess
  4802                        	xref	~~k_exec_process_list
  4803                        	xref	~~k_get_rtc_second
  4804                        	xref	~~k_debug_strings
  4805                        	xref	~~k_debug_message
  4806                        	xref	~~k_debug_long
  4807                        	xref	~~k_debug_integer
  4808                        	xref	~~k_debug_string
  4809                        	xref	~~k_debug_string_com1
  4810                        	xref	~~k_nodelist_get
  4811                        	xref	~~k_get_localtime_string
  4812                        	xref	~~k_string_copy_string
  4813                        	xref	~~k_inttodec
  4814                        	xref	~~srand
  4815                        	xref	~~rand
  4816                        	xref	~~atol
  4817                        	xref	~~strcpy
  4818                        	xref	~~strcmp
  4819                        	xref	~~strcat
  4820                        	xref	~~memset
  4821                        	.sym	~~consoleAppOffset,~~consoleAppOffset,5,
                    3,16
  4822                        	.sym	FILE,0,138,14,32,130
  4823                        	.sym	FILE_POINTER,0,10,14,112,130
  4824                        	.sym	PDOSHANDLE,0,138,14,32,129
  4825                        	.sym	DOSHANDLE,0,10,14,80,129
  4826                        	.sym	PFXDOSDEVICE,0,138,14,32,127
  4827                        	.sym	FXDOSDEVICE,0,10,14,5744,127
  4828                        	.sym	DOSINITDEVICE,0,641,14,32
  4829                        	.sym	DOSSECTORWRITER,0,654,14,32
  4830                        	.sym	DOSSECTORREADER,0,654,14,32
  Mon Sep 27 2021  9:39                                                Page 92


  4831                        	.sym	PIDENTIFY_DEVICE_DATA,0,138,14,32,126
  4832                        	.sym	IDENTIFY_DEVICE_DATA,0,10,14,4096,126
  4833                        	.sym	PIDSECTOR,0,138,14,32,103
  4834                        	.sym	IDSECTOR,0,10,14,2048,103
  4835                        	.sym	PLFN,0,138,14,32,102
  4836                        	.sym	LFN,0,10,14,256,102
  4837                        	.sym	PFAT16ENTRYLONG,0,138,14,32,101
  4838                        	.sym	FAT16ENTRYLONG,0,10,14,288,101
  4839                        	.sym	PFAT16ENTRY,0,138,14,32,100
  4840                        	.sym	FAT16ENTRY,0,10,14,256,100
  4841                        	.sym	Fat16BootSector,0,10,14,4096,99
  4842                        	.sym	PPARTITIONTABLE,0,138,14,32,98
  4843                        	.sym	PARTITIONTABLE,0,10,14,128,98
  4844                        	.sym	PFATBOOTSECTOR,0,138,14,32,97
  4845                        	.sym	FATBOOTSECTOR,0,10,14,928,97
  4846                        	.sym	fat_BS_t,0,10,14,688,96
  4847                        	.sym	fat_extBS_16_t,0,10,14,192,95
  4848                        	.sym	PFAT32EXT,0,138,14,32,94
  4849                        	.sym	fat_extBS_32_t,0,10,14,416,94
  4850                        	.sym	P_FX_FAT_DIR_INFO,0,138,14,32,93
  4851                        	.sym	FX_FAT_DIR_INFO,0,10,14,256,93
  4852                        	.sym	PFILEINFO,0,138,14,32,92
  4853                        	.sym	FILEINFO,0,10,14,136,92
  4854                        	.sym	PDISKINFO,0,138,14,32,91
  4855                        	.sym	DISKINFO,0,10,14,416,91
  4856                        	.sym	PDIRENTRY,0,138,14,32,90
  4857                        	.sym	DIRENTRY,0,10,14,256,90
  4858                        	.sym	DRESULT,0,5,14,16
  4859                        	.sym	DSTATUS,0,14,14,8
  4860                        	.sym	~~cmd_LINEUP,~~cmd_LINEUP,80,2,0
  4861                        	.sym	~~cmd_RESUME,~~cmd_RESUME,80,2,0
  4862                        	.sym	~~cmd_PAUSE,~~cmd_PAUSE,80,2,0
  4863                        	.sym	~~cmd_TIME,~~cmd_TIME,80,2,0
  4864                        	.sym	~~cmd_EXIT,~~cmd_EXIT,80,2,0
  4865                        	.sym	~~cmd_START,~~cmd_START,80,2,0
  4866                        	.sym	~~cmd_Window,~~cmd_Window,80,2,0
  4867                        	.sym	~~cmd_SEND,~~cmd_SEND,80,2,0
  4868                        	.sym	~~cmd_DISPLAY,~~cmd_DISPLAY,80,2,0
  4869                        	.sym	~~cmd_CHRDIR,~~cmd_CHRDIR,80,2,0
  4870                        	.sym	~~cmd_TASKS,~~cmd_TASKS,80,2,0
  4871                        	.sym	~~cmd_BACK,~~cmd_BACK,80,2,0
  4872                        	.sym	~~cmd_FRONT,~~cmd_FRONT,80,2,0
  4873                        	.sym	~~cmd_NEWDIR,~~cmd_NEWDIR,80,2,0
  4874                        	.sym	~~cmd_INIT,~~cmd_INIT,80,2,0
  4875                        	.sym	~~cmd_BCOLOR,~~cmd_BCOLOR,80,2,0
  4876                        	.sym	~~cmd_FCOLOR,~~cmd_FCOLOR,80,2,0
  4877                        	.sym	~~cmd_VOL,~~cmd_VOL,80,2,0
  4878                        	.sym	~~cmd_DIR,~~cmd_DIR,80,2,0
  4879                        	.sym	~~cmd_TESTSD,~~cmd_TESTSD,80,2,0
  4880                        	.sym	~~cmd_WORKBENCH,~~cmd_WORKBENCH,80,2,0
  4881                        	.sym	~~cmd_CLEAR,~~cmd_CLEAR,80,2,0
  4882                        	.sym	~~getTokenSig,~~getTokenSig,65,18,0
  4883                        	.sym	~~DefConsoleProc2,~~DefConsoleProc2,65,1
                    8,0
  4884                        	.sym	~~k_create_text_window,~~k_create_text_w
                    indow,65,18,0
  4885                        	.sym	~~k_clear_screen,~~k_clear_screen,65,18,
                    0
  Mon Sep 27 2021  9:39                                                Page 93


  4886                        	.sym	PCOMMANDARGS,0,138,14,32,89
  4887                        	.sym	COMMANDARGS,0,10,14,64,89
  4888                        	.sym	PTOKENIZESTATE,0,133,14,32
  4889                        	.sym	TOKENIZESTATE,0,5,14,16
  4890                        	.sym	PTOKEN,0,138,14,32,88
  4891                        	.sym	TOKEN,0,10,14,64,88
  4892                        	.sym	PTOKENTYPE,0,133,14,32
  4893                        	.sym	TOKENTYPE,0,5,14,16
  4894                        	.sym	FXCommandHandler,0,656,14,32
  4895                        	.sym	PCONSOLECTX,0,138,14,32,87
  4896                        	.sym	CONSOLECTX,0,10,14,1144,87
  4897                        	.sym	PSPINNERCTX,0,138,14,32,86
  4898                        	.sym	SPINNERCTX,0,10,14,48,86
  4899                        	.sym	HCLIP,0,138,14,32,85
  4900                        	.sym	PCLIPBOARD_DATA,0,138,14,32,85
  4901                        	.sym	CLIPBOARD_DATA,0,10,14,168,85
  4902                        	.sym	~~k_send_process_command_message,~~k_sen
                    d_process_command_message,78,18,0
  4903                        	.sym	~~k_attach_process_events,~~k_attach_pro
                    cess_events,69,18,0
  4904                        	.sym	PEVENTMANAGER,0,138,14,32,84
  4905                        	.sym	EVENTMANAGER,0,10,14,192,84
  4906                        	.sym	EV_RUN,0,656,14,32
  4907                        	.sym	EV_QUERY_METRIC,0,656,14,32
  4908                        	.sym	EV_CONFIGURE,0,656,14,32
  4909                        	.sym	EV_UNINIT,0,641,14,32
  4910                        	.sym	EV_INIT,0,8833,14,32
  4911                        	.sym	PMOUSE_MSG_STATE,0,138,14,32,83
  4912                        	.sym	MOUSE_MSG_STATE,0,10,14,184,83
  4913                        	.sym	PFXEVENTPROCESS,0,138,14,32,82
  4914                        	.sym	FXEVENTPROCESS,0,10,14,64,82
  4915                        	.sym	FXASYNCPROCESS,0,641,14,32
  4916                        	.sym	PMARSHALDATA,0,139,14,32,81
  4917                        	.sym	MARSHALDATA,0,11,14,32,81
  4918                        	.sym	FXIDLEPROCESS,0,641,14,32
  4919                        	.sym	FXEventProc,0,641,14,32
  4920                        	.sym	PMOUSEMSGDATA,0,138,14,32,80
  4921                        	.sym	MOUSEMSGDATA,0,10,14,64,80
  4922                        	.sym	MSGIRQ,0,5,14,16
  4923                        	.sym	MAINLOOPARGS,0,10,14,16,79
  4924                        	.sym	PEACHCHILD_MSG,0,138,14,32,78
  4925                        	.sym	EACHCHILD_MSG,0,10,14,64,78
  4926                        	.sym	PMSGBOX_DATA,0,138,14,32,77
  4927                        	.sym	MSGBOX_DATA,0,10,14,96,77
  4928                        	.sym	PDESKTOP_DATA,0,138,14,32,76
  4929                        	.sym	DESKTOP_DATA,0,10,14,64,76
  4930                        	.sym	~~k_user_CreateWindow,~~k_user_CreateWin
                    dow,1098,18,32,33
  4931                        	.sym	PWINDOWMANAGER,0,138,14,32,75
  4932                        	.sym	WINDOWMANAGER,0,10,14,160,75
  4933                        	.sym	WM_DOPROCS,0,641,14,32
  4934                        	.sym	WM_QUERY_METRIC,0,656,14,32
  4935                        	.sym	WM_CONFIGURE,0,656,14,32
  4936                        	.sym	WM_HANDLE_EVENT,0,8833,14,32
  4937                        	.sym	WM_EVENTS,0,641,14,32
  4938                        	.sym	~~k_init_desktop,~~k_init_desktop,65,18,
                    0
  4939                        	.sym	PCUR_PALETTE_MAP,0,138,14,32,74
  Mon Sep 27 2021  9:39                                                Page 94


  4940                        	.sym	CUR_PALETTE_MAP,0,10,14,400,74
  4941                        	.sym	PCLICKDETECTED,0,138,14,32,73
  4942                        	.sym	CLICKDETECTED,0,10,14,64,73
  4943                        	.sym	OBJECTCLICKED,0,641,14,32
  4944                        	.sym	PALLOCATIONHEADER,0,138,14,32,72
  4945                        	.sym	ALLOCATIONHEADER,0,10,14,80,72
  4946                        	.sym	PIPCPORT,0,138,14,32,71
  4947                        	.sym	IPCPORT,0,10,14,144,71
  4948                        	.sym	MemoryCallback,0,641,14,32
  4949                        	.sym	PFXMEMORYMAP,0,138,14,32,70
  4950                        	.sym	FXMEMORYMAP,0,10,14,2072,70
  4951                        	.sym	UMM_HEAP_INFO,0,10,14,256,69
  4952                        	.sym	~~k_exec_signal_start,~~k_exec_signal_st
                    art,78,18,0
  4953                        	.sym	~~k_exec_signal_terminate,~~k_exec_signa
                    l_terminate,78,18,0
  4954                        	.sym	~~k_exec_signal_sleep,~~k_exec_signal_sl
                    eep,78,18,0
  4955                        	.sym	~~k_exec_set_process_foreground,~~k_exec
                    _set_process_foreground,65,18,0
  4956                        	.sym	~~k_exec_createProcess,~~k_exec_createPr
                    ocess,1098,18,32,20
  4957                        	.sym	~~k_exec_process_list,~~k_exec_process_l
                    ist,9290,18,32,20
  4958                        	.sym	PEXECUTIVE,0,138,14,32,68
  4959                        	.sym	EXECUTIVE,0,10,14,128,68
  4960                        	.sym	EX_QUERY_METRIC,0,656,14,32
  4961                        	.sym	EX_CONFIGURE,0,656,14,32
  4962                        	.sym	EX_UNINIT,0,641,14,32
  4963                        	.sym	EX_INIT,0,8833,14,32
  4964                        	.sym	FRESULT,0,5,14,16
  4965                        	.sym	MKFS_PARM,0,10,14,80,67
  4966                        	.sym	FILINFO,0,10,14,2224,66
  4967                        	.sym	DIR,0,10,14,416,65
  4968                        	.sym	FIL,0,10,14,4400,64
  4969                        	.sym	FFOBJID,0,10,14,128,63
  4970                        	.sym	FATFS,0,10,14,4504,62
  4971                        	.sym	LBA_t,0,18,14,32
  4972                        	.sym	FSIZE_t,0,18,14,32
  4973                        	.sym	TCHAR,0,14,14,8
  4974                        	.sym	PIRQCHAIN,0,138,14,32,61
  4975                        	.sym	IRQCHAIN,0,10,14,128,61
  4976                        	.sym	DEVICEDRIVER_COMMAND,0,654,14,32
  4977                        	.sym	DEVICEDRIVER_UNLOAD,0,654,14,32
  4978                        	.sym	DEVICEDRIVER_WRITE,0,654,14,32
  4979                        	.sym	DEVICEDRIVER_READ,0,654,14,32
  4980                        	.sym	DEVICEDRIVER_LOAD,0,654,14,32
  4981                        	.sym	DEVICEDRIVER_IRQ,0,641,14,32
  4982                        	.sym	PFX_BLOCK_DEVICE_DRIVER,0,138,14,32,60
  4983                        	.sym	FX_BLOCK_DEVICE_DRIVER,0,10,14,808,60
  4984                        	.sym	GETDRIVERDEF,0,8842,14,32,59
  4985                        	.sym	PFX_DEVICE_DRIVER,0,138,14,32,59
  4986                        	.sym	FX_DEVICE_DRIVER,0,10,14,776,59
  4987                        	.sym	~~k_get_rtc_second,~~k_get_rtc_second,80
                    ,18,0
  4988                        	.sym	~~k_debug_strings,~~k_debug_strings,65,1
                    8,0
  4989                        	.sym	~~k_debug_message,~~k_debug_message,65,1
  Mon Sep 27 2021  9:39                                                Page 95


                    8,0
  4990                        	.sym	~~k_debug_long,~~k_debug_long,65,18,0
  4991                        	.sym	~~k_debug_integer,~~k_debug_integer,65,1
                    8,0
  4992                        	.sym	~~k_debug_string,~~k_debug_string,65,18,
                    0
  4993                        	.sym	~~k_debug_string_com1,~~k_debug_string_c
                    om1,65,18,0
  4994                        	.sym	PSEGMENTHEADER,0,138,14,32,58
  4995                        	.sym	SEGMENTHEADER,0,10,14,160,58
  4996                        	.sym	PDEBUGBYTEBITS,0,138,14,32,57
  4997                        	.sym	DEBUGBYTEBITS,0,10,14,8,57
  4998                        	.sym	PFXENVIRONMENT,0,138,14,32,56
  4999                        	.sym	FXENVIRONMENT,0,10,14,96,56
  5000                        	.sym	PFXZEROPAGE,0,138,14,32,55
  5001                        	.sym	FXZEROPAGE,0,10,14,720,55
  5002                        	.sym	IRQBUFFER,0,10,14,32,54
  5003                        	.sym	KERNELTRAPCALL,0,641,14,32
  5004                        	.sym	PFXKERNEL_API_CALLTABLE,0,138,14,32,53
  5005                        	.sym	FXKERNEL_API_CALLTABLE,0,10,14,8192,53
  5006                        	.sym	FOREACHNODEUNTIL,0,654,14,32
  5007                        	.sym	FOREACHNODE,0,641,14,32
  5008                        	.sym	~~k_nodelist_get,~~k_nodelist_get,1098,1
                    8,32,5
  5009                        	.sym	~~k_get_localtime_string,~~k_get_localti
                    me_string,1102,18,32
  5010                        	.sym	~~k_string_copy_string,~~k_string_copy_s
                    tring,1102,18,32
  5011                        	.sym	~~k_inttodec,~~k_inttodec,1102,18,32
  5012                        	.sym	PFXSTRING,0,138,14,32,52
  5013                        	.sym	FXSTRING,0,10,14,64,52
  5014                        	.sym	PFXRFHEADER_STRING_ENTRY,0,138,14,32,51
  5015                        	.sym	FXRFHEADER_STRING_ENTRY,0,10,14,40,51
  5016                        	.sym	PFXRFHEADER_STRING,0,138,14,32,50
  5017                        	.sym	FXRFHEADER_STRING,0,10,14,32,50
  5018                        	.sym	PFXRFHEADER_FONT,0,138,14,32,49
  5019                        	.sym	FXRFHEADER_FONT,0,10,14,144,49
  5020                        	.sym	PFXRFHEADER,0,138,14,32,48
  5021                        	.sym	FXRFHEADER,0,10,14,72,48
  5022                        	.sym	PFXCOMBUFFER,0,138,14,32,47
  5023                        	.sym	FXCOMBUFFER,0,10,14,2080,47
  5024                        	.sym	PSUBMENULIST,0,138,14,32,46
  5025                        	.sym	SUBMENULIST,0,10,14,40,46
  5026                        	.sym	HSUBMENU,0,7,14,32
  5027                        	.sym	PSUBMENU,0,138,14,32,45
  5028                        	.sym	SUBMENU,0,10,14,64,45
  5029                        	.sym	MenuAction,0,641,14,32
  5030                        	.sym	PMENUANCHOR,0,138,14,32,44
  5031                        	.sym	MENUANCHOR,0,10,14,272,44
  5032                        	.sym	PMSGBOX,0,138,14,32,43
  5033                        	.sym	MSGBOX,0,10,14,144,43
  5034                        	.sym	PTEXTBOX,0,138,14,32,42
  5035                        	.sym	TEXTBOX,0,10,14,144,42
  5036                        	.sym	PLISTBOX,0,138,14,32,41
  5037                        	.sym	LISTBOX,0,10,14,240,41
  5038                        	.sym	PSCROLLBAR,0,138,14,32,40
  5039                        	.sym	SCROLLBAR,0,10,14,240,40
  5040                        	.sym	PBUTTON,0,138,14,32,39
  Mon Sep 27 2021  9:39                                                Page 96


  5041                        	.sym	BUTTON,0,10,14,96,39
  5042                        	.sym	PMENUDROPDOWNDATA,0,138,14,32,38
  5043                        	.sym	MENUDROPDOWNDATA,0,10,14,5152,38
  5044                        	.sym	PMENUTAG,0,138,14,32,37
  5045                        	.sym	MENUTAG,0,10,14,160,37
  5046                        	.sym	PMENU,0,138,14,32,36
  5047                        	.sym	MENU,0,10,14,280,36
  5048                        	.sym	HMENURESOURCE,0,129,14,32
  5049                        	.sym	FONTMETRIC,0,10,14,32,35
  5050                        	.sym	TITLE,0,142,14,32
  5051                        	.sym	PHANDLE,0,1153,14,32
  5052                        	.sym	HANDLE,0,129,14,32
  5053                        	.sym	PWINDOWEX,0,138,14,32,34
  5054                        	.sym	WINDOWEX,0,10,14,3880,34
  5055                        	.sym	PWINDOW,0,138,14,32,33
  5056                        	.sym	WINDOW,0,10,14,3904,33
  5057                        	.sym	PDRAGDATA,0,138,14,32,32
  5058                        	.sym	DRAGDATA,0,10,14,216,32
  5059                        	.sym	PNCCLICKABLE,0,138,14,32,31
  5060                        	.sym	NCCLICKABLE,0,10,14,136,31
  5061                        	.sym	HCLICKABLE,0,7,14,32
  5062                        	.sym	PCLICKABLE,0,138,14,32,30
  5063                        	.sym	CLICKABLE,0,10,14,152,30
  5064                        	.sym	PWNDCLASS,0,138,14,32,29
  5065                        	.sym	WNDCLASS,0,10,14,272,29
  5066                        	.sym	HBRUSH,0,129,14,32
  5067                        	.sym	HCURSOR,0,129,14,32
  5068                        	.sym	HICON,0,129,14,32
  5069                        	.sym	HINSTANCE,0,129,14,32
  5070                        	.sym	FXWndProc,0,654,14,32
  5071                        	.sym	PDRECT,0,138,14,32,28
  5072                        	.sym	DRECT,0,10,14,112,28
  5073                        	.sym	PRECTP,0,138,14,32,27
  5074                        	.sym	RECTP,0,10,14,96,27
  5075                        	.sym	PRECT,0,138,14,32,26
  5076                        	.sym	RECT,0,10,14,112,26
  5077                        	.sym	PPOINT,0,138,14,32,25
  5078                        	.sym	POINT,0,10,14,32,25
  5079                        	.sym	PFXPROPERTY,0,138,14,32,23
  5080                        	.sym	FXPROPERTY,0,10,14,384,23
  5081                        	.sym	PKEYSTATE,0,138,14,32,22
  5082                        	.sym	KEYSTATE,0,10,14,112,22
  5083                        	.sym	SCANCODE,0,14,14,8
  5084                        	.sym	KEYCODE,0,16,14,16
  5085                        	.sym	PFXPROCESSMESSAGE,0,138,14,32,21
  5086                        	.sym	FXPROCESSMESSAGE,0,10,14,112,21
  5087                        	.sym	PFXPROCESS,0,138,14,32,20
  5088                        	.sym	FXPROCESS,0,10,14,800,20
  5089                        	.sym	PDESKTOP_CONTROL,0,138,14,32,19
  5090                        	.sym	DESKTOP_CONTROL,0,10,14,392,19
  5091                        	.sym	PCONSOLE_CONTROL,0,138,14,32,18
  5092                        	.sym	CONSOLE_CONTROL,0,10,14,448,18
  5093                        	.sym	FXProcessProc,0,641,14,32
  5094                        	.sym	PFXCMDMESSAGE,0,138,14,32,17
  5095                        	.sym	FXCMDMESSAGE,0,10,14,312,17
  5096                        	.sym	PFXOSMESSAGE,0,138,14,32,16
  5097                        	.sym	FXOSMESSAGE,0,10,14,312,16
  5098                        	.sym	PINT_REGS,0,138,14,32,15
  Mon Sep 27 2021  9:39                                                Page 97


  5099                        	.sym	INT_REGS,0,10,14,104,15
  5100                        	.sym	TASK_STACK,0,10,14,32,14
  5101                        	.sym	TASK,0,10,14,48,13
  5102                        	.sym	PIRQDATA,0,138,14,32,12
  5103                        	.sym	IRQDATA,0,10,14,48,12
  5104                        	.sym	HMENU,0,129,14,32
  5105                        	.sym	HWND,0,129,14,32
  5106                        	.sym	MSGDATA,0,14,14,8
  5107                        	.sym	MSGDEST,0,18,14,32
  5108                        	.sym	MSGSRC,0,18,14,32
  5109                        	.sym	MSGTYPE,0,16,14,16
  5110                        	.sym	PROCESS_RESOURCE_LIST,0,138,14,32,6
  5111                        	.sym	PROCESS_TLS_LIST,0,138,14,32,6
  5112                        	.sym	SEMAPHORE_LIST,0,138,14,32,6
  5113                        	.sym	FILE_BLOCK_LIST,0,138,14,32,6
  5114                        	.sym	FILE_PATH_LIST,0,138,14,32,6
  5115                        	.sym	PROCEDURE_LIST,0,138,14,32,6
  5116                        	.sym	FILE_HANDLE,0,138,14,32,11
  5117                        	.sym	FILE_BLOCK,0,10,14,552,11
  5118                        	.sym	SEMAPHORE,0,10,14,16,10
  5119                        	.sym	PPROCESS_SIGNAL,0,138,14,32,9
  5120                        	.sym	PROCESS_SIGNAL,0,10,14,16,9
  5121                        	.sym	KRESULT,0,18,14,32
  5122                        	.sym	PKERNEL_ERROR,0,138,14,32,8
  5123                        	.sym	KERNEL_ERROR,0,10,14,32,8
  5124                        	.sym	PROCESS_STATUS,0,16,14,16
  5125                        	.sym	FILE_PATH_NAME,0,142,14,32
  5126                        	.sym	PROCESS_RESOURCE,0,129,14,32
  5127                        	.sym	PROCESS_TLS,0,129,14,32
  5128                        	.sym	PROCESS_CTX,0,129,14,32
  5129                        	.sym	USERID,0,16,14,16
  5130                        	.sym	PROCESS_ID,0,18,14,32
  5131                        	.sym	PROCESS_BANK,0,14,14,8
  5132                        	.sym	PFXQUEUE,0,138,14,32,7
  5133                        	.sym	FXQUEUE,0,10,14,80,7
  5134                        	.sym	PFXNODELIST,0,138,14,32,6
  5135                        	.sym	FXNODELIST,0,10,14,96,6
  5136                        	.sym	NodeListDeallocator,0,641,14,32
  5137                        	.sym	PFXNODE,0,138,14,32,5
  5138                        	.sym	FXNODE,0,10,14,384,5
  5139                        	.sym	PBYTEBITS,0,138,14,32,4
  5140                        	.sym	BYTEBITS,0,10,14,8,4
  5141                        	.sym	HRESULT,0,18,14,32
  5142                        	.sym	LPWCHAR,0,144,14,32
  5143                        	.sym	WCHAR,0,16,14,16
  5144                        	.sym	HSTRINGTABLE,0,129,14,32
  5145                        	.sym	HCOLOR,0,129,14,32
  5146                        	.sym	HFONT,0,129,14,32
  5147                        	.sym	HDC,0,129,14,32
  5148                        	.sym	HPOINTER,0,129,14,32
  5149                        	.sym	uint32_t,0,18,14,32
  5150                        	.sym	uint8_t,0,14,14,8
  5151                        	.sym	LPBOOL,0,142,14,32
  5152                        	.sym	BOOL,0,14,14,8
  5153                        	.sym	DWORD,0,18,14,32
  5154                        	.sym	ULONG,0,18,14,32
  5155                        	.sym	LPLONG,0,135,14,32
  5156                        	.sym	LONG,0,7,14,32
  Mon Sep 27 2021  9:39                                                Page 98


  5157                        	.sym	PUINT,0,144,14,32
  5158                        	.sym	USHORT,0,16,14,16
  5159                        	.sym	UINT,0,16,14,16
  5160                        	.sym	INT,0,5,14,16
  5161                        	.sym	WORD,0,5,14,16
  5162                        	.sym	PBYTE,0,142,14,32
  5163                        	.sym	BYTE,0,14,14,8
  5164                        	.sym	IOPORT,0,142,14,32
  5165                        	.sym	PUCHAR,0,142,14,32
  5166                        	.sym	UCHAR,0,14,14,8
  5167                        	.sym	LPWCSTR,0,142,14,32
  5168                        	.sym	LPCSTR,0,142,14,32
  5169                        	.sym	LPSTR,0,142,14,32
  5170                        	.sym	LPCHAR,0,142,14,32
  5171                        	.sym	CHAR,0,14,14,8
  5172                        	.sym	PUINT_32,0,146,14,32
  5173                        	.sym	UINT_32,0,18,14,32
  5174                        	.sym	PUINT_16,0,144,14,32
  5175                        	.sym	UINT_16,0,16,14,16
  5176                        	.sym	PUINT_8,0,142,14,32
  5177                        	.sym	UINT_8,0,14,14,8
  5178                        	.sym	LPVOID,0,129,14,32
  5179                        	.sym	VOID,0,1,14,32
  5180                        	.sym	~~srand,~~srand,65,18,0
  5181                        	.sym	~~rand,~~rand,69,18,0
  5182                        	.sym	~~atol,~~atol,71,18,0
  5183                        	.sym	ldiv_t,0,10,14,64,2
  5184                        	.sym	div_t,0,10,14,32,1
  5185                        	.sym	wctype_t,0,16,14,16
  5186                        	.sym	wint_t,0,16,14,16
  5187                        	.sym	wchar_t,0,14,14,8
  5188                        	.sym	ptrdiff_t,0,7,14,32
  5189                        	.sym	~~strcpy,~~strcpy,1102,18,32
  5190                        	.sym	~~strcmp,~~strcmp,69,18,0
  5191                        	.sym	~~strcat,~~strcat,1102,18,32
  5192                        	.sym	~~memset,~~memset,1089,18,32
  5193                        	.sym	Boolean_T,0,5,14,16
  5194                        	.sym	size_t,0,16,14,16
  5195                        	end


      Lines assembled: 5195
      Errors: 0
