  Mon Aug  9 2021 16:52                                                Page 1


                     ***************************************
                     **      WDC 65C816 Macro Assembler   **
                     **                                   **
                     **     Version 3.49.1- Feb  6 2006    **
                     ***************************************

     1                        ;:ts=8
     2             00000001   R0	equ	1
     3             00000005   R1	equ	5
     4             00000009   R2	equ	9
     5             0000000D   R3	equ	13
     6                        	.file	"G:\devprojects\c256Foenix\fxos\FXOSWork
                    space\FXOS-Beta\src\fxmenumanager.c",0
     7                        ;/*
     8                        ; * fxmenumanager.c
     9                        ; *
    10                        ; *  Created on: Oct 1, 2019
    11                        ; *      Author: mtbush
    12                        ; */
    13                        ;#include "fxos.h"
    14                        	.file	"G:\devprojects\c256Foenix\fxos\FXOSWork
                    space\FXOS-Beta\src\fxos.h",0
    15                        	.file	"G:\devtools\WDCTools\wdc\Tools\include\
                    stdlib.h",0
    16                        	.file	"G:\devtools\WDCTools\wdc\Tools\include\
                    stddef.h",0
    17                        	.line	88
    18                        	.file	"G:\devtools\WDCTools\wdc\Tools\include\
                    stdlib.h",43
    19                        	.stag	fake1_,32,1
    20                        	.member	quot,0,5,8,16
    21                        	.member	rem,16,5,8,16
    22                        	.eos
    23                        	.stag	fake2_,64,2
    24                        	.member	quot,0,7,8,32
    25                        	.member	rem,32,7,8,32
    26                        	.eos
    27                        	.stag	int_sqrt,32,3
    28                        	.member	sqrt,0,16,8,16
    29                        	.member	frac,16,16,8,16
    30                        	.eos
    31                        	.line	205
    32                        	.file	"G:\devprojects\c256Foenix\fxos\FXOSWork
                    space\FXOS-Beta\src\fxos.h",4
    33                        	.file	"G:\devtools\WDCTools\wdc\Tools\include\
                    string.h",0
    34                        	.line	134
    35                        	.file	"G:\devprojects\c256Foenix\fxos\FXOSWork
                    space\FXOS-Beta\src\fxos.h",5
    36                        	.file	"G:\devtools\WDCTools\wdc\Tools\include\
                    ctype.h",0
    37                        	.line	103
    38                        	.file	"G:\devprojects\c256Foenix\fxos\FXOSWork
                    space\FXOS-Beta\src\fxos.h",6
    39                        	.file	"G:\devprojects\c256Foenix\fxos\FXOSWork
                    space\FXOS-Beta\src\fxtypes.h",0
    40                        	.stag	_fx_bytebits,8,4
    41                        	.member	b7,0,14,17,1
  Mon Aug  9 2021 16:52                                                Page 2


    42                        	.member	b6,1,14,17,1
    43                        	.member	b5,2,14,17,1
    44                        	.member	b4,3,14,17,1
    45                        	.member	b3,4,14,17,1
    46                        	.member	b2,5,14,17,1
    47                        	.member	b1,6,14,17,1
    48                        	.member	b0,7,14,17,1
    49                        	.eos
    50                        	.stag	_fx_node,384,5
    51                        	.member	type,0,14,8,8
    52                        	.member	Reserved0,8,14,8,8
    53                        	.member	data,16,129,8,32
    54                        	.member	last,48,138,8,32,5
    55                        	.member	next,80,138,8,32,5
    56                        	.member	name,112,110,8,0,32
    57                        	.member	Reserved1,368,16,8,16
    58                        	.eos
    59                        	.stag	_fx_nodelist,96,6
    60                        	.member	listhead,0,138,8,32,5
    61                        	.member	listData,32,129,8,32
    62                        	.member	deallocator,64,641,8,32
    63                        	.eos
    64                        	.stag	_fx_queue,80,7
    65                        	.member	count,0,5,8,16
    66                        	.member	front,16,138,8,32,5
    67                        	.member	rear,48,138,8,32,5
    68                        	.eos
    69                        	.stag	fake8_,32,8
    70                        	.member	subsystem,0,14,8,8
    71                        	.member	level,8,14,8,8
    72                        	.member	error,16,16,8,16
    73                        	.eos
    74                        	.stag	_fx_process_signal,16,9
    75                        	.member	cbSize,0,16,8,16
    76                        	.eos
    77                        	.stag	_fx_semaphore,16,10
    78                        	.member	reserved,0,5,8,16
    79                        	.eos
    80                        	.stag	_fx_fileBlock,552,11
    81                        	.member	openCount,0,16,8,16
    82                        	.member	lockCount,16,16,8,16
    83                        	.member	dirty,32,14,8,8
    84                        	.member	fileBuffer,40,110,8,0,64
    85                        	.eos
    86                        	.stag	_fx_irq_data,48,12
    87                        	.member	line,0,5,8,16
    88                        	.member	keycode,16,142,8,32
    89                        	.eos
    90                        	.stag	_task,48,13
    91                        	.member	SPL,0,14,8,8
    92                        	.member	SPH,8,14,8,8
    93                        	.member	pstack,16,142,8,32
    94                        	.eos
    95                        	.stag	_task_stack,32,14
    96                        	.member	SS,0,142,8,32
    97                        	.eos
    98                        	.stag	int_regs,104,15
    99                        	.member	PB,0,14,8,8
  Mon Aug  9 2021 16:52                                                Page 3


   100                        	.member	PH,8,14,8,8
   101                        	.member	PL,16,14,8,8
   102                        	.member	PP,24,14,8,8
   103                        	.member	DB,32,14,8,8
   104                        	.member	DH,40,14,8,8
   105                        	.member	DL,48,14,8,8
   106                        	.member	AH,56,14,8,8
   107                        	.member	AL,64,14,8,8
   108                        	.member	XH,72,14,8,8
   109                        	.member	XL,80,14,8,8
   110                        	.member	YH,88,14,8,8
   111                        	.member	YL,96,14,8,8
   112                        	.eos
   113                        	.stag	_fx_eventMessage,312,16
   114                        	.member	src,0,18,8,32
   115                        	.member	dest,32,18,8,32
   116                        	.member	type,64,16,8,16
   117                        	.member	hwnd,80,129,8,32
   118                        	.member	pheap,112,129,8,32
   119                        	.member	msgTime,144,18,8,32
   120                        	.member	data,176,110,8,0,16
   121                        	.member	attr,304,14,8,8
   122                        	.eos
   123                        	.stag	_fx_cmdMessage,312,17
   124                        	.member	src,0,18,8,32
   125                        	.member	dest,32,18,8,32
   126                        	.member	type,64,16,8,16
   127                        	.member	hwnd,80,129,8,32
   128                        	.member	pheap,112,129,8,32
   129                        	.member	msgTime,144,18,8,32
   130                        	.member	cmdCId,176,16,8,16
   131                        	.member	cmdMId,192,16,8,16
   132                        	.member	parameter1,208,18,8,32
   133                        	.member	parameter2,240,18,8,32
   134                        	.member	parameter3,272,18,8,32
   135                        	.member	attr,304,14,8,8
   136                        	.eos
   137                        	.stag	_fx_console_ctl,448,18
   138                        	.member	maxCols,0,5,8,16
   139                        	.member	maxRows,16,5,8,16
   140                        	.member	curX,32,5,8,16
   141                        	.member	curY,48,5,8,16
   142                        	.member	fgColor,64,5,8,16
   143                        	.member	bgColor,80,5,8,16
   144                        	.member	mode,96,14,8,8
   145                        	.member	kbBuffer,104,101,8,0,16
   146                        	.member	screenBuffer,360,142,8,32
   147                        	.member	desktopMode,392,14,8,8
   148                        	.member	lastMouseButton,400,5,8,16
   149                        	.member	lastMouseX,416,5,8,16
   150                        	.member	lastMouseY,432,5,8,16
   151                        	.eos
   152                        	.stag	_fx_desktop_ctl,392,19
   153                        	.member	desktopMode,0,14,8,8
   154                        	.member	cursorCtl,8,5,8,16
   155                        	.member	cursorState,24,5,8,16
   156                        	.member	backgroundColor,40,5,8,16
   157                        	.member	foregroundColor,56,5,8,16
  Mon Aug  9 2021 16:52                                                Page 4


   158                        	.member	menuMode,72,5,8,16
   159                        	.member	lastMouseButton,88,5,8,16
   160                        	.member	lastMouseX,104,5,8,16
   161                        	.member	lastMouseY,120,5,8,16
   162                        	.member	currentDiskName,136,142,8,32
   163                        	.member	diskNodes,168,129,8,32
   164                        	.member	titleNodes,200,129,8,32
   165                        	.member	menuNodes,232,129,8,32
   166                        	.member	iconNodes,264,129,8,32
   167                        	.member	windowNodes,296,129,8,32
   168                        	.member	fontNodes,328,129,8,32
   169                        	.member	wndProc,360,138,8,32,6
   170                        	.eos
   171                        	.stag	_fx_process,800,20
   172                        	.member	cbSize,0,5,8,16
   173                        	.member	procId,16,18,8,32
   174                        	.member	parentId,48,18,8,32
   175                        	.member	ctx,80,129,8,32
   176                        	.member	userId,112,16,8,16
   177                        	.member	status,128,16,8,16
   178                        	.member	foregroundActive,144,14,8,8
   179                        	.member	tls,152,1121,8,32,8
   180                        	.member	commandLine,408,142,8,32
   181                        	.member	semaphores,440,138,8,32,6
   182                        	.member	fileHandles,472,138,8,32,6
   183                        	.member	pathList,504,138,8,32,6
   184                        	.member	resources,536,138,8,32,6
   185                        	.member	timerAware,568,14,8,8
   186                        	.member	timerTicks,576,112,8,0,2
   187                        	.member	timerTickCount,608,112,8,0,2
   188                        	.member	kernelError,640,10,8,32,8
   189                        	.member	consoleCtl,672,138,8,32,18
   190                        	.member	desktopCtl,704,138,8,32,19
   191                        	.member	execProc,736,641,8,32
   192                        	.member	startupArgs,768,129,8,32
   193                        	.eos
   194                        	.stag	_fxProcessMessage,112,21
   195                        	.member	src,0,18,8,32
   196                        	.member	dest,32,18,8,32
   197                        	.member	type,64,16,8,16
   198                        	.member	processInfo,80,138,8,32,20
   199                        	.eos
   200                        	.stag	_k_key_state,112,22
   201                        	.member	scanCode,0,14,8,8
   202                        	.member	isShifted,8,14,8,8
   203                        	.member	isAlt,16,14,8,8
   204                        	.member	isExtended,24,14,8,8
   205                        	.member	isCapsLock,32,14,8,8
   206                        	.member	isNumLock,40,14,8,8
   207                        	.member	isScrollLock,48,14,8,8
   208                        	.member	keyChar,56,16,8,16
   209                        	.member	scanTime,72,18,8,32
   210                        	.member	ledStatus,104,14,8,8
   211                        	.eos
   212                        	.stag	_fx_property,384,23
   213                        	.member	name,0,110,8,0,16
   214                        	.member	value,128,110,8,0,32
   215                        	.eos
  Mon Aug  9 2021 16:52                                                Page 5


   216                        	.utag	_24bitPointer,32,24
   217                        	.member	address,0,142,11,32
   218                        	.member	bytes,0,110,11,0,4
   219                        	.eos
   220                        	.stag	_PointStruct,32,25
   221                        	.member	x,0,5,8,16
   222                        	.member	y,16,5,8,16
   223                        	.eos
   224                        	.stag	_RectStruct,112,26
   225                        	.member	x,0,5,8,16
   226                        	.member	y,16,5,8,16
   227                        	.member	z,32,18,8,32
   228                        	.member	width,64,5,8,16
   229                        	.member	height,80,5,8,16
   230                        	.member	attr,96,5,8,16
   231                        	.eos
   232                        	.stag	fake27_,96,27
   233                        	.member	name,0,142,8,32
   234                        	.member	topLeft,32,10,8,32,25
   235                        	.member	bottomRight,64,10,8,32,25
   236                        	.eos
   237                        	.stag	fake28_,112,28
   238                        	.member	x,0,5,8,16
   239                        	.member	y,16,5,8,16
   240                        	.member	z,32,5,8,16
   241                        	.member	width,48,5,8,16
   242                        	.member	height,64,5,8,16
   243                        	.member	data,80,18,8,32
   244                        	.eos
   245                        	.stag	_k_WindowClass,272,29
   246                        	.member	cbSize,0,16,8,16
   247                        	.member	style,16,16,8,16
   248                        	.member	styleEx,32,16,8,16
   249                        	.member	pWndProc,48,654,8,32
   250                        	.member	hInstance,80,129,8,32
   251                        	.member	hIcon,112,129,8,32
   252                        	.member	hCursor,144,129,8,32
   253                        	.member	hbrBackground,176,129,8,32
   254                        	.member	lpszMenuName,208,142,8,32
   255                        	.member	lpszClassName,240,142,8,32
   256                        	.eos
   257                        	.stag	_ClickableRect,152,30
   258                        	.member	area,0,10,8,112,26
   259                        	.member	z,112,18,8,32
   260                        	.member	enabled,144,14,8,8
   261                        	.eos
   262                        	.stag	_NCClickableRect,136,31
   263                        	.member	area,0,10,8,112,26
   264                        	.member	msgType,112,16,8,16
   265                        	.member	enabled,128,14,8,8
   266                        	.eos
   267                        	.stag	_DragData,216,32
   268                        	.member	area,0,10,8,112,26
   269                        	.member	xoffset,112,5,8,16
   270                        	.member	yoffset,128,5,8,16
   271                        	.member	msgType,144,16,8,16
   272                        	.member	ncAction,160,16,8,16
   273                        	.member	isDrag,176,14,8,8
  Mon Aug  9 2021 16:52                                                Page 6


   274                        	.member	isResize,184,14,8,8
   275                        	.member	canDrag,192,14,8,8
   276                        	.member	canDrop,200,14,8,8
   277                        	.member	didDrag,208,14,8,8
   278                        	.eos
   279                        	.stag	_k_WindowStruct,3904,33
   280                        	.member	cbSize,0,16,8,16
   281                        	.member	style,16,18,8,32
   282                        	.member	styleEx,48,18,8,32
   283                        	.member	win_id,80,5,8,16
   284                        	.member	win_x,96,5,8,16
   285                        	.member	win_y,112,5,8,16
   286                        	.member	win_width,128,5,8,16
   287                        	.member	win_height,144,5,8,16
   288                        	.member	win_xoffset,160,5,8,16
   289                        	.member	win_yoffset,176,5,8,16
   290                        	.member	win_cxoffset,192,5,8,16
   291                        	.member	win_cyoffset,208,5,8,16
   292                        	.member	wndRect,224,10,8,112,26
   293                        	.member	clientRect,336,10,8,112,26
   294                        	.member	nonclientGadgets,448,106,8,0,31,16
   295                        	.member	clickable,2624,129,8,32
   296                        	.member	win_title,2656,110,8,0,32
   297                        	.member	Reserved0,2912,16,8,16
   298                        	.member	win_class,2928,110,8,0,16
   299                        	.member	win_class_name,3056,110,8,0,32
   300                        	.member	nBitmapLayer,3312,16,8,16
   301                        	.member	bgRegion,3328,129,8,32
   302                        	.member	procid,3360,18,8,32
   303                        	.member	pWndClass,3392,138,8,32,29
   304                        	.member	pParentWindow,3424,129,8,32
   305                        	.member	hMenu,3456,129,8,32
   306                        	.member	hPointer,3488,129,8,32
   307                        	.member	hBackground,3520,129,8,32
   308                        	.member	pChildWindows,3552,138,8,32,6
   309                        	.member	pChildHitList,3584,138,8,32,6
   310                        	.member	isVisible,3616,14,8,8
   311                        	.member	windowData,3624,129,8,32
   312                        	.member	clientData,3656,1121,8,32,6
   313                        	.member	isClosed,3848,14,8,8
   314                        	.member	isClosing,3856,14,8,8
   315                        	.member	isDesktop,3864,14,8,8
   316                        	.member	clickableNode,3872,138,8,32,5
   317                        	.eos
   318                        	.stag	_k_WindowStructEx,3880,34
   319                        	.member	cbSize,0,16,8,16
   320                        	.member	style,16,18,8,32
   321                        	.member	styleEx,48,18,8,32
   322                        	.member	win_id,80,5,8,16
   323                        	.member	win_x,96,5,8,16
   324                        	.member	win_y,112,5,8,16
   325                        	.member	win_width,128,5,8,16
   326                        	.member	win_height,144,5,8,16
   327                        	.member	win_xoffset,160,5,8,16
   328                        	.member	win_yoffset,176,5,8,16
   329                        	.member	win_cxoffset,192,5,8,16
   330                        	.member	win_cyoffset,208,5,8,16
   331                        	.member	wndRect,224,10,8,112,26
  Mon Aug  9 2021 16:52                                                Page 7


   332                        	.member	clientRect,336,10,8,112,26
   333                        	.member	nonclientGadgets,448,106,8,0,31,16
   334                        	.member	clickable,2624,129,8,32
   335                        	.member	win_title,2656,110,8,0,32
   336                        	.member	Reserved0,2912,16,8,16
   337                        	.member	win_class,2928,110,8,0,16
   338                        	.member	nBitmapLayer,3056,16,8,16
   339                        	.member	procid,3072,18,8,32
   340                        	.member	pWndClass,3104,138,8,32,29
   341                        	.member	pParentWindow,3136,129,8,32
   342                        	.member	hMenu,3168,129,8,32
   343                        	.member	hPointer,3200,129,8,32
   344                        	.member	hBackground,3232,129,8,32
   345                        	.member	pChildWindows,3264,138,8,32,6
   346                        	.member	pChildHitList,3296,138,8,32,6
   347                        	.member	isVisible,3328,14,8,8
   348                        	.member	windowData,3336,129,8,32
   349                        	.member	clientData,3368,1121,8,32,4
   350                        	.member	isClosed,3496,14,8,8
   351                        	.member	hWnd,3504,129,8,32
   352                        	.member	localRect,3536,10,8,112,26
   353                        	.member	globalRect,3648,10,8,112,26
   354                        	.member	clientOffsetRect,3760,10,8,112,26
   355                        	.member	isDesktop,3872,14,8,8
   356                        	.eos
   357                        	.stag	_FontMetric,32,35
   358                        	.member	width,0,5,8,16
   359                        	.member	height,16,5,8,16
   360                        	.eos
   361                        	.stag	_MenuStruct,280,36
   362                        	.member	cx,0,5,8,16
   363                        	.member	cy,16,5,8,16
   364                        	.member	width,32,5,8,16
   365                        	.member	height,48,5,8,16
   366                        	.member	fcolor,64,14,8,8
   367                        	.member	bcolor,72,14,8,8
   368                        	.member	chromeLeft,80,14,8,8
   369                        	.member	chromeRight1,88,14,8,8
   370                        	.member	chromeRight2,96,14,8,8
   371                        	.member	hFont,104,129,8,32
   372                        	.member	itemId,136,16,8,16
   373                        	.member	pCaption,152,142,8,32
   374                        	.member	subMenus,184,138,8,32,6
   375                        	.member	pBackground,216,129,8,32
   376                        	.member	hWndOwner,248,129,8,32
   377                        	.eos
   378                        	.stag	fake37_,160,37
   379                        	.member	menuId,0,16,8,16
   380                        	.member	caption,16,142,8,32
   381                        	.member	rect,48,10,8,112,26
   382                        	.eos
   383                        	.stag	fake38_,5152,38
   384                        	.member	pParent,0,138,8,32,33
   385                        	.member	rect,32,10,8,112,26
   386                        	.member	captions,144,1134,8,32,24
   387                        	.member	chrome,912,110,8,0,24
   388                        	.member	ids,1104,112,8,0,24
   389                        	.member	clickable,1488,106,8,0,30,24
  Mon Aug  9 2021 16:52                                                Page 8


   390                        	.member	selected,5136,16,8,16
   391                        	.eos
   392                        	.stag	_fx_button_t,96,39
   393                        	.member	pCaption,0,142,8,32
   394                        	.member	cCaption,32,16,8,16
   395                        	.member	data,48,129,8,32
   396                        	.member	captionPixelWidth,80,16,8,16
   397                        	.eos
   398                        	.stag	_fx_scrollbar_t,240,40
   399                        	.member	min,0,16,8,16
   400                        	.member	max,16,16,8,16
   401                        	.member	increment,32,16,8,16
   402                        	.member	stopsize,48,16,8,16
   403                        	.member	location,64,5,8,16
   404                        	.member	state,80,5,8,16
   405                        	.member	rectThumb,96,10,8,112,26
   406                        	.member	data,208,129,8,32
   407                        	.eos
   408                        	.stag	_fx_listbox_t,240,41
   409                        	.member	pos,0,5,8,16
   410                        	.member	selected,16,16,8,16
   411                        	.member	offsetX,32,5,8,16
   412                        	.member	offsetY,48,5,8,16
   413                        	.member	inc,64,5,8,16
   414                        	.member	direction,80,5,8,16
   415                        	.member	top,96,5,8,16
   416                        	.member	bottom,112,5,8,16
   417                        	.member	indexTop,128,5,8,16
   418                        	.member	indexBottom,144,5,8,16
   419                        	.member	maxItems,160,16,8,16
   420                        	.member	fontSet,176,142,8,32
   421                        	.member	data,208,129,8,32
   422                        	.eos
   423                        	.stag	_fx_textbox_t,144,42
   424                        	.member	pos,0,5,8,16
   425                        	.member	selected,16,16,8,16
   426                        	.member	offsetX,32,5,8,16
   427                        	.member	offsetY,48,5,8,16
   428                        	.member	isShifted,64,14,8,8
   429                        	.member	cursorState,72,14,8,8
   430                        	.member	fontSet,80,142,8,32
   431                        	.member	data,112,129,8,32
   432                        	.eos
   433                        	.stag	_fx_msgbox_t,144,43
   434                        	.member	pos,0,5,8,16
   435                        	.member	selected,16,16,8,16
   436                        	.member	offsetX,32,5,8,16
   437                        	.member	offsetY,48,5,8,16
   438                        	.member	isShifted,64,14,8,8
   439                        	.member	cursorState,72,14,8,8
   440                        	.member	fontSet,80,142,8,32
   441                        	.member	data,112,129,8,32
   442                        	.eos
   443                        	.stag	_fx_menuAnchor_t,272,44
   444                        	.member	pCaption,0,142,8,32
   445                        	.member	renderLayoutX,32,16,8,16
   446                        	.member	renderLayoutY,48,16,8,16
   447                        	.member	captionPixelWidth,64,16,8,16
  Mon Aug  9 2021 16:52                                                Page 9


   448                        	.member	data,80,129,8,32
   449                        	.member	droppedWindow,112,138,8,32,33
   450                        	.member	bytes,144,110,8,0,16
   451                        	.eos
   452                        	.stag	_SubMenuStruct,64,45
   453                        	.member	caption,0,142,8,32
   454                        	.member	action,32,641,8,32
   455                        	.eos
   456                        	.stag	_SubMenuListStruct,40,46
   457                        	.member	cMenus,0,14,8,8
   458                        	.member	psubmenus,8,9354,8,32,45
   459                        	.eos
   460                        	.stag	_fx_ComBuffer,2080,47
   461                        	.member	cbSize,0,16,8,16
   462                        	.member	cbBuffer,16,16,8,16
   463                        	.member	buffer,32,110,8,0,256
   464                        	.eos
   465                        	.stag	_fx_resource_header,72,48
   466                        	.member	magic,0,110,8,0,4
   467                        	.member	major,32,14,8,8
   468                        	.member	minor,40,14,8,8
   469                        	.member	type,48,14,8,8
   470                        	.member	reserved,56,14,8,8
   471                        	.member	resheaderSize,64,14,8,8
   472                        	.eos
   473                        	.stag	_fx_resource_header_font,144,49
   474                        	.member	title,0,110,8,0,16
   475                        	.member	height,128,14,8,8
   476                        	.member	width,136,14,8,8
   477                        	.eos
   478                        	.stag	_fx_resource_string,32,50
   479                        	.member	locale,0,110,8,0,2
   480                        	.member	entries,16,16,8,16
   481                        	.eos
   482                        	.stag	_fx_resource_string_entry,40,51
   483                        	.member	index,0,16,8,16
   484                        	.member	length,16,16,8,16
   485                        	.member	data,32,14,8,8
   486                        	.eos
   487                        	.line	1064
   488                        	.file	"G:\devprojects\c256Foenix\fxos\FXOSWork
                    space\FXOS-Beta\src\fxos.h",8
   489                        	.file	"G:\devprojects\c256Foenix\fxos\FXOSWork
                    space\FXOS-Beta\src\fxstringtable.h",0
   490                        	.line	90
   491                        	.file	"G:\devprojects\c256Foenix\fxos\FXOSWork
                    space\FXOS-Beta\src\fxos.h",9
   492                        	.file	"G:\devprojects\c256Foenix\fxos\FXOSWork
                    space\FXOS-Beta\src\fxc256u.h",0
   493                        	.file	"G:\devprojects\c256Foenix\fxos\FXOSWork
                    space\FXOS-Beta\src\fxtypes.h",0
   494                        	.line	1064
   495                        	.file	"G:\devprojects\c256Foenix\fxos\FXOSWork
                    space\FXOS-Beta\src\fxc256u.h",5
   496                        	.file	"G:\devprojects\c256Foenix\fxos\FXOSWork
                    space\FXOS-Beta\src\fmx_vicky.h",0
   497                        	.file	"G:\devprojects\c256Foenix\fxos\FXOSWork
                    space\FXOS-Beta\src\fxtypes.h",0
  Mon Aug  9 2021 16:52                                                Page 10


   498                        	.line	1064
   499                        	.file	"G:\devprojects\c256Foenix\fxos\FXOSWork
                    space\FXOS-Beta\src\fmx_vicky.h",11
   500                        	.line	72
   501                        	.file	"G:\devprojects\c256Foenix\fxos\FXOSWork
                    space\FXOS-Beta\src\fxc256u.h",6
   502                        	.line	1960
   503                        	.file	"G:\devprojects\c256Foenix\fxos\FXOSWork
                    space\FXOS-Beta\src\fxos.h",16
   504                        	.file	"G:\devprojects\c256Foenix\fxos\FXOSWork
                    space\FXOS-Beta\src\fxkernel.h",0
   505                        	.file	"G:\devprojects\c256Foenix\fxos\FXOSWork
                    space\FXOS-Beta\src\fxos.h",0
   506                        	.line	30
   507                        	.file	"G:\devprojects\c256Foenix\fxos\FXOSWork
                    space\FXOS-Beta\src\fxkernel.h",5
   508                        	.file	"G:\devprojects\c256Foenix\fxos\FXOSWork
                    space\FXOS-Beta\src\fxnode.h",0
   509                        	.file	"G:\devprojects\c256Foenix\fxos\FXOSWork
                    space\FXOS-Beta\src\fxtypes.h",0
   510                        	.line	1064
   511                        	.file	"G:\devprojects\c256Foenix\fxos\FXOSWork
                    space\FXOS-Beta\src\fxnode.h",11
   512                        	.line	118
   513                        	.file	"G:\devprojects\c256Foenix\fxos\FXOSWork
                    space\FXOS-Beta\src\fxkernel.h",6
   514                        	.stag	_fx_api_call_table,8192,52
   515                        	.member	call_table,0,1121,8,32,256
   516                        	.eos
   517                        	.stag	_fx_zero_page_irq_data,32,53
   518                        	.member	data,0,110,8,0,4
   519                        	.eos
   520                        	.stag	_fx_zero_page,720,54
   521                        	.member	fxos_mouse_byte_0,0,14,8,8
   522                        	.member	fxos_mouse_byte_1,8,14,8,8
   523                        	.member	fxos_mouse_byte_2,16,14,8,8
   524                        	.member	fxos_mouse_byte_t,24,14,8,8
   525                        	.member	fxos_mouse_byte_x_l,32,14,8,8
   526                        	.member	fxos_mouse_byte_x_h,40,14,8,8
   527                        	.member	fxos_mouse_byte_y_l,48,14,8,8
   528                        	.member	fxos_mouse_byte_y_h,56,14,8,8
   529                        	.member	fxos_key_byte_0,64,14,8,8
   530                        	.member	fxos_key_byte_1,72,14,8,8
   531                        	.member	fxos_key_byte_2,80,14,8,8
   532                        	.member	fxos_mouse_ctl,88,14,8,8
   533                        	.member	fxos_mouse_index,96,14,8,8
   534                        	.member	fxos_mouse_status,104,14,8,8
   535                        	.member	Endianness,112,16,8,16
   536                        	.member	VersionMajor,128,16,8,16
   537                        	.member	VersionMinor,144,16,8,16
   538                        	.member	VersionRelease,160,16,8,16
   539                        	.member	topMemory,176,18,8,32
   540                        	.member	bottomMemory,208,18,8,32
   541                        	.member	availableMemory,240,18,8,32
   542                        	.member	availableMemoryK,272,18,8,32
   543                        	.member	availableHeapMemory,304,18,8,32
   544                        	.member	availableHeapMemoryK,336,18,8,32
   545                        	.member	fxos_console_row,368,16,8,16
  Mon Aug  9 2021 16:52                                                Page 11


   546                        	.member	fxos_console_col,384,16,8,16
   547                        	.member	executive,400,129,8,32
   548                        	.member	eventmanager,432,129,8,32
   549                        	.member	devicemanager,464,129,8,32
   550                        	.member	windowmanager,496,129,8,32
   551                        	.member	fxos_kernel_api,528,138,8,32,52
   552                        	.member	fxos_dos_api,560,138,8,32,52
   553                        	.member	fxos_gfx_api,592,138,8,32,52
   554                        	.member	fxos_gui_api,624,138,8,32,52
   555                        	.member	fxos_con_api,656,138,8,32,52
   556                        	.member	fxos_reserved_2_api,688,138,8,32,52
   557                        	.eos
   558                        	.stag	_fx_environment,96,55
   559                        	.member	variables,0,142,8,32
   560                        	.member	reserved1,32,5,8,16
   561                        	.member	reserved2,48,5,8,16
   562                        	.member	reserved3,64,5,8,16
   563                        	.member	reserved4,80,5,8,16
   564                        	.eos
   565                        	.stag	_debug_byte_bits,8,56
   566                        	.member	bit7,0,14,17,1
   567                        	.member	bit6,1,14,17,1
   568                        	.member	bit5,2,14,17,1
   569                        	.member	bit4,3,14,17,1
   570                        	.member	bit3,4,14,17,1
   571                        	.member	bit2,5,14,17,1
   572                        	.member	bit1,6,14,17,1
   573                        	.member	bit0,7,14,17,1
   574                        	.eos
   575                        	.stag	_k_segmentheader,160,57
   576                        	.member	version_major,0,14,8,8
   577                        	.member	version_minor,8,14,8,8
   578                        	.member	length,16,5,8,16
   579                        	.member	segment_start_addr,32,7,8,32
   580                        	.member	segment_end_addr,64,7,8,32
   581                        	.member	segment_size,96,7,8,32
   582                        	.member	main_entry_addr,128,7,8,32
   583                        	.eos
   584                        	.stag	_fx_device_driver,776,58
   585                        	.member	name,0,110,8,0,32
   586                        	.member	version,256,110,8,0,16
   587                        	.member	hmajor,384,110,8,0,8
   588                        	.member	hminor,448,110,8,0,8
   589                        	.member	type,512,14,8,8
   590                        	.member	designation,520,110,8,0,6
   591                        	.member	irq_ctl,568,16,8,16
   592                        	.member	f_driver_irq,584,129,8,32
   593                        	.member	driver_context,616,129,8,32
   594                        	.member	f_driver_load,648,129,8,32
   595                        	.member	f_driver_read,680,129,8,32
   596                        	.member	f_driver_write,712,129,8,32
   597                        	.member	f_driver_unload,744,129,8,32
   598                        	.eos
   599                        	.stag	_fx_block_device_driver,808,59
   600                        	.member	name,0,110,8,0,32
   601                        	.member	version,256,110,8,0,16
   602                        	.member	hmajor,384,110,8,0,8
   603                        	.member	hminor,448,110,8,0,8
  Mon Aug  9 2021 16:52                                                Page 12


   604                        	.member	type,512,14,8,8
   605                        	.member	designation,520,110,8,0,6
   606                        	.member	irq_ctl,568,16,8,16
   607                        	.member	f_driver_irq,584,129,8,32
   608                        	.member	driver_context,616,129,8,32
   609                        	.member	f_driver_load,648,129,8,32
   610                        	.member	f_driver_read,680,129,8,32
   611                        	.member	f_driver_write,712,129,8,32
   612                        	.member	f_driver_unload,744,129,8,32
   613                        	.member	f_driver_command,776,129,8,32
   614                        	.eos
   615                        	.stag	_k_irq_chain,128,60
   616                        	.member	handlers,0,5217,8,32,4
   617                        	.eos
   618                        	.line	490
   619                        	.file	"G:\devprojects\c256Foenix\fxos\FXOSWork
                    space\FXOS-Beta\src\fxos.h",22
   620                        	.file	"G:\devprojects\c256Foenix\fxos\FXOSWork
                    space\FXOS-Beta\src\fxconsole.h",0
   621                        	.file	"G:\devtools\WDCTools\wdc\Tools\include\
                    string.h",0
   622                        	.line	134
   623                        	.file	"G:\devprojects\c256Foenix\fxos\FXOSWork
                    space\FXOS-Beta\src\fxconsole.h",5
   624                        	.file	"G:\devtools\WDCTools\wdc\Tools\include\
                    stdlib.h",0
   625                        	.line	205
   626                        	.file	"G:\devprojects\c256Foenix\fxos\FXOSWork
                    space\FXOS-Beta\src\fxconsole.h",6
   627                        	.file	"G:\devprojects\c256Foenix\fxos\FXOSWork
                    space\FXOS-Beta\src\fxtypes.h",0
   628                        	.line	1064
   629                        	.file	"G:\devprojects\c256Foenix\fxos\FXOSWork
                    space\FXOS-Beta\src\fxconsole.h",7
   630                        	.file	"G:\devprojects\c256Foenix\fxos\FXOSWork
                    space\FXOS-Beta\src\fxc256u.h",0
   631                        	.line	1960
   632                        	.file	"G:\devprojects\c256Foenix\fxos\FXOSWork
                    space\FXOS-Beta\src\fxconsole.h",12
   633                        	.file	"G:\devprojects\c256Foenix\fxos\FXOSWork
                    space\FXOS-Beta\src\fxstring.h",0
   634                        	.file	"G:\devtools\WDCTools\wdc\Tools\include\
                    stdlib.h",0
   635                        	.line	205
   636                        	.file	"G:\devprojects\c256Foenix\fxos\FXOSWork
                    space\FXOS-Beta\src\fxstring.h",5
   637                        	.file	"G:\devtools\WDCTools\wdc\Tools\include\
                    string.h",0
   638                        	.line	134
   639                        	.file	"G:\devprojects\c256Foenix\fxos\FXOSWork
                    space\FXOS-Beta\src\fxstring.h",6
   640                        	.file	"G:\devprojects\c256Foenix\fxos\FXOSWork
                    space\FXOS-Beta\src\fxtypes.h",0
   641                        	.line	1064
   642                        	.file	"G:\devprojects\c256Foenix\fxos\FXOSWork
                    space\FXOS-Beta\src\fxstring.h",7
   643                        	.stag	_fx_string,64,61
   644                        	.member	size,0,16,8,16
  Mon Aug  9 2021 16:52                                                Page 13


   645                        	.member	pos,16,5,8,16
   646                        	.member	buffer,32,142,8,32
   647                        	.eos
   648                        	.line	141
   649                        	.file	"G:\devprojects\c256Foenix\fxos\FXOSWork
                    space\FXOS-Beta\src\fxconsole.h",17
   650                        	.file	"G:\devprojects\c256Foenix\fxos\FXOSWork
                    space\FXOS-Beta\src\fxeventmanager.h",0
   651                        	.file	"G:\devprojects\c256Foenix\fxos\FXOSWork
                    space\FXOS-Beta\src\fxos.h",0
   652                        	.line	30
   653                        	.file	"G:\devprojects\c256Foenix\fxos\FXOSWork
                    space\FXOS-Beta\src\fxeventmanager.h",5
   654                        	.file	"G:\devprojects\c256Foenix\fxos\FXOSWork
                    space\FXOS-Beta\src\fxexec.h",0
   655                        	.file	"G:\devprojects\c256Foenix\fxos\FXOSWork
                    space\FXOS-Beta\src\fxtypes.h",0
   656                        	.line	1064
   657                        	.file	"G:\devprojects\c256Foenix\fxos\FXOSWork
                    space\FXOS-Beta\src\fxexec.h",5
   658                        	.stag	_fxos_executive_vtable,128,62
   659                        	.member	Init,0,8833,8,32
   660                        	.member	Configure,32,656,8,32
   661                        	.member	Query,64,656,8,32
   662                        	.member	Uninit,96,641,8,32
   663                        	.eos
   664                        	.line	86
   665                        	.file	"G:\devprojects\c256Foenix\fxos\FXOSWork
                    space\FXOS-Beta\src\fxeventmanager.h",6
   666                        	.file	"G:\devprojects\c256Foenix\fxos\FXOSWork
                    space\FXOS-Beta\src\fxnode.h",0
   667                        	.line	118
   668                        	.file	"G:\devprojects\c256Foenix\fxos\FXOSWork
                    space\FXOS-Beta\src\fxeventmanager.h",7
   669                        	.file	"G:\devprojects\c256Foenix\fxos\FXOSWork
                    space\FXOS-Beta\src\fxconsole.h",0
   670                        	.line	208
   671                        	.file	"G:\devprojects\c256Foenix\fxos\FXOSWork
                    space\FXOS-Beta\src\fxeventmanager.h",8
   672                        	.file	"G:\devprojects\c256Foenix\fxos\FXOSWork
                    space\FXOS-Beta\src\fxwindowmanager.h",0
   673                        	.file	"G:\devprojects\c256Foenix\fxos\FXOSWork
                    space\FXOS-Beta\src\fxos.h",0
   674                        	.line	30
   675                        	.file	"G:\devprojects\c256Foenix\fxos\FXOSWork
                    space\FXOS-Beta\src\fxwindowmanager.h",5
   676                        	.file	"G:\devprojects\c256Foenix\fxos\FXOSWork
                    space\FXOS-Beta\src\fxmemorymanager.h",0
   677                        	.file	"G:\devprojects\c256Foenix\fxos\FXOSWork
                    space\FXOS-Beta\src\fxos.h",0
   678                        	.line	30
   679                        	.file	"G:\devprojects\c256Foenix\fxos\FXOSWork
                    space\FXOS-Beta\src\fxmemorymanager.h",5
   680                        	.file	"G:\devprojects\c256Foenix\fxos\FXOSWork
                    space\FXOS-Beta\src\umm_malloc_cfg.h",0
   681                        	.file	"G:\devprojects\c256Foenix\fxos\FXOSWork
                    space\FXOS-Beta\src\fxos_build_parameters.h",0
   682                        	.line	35
  Mon Aug  9 2021 16:52                                                Page 14


   683                        	.file	"G:\devprojects\c256Foenix\fxos\FXOSWork
                    space\FXOS-Beta\src\umm_malloc_cfg.h",8
   684                        	.stag	UMM_HEAP_INFO_t,256,63
   685                        	.member	totalEntries,0,18,8,32
   686                        	.member	usedEntries,32,18,8,32
   687                        	.member	freeEntries,64,18,8,32
   688                        	.member	totalBlocks,96,18,8,32
   689                        	.member	usedBlocks,128,18,8,32
   690                        	.member	freeBlocks,160,18,8,32
   691                        	.member	maxFreeContiguousBlocks,192,18,8,32
   692                        	.member	blockSize,224,18,8,32
   693                        	.eos
   694                        	.line	199
   695                        	.file	"G:\devprojects\c256Foenix\fxos\FXOSWork
                    space\FXOS-Beta\src\fxmemorymanager.h",6
   696                        	.file	"G:\devprojects\c256Foenix\fxos\FXOSWork
                    space\FXOS-Beta\src\umm_malloc.h",0
   697                        	.file	"G:\devprojects\c256Foenix\fxos\FXOSWork
                    space\FXOS-Beta\src\fxtypes.h",0
   698                        	.line	1064
   699                        	.file	"G:\devprojects\c256Foenix\fxos\FXOSWork
                    space\FXOS-Beta\src\umm_malloc.h",11
   700                        	.line	24
   701                        	.file	"G:\devprojects\c256Foenix\fxos\FXOSWork
                    space\FXOS-Beta\src\fxmemorymanager.h",7
   702                        	.stag	_fx_memory_map,2072,64
   703                        	.member	availableMemory,0,18,8,32
   704                        	.member	valid_segments,32,110,8,0,255
   705                        	.eos
   706                        	.stag	_fx_ipc_port,144,65
   707                        	.member	id,0,18,8,32
   708                        	.member	type,32,14,8,8
   709                        	.member	name,40,138,8,32,61
   710                        	.member	time,72,18,8,32
   711                        	.member	queue,104,138,8,32,7
   712                        	.member	reserved_1,136,14,8,8
   713                        	.eos
   714                        	.stag	_k_mem_alloc_header,80,66
   715                        	.member	user,0,14,8,8
   716                        	.member	attr,8,14,8,8
   717                        	.member	size,16,18,8,32
   718                        	.member	virtual,48,129,8,32
   719                        	.eos
   720                        	.line	129
   721                        	.file	"G:\devprojects\c256Foenix\fxos\FXOSWork
                    space\FXOS-Beta\src\fxwindowmanager.h",6
   722                        	.file	"G:\devprojects\c256Foenix\fxos\FXOSWork
                    space\FXOS-Beta\src\fxeventmanager.h",0
   723                        	.line	568
   724                        	.file	"G:\devprojects\c256Foenix\fxos\FXOSWork
                    space\FXOS-Beta\src\fxwindowmanager.h",7
   725                        	.file	"G:\devprojects\c256Foenix\fxos\FXOSWork
                    space\FXOS-Beta\src\fxgfx.h",0
   726                        	.file	"G:\devprojects\c256Foenix\fxos\FXOSWork
                    space\FXOS-Beta\src\fxfont.h",0
   727                        	.file	"G:\devprojects\c256Foenix\fxos\FXOSWork
                    space\FXOS-Beta\src\fxtypes.h",0
   728                        	.line	1064
  Mon Aug  9 2021 16:52                                                Page 15


   729                        	.file	"G:\devprojects\c256Foenix\fxos\FXOSWork
                    space\FXOS-Beta\src\fxfont.h",6
   730                        	.line	74
   731                        	.file	"G:\devprojects\c256Foenix\fxos\FXOSWork
                    space\FXOS-Beta\src\fxgfx.h",5
   732                        	.stag	_click_detected,64,67
   733                        	.member	window,0,138,8,32,33
   734                        	.member	handler,32,641,8,32
   735                        	.eos
   736                        	.stag	_current_palette_map,400,68
   737                        	.member	CUR_DESKTOP,0,5,8,16
   738                        	.member	CUR_BACKGROUND,16,5,8,16
   739                        	.member	CUR_FONT,32,5,8,16
   740                        	.member	CUR_SELECTED_FONT,48,5,8,16
   741                        	.member	CUR_HIGHLIGHT_COLOR,64,5,8,16
   742                        	.member	CUR_WINDOWFRAME,80,5,8,16
   743                        	.member	CUR_WINDOWBORDER,96,5,8,16
   744                        	.member	CUR_WINDOWSHADOW,112,5,8,16
   745                        	.member	CUR_MENU,128,5,8,16
   746                        	.member	CUR_GADGET,144,5,8,16
   747                        	.member	CUR_COLOR,160,101,8,0,15
   748                        	.eos
   749                        	.line	359
   750                        	.file	"G:\devprojects\c256Foenix\fxos\FXOSWork
                    space\FXOS-Beta\src\fxwindowmanager.h",8
   751                        	.stag	_fxos_winman_vtable,160,69
   752                        	.member	Events,0,641,8,32
   753                        	.member	ConfigureWindowManager,32,656,8,32
   754                        	.member	ProcessWindowEvent,64,8833,8,32
   755                        	.member	QueryWindowManager,96,656,8,32
   756                        	.member	DoWndProcs,128,641,8,32
   757                        	.eos
   758                        	.stag	fake70_,64,70
   759                        	.member	type,0,16,8,16
   760                        	.member	size,16,16,8,16
   761                        	.member	desktopAction,32,129,8,32
   762                        	.eos
   763                        	.stag	fake71_,96,71
   764                        	.member	type,0,16,8,16
   765                        	.member	caption,16,138,8,32,61
   766                        	.member	buttonType,48,16,8,16
   767                        	.member	x,64,5,8,16
   768                        	.member	y,80,5,8,16
   769                        	.eos
   770                        	.stag	_childMessage_t,64,72
   771                        	.member	msgType,0,16,8,16
   772                        	.member	msgData,16,129,8,32
   773                        	.member	dataSize,48,16,8,16
   774                        	.eos
   775                        	.line	594
   776                        	.file	"G:\devprojects\c256Foenix\fxos\FXOSWork
                    space\FXOS-Beta\src\fxeventmanager.h",9
   777                        	.stag	_fx_main_loopvars,16,73
   778                        	.member	dummy,0,5,8,16
   779                        	.eos
   780                        	.stag	_fxMouseMessageData,64,74
   781                        	.member	button1,0,14,8,8
   782                        	.member	button2,8,14,8,8
  Mon Aug  9 2021 16:52                                                Page 16


   783                        	.member	button3,16,14,8,8
   784                        	.member	button4,24,14,8,8
   785                        	.member	x,32,16,8,16
   786                        	.member	y,48,16,8,16
   787                        	.eos
   788                        	.utag	marshalled_data,32,75
   789                        	.member	byteValue,0,14,11,8
   790                        	.member	verbValue,0,110,11,0,2
   791                        	.member	intValue,0,16,11,16
   792                        	.member	longValue,0,18,11,32
   793                        	.member	pointerValue,0,129,11,32
   794                        	.eos
   795                        	.stag	_fx_eventProcess,64,76
   796                        	.member	process,0,138,8,32,20
   797                        	.member	eventProc,32,641,8,32
   798                        	.eos
   799                        	.stag	_mouse_msg_state,184,77
   800                        	.member	lastEvent,0,18,8,32
   801                        	.member	buttonLeftDown,32,14,8,8
   802                        	.member	lastLeftDown,40,18,8,32
   803                        	.member	buttonRightDown,72,14,8,8
   804                        	.member	lastRightDown,80,18,8,32
   805                        	.member	buttonMiddleDown,112,14,8,8
   806                        	.member	lastMiddleDown,120,18,8,32
   807                        	.member	lastX,152,16,8,16
   808                        	.member	lastY,168,16,8,16
   809                        	.eos
   810                        	.stag	_fxos_eventmanager_vtable,192,78
   811                        	.member	EventQueue,0,138,8,32,7
   812                        	.member	Init,32,8833,8,32
   813                        	.member	Run,64,656,8,32
   814                        	.member	Configure,96,656,8,32
   815                        	.member	Query,128,656,8,32
   816                        	.member	Uninit,160,641,8,32
   817                        	.eos
   818                        	.stag	_k_clipboard_data,168,79
   819                        	.member	type,0,14,8,8
   820                        	.member	readable,8,110,8,0,16
   821                        	.member	data,136,129,8,32
   822                        	.eos
   823                        	.line	568
   824                        	.file	"G:\devprojects\c256Foenix\fxos\FXOSWork
                    space\FXOS-Beta\src\fxconsole.h",18
   825                        	.stag	_fx_spinner_ctx,48,80
   826                        	.member	index,0,5,8,16
   827                        	.member	spinner,16,142,8,32
   828                        	.eos
   829                        	.stag	_fx_console_ctx,1144,81
   830                        	.member	lineBufferIndex,0,5,8,16
   831                        	.member	lineBuffer,16,110,8,0,128
   832                        	.member	isShifted,1040,14,8,8
   833                        	.member	userData,1048,129,8,32
   834                        	.member	screenBuffer,1080,129,8,32
   835                        	.member	Reserved1,1112,129,8,32
   836                        	.eos
   837                        	.stag	_token,64,82
   838                        	.member	type,0,5,8,16
   839                        	.member	depth,16,16,8,16
  Mon Aug  9 2021 16:52                                                Page 17


   840                        	.member	text,32,142,8,32
   841                        	.eos
   842                        	.stag	_command_args,64,83
   843                        	.member	proc,0,656,8,32
   844                        	.member	tokens,32,138,8,32,5
   845                        	.eos
   846                        	.line	208
   847                        	.file	"G:\devprojects\c256Foenix\fxos\FXOSWork
                    space\FXOS-Beta\src\fxos.h",23
   848                        	.file	"G:\devprojects\c256Foenix\fxos\FXOSWork
                    space\FXOS-Beta\src\fxstring.h",0
   849                        	.line	141
   850                        	.file	"G:\devprojects\c256Foenix\fxos\FXOSWork
                    space\FXOS-Beta\src\fxos.h",24
   851                        	.file	"G:\devprojects\c256Foenix\fxos\FXOSWork
                    space\FXOS-Beta\src\fxnode.h",0
   852                        	.line	118
   853                        	.file	"G:\devprojects\c256Foenix\fxos\FXOSWork
                    space\FXOS-Beta\src\fxos.h",25
   854                        	.file	"G:\devprojects\c256Foenix\fxos\FXOSWork
                    space\FXOS-Beta\src\ff/ff.h",0
   855                        	.file	"G:\devprojects\c256Foenix\fxos\FXOSWork
                    space\FXOS-Beta\src\ff/ffconf.h",0
   856                        	.line	298
   857                        	.file	"G:\devprojects\c256Foenix\fxos\FXOSWork
                    space\FXOS-Beta\src\ff/ff.h",29
   858                        	.file	"G:\devprojects\c256Foenix\fxos\FXOSWork
                    space\FXOS-Beta\src\fxtypes.h",0
   859                        	.line	1064
   860                        	.file	"G:\devprojects\c256Foenix\fxos\FXOSWork
                    space\FXOS-Beta\src\ff/ff.h",30
   861                        	.stag	fake84_,4504,84
   862                        	.member	fs_type,0,14,8,8
   863                        	.member	pdrv,8,14,8,8
   864                        	.member	n_fats,16,14,8,8
   865                        	.member	wflag,24,14,8,8
   866                        	.member	fsi_flag,32,14,8,8
   867                        	.member	id,40,5,8,16
   868                        	.member	n_rootdir,56,5,8,16
   869                        	.member	csize,72,5,8,16
   870                        	.member	lfnbuf,88,144,8,32
   871                        	.member	last_clst,120,18,8,32
   872                        	.member	free_clst,152,18,8,32
   873                        	.member	n_fatent,184,18,8,32
   874                        	.member	fsize,216,18,8,32
   875                        	.member	volbase,248,18,8,32
   876                        	.member	fatbase,280,18,8,32
   877                        	.member	dirbase,312,18,8,32
   878                        	.member	database,344,18,8,32
   879                        	.member	winsect,376,18,8,32
   880                        	.member	win,408,110,8,0,512
   881                        	.eos
   882                        	.stag	fake85_,128,85
   883                        	.member	fs,0,138,8,32,84
   884                        	.member	id,32,5,8,16
   885                        	.member	attr,48,14,8,8
   886                        	.member	stat,56,14,8,8
   887                        	.member	sclust,64,18,8,32
  Mon Aug  9 2021 16:52                                                Page 18


   888                        	.member	objsize,96,18,8,32
   889                        	.eos
   890                        	.stag	fake86_,4400,86
   891                        	.member	obj,0,10,8,128,85
   892                        	.member	flag,128,14,8,8
   893                        	.member	err,136,14,8,8
   894                        	.member	fptr,144,18,8,32
   895                        	.member	clust,176,18,8,32
   896                        	.member	sect,208,18,8,32
   897                        	.member	dir_sect,240,18,8,32
   898                        	.member	dir_ptr,272,142,8,32
   899                        	.member	buf,304,110,8,0,512
   900                        	.eos
   901                        	.stag	fake87_,416,87
   902                        	.member	obj,0,10,8,128,85
   903                        	.member	dptr,128,18,8,32
   904                        	.member	clust,160,18,8,32
   905                        	.member	sect,192,18,8,32
   906                        	.member	dir,224,142,8,32
   907                        	.member	fn,256,110,8,0,12
   908                        	.member	blk_ofs,352,18,8,32
   909                        	.member	pat,384,142,8,32
   910                        	.eos
   911                        	.stag	fake88_,2224,88
   912                        	.member	fsize,0,18,8,32
   913                        	.member	fdate,32,5,8,16
   914                        	.member	ftime,48,5,8,16
   915                        	.member	fattrib,64,14,8,8
   916                        	.member	altname,72,110,8,0,13
   917                        	.member	fname,176,110,8,0,256
   918                        	.eos
   919                        	.stag	fake89_,80,89
   920                        	.member	fmt,0,14,8,8
   921                        	.member	n_fat,8,14,8,8
   922                        	.member	align,16,16,8,16
   923                        	.member	n_root,32,16,8,16
   924                        	.member	au_size,48,18,8,32
   925                        	.eos
   926                        	.line	429
   927                        	.file	"G:\devprojects\c256Foenix\fxos\FXOSWork
                    space\FXOS-Beta\src\fxos.h",26
   928                        	.line	30
   929                        	.file	"G:\devprojects\c256Foenix\fxos\FXOSWork
                    space\FXOS-Beta\src\fxmenumanager.c",7
   930                        ;#include "fxmenumanager.h"
   931                        	.file	"G:\devprojects\c256Foenix\fxos\FXOSWork
                    space\FXOS-Beta\src\fxmenumanager.h",0
   932                        	.line	26
   933                        	.file	"G:\devprojects\c256Foenix\fxos\FXOSWork
                    space\FXOS-Beta\src\fxmenumanager.c",8
   934                        ;#include "fxwindowmanager.h"
   935                        	.file	"G:\devprojects\c256Foenix\fxos\FXOSWork
                    space\FXOS-Beta\src\fxwindowmanager.h",0
   936                        	.line	594
   937                        	.file	"G:\devprojects\c256Foenix\fxos\FXOSWork
                    space\FXOS-Beta\src\fxmenumanager.c",9
   938                        ;
   939                        ;BOOL k_initializeMenuManager(void)
  Mon Aug  9 2021 16:52                                                Page 19


   940                        ;{
   941                        	.line	11
   942                        	.line	12
   943                        	code
   944                        	xdef	~~k_initializeMenuManager
   945                        	func
   946                        	.function	12
   947                        ~~k_initializeMenuManager:
   948                        	longa	on
   949                        	longi	on
   950 00:0000: 3B           	tsc
   951 00:0001: 38           	sec
   952 00:0002: E9 04 00     	sbc	#L2
   953 00:0005: 1B           	tcs
   954 00:0006: 0B           	phd
   955 00:0007: 5B           	tcd
   956                        	.block	12
   957                        ;	k_debug_strings("k_initializeMenuManager:","Ente
                    r");
   958                        	.line	13
   959 00:0008: F4 xx xx     	pea	#^L1+25
   960 00:000B: F4 xx xx     	pea	#<L1+25
   961 00:000E: F4 xx xx     	pea	#^L1
   962 00:0011: F4 xx xx     	pea	#<L1
   963 00:0014: 22 xx xx xx  	jsl	~~k_debug_strings
   964                        ;
   965                        ;	k_user_CreateWindowClass("menuMainWindowClass",N
                    ULL,0,NULL,NULL,NULL,mainMenuWindowProc);
   966                        	.line	15
   967 00:0018: F4 xx xx     	pea	#^~~mainMenuWindowProc
   968 00:001B: F4 xx xx     	pea	#<~~mainMenuWindowProc
   969 00:001E: F4 00 00     	pea	#^$0
   970 00:0021: F4 00 00     	pea	#<$0
   971 00:0024: F4 00 00     	pea	#^$0
   972 00:0027: F4 00 00     	pea	#<$0
   973 00:002A: F4 00 00     	pea	#^$0
   974 00:002D: F4 00 00     	pea	#<$0
   975 00:0030: F4 00 00     	pea	#<$0
   976 00:0033: F4 00 00     	pea	#^$0
   977 00:0036: F4 00 00     	pea	#<$0
   978 00:0039: F4 xx xx     	pea	#^L1+31
   979 00:003C: F4 xx xx     	pea	#<L1+31
   980 00:003F: 22 xx xx xx  	jsl	~~k_user_CreateWindowClass
   981                        ;	//k_user_CreateWindowClass("menuAnchorWindowClas
                    s",NULL,0,NULL,NULL,NULL,menuAnchorWindowProc);
   982                        ;	//k_user_CreateWindowClass("menuDropDownWindowCl
                    ass",NULL,0,NULL,NULL,NULL,menuDropDownWindowProc);
   983                        ;	//k_user_CreateWindowClass("menuItemWindowClass"
                    ,NULL,0,NULL,NULL,NULL,menuItemWindowProc);
   984                        ;
   985                        ;
   986                        ;	k_menu_CreateMenu(k_user_getDesktopWindow(),NULL
                    ,NULL);
   987                        	.line	21
   988 00:0043: F4 00 00     	pea	#^$0
   989 00:0046: F4 00 00     	pea	#<$0
   990 00:0049: F4 00 00     	pea	#^$0
   991 00:004C: F4 00 00     	pea	#<$0
  Mon Aug  9 2021 16:52                                                Page 20


   992 00:004F: 22 xx xx xx  	jsl	~~k_user_getDesktopWindow
   993 00:0053: 85 01        	sta	<R0
   994 00:0055: 86 03        	stx	<R0+2
   995 00:0057: DA           	phx
   996 00:0058: 48           	pha
   997 00:0059: 22 xx xx xx  	jsl	~~k_menu_CreateMenu
   998                        ;
   999                        ;
  1000                        ;	return TRUE;
  1001                        	.line	24
  1002 00:005D: A9 01 00     	lda	#$1
  1003                        L5:
  1004 00:0060: A8           	tay
  1005 00:0061: 2B           	pld
  1006 00:0062: 3B           	tsc
  1007 00:0063: 18           	clc
  1008 00:0064: 69 04 00     	adc	#L2
  1009 00:0067: 1B           	tcs
  1010 00:0068: 98           	tya
  1011 00:0069: 6B           	rtl
  1012                        ;}
  1013                        	.line	25
  1014                        	.endblock	25
  1015             00000004   L2	equ	4
  1016             00000005   L3	equ	5
  1017                        	ends
  1018                        	efunc
  1019                        	.endfunc	25,5,4
  1020                        	.line	25
  1021                        	data
  1022                        L1:
  1023 00:0000: 6B 5F 69 6E  	db	$6B,$5F,$69,$6E,$69,$74,$69,$61,$6C,$69,
                    $7A,$65,$4D,$65,$6E
       00:0004: 69 74 69 61 
       00:0008: 6C 69 7A 65 
       00:000C: 4D 65 6E 
  1024 00:000F: 75 4D 61 6E  	db	$75,$4D,$61,$6E,$61,$67,$65,$72,$3A,$00,
                    $45,$6E,$74,$65,$72
       00:0013: 61 67 65 72 
       00:0017: 3A 00 45 6E 
       00:001B: 74 65 72 
  1025 00:001E: 00 6D 65 6E  	db	$00,$6D,$65,$6E,$75,$4D,$61,$69,$6E,$57,
                    $69,$6E,$64,$6F,$77
       00:0022: 75 4D 61 69 
       00:0026: 6E 57 69 6E 
       00:002A: 64 6F 77 
  1026 00:002D: 43 6C 61 73  	db	$43,$6C,$61,$73,$73,$00
       00:0031: 73 00 
  1027 00:0033:              	ends
  1028                        ;
  1029                        ;HMENURESOURCE k_menu_CreateMenuResource(LPCSTR re
                    sourceName)
  1030                        ;{
  1031                        	.line	27
  1032                        	.line	28
  1033                        	code
  1034                        	xdef	~~k_menu_CreateMenuResource
  1035                        	func
  Mon Aug  9 2021 16:52                                                Page 21


  1036                        	.function	28
  1037                        ~~k_menu_CreateMenuResource:
  1038                        	longa	on
  1039                        	longi	on
  1040 00:006A: 3B           	tsc
  1041 00:006B: 38           	sec
  1042 00:006C: E9 08 00     	sbc	#L7
  1043 00:006F: 1B           	tcs
  1044 00:0070: 0B           	phd
  1045 00:0071: 5B           	tcd
  1046             00000004   resourceName_0	set	4
  1047                        	.block	28
  1048                        ;	PMENU pMenu = NULL;
  1049                        ;
  1050                        ;	k_debug_strings("k_menu_CreateMenuResource:","En
                    ter");
  1051             00000000   pMenu_1	set	0
  1052                        	.sym	pMenu,0,138,1,32,36
  1053                        	.sym	resourceName,4,142,6,32
  1054 00:0072: 64 05        	stz	<L8+pMenu_1
  1055 00:0074: 64 07        	stz	<L8+pMenu_1+2
  1056                        	.line	31
  1057 00:0076: F4 xx xx     	pea	#^L6+27
  1058 00:0079: F4 xx xx     	pea	#<L6+27
  1059 00:007C: F4 xx xx     	pea	#^L6
  1060 00:007F: F4 xx xx     	pea	#<L6
  1061 00:0082: 22 xx xx xx  	jsl	~~k_debug_strings
  1062                        ;
  1063                        ;	pMenu = k_mem_allocate_heap(sizeof(MENU));
  1064                        	.line	33
  1065 00:0086: F4 00 00     	pea	#^$23
  1066 00:0089: F4 23 00     	pea	#<$23
  1067 00:008C: 22 xx xx xx  	jsl	~~k_mem_allocate_heap
  1068 00:0090: 85 05        	sta	<L8+pMenu_1
  1069 00:0092: 86 07        	stx	<L8+pMenu_1+2
  1070                        ;	if(pMenu)
  1071                        	.line	34
  1072                        ;	{
  1073 00:0094: A5 05        	lda	<L8+pMenu_1
  1074 00:0096: 05 07        	ora	<L8+pMenu_1+2
  1075 00:0098: D0 03        	bne	L10
  1076 00:009A: 82 48 00     	brl	L10001
  1077                        L10:
  1078                        	.line	35
  1079                        ;		memset(pMenu,0,sizeof(MENU));
  1080                        	.line	36
  1081 00:009D: F4 23 00     	pea	#<$23
  1082 00:00A0: F4 00 00     	pea	#<$0
  1083 00:00A3: D4 07        	pei	<L8+pMenu_1+2
  1084 00:00A5: D4 05        	pei	<L8+pMenu_1
  1085 00:00A7: 22 xx xx xx  	jsl	~~memset
  1086                        ;
  1087                        ;		pMenu->pCaption = k_string_copy_string(r
                    esourceName);
  1088                        	.line	38
  1089 00:00AB: D4 0E        	pei	<L7+resourceName_0+2
  1090 00:00AD: D4 0C        	pei	<L7+resourceName_0
  1091 00:00AF: 22 xx xx xx  	jsl	~~k_string_copy_string
  Mon Aug  9 2021 16:52                                                Page 22


  1092 00:00B3: 85 01        	sta	<R0
  1093 00:00B5: 86 03        	stx	<R0+2
  1094 00:00B7: A5 01        	lda	<R0
  1095 00:00B9: A0 13 00     	ldy	#$13
  1096 00:00BC: 97 05        	sta	[<L8+pMenu_1],Y
  1097 00:00BE: A5 03        	lda	<R0+2
  1098 00:00C0: A0 15 00     	ldy	#$15
  1099 00:00C3: 97 05        	sta	[<L8+pMenu_1],Y
  1100                        ;		pMenu->width    = 0;
  1101                        	.line	39
  1102 00:00C5: A9 00 00     	lda	#$0
  1103 00:00C8: A0 04 00     	ldy	#$4
  1104 00:00CB: 97 05        	sta	[<L8+pMenu_1],Y
  1105                        ;		pMenu->height   = 0;
  1106                        	.line	40
  1107 00:00CD: A9 00 00     	lda	#$0
  1108 00:00D0: A0 06 00     	ldy	#$6
  1109 00:00D3: 97 05        	sta	[<L8+pMenu_1],Y
  1110                        ;		pMenu->subMenus = NULL;
  1111                        	.line	41
  1112 00:00D5: A9 00 00     	lda	#$0
  1113 00:00D8: A0 17 00     	ldy	#$17
  1114 00:00DB: 97 05        	sta	[<L8+pMenu_1],Y
  1115 00:00DD: A9 00 00     	lda	#$0
  1116 00:00E0: A0 19 00     	ldy	#$19
  1117 00:00E3: 97 05        	sta	[<L8+pMenu_1],Y
  1118                        ;	}
  1119                        	.line	42
  1120                        ;	k_debug_strings("k_user_CreateMenuResource:","Ex
                    it");
  1121                        L10001:
  1122                        	.line	43
  1123 00:00E5: F4 xx xx     	pea	#^L6+60
  1124 00:00E8: F4 xx xx     	pea	#<L6+60
  1125 00:00EB: F4 xx xx     	pea	#^L6+33
  1126 00:00EE: F4 xx xx     	pea	#<L6+33
  1127 00:00F1: 22 xx xx xx  	jsl	~~k_debug_strings
  1128                        ;
  1129                        ;	return (HMENURESOURCE)pMenu;
  1130                        	.line	45
  1131 00:00F5: A6 07        	ldx	<L8+pMenu_1+2
  1132 00:00F7: A5 05        	lda	<L8+pMenu_1
  1133                        L11:
  1134 00:00F9: A8           	tay
  1135 00:00FA: A5 0A        	lda	<L7+2
  1136 00:00FC: 85 0E        	sta	<L7+2+4
  1137 00:00FE: A5 09        	lda	<L7+1
  1138 00:0100: 85 0D        	sta	<L7+1+4
  1139 00:0102: 2B           	pld
  1140 00:0103: 3B           	tsc
  1141 00:0104: 18           	clc
  1142 00:0105: 69 0C 00     	adc	#L7+4
  1143 00:0108: 1B           	tcs
  1144 00:0109: 98           	tya
  1145 00:010A: 6B           	rtl
  1146                        ;}
  1147                        	.line	46
  1148                        	.endblock	46
  Mon Aug  9 2021 16:52                                                Page 23


  1149             00000008   L7	equ	8
  1150             00000005   L8	equ	5
  1151                        	ends
  1152                        	efunc
  1153                        	.endfunc	46,5,8
  1154                        	.line	46
  1155                        	data
  1156                        L6:
  1157 00:0033: 6B 5F 6D 65  	db	$6B,$5F,$6D,$65,$6E,$75,$5F,$43,$72,$65,
                    $61,$74,$65,$4D,$65
       00:0037: 6E 75 5F 43 
       00:003B: 72 65 61 74 
       00:003F: 65 4D 65 
  1158 00:0042: 6E 75 52 65  	db	$6E,$75,$52,$65,$73,$6F,$75,$72,$63,$65,
                    $3A,$00,$45,$6E,$74
       00:0046: 73 6F 75 72 
       00:004A: 63 65 3A 00 
       00:004E: 45 6E 74 
  1159 00:0051: 65 72 00 6B  	db	$65,$72,$00,$6B,$5F,$75,$73,$65,$72,$5F,
                    $43,$72,$65,$61,$74
       00:0055: 5F 75 73 65 
       00:0059: 72 5F 43 72 
       00:005D: 65 61 74 
  1160 00:0060: 65 4D 65 6E  	db	$65,$4D,$65,$6E,$75,$52,$65,$73,$6F,$75,
                    $72,$63,$65,$3A,$00
       00:0064: 75 52 65 73 
       00:0068: 6F 75 72 63 
       00:006C: 65 3A 00 
  1161 00:006F: 45 78 69 74  	db	$45,$78,$69,$74,$00
       00:0073: 00 
  1162 00:0074:              	ends
  1163                        ;
  1164                        ;
  1165                        ;VOID k_menu_FreemMenuResource(HMENURESOURCE menuR
                    esource)
  1166                        ;{
  1167                        	.line	49
  1168                        	.line	50
  1169                        	code
  1170                        	xdef	~~k_menu_FreemMenuResource
  1171                        	func
  1172                        	.function	50
  1173                        ~~k_menu_FreemMenuResource:
  1174                        	longa	on
  1175                        	longi	on
  1176 00:010B: 3B           	tsc
  1177 00:010C: 38           	sec
  1178 00:010D: E9 04 00     	sbc	#L13
  1179 00:0110: 1B           	tcs
  1180 00:0111: 0B           	phd
  1181 00:0112: 5B           	tcd
  1182             00000004   menuResource_0	set	4
  1183                        	.block	50
  1184                        ;	PMENU pMenu = ((PMENU)menuResource);
  1185                        ;
  1186                        ;	k_debug_strings("k_menu_FreemMenuResource:","Ent
                    er");
  1187             00000000   pMenu_1	set	0
  Mon Aug  9 2021 16:52                                                Page 24


  1188                        	.sym	pMenu,0,138,1,32,36
  1189                        	.sym	menuResource,4,129,6,32
  1190 00:0113: A5 08        	lda	<L13+menuResource_0
  1191 00:0115: 85 01        	sta	<L14+pMenu_1
  1192 00:0117: A5 0A        	lda	<L13+menuResource_0+2
  1193 00:0119: 85 03        	sta	<L14+pMenu_1+2
  1194                        	.line	53
  1195 00:011B: F4 xx xx     	pea	#^L12+26
  1196 00:011E: F4 xx xx     	pea	#<L12+26
  1197 00:0121: F4 xx xx     	pea	#^L12
  1198 00:0124: F4 xx xx     	pea	#<L12
  1199 00:0127: 22 xx xx xx  	jsl	~~k_debug_strings
  1200                        ;
  1201                        ;	if(pMenu)
  1202                        	.line	55
  1203                        ;	{
  1204 00:012B: A5 01        	lda	<L14+pMenu_1
  1205 00:012D: 05 03        	ora	<L14+pMenu_1+2
  1206 00:012F: D0 03        	bne	L16
  1207 00:0131: 82 37 00     	brl	L10002
  1208                        L16:
  1209                        	.line	56
  1210                        ;		if(pMenu->pCaption)
  1211                        	.line	57
  1212                        ;			k_mem_deallocate_heap((LPVOID)pM
                    enu->pCaption);
  1213 00:0134: A0 13 00     	ldy	#$13
  1214 00:0137: B7 01        	lda	[<L14+pMenu_1],Y
  1215 00:0139: A0 15 00     	ldy	#$15
  1216 00:013C: 17 01        	ora	[<L14+pMenu_1],Y
  1217 00:013E: D0 03        	bne	L17
  1218 00:0140: 82 10 00     	brl	L10003
  1219                        L17:
  1220                        	.line	58
  1221 00:0143: A0 15 00     	ldy	#$15
  1222 00:0146: B7 01        	lda	[<L14+pMenu_1],Y
  1223 00:0148: 48           	pha
  1224 00:0149: A0 13 00     	ldy	#$13
  1225 00:014C: B7 01        	lda	[<L14+pMenu_1],Y
  1226 00:014E: 48           	pha
  1227 00:014F: 22 xx xx xx  	jsl	~~k_mem_deallocate_heap
  1228                        ;
  1229                        ;		k_nodelist_deallocate_list(pMenu->subMen
                    us);
  1230                        L10003:
  1231                        	.line	60
  1232 00:0153: A0 19 00     	ldy	#$19
  1233 00:0156: B7 01        	lda	[<L14+pMenu_1],Y
  1234 00:0158: 48           	pha
  1235 00:0159: A0 17 00     	ldy	#$17
  1236 00:015C: B7 01        	lda	[<L14+pMenu_1],Y
  1237 00:015E: 48           	pha
  1238 00:015F: 22 xx xx xx  	jsl	~~k_nodelist_deallocate_list
  1239                        ;
  1240                        ;		k_mem_deallocate_heap(menuResource);
  1241                        	.line	62
  1242 00:0163: D4 0A        	pei	<L13+menuResource_0+2
  1243 00:0165: D4 08        	pei	<L13+menuResource_0
  Mon Aug  9 2021 16:52                                                Page 25


  1244 00:0167: 22 xx xx xx  	jsl	~~k_mem_deallocate_heap
  1245                        ;	}
  1246                        	.line	63
  1247                        ;	k_heap_integrity_check();
  1248                        L10002:
  1249                        	.line	64
  1250 00:016B: 22 xx xx xx  	jsl	~~k_heap_integrity_check
  1251                        ;	k_debug_strings("k_menu_FreemMenuResource:","Exi
                    t");
  1252                        	.line	65
  1253 00:016F: F4 xx xx     	pea	#^L12+58
  1254 00:0172: F4 xx xx     	pea	#<L12+58
  1255 00:0175: F4 xx xx     	pea	#^L12+32
  1256 00:0178: F4 xx xx     	pea	#<L12+32
  1257 00:017B: 22 xx xx xx  	jsl	~~k_debug_strings
  1258                        ;}
  1259                        	.line	66
  1260                        L18:
  1261 00:017F: A5 06        	lda	<L13+2
  1262 00:0181: 85 0A        	sta	<L13+2+4
  1263 00:0183: A5 05        	lda	<L13+1
  1264 00:0185: 85 09        	sta	<L13+1+4
  1265 00:0187: 2B           	pld
  1266 00:0188: 3B           	tsc
  1267 00:0189: 18           	clc
  1268 00:018A: 69 08 00     	adc	#L13+4
  1269 00:018D: 1B           	tcs
  1270 00:018E: 6B           	rtl
  1271                        	.endblock	66
  1272             00000004   L13	equ	4
  1273             00000001   L14	equ	1
  1274                        	ends
  1275                        	efunc
  1276                        	.endfunc	66,1,4
  1277                        	.line	66
  1278                        	data
  1279                        L12:
  1280 00:0074: 6B 5F 6D 65  	db	$6B,$5F,$6D,$65,$6E,$75,$5F,$46,$72,$65,
                    $65,$6D,$4D,$65,$6E
       00:0078: 6E 75 5F 46 
       00:007C: 72 65 65 6D 
       00:0080: 4D 65 6E 
  1281 00:0083: 75 52 65 73  	db	$75,$52,$65,$73,$6F,$75,$72,$63,$65,$3A,
                    $00,$45,$6E,$74,$65
       00:0087: 6F 75 72 63 
       00:008B: 65 3A 00 45 
       00:008F: 6E 74 65 
  1282 00:0092: 72 00 6B 5F  	db	$72,$00,$6B,$5F,$6D,$65,$6E,$75,$5F,$46,
                    $72,$65,$65,$6D,$4D
       00:0096: 6D 65 6E 75 
       00:009A: 5F 46 72 65 
       00:009E: 65 6D 4D 
  1283 00:00A1: 65 6E 75 52  	db	$65,$6E,$75,$52,$65,$73,$6F,$75,$72,$63,
                    $65,$3A,$00,$45,$78
       00:00A5: 65 73 6F 75 
       00:00A9: 72 63 65 3A 
       00:00AD: 00 45 78 
  1284 00:00B0: 69 74 00     	db	$69,$74,$00
  Mon Aug  9 2021 16:52                                                Page 26


  1285 00:00B3:              	ends
  1286                        ;
  1287                        ;PWINDOW	k_menu_CreateMenu(HWND      	hWndPare
                    nt,
  1288                        ;						  HMENUR
                    ESOURCE hMenuRes,
  1289                        ;						  HINSTA
                    NCE 	hInstance)
  1290                        ;{
  1291                        	.line	68
  1292                        	.line	71
  1293                        	code
  1294                        	xdef	~~k_menu_CreateMenu
  1295                        	func
  1296                        	.function	71
  1297                        ~~k_menu_CreateMenu:
  1298                        	longa	on
  1299                        	longi	on
  1300 00:018F: 3B           	tsc
  1301 00:0190: 38           	sec
  1302 00:0191: E9 08 00     	sbc	#L20
  1303 00:0194: 1B           	tcs
  1304 00:0195: 0B           	phd
  1305 00:0196: 5B           	tcd
  1306             00000004   hWndParent_0	set	4
  1307             00000008   hMenuRes_0	set	8
  1308             0000000C   hInstance_0	set	12
  1309                        	.block	71
  1310                        ;
  1311                        ;	PWINDOW pWin = NULL;
  1312                        ;
  1313                        ;	k_debug_pointer("k_menu_CreateMenu:Parent hWnd:"
                    ,hWndParent);
  1314             00000000   pWin_1	set	0
  1315                        	.sym	pWin,0,138,1,32,33
  1316                        	.sym	hWndParent,4,129,6,32
  1317                        	.sym	hMenuRes,8,129,6,32
  1318                        	.sym	hInstance,12,129,6,32
  1319 00:0197: 64 05        	stz	<L21+pWin_1
  1320 00:0199: 64 07        	stz	<L21+pWin_1+2
  1321                        	.line	75
  1322 00:019B: D4 0E        	pei	<L20+hWndParent_0+2
  1323 00:019D: D4 0C        	pei	<L20+hWndParent_0
  1324 00:019F: F4 xx xx     	pea	#^L19
  1325 00:01A2: F4 xx xx     	pea	#<L19
  1326 00:01A5: 22 xx xx xx  	jsl	~~k_debug_pointer
  1327                        ;	k_debug_pointer("k_menu_CreateMenu:DesktopWindow
                    :",k_user_getDesktopWindow());
  1328                        	.line	76
  1329 00:01A9: 22 xx xx xx  	jsl	~~k_user_getDesktopWindow
  1330 00:01AD: 85 01        	sta	<R0
  1331 00:01AF: 86 03        	stx	<R0+2
  1332 00:01B1: DA           	phx
  1333 00:01B2: 48           	pha
  1334 00:01B3: F4 xx xx     	pea	#^L19+31
  1335 00:01B6: F4 xx xx     	pea	#<L19+31
  1336 00:01B9: 22 xx xx xx  	jsl	~~k_debug_pointer
  1337                        ;
  Mon Aug  9 2021 16:52                                                Page 27


  1338                        ;	pWin = k_user_CreateWindow(0,
  1339                        	.line	78
  1340                        ;							
                       "menuMainWindowClass",
  1341                        ;							
                        "mainmenu",
  1342                        ;							
                    	0,0,
  1343                        ;							
                    	k_user_getSystemMetric(SM_CXMENUSIZE),
  1344                        ;							
                    	k_user_getSystemMetric(SM_CYMENUSIZE),
  1345                        ;							
                    	hWndParent,
  1346                        ;							
                    	(HMENU)hMenuRes,
  1347                        ;							
                    	NULL);
  1348 00:01BD: F4 00 00     	pea	#^$0
  1349 00:01C0: F4 00 00     	pea	#<$0
  1350 00:01C3: D4 12        	pei	<L20+hMenuRes_0+2
  1351 00:01C5: D4 10        	pei	<L20+hMenuRes_0
  1352 00:01C7: D4 0E        	pei	<L20+hWndParent_0+2
  1353 00:01C9: D4 0C        	pei	<L20+hWndParent_0
  1354 00:01CB: F4 37 00     	pea	#<$37
  1355 00:01CE: 22 xx xx xx  	jsl	~~k_user_getSystemMetric
  1356 00:01D2: 48           	pha
  1357 00:01D3: F4 36 00     	pea	#<$36
  1358 00:01D6: 22 xx xx xx  	jsl	~~k_user_getSystemMetric
  1359 00:01DA: 48           	pha
  1360 00:01DB: F4 00 00     	pea	#<$0
  1361 00:01DE: F4 00 00     	pea	#<$0
  1362 00:01E1: F4 xx xx     	pea	#^L19+84
  1363 00:01E4: F4 xx xx     	pea	#<L19+84
  1364 00:01E7: F4 xx xx     	pea	#^L19+64
  1365 00:01EA: F4 xx xx     	pea	#<L19+64
  1366 00:01ED: F4 00 00     	pea	#^$0
  1367 00:01F0: F4 00 00     	pea	#<$0
  1368 00:01F3: 22 xx xx xx  	jsl	~~k_user_CreateWindow
  1369 00:01F7: 85 05        	sta	<L21+pWin_1
  1370 00:01F9: 86 07        	stx	<L21+pWin_1+2
  1371                        ;
  1372                        ;
  1373                        ;
  1374                        ;
  1375                        ;	return pWin;
  1376                        	.line	91
  1377 00:01FB: A6 07        	ldx	<L21+pWin_1+2
  1378 00:01FD: A5 05        	lda	<L21+pWin_1
  1379                        L23:
  1380 00:01FF: A8           	tay
  1381 00:0200: A5 0A        	lda	<L20+2
  1382 00:0202: 85 16        	sta	<L20+2+12
  1383 00:0204: A5 09        	lda	<L20+1
  1384 00:0206: 85 15        	sta	<L20+1+12
  1385 00:0208: 2B           	pld
  1386 00:0209: 3B           	tsc
  1387 00:020A: 18           	clc
  Mon Aug  9 2021 16:52                                                Page 28


  1388 00:020B: 69 14 00     	adc	#L20+12
  1389 00:020E: 1B           	tcs
  1390 00:020F: 98           	tya
  1391 00:0210: 6B           	rtl
  1392                        ;
  1393                        ;}
  1394                        	.line	93
  1395                        	.endblock	93
  1396             00000008   L20	equ	8
  1397             00000005   L21	equ	5
  1398                        	ends
  1399                        	efunc
  1400                        	.endfunc	93,5,8
  1401                        	.line	93
  1402                        	data
  1403                        L19:
  1404 00:00B3: 6B 5F 6D 65  	db	$6B,$5F,$6D,$65,$6E,$75,$5F,$43,$72,$65,
                    $61,$74,$65,$4D,$65
       00:00B7: 6E 75 5F 43 
       00:00BB: 72 65 61 74 
       00:00BF: 65 4D 65 
  1405 00:00C2: 6E 75 3A 50  	db	$6E,$75,$3A,$50,$61,$72,$65,$6E,$74,$20,
                    $68,$57,$6E,$64,$3A
       00:00C6: 61 72 65 6E 
       00:00CA: 74 20 68 57 
       00:00CE: 6E 64 3A 
  1406 00:00D1: 00 6B 5F 6D  	db	$00,$6B,$5F,$6D,$65,$6E,$75,$5F,$43,$72,
                    $65,$61,$74,$65,$4D
       00:00D5: 65 6E 75 5F 
       00:00D9: 43 72 65 61 
       00:00DD: 74 65 4D 
  1407 00:00E0: 65 6E 75 3A  	db	$65,$6E,$75,$3A,$44,$65,$73,$6B,$74,$6F,
                    $70,$57,$69,$6E,$64
       00:00E4: 44 65 73 6B 
       00:00E8: 74 6F 70 57 
       00:00EC: 69 6E 64 
  1408 00:00EF: 6F 77 3A 00  	db	$6F,$77,$3A,$00,$6D,$65,$6E,$75,$4D,$61,
                    $69,$6E,$57,$69,$6E
       00:00F3: 6D 65 6E 75 
       00:00F7: 4D 61 69 6E 
       00:00FB: 57 69 6E 
  1409 00:00FE: 64 6F 77 43  	db	$64,$6F,$77,$43,$6C,$61,$73,$73,$00,$6D,
                    $61,$69,$6E,$6D,$65
       00:0102: 6C 61 73 73 
       00:0106: 00 6D 61 69 
       00:010A: 6E 6D 65 
  1410 00:010D: 6E 75 00     	db	$6E,$75,$00
  1411 00:0110:              	ends
  1412                        ;
  1413                        ;
  1414                        ;BOOL mainMenuWindowProc(PFXOSMESSAGE pMsg)
  1415                        ;{
  1416                        	.line	96
  1417                        	.line	97
  1418                        	code
  1419                        	xdef	~~mainMenuWindowProc
  1420                        	func
  1421                        	.function	97
  Mon Aug  9 2021 16:52                                                Page 29


  1422                        ~~mainMenuWindowProc:
  1423                        	longa	on
  1424                        	longi	on
  1425 00:0211: 3B           	tsc
  1426 00:0212: 38           	sec
  1427 00:0213: E9 2C 00     	sbc	#L25
  1428 00:0216: 1B           	tcs
  1429 00:0217: 0B           	phd
  1430 00:0218: 5B           	tcd
  1431             00000004   pMsg_0	set	4
  1432                        	.block	97
  1433                        ;	PWINDOW pWin = NULL;
  1434                        ;	PFXPROCESS p = NULL;
  1435                        ;	PFXSTRING  fxstr = NULL;
  1436                        ;	LPCHAR title = NULL;
  1437                        ;	UCHAR localBuffer[16];
  1438                        ;	PFXNODE node = NULL;
  1439                        ;
  1440                        ;	if(pMsg!=NULL)
  1441             00000000   pWin_1	set	0
  1442             00000004   p_1	set	4
  1443             00000008   fxstr_1	set	8
  1444             0000000C   title_1	set	12
  1445             00000010   localBuffer_1	set	16
  1446             00000020   node_1	set	32
  1447                        	.sym	pWin,0,138,1,32,33
  1448                        	.sym	p,4,138,1,32,20
  1449                        	.sym	fxstr,8,138,1,32,61
  1450                        	.sym	title,12,142,1,32
  1451                        	.sym	localBuffer,16,110,1,0,16
  1452                        	.sym	node,32,138,1,32,5
  1453                        	.sym	pMsg,4,138,6,32,16
  1454 00:0219: 64 09        	stz	<L26+pWin_1
  1455 00:021B: 64 0B        	stz	<L26+pWin_1+2
  1456 00:021D: 64 0D        	stz	<L26+p_1
  1457 00:021F: 64 0F        	stz	<L26+p_1+2
  1458 00:0221: 64 11        	stz	<L26+fxstr_1
  1459 00:0223: 64 13        	stz	<L26+fxstr_1+2
  1460 00:0225: 64 15        	stz	<L26+title_1
  1461 00:0227: 64 17        	stz	<L26+title_1+2
  1462 00:0229: 64 29        	stz	<L26+node_1
  1463 00:022B: 64 2B        	stz	<L26+node_1+2
  1464                        	.line	105
  1465                        ;	{
  1466 00:022D: A5 30        	lda	<L25+pMsg_0
  1467 00:022F: 05 32        	ora	<L25+pMsg_0+2
  1468 00:0231: D0 03        	bne	L28
  1469 00:0233: 82 33 01     	brl	L10004
  1470                        L28:
  1471                        	.line	106
  1472                        ;		p = k_exec_get_current_process();
  1473                        	.line	107
  1474 00:0236: 22 xx xx xx  	jsl	~~k_exec_get_current_process
  1475 00:023A: 85 0D        	sta	<L26+p_1
  1476 00:023C: 86 0F        	stx	<L26+p_1+2
  1477                        ;
  1478                        ;		pWin = k_getWindowFromHandle(pMsg->hwnd)
                    ;
  Mon Aug  9 2021 16:52                                                Page 30


  1479                        	.line	109
  1480 00:023E: A0 0C 00     	ldy	#$c
  1481 00:0241: B7 30        	lda	[<L25+pMsg_0],Y
  1482 00:0243: 48           	pha
  1483 00:0244: A0 0A 00     	ldy	#$a
  1484 00:0247: B7 30        	lda	[<L25+pMsg_0],Y
  1485 00:0249: 48           	pha
  1486 00:024A: 22 xx xx xx  	jsl	~~k_getWindowFromHandle
  1487 00:024E: 85 09        	sta	<L26+pWin_1
  1488 00:0250: 86 0B        	stx	<L26+pWin_1+2
  1489                        ;
  1490                        ;		//k_debug_long("consoleWindowProc::Proce
                    ssId:",p->procId);
  1491                        ;
  1492                        ;		switch(pMsg->type)
  1493                        	.line	113
  1494 00:0252: A0 08 00     	ldy	#$8
  1495 00:0255: B7 30        	lda	[<L25+pMsg_0],Y
  1496 00:0257: 82 F3 00     	brl	L10005
  1497                        ;		{
  1498                        	.line	114
  1499                        ;		case FX_CREATE_WINDOW:
  1500                        	.line	115
  1501                        L10007:
  1502                        ;			k_debug_string("mainMenuWindowPr
                    oc::FX_CREATE_WINDOW\r\n");
  1503                        	.line	116
  1504 00:025A: F4 xx xx     	pea	#^L24
  1505 00:025D: F4 xx xx     	pea	#<L24
  1506 00:0260: 22 xx xx xx  	jsl	~~k_debug_string
  1507                        ;			//k_debug_long("menuWindowProc::
                    heap:",umm_free_heap_size());
  1508                        ;			//k_debug_integer("menuWindowPro
                    c::MessageId:",pMsg->type);
  1509                        ;
  1510                        ;			pWin->windowData = k_mem_allocat
                    e_heap(sizeof(MENUANCHOR));
  1511                        	.line	120
  1512 00:0264: F4 00 00     	pea	#^$22
  1513 00:0267: F4 22 00     	pea	#<$22
  1514 00:026A: 22 xx xx xx  	jsl	~~k_mem_allocate_heap
  1515 00:026E: 85 01        	sta	<R0
  1516 00:0270: 86 03        	stx	<R0+2
  1517 00:0272: A5 01        	lda	<R0
  1518 00:0274: A0 C5 01     	ldy	#$1c5
  1519 00:0277: 97 09        	sta	[<L26+pWin_1],Y
  1520 00:0279: A5 03        	lda	<R0+2
  1521 00:027B: A0 C7 01     	ldy	#$1c7
  1522 00:027E: 97 09        	sta	[<L26+pWin_1],Y
  1523                        ;			((PMENUANCHOR)pWin->windowData)-
                    >renderLayoutX = 2 * FONTW;
  1524                        	.line	121
  1525 00:0280: A0 C5 01     	ldy	#$1c5
  1526 00:0283: B7 09        	lda	[<L26+pWin_1],Y
  1527 00:0285: 85 01        	sta	<R0
  1528 00:0287: A0 C7 01     	ldy	#$1c7
  1529 00:028A: B7 09        	lda	[<L26+pWin_1],Y
  1530 00:028C: 85 03        	sta	<R0+2
  Mon Aug  9 2021 16:52                                                Page 31


  1531 00:028E: 22 xx xx xx  	jsl	~~k_font_getFontWidth
  1532 00:0292: 85 05        	sta	<R1
  1533 00:0294: A5 05        	lda	<R1
  1534 00:0296: 0A           	asl	A
  1535 00:0297: A0 04 00     	ldy	#$4
  1536 00:029A: 97 01        	sta	[<R0],Y
  1537                        ;			((PMENUANCHOR)pWin->windowData)-
                    >renderLayoutY = 2;
  1538                        	.line	122
  1539 00:029C: A0 C5 01     	ldy	#$1c5
  1540 00:029F: B7 09        	lda	[<L26+pWin_1],Y
  1541 00:02A1: 85 01        	sta	<R0
  1542 00:02A3: A0 C7 01     	ldy	#$1c7
  1543 00:02A6: B7 09        	lda	[<L26+pWin_1],Y
  1544 00:02A8: 85 03        	sta	<R0+2
  1545 00:02AA: A9 02 00     	lda	#$2
  1546 00:02AD: A0 06 00     	ldy	#$6
  1547 00:02B0: 97 01        	sta	[<R0],Y
  1548                        ;
  1549                        ;			/*
  1550                        ;			k_debug_pointer("mainMenuWindowP
                    roc::pWin->hMenu:",pWin->hMenu);
  1551                        ;			if(pWin->hMenu)
  1552                        ;			{
  1553                        ;
  1554                        ;					k_nodelist_forea
                    ch_type(((PMENU)pWin->hMenu)->subMenus,
  1555                        ;							
                    			NL_TYPE_WINDOW_MENU,
  1556                        ;							
                    			pMsg->hwnd,
  1557                        ;							
                    			k_iterate_menus);
  1558                        ;
  1559                        ;
  1560                        ;				if(((PMENU)pWin->hMenu)-
                    >subMenus)
  1561                        ;				{
  1562                        ;					k_vdraw_ui_menu(
                    pWin->win_x,pWin->win_y,
  1563                        ;							
                    		pWin->win_width,
  1564                        ;							
                    		pWin->win_height,
  1565                        ;							
                    		"", //((PFXSTRING)((PMENU)pWin->hMenu)->subMenus
                    ->listData)->buffer,
  1566                        ;							
                    		4,3);
  1567                        ;
  1568                        ;					k_put_wingadget_
                    point(WINICON_TITLE_BCLOSE,pWin->win_x + 2,pWin->win_y + 2 ,
                    k_getUIGadgetColor());
  1569                        ;
  1570                        ;					if(pWin->hMenu &
                    & ((PMENU)pWin->hMenu)->subMenus)
  1571                        ;					{
  1572                        ;						//((PMEN
  Mon Aug  9 2021 16:52                                                Page 32


                    U)pWin->hMenu)->hWndOwner = pWin->pParentWindow; // temp for
                     a test
  1573                        ;						//k_debu
                    g_strings("menuWindowProc::FX_MOUSE_ENTER:hWndOwner:title:",
                     k_getWindowFromHandle(pWin->pParentWindow)->win_title );
  1574                        ;
  1575                        ;
  1576                        ;						_k_user_
                    send_child_message(pWin,FX_SHOW_WINDOW,NULL,0);
  1577                        ;
  1578                        ;						//fxstr 
                    = k_fxstring_init(128);
  1579                        ;
  1580                        ;						//k_debu
                    g_strings("menuWindowProc::FX_CREATE_WINDOW:fxstr:",fxstr->b
                    uffer);
  1581                        ;						//((PMEN
                    U)pWin->hMenu)->subMenus->listData = fxstr;
  1582                        ;						//k_debu
                    g_strings("menuWindowProc::FX_CREATE_WINDOW:title:",title);
  1583                        ;					}
  1584                        ;
  1585                        ;
  1586                        ;				}
  1587                        ;
  1588                        ;
  1589                        ;
  1590                        ;				//k_draw_menu(pWin->hMen
                    u,15,3);
  1591                        ;
  1592                        ;			}
  1593                        ;			*/
  1594                        ;			//k_debug_string("menuWindowProc
                    ::FX_CREATE_WINDOW:k_vdraw_ui_menu\r\n");
  1595                        ;			break;
  1596                        	.line	170
  1597 00:02B2: 82 B4 00     	brl	L10006
  1598                        ;		case FX_DRAW_WINDOW:
  1599                        	.line	171
  1600                        L10008:
  1601                        ;			k_debug_string("mainMenuWindowPr
                    oc::FX_REDRAW_WINDOW\r\n");
  1602                        	.line	172
  1603 00:02B5: F4 xx xx     	pea	#^L24+39
  1604 00:02B8: F4 xx xx     	pea	#<L24+39
  1605 00:02BB: 22 xx xx xx  	jsl	~~k_debug_string
  1606                        ;
  1607                        ;
  1608                        ;			k_vdraw_ui_menu(pWin->win_x,
  1609                        	.line	175
  1610                        ;							
                    pWin->win_y,
  1611                        ;							
                    pWin->win_width,
  1612                        ;							
                    pWin->win_height,
  1613                        ;							
                    NULL, //((PFXSTRING)((PMENU)pWin->hMenu)->subMenus->listData
  Mon Aug  9 2021 16:52                                                Page 33


                    )->buffer,
  1614                        ;							
                    4,3);
  1615 00:02BF: F4 03 00     	pea	#<$3
  1616 00:02C2: F4 04 00     	pea	#<$4
  1617 00:02C5: F4 00 00     	pea	#^$0
  1618 00:02C8: F4 00 00     	pea	#<$0
  1619 00:02CB: A0 12 00     	ldy	#$12
  1620 00:02CE: B7 09        	lda	[<L26+pWin_1],Y
  1621 00:02D0: 48           	pha
  1622 00:02D1: A0 10 00     	ldy	#$10
  1623 00:02D4: B7 09        	lda	[<L26+pWin_1],Y
  1624 00:02D6: 48           	pha
  1625 00:02D7: A0 0E 00     	ldy	#$e
  1626 00:02DA: B7 09        	lda	[<L26+pWin_1],Y
  1627 00:02DC: 48           	pha
  1628 00:02DD: A0 0C 00     	ldy	#$c
  1629 00:02E0: B7 09        	lda	[<L26+pWin_1],Y
  1630 00:02E2: 48           	pha
  1631 00:02E3: 22 xx xx xx  	jsl	~~k_vdraw_ui_menu
  1632                        ;
  1633                        ;
  1634                        ;			break;
  1635                        	.line	183
  1636 00:02E7: 82 7F 00     	brl	L10006
  1637                        ;		case FX_LBUTTON_DOWN:
  1638                        	.line	184
  1639                        L10009:
  1640                        ;			if(pMsg->type!=FX_PROCESS)
  1641                        	.line	185
  1642                        ;			{
  1643 00:02EA: A0 08 00     	ldy	#$8
  1644 00:02ED: B7 30        	lda	[<L25+pMsg_0],Y
  1645 00:02EF: C9 00 FF     	cmp	#<$ff00
  1646 00:02F2: D0 03        	bne	L29
  1647 00:02F4: 82 36 00     	brl	L10010
  1648                        L29:
  1649                        	.line	186
  1650                        ;				//k_debug_integer("conso
                    leWindowProc::ProcessId:",p->procId);
  1651                        ;				k_debug_integer("mainMen
                    uWindowProc::FX_LBUTTON_DOWN:X:", *((INT*)&pMsg->data[1])  )
                    ;
  1652                        	.line	188
  1653 00:02F7: A0 17 00     	ldy	#$17
  1654 00:02FA: B7 30        	lda	[<L25+pMsg_0],Y
  1655 00:02FC: 48           	pha
  1656 00:02FD: F4 xx xx     	pea	#^L24+78
  1657 00:0300: F4 xx xx     	pea	#<L24+78
  1658 00:0303: 22 xx xx xx  	jsl	~~k_debug_integer
  1659                        ;				k_debug_integer("mainMen
                    uWindowProc::FX_LBUTTON_DOWN:Y:", *((INT*)&pMsg->data[3])  )
                    ;
  1660                        	.line	189
  1661 00:0307: A0 19 00     	ldy	#$19
  1662 00:030A: B7 30        	lda	[<L25+pMsg_0],Y
  1663 00:030C: 48           	pha
  1664 00:030D: F4 xx xx     	pea	#^L24+117
  Mon Aug  9 2021 16:52                                                Page 34


  1665 00:0310: F4 xx xx     	pea	#<L24+117
  1666 00:0313: 22 xx xx xx  	jsl	~~k_debug_integer
  1667                        ;
  1668                        ;				k_debug_pointer("mainMen
                    uWindowProc::pChildHitList:",pWin->pChildHitList);
  1669                        	.line	191
  1670 00:0317: A0 C2 01     	ldy	#$1c2
  1671 00:031A: B7 09        	lda	[<L26+pWin_1],Y
  1672 00:031C: 48           	pha
  1673 00:031D: A0 C0 01     	ldy	#$1c0
  1674 00:0320: B7 09        	lda	[<L26+pWin_1],Y
  1675 00:0322: 48           	pha
  1676 00:0323: F4 xx xx     	pea	#^L24+156
  1677 00:0326: F4 xx xx     	pea	#<L24+156
  1678 00:0329: 22 xx xx xx  	jsl	~~k_debug_pointer
  1679                        ;
  1680                        ;				//if(pWin->pChildHitList
                    )
  1681                        ;				//	k_debug_nodelist
                    _with_data( pWin->pChildHitList->listhead, debug_window_node
                     );
  1682                        ;
  1683                        ;
  1684                        ;				//k_shadow_bitblt(0,0, 6
                    40, 480, 1,1);
  1685                        ;
  1686                        ;			}
  1687                        	.line	199
  1688                        ;			break;
  1689                        L10010:
  1690                        	.line	200
  1691 00:032D: 82 39 00     	brl	L10006
  1692                        ;
  1693                        ;		case FX_MOUSE_ENTER:
  1694                        	.line	202
  1695                        L10011:
  1696                        ;			k_debug_string("mainMenuWindowPr
                    oc::FX_MOUSE_ENTER\r\n");
  1697                        	.line	203
  1698 00:0330: F4 xx xx     	pea	#^L24+191
  1699 00:0333: F4 xx xx     	pea	#<L24+191
  1700 00:0336: 22 xx xx xx  	jsl	~~k_debug_string
  1701                        ;
  1702                        ;			/*
  1703                        ;			if(((PMENU)pWin->hMenu)->subMenu
                    s)
  1704                        ;			{
  1705                        ;				k_vdraw_ui_menu(pWin->wi
                    n_x,pWin->win_y,
  1706                        ;							
                    	pWin->win_width,
  1707                        ;							
                    	pWin->win_height,
  1708                        ;							
                    	"", //((PFXSTRING)((PMENU)pWin->hMenu)->subMenus->listDa
                    ta)->buffer,
  1709                        ;							
                    	4,3);
  Mon Aug  9 2021 16:52                                                Page 35


  1710                        ;
  1711                        ;
  1712                        ;				if(pWin->hMenu && ((PMEN
                    U)pWin->hMenu)->subMenus)
  1713                        ;				{
  1714                        ;					//((PMENU)pWin->
                    hMenu)->hWndOwner = pWin->pParentWindow; // temp for a test
  1715                        ;					//k_debug_string
                    s("menuWindowProc::FX_MOUSE_ENTER:hWndOwner:title:", k_getWi
                    ndowFromHandle(pWin->pParentWindow)->win_title );
  1716                        ;
  1717                        ;
  1718                        ;					_k_user_send_chi
                    ld_message(pWin,FX_SHOW_WINDOW,NULL,0);
  1719                        ;
  1720                        ;					//fxstr = k_fxst
                    ring_init(128);
  1721                        ;
  1722                        ;					//k_debug_string
                    s("menuWindowProc::FX_CREATE_WINDOW:fxstr:",fxstr->buffer);
  1723                        ;					//((PMENU)pWin->
                    hMenu)->subMenus->listData = fxstr;
  1724                        ;					//k_debug_string
                    s("menuWindowProc::FX_CREATE_WINDOW:title:",title);
  1725                        ;				}
  1726                        ;
  1727                        ;
  1728                        ;			}
  1729                        ;			*/
  1730                        ;			break;
  1731                        	.line	233
  1732 00:033A: 82 2C 00     	brl	L10006
  1733                        ;		case FX_MOUSE_EXIT:
  1734                        	.line	234
  1735                        L10012:
  1736                        ;			k_debug_string("mainMenuWindowPr
                    oc::FX_MOUSE_EXIT\r\n");
  1737                        	.line	235
  1738 00:033D: F4 xx xx     	pea	#^L24+228
  1739 00:0340: F4 xx xx     	pea	#<L24+228
  1740 00:0343: 22 xx xx xx  	jsl	~~k_debug_string
  1741                        ;			/*
  1742                        ;			k_debug_strings("menuWindowProc:
                    :FX_MOUSE_EXIT:title:",(LPCHAR)((PMENU)pWin->hMenu)->pCaptio
                    n);
  1743                        ;
  1744                        ;			((PMENUANCHOR)pWin->windowData)-
                    >renderLayoutX = 2 + FONTW;
  1745                        ;			((PMENUANCHOR)pWin->windowData)-
                    >renderLayoutY = 2 + FONTW;
  1746                        ;
  1747                        ;			if(((PMENU)pWin->hMenu)->pCaptio
                    n)
  1748                        ;			{
  1749                        ;				_k_user_send_child_messa
                    ge(pWin,FX_HIDE_WINDOW,NULL,0);
  1750                        ;
  1751                        ;				k_mem_deallocate_heap((L
  Mon Aug  9 2021 16:52                                                Page 36


                    PVOID)((PMENU)pWin->hMenu)->pCaption);
  1752                        ;
  1753                        ;				title = k_string_replace
                    (CONST_WB_MENU_TITLE,"%s1", k_strip_padding(k_longtodec(k_ge
                    tZeroPage()->availableHeapMemoryK,localBuffer)) );
  1754                        ;				((PMENU)pWin->hMenu)->pC
                    aption = k_string_replace(title,"%s2", k_strip_padding(k_lon
                    gtodec(k_getZeroPage()->availableHeapMemoryK,localBuffer)));
  1755                        ;
  1756                        ;
  1757                        ;				k_vdraw_ui_menu(pWin->wi
                    n_x,pWin->win_y,
  1758                        ;							
                    	pWin->win_width,
  1759                        ;							
                    	pWin->win_height,
  1760                        ;							
                    	((PMENU)pWin->hMenu)->pCaption,
  1761                        ;							
                    	15,3);
  1762                        ;
  1763                        ;				k_mem_deallocate_heap(ti
                    tle);
  1764                        ;
  1765                        ;			}
  1766                        ;			*/
  1767                        ;			break;
  1768                        	.line	262
  1769 00:0347: 82 1F 00     	brl	L10006
  1770                        ;
  1771                        ;		default:
  1772                        	.line	264
  1773                        L10013:
  1774                        ;			break;
  1775                        	.line	265
  1776 00:034A: 82 1C 00     	brl	L10006
  1777                        ;		}
  1778                        	.line	266
  1779                        L10005:
  1780                        	xref	~~~swt
  1781 00:034D: 22 xx xx xx  	jsl	~~~swt
  1782 00:0351: 05 00        	dw	5
  1783 00:0353: 01 0F        	dw	3841
  1784 00:0355: xx xx        	dw	L10011-1
  1785 00:0357: 02 0F        	dw	3842
  1786 00:0359: xx xx        	dw	L10012-1
  1787 00:035B: 04 0F        	dw	3844
  1788 00:035D: xx xx        	dw	L10009-1
  1789 00:035F: 00 FB        	dw	64256
  1790 00:0361: xx xx        	dw	L10008-1
  1791 00:0363: 03 FF        	dw	65283
  1792 00:0365: xx xx        	dw	L10007-1
  1793 00:0367: xx xx        	dw	L10013-1
  1794                        L10006:
  1795                        ;	}
  1796                        	.line	267
  1797                        ;
  1798                        ;	return TRUE;
  Mon Aug  9 2021 16:52                                                Page 37


  1799                        L10004:
  1800                        	.line	269
  1801 00:0369: A9 01 00     	lda	#$1
  1802                        L30:
  1803 00:036C: A8           	tay
  1804 00:036D: A5 2E        	lda	<L25+2
  1805 00:036F: 85 32        	sta	<L25+2+4
  1806 00:0371: A5 2D        	lda	<L25+1
  1807 00:0373: 85 31        	sta	<L25+1+4
  1808 00:0375: 2B           	pld
  1809 00:0376: 3B           	tsc
  1810 00:0377: 18           	clc
  1811 00:0378: 69 30 00     	adc	#L25+4
  1812 00:037B: 1B           	tcs
  1813 00:037C: 98           	tya
  1814 00:037D: 6B           	rtl
  1815                        ;}
  1816                        	.line	270
  1817                        	.endblock	270
  1818             0000002C   L25	equ	44
  1819             00000009   L26	equ	9
  1820                        	ends
  1821                        	efunc
  1822                        	.endfunc	270,9,44
  1823                        	.line	270
  1824                        	data
  1825                        L24:
  1826 00:0110: 6D 61 69 6E  	db	$6D,$61,$69,$6E,$4D,$65,$6E,$75,$57,$69,
                    $6E,$64,$6F,$77,$50
       00:0114: 4D 65 6E 75 
       00:0118: 57 69 6E 64 
       00:011C: 6F 77 50 
  1827 00:011F: 72 6F 63 3A  	db	$72,$6F,$63,$3A,$3A,$46,$58,$5F,$43,$52,
                    $45,$41,$54,$45,$5F
       00:0123: 3A 46 58 5F 
       00:0127: 43 52 45 41 
       00:012B: 54 45 5F 
  1828 00:012E: 57 49 4E 44  	db	$57,$49,$4E,$44,$4F,$57,$0D,$0A,$00,$6D,
                    $61,$69,$6E,$4D,$65
       00:0132: 4F 57 0D 0A 
       00:0136: 00 6D 61 69 
       00:013A: 6E 4D 65 
  1829 00:013D: 6E 75 57 69  	db	$6E,$75,$57,$69,$6E,$64,$6F,$77,$50,$72,
                    $6F,$63,$3A,$3A,$46
       00:0141: 6E 64 6F 77 
       00:0145: 50 72 6F 63 
       00:0149: 3A 3A 46 
  1830 00:014C: 58 5F 52 45  	db	$58,$5F,$52,$45,$44,$52,$41,$57,$5F,$57,
                    $49,$4E,$44,$4F,$57
       00:0150: 44 52 41 57 
       00:0154: 5F 57 49 4E 
       00:0158: 44 4F 57 
  1831 00:015B: 0D 0A 00 6D  	db	$0D,$0A,$00,$6D,$61,$69,$6E,$4D,$65,$6E,
                    $75,$57,$69,$6E,$64
       00:015F: 61 69 6E 4D 
       00:0163: 65 6E 75 57 
       00:0167: 69 6E 64 
  1832 00:016A: 6F 77 50 72  	db	$6F,$77,$50,$72,$6F,$63,$3A,$3A,$46,$58,
  Mon Aug  9 2021 16:52                                                Page 38


                    $5F,$4C,$42,$55,$54
       00:016E: 6F 63 3A 3A 
       00:0172: 46 58 5F 4C 
       00:0176: 42 55 54 
  1833 00:0179: 54 4F 4E 5F  	db	$54,$4F,$4E,$5F,$44,$4F,$57,$4E,$3A,$58,
                    $3A,$00,$6D,$61,$69
       00:017D: 44 4F 57 4E 
       00:0181: 3A 58 3A 00 
       00:0185: 6D 61 69 
  1834 00:0188: 6E 4D 65 6E  	db	$6E,$4D,$65,$6E,$75,$57,$69,$6E,$64,$6F,
                    $77,$50,$72,$6F,$63
       00:018C: 75 57 69 6E 
       00:0190: 64 6F 77 50 
       00:0194: 72 6F 63 
  1835 00:0197: 3A 3A 46 58  	db	$3A,$3A,$46,$58,$5F,$4C,$42,$55,$54,$54,
                    $4F,$4E,$5F,$44,$4F
       00:019B: 5F 4C 42 55 
       00:019F: 54 54 4F 4E 
       00:01A3: 5F 44 4F 
  1836 00:01A6: 57 4E 3A 59  	db	$57,$4E,$3A,$59,$3A,$00,$6D,$61,$69,$6E,
                    $4D,$65,$6E,$75,$57
       00:01AA: 3A 00 6D 61 
       00:01AE: 69 6E 4D 65 
       00:01B2: 6E 75 57 
  1837 00:01B5: 69 6E 64 6F  	db	$69,$6E,$64,$6F,$77,$50,$72,$6F,$63,$3A,
                    $3A,$70,$43,$68,$69
       00:01B9: 77 50 72 6F 
       00:01BD: 63 3A 3A 70 
       00:01C1: 43 68 69 
  1838 00:01C4: 6C 64 48 69  	db	$6C,$64,$48,$69,$74,$4C,$69,$73,$74,$3A,
                    $00,$6D,$61,$69,$6E
       00:01C8: 74 4C 69 73 
       00:01CC: 74 3A 00 6D 
       00:01D0: 61 69 6E 
  1839 00:01D3: 4D 65 6E 75  	db	$4D,$65,$6E,$75,$57,$69,$6E,$64,$6F,$77,
                    $50,$72,$6F,$63,$3A
       00:01D7: 57 69 6E 64 
       00:01DB: 6F 77 50 72 
       00:01DF: 6F 63 3A 
  1840 00:01E2: 3A 46 58 5F  	db	$3A,$46,$58,$5F,$4D,$4F,$55,$53,$45,$5F,
                    $45,$4E,$54,$45,$52
       00:01E6: 4D 4F 55 53 
       00:01EA: 45 5F 45 4E 
       00:01EE: 54 45 52 
  1841 00:01F1: 0D 0A 00 6D  	db	$0D,$0A,$00,$6D,$61,$69,$6E,$4D,$65,$6E,
                    $75,$57,$69,$6E,$64
       00:01F5: 61 69 6E 4D 
       00:01F9: 65 6E 75 57 
       00:01FD: 69 6E 64 
  1842 00:0200: 6F 77 50 72  	db	$6F,$77,$50,$72,$6F,$63,$3A,$3A,$46,$58,
                    $5F,$4D,$4F,$55,$53
       00:0204: 6F 63 3A 3A 
       00:0208: 46 58 5F 4D 
       00:020C: 4F 55 53 
  1843 00:020F: 45 5F 45 58  	db	$45,$5F,$45,$58,$49,$54,$0D,$0A,$00
       00:0213: 49 54 0D 0A 
       00:0217: 00 
  1844 00:0218:              	ends
  Mon Aug  9 2021 16:52                                                Page 39


  1845                        ;
  1846                        ;
  1847                        ;
  1848                        	.line	272
  1849                        	.file	"G:\devprojects\c256Foenix\fxos\FXOSWork
                    space\FXOS-Beta\src\fxmenumanager.c",96
  1850                        	xref	~~k_user_CreateWindow
  1851                        	xref	~~k_user_CreateWindowClass
  1852                        	xref	~~k_user_getSystemMetric
  1853                        	xref	~~k_user_getDesktopWindow
  1854                        	xref	~~k_getWindowFromHandle
  1855                        	xref	~~k_font_getFontWidth
  1856                        	xref	~~k_vdraw_ui_menu
  1857                        	xref	~~k_mem_deallocate_heap
  1858                        	xref	~~k_mem_allocate_heap
  1859                        	xref	~~k_heap_integrity_check
  1860                        	xref	~~k_exec_get_current_process
  1861                        	xref	~~k_string_copy_string
  1862                        	xref	~~k_debug_strings
  1863                        	xref	~~k_debug_integer
  1864                        	xref	~~k_debug_pointer
  1865                        	xref	~~k_debug_string
  1866                        	xref	~~k_nodelist_deallocate_list
  1867                        	xref	~~memset
  1868                        	.sym	~~k_menu_FreemMenuResource,~~k_menu_Free
                    mMenuResource,65,2,0
  1869                        	.sym	~~mainMenuWindowProc,~~mainMenuWindowPro
                    c,78,2,0
  1870                        	.sym	~~k_menu_CreateMenu,~~k_menu_CreateMenu,
                    1098,2,32,33
  1871                        	.sym	~~k_menu_CreateMenuResource,~~k_menu_Cre
                    ateMenuResource,1089,2,32
  1872                        	.sym	~~k_initializeMenuManager,~~k_initialize
                    MenuManager,78,2,0
  1873                        	.sym	FRESULT,0,5,14,16
  1874                        	.sym	MKFS_PARM,0,10,14,80,89
  1875                        	.sym	FILINFO,0,10,14,2224,88
  1876                        	.sym	DIR,0,10,14,416,87
  1877                        	.sym	FIL,0,10,14,4400,86
  1878                        	.sym	FFOBJID,0,10,14,128,85
  1879                        	.sym	FATFS,0,10,14,4504,84
  1880                        	.sym	LBA_t,0,18,14,32
  1881                        	.sym	FSIZE_t,0,18,14,32
  1882                        	.sym	TCHAR,0,14,14,8
  1883                        	.sym	PCOMMANDARGS,0,138,14,32,83
  1884                        	.sym	COMMANDARGS,0,10,14,64,83
  1885                        	.sym	PTOKENIZESTATE,0,133,14,32
  1886                        	.sym	TOKENIZESTATE,0,5,14,16
  1887                        	.sym	PTOKEN,0,138,14,32,82
  1888                        	.sym	TOKEN,0,10,14,64,82
  1889                        	.sym	PTOKENTYPE,0,133,14,32
  1890                        	.sym	TOKENTYPE,0,5,14,16
  1891                        	.sym	FXCommandHandler,0,656,14,32
  1892                        	.sym	PCONSOLECTX,0,138,14,32,81
  1893                        	.sym	CONSOLECTX,0,10,14,1144,81
  1894                        	.sym	PSPINNERCTX,0,138,14,32,80
  1895                        	.sym	SPINNERCTX,0,10,14,48,80
  1896                        	.sym	HCLIP,0,138,14,32,79
  Mon Aug  9 2021 16:52                                                Page 40


  1897                        	.sym	PCLIPBOARD_DATA,0,138,14,32,79
  1898                        	.sym	CLIPBOARD_DATA,0,10,14,168,79
  1899                        	.sym	PEVENTMANAGER,0,138,14,32,78
  1900                        	.sym	EVENTMANAGER,0,10,14,192,78
  1901                        	.sym	EV_RUN,0,656,14,32
  1902                        	.sym	EV_QUERY_METRIC,0,656,14,32
  1903                        	.sym	EV_CONFIGURE,0,656,14,32
  1904                        	.sym	EV_UNINIT,0,641,14,32
  1905                        	.sym	EV_INIT,0,8833,14,32
  1906                        	.sym	PMOUSE_MSG_STATE,0,138,14,32,77
  1907                        	.sym	MOUSE_MSG_STATE,0,10,14,184,77
  1908                        	.sym	PFXEVENTPROCESS,0,138,14,32,76
  1909                        	.sym	FXEVENTPROCESS,0,10,14,64,76
  1910                        	.sym	FXASYNCPROCESS,0,641,14,32
  1911                        	.sym	PMARSHALDATA,0,139,14,32,75
  1912                        	.sym	MARSHALDATA,0,11,14,32,75
  1913                        	.sym	FXIDLEPROCESS,0,641,14,32
  1914                        	.sym	FXEventProc,0,641,14,32
  1915                        	.sym	PMOUSEMSGDATA,0,138,14,32,74
  1916                        	.sym	MOUSEMSGDATA,0,10,14,64,74
  1917                        	.sym	MSGIRQ,0,5,14,16
  1918                        	.sym	MAINLOOPARGS,0,10,14,16,73
  1919                        	.sym	PEACHCHILD_MSG,0,138,14,32,72
  1920                        	.sym	EACHCHILD_MSG,0,10,14,64,72
  1921                        	.sym	PMSGBOX_DATA,0,138,14,32,71
  1922                        	.sym	MSGBOX_DATA,0,10,14,96,71
  1923                        	.sym	PDESKTOP_DATA,0,138,14,32,70
  1924                        	.sym	DESKTOP_DATA,0,10,14,64,70
  1925                        	.sym	~~k_user_CreateWindow,~~k_user_CreateWin
                    dow,1098,18,32,33
  1926                        	.sym	~~k_user_CreateWindowClass,~~k_user_Crea
                    teWindowClass,1098,18,32,29
  1927                        	.sym	~~k_user_getSystemMetric,~~k_user_getSys
                    temMetric,69,18,0
  1928                        	.sym	~~k_user_getDesktopWindow,~~k_user_getDe
                    sktopWindow,1089,18,32
  1929                        	.sym	~~k_getWindowFromHandle,~~k_getWindowFro
                    mHandle,1098,18,32,33
  1930                        	.sym	PWINDOWMANAGER,0,138,14,32,69
  1931                        	.sym	WINDOWMANAGER,0,10,14,160,69
  1932                        	.sym	WM_DOPROCS,0,641,14,32
  1933                        	.sym	WM_QUERY_METRIC,0,656,14,32
  1934                        	.sym	WM_CONFIGURE,0,656,14,32
  1935                        	.sym	WM_HANDLE_EVENT,0,8833,14,32
  1936                        	.sym	WM_EVENTS,0,641,14,32
  1937                        	.sym	~~k_font_getFontWidth,~~k_font_getFontWi
                    dth,80,18,0
  1938                        	.sym	PCUR_PALETTE_MAP,0,138,14,32,68
  1939                        	.sym	CUR_PALETTE_MAP,0,10,14,400,68
  1940                        	.sym	~~k_vdraw_ui_menu,~~k_vdraw_ui_menu,1098
                    ,18,32,36
  1941                        	.sym	PCLICKDETECTED,0,138,14,32,67
  1942                        	.sym	CLICKDETECTED,0,10,14,64,67
  1943                        	.sym	OBJECTCLICKED,0,641,14,32
  1944                        	.sym	PALLOCATIONHEADER,0,138,14,32,66
  1945                        	.sym	ALLOCATIONHEADER,0,10,14,80,66
  1946                        	.sym	PIPCPORT,0,138,14,32,65
  1947                        	.sym	IPCPORT,0,10,14,144,65
  Mon Aug  9 2021 16:52                                                Page 41


  1948                        	.sym	~~k_mem_deallocate_heap,~~k_mem_dealloca
                    te_heap,65,18,0
  1949                        	.sym	~~k_mem_allocate_heap,~~k_mem_allocate_h
                    eap,1089,18,32
  1950                        	.sym	~~k_heap_integrity_check,~~k_heap_integr
                    ity_check,82,18,0
  1951                        	.sym	MemoryCallback,0,641,14,32
  1952                        	.sym	PFXMEMORYMAP,0,138,14,32,64
  1953                        	.sym	FXMEMORYMAP,0,10,14,2072,64
  1954                        	.sym	UMM_HEAP_INFO,0,10,14,256,63
  1955                        	.sym	~~k_exec_get_current_process,~~k_exec_ge
                    t_current_process,1098,18,32,20
  1956                        	.sym	PEXECUTIVE,0,138,14,32,62
  1957                        	.sym	EXECUTIVE,0,10,14,128,62
  1958                        	.sym	EX_QUERY_METRIC,0,656,14,32
  1959                        	.sym	EX_CONFIGURE,0,656,14,32
  1960                        	.sym	EX_UNINIT,0,641,14,32
  1961                        	.sym	EX_INIT,0,8833,14,32
  1962                        	.sym	~~k_string_copy_string,~~k_string_copy_s
                    tring,1102,18,32
  1963                        	.sym	PFXSTRING,0,138,14,32,61
  1964                        	.sym	FXSTRING,0,10,14,64,61
  1965                        	.sym	PIRQCHAIN,0,138,14,32,60
  1966                        	.sym	IRQCHAIN,0,10,14,128,60
  1967                        	.sym	DEVICEDRIVER_COMMAND,0,654,14,32
  1968                        	.sym	DEVICEDRIVER_UNLOAD,0,654,14,32
  1969                        	.sym	DEVICEDRIVER_WRITE,0,654,14,32
  1970                        	.sym	DEVICEDRIVER_READ,0,654,14,32
  1971                        	.sym	DEVICEDRIVER_LOAD,0,654,14,32
  1972                        	.sym	DEVICEDRIVER_IRQ,0,641,14,32
  1973                        	.sym	PFX_BLOCK_DEVICE_DRIVER,0,138,14,32,59
  1974                        	.sym	FX_BLOCK_DEVICE_DRIVER,0,10,14,808,59
  1975                        	.sym	GETDRIVERDEF,0,8842,14,32,58
  1976                        	.sym	PFX_DEVICE_DRIVER,0,138,14,32,58
  1977                        	.sym	FX_DEVICE_DRIVER,0,10,14,776,58
  1978                        	.sym	~~k_debug_strings,~~k_debug_strings,65,1
                    8,0
  1979                        	.sym	~~k_debug_integer,~~k_debug_integer,65,1
                    8,0
  1980                        	.sym	~~k_debug_pointer,~~k_debug_pointer,65,1
                    8,0
  1981                        	.sym	~~k_debug_string,~~k_debug_string,65,18,
                    0
  1982                        	.sym	PSEGMENTHEADER,0,138,14,32,57
  1983                        	.sym	SEGMENTHEADER,0,10,14,160,57
  1984                        	.sym	PDEBUGBYTEBITS,0,138,14,32,56
  1985                        	.sym	DEBUGBYTEBITS,0,10,14,8,56
  1986                        	.sym	PFXENVIRONMENT,0,138,14,32,55
  1987                        	.sym	FXENVIRONMENT,0,10,14,96,55
  1988                        	.sym	PFXZEROPAGE,0,138,14,32,54
  1989                        	.sym	FXZEROPAGE,0,10,14,720,54
  1990                        	.sym	IRQBUFFER,0,10,14,32,53
  1991                        	.sym	KERNELTRAPCALL,0,641,14,32
  1992                        	.sym	PFXKERNEL_API_CALLTABLE,0,138,14,32,52
  1993                        	.sym	FXKERNEL_API_CALLTABLE,0,10,14,8192,52
  1994                        	.sym	FOREACHNODEUNTIL,0,654,14,32
  1995                        	.sym	FOREACHNODE,0,641,14,32
  1996                        	.sym	~~k_nodelist_deallocate_list,~~k_nodelis
  Mon Aug  9 2021 16:52                                                Page 42


                    t_deallocate_list,65,18,0
  1997                        	.sym	PFXRFHEADER_STRING_ENTRY,0,138,14,32,51
  1998                        	.sym	FXRFHEADER_STRING_ENTRY,0,10,14,40,51
  1999                        	.sym	PFXRFHEADER_STRING,0,138,14,32,50
  2000                        	.sym	FXRFHEADER_STRING,0,10,14,32,50
  2001                        	.sym	PFXRFHEADER_FONT,0,138,14,32,49
  2002                        	.sym	FXRFHEADER_FONT,0,10,14,144,49
  2003                        	.sym	PFXRFHEADER,0,138,14,32,48
  2004                        	.sym	FXRFHEADER,0,10,14,72,48
  2005                        	.sym	PFXCOMBUFFER,0,138,14,32,47
  2006                        	.sym	FXCOMBUFFER,0,10,14,2080,47
  2007                        	.sym	PSUBMENULIST,0,138,14,32,46
  2008                        	.sym	SUBMENULIST,0,10,14,40,46
  2009                        	.sym	HSUBMENU,0,7,14,32
  2010                        	.sym	PSUBMENU,0,138,14,32,45
  2011                        	.sym	SUBMENU,0,10,14,64,45
  2012                        	.sym	MenuAction,0,641,14,32
  2013                        	.sym	PMENUANCHOR,0,138,14,32,44
  2014                        	.sym	MENUANCHOR,0,10,14,272,44
  2015                        	.sym	PMSGBOX,0,138,14,32,43
  2016                        	.sym	MSGBOX,0,10,14,144,43
  2017                        	.sym	PTEXTBOX,0,138,14,32,42
  2018                        	.sym	TEXTBOX,0,10,14,144,42
  2019                        	.sym	PLISTBOX,0,138,14,32,41
  2020                        	.sym	LISTBOX,0,10,14,240,41
  2021                        	.sym	PSCROLLBAR,0,138,14,32,40
  2022                        	.sym	SCROLLBAR,0,10,14,240,40
  2023                        	.sym	PBUTTON,0,138,14,32,39
  2024                        	.sym	BUTTON,0,10,14,96,39
  2025                        	.sym	PMENUDROPDOWNDATA,0,138,14,32,38
  2026                        	.sym	MENUDROPDOWNDATA,0,10,14,5152,38
  2027                        	.sym	PMENUTAG,0,138,14,32,37
  2028                        	.sym	MENUTAG,0,10,14,160,37
  2029                        	.sym	PMENU,0,138,14,32,36
  2030                        	.sym	MENU,0,10,14,280,36
  2031                        	.sym	HMENURESOURCE,0,129,14,32
  2032                        	.sym	FONTMETRIC,0,10,14,32,35
  2033                        	.sym	TITLE,0,142,14,32
  2034                        	.sym	PHANDLE,0,1153,14,32
  2035                        	.sym	HANDLE,0,129,14,32
  2036                        	.sym	PWINDOWEX,0,138,14,32,34
  2037                        	.sym	WINDOWEX,0,10,14,3880,34
  2038                        	.sym	PWINDOW,0,138,14,32,33
  2039                        	.sym	WINDOW,0,10,14,3904,33
  2040                        	.sym	PDRAGDATA,0,138,14,32,32
  2041                        	.sym	DRAGDATA,0,10,14,216,32
  2042                        	.sym	PNCCLICKABLE,0,138,14,32,31
  2043                        	.sym	NCCLICKABLE,0,10,14,136,31
  2044                        	.sym	HCLICKABLE,0,7,14,32
  2045                        	.sym	PCLICKABLE,0,138,14,32,30
  2046                        	.sym	CLICKABLE,0,10,14,152,30
  2047                        	.sym	PWNDCLASS,0,138,14,32,29
  2048                        	.sym	WNDCLASS,0,10,14,272,29
  2049                        	.sym	HBRUSH,0,129,14,32
  2050                        	.sym	HCURSOR,0,129,14,32
  2051                        	.sym	HICON,0,129,14,32
  2052                        	.sym	HINSTANCE,0,129,14,32
  2053                        	.sym	FXWndProc,0,654,14,32
  Mon Aug  9 2021 16:52                                                Page 43


  2054                        	.sym	PDRECT,0,138,14,32,28
  2055                        	.sym	DRECT,0,10,14,112,28
  2056                        	.sym	PRECTP,0,138,14,32,27
  2057                        	.sym	RECTP,0,10,14,96,27
  2058                        	.sym	PRECT,0,138,14,32,26
  2059                        	.sym	RECT,0,10,14,112,26
  2060                        	.sym	PPOINT,0,138,14,32,25
  2061                        	.sym	POINT,0,10,14,32,25
  2062                        	.sym	PFXPROPERTY,0,138,14,32,23
  2063                        	.sym	FXPROPERTY,0,10,14,384,23
  2064                        	.sym	PKEYSTATE,0,138,14,32,22
  2065                        	.sym	KEYSTATE,0,10,14,112,22
  2066                        	.sym	SCANCODE,0,14,14,8
  2067                        	.sym	KEYCODE,0,16,14,16
  2068                        	.sym	PFXPROCESSMESSAGE,0,138,14,32,21
  2069                        	.sym	FXPROCESSMESSAGE,0,10,14,112,21
  2070                        	.sym	PFXPROCESS,0,138,14,32,20
  2071                        	.sym	FXPROCESS,0,10,14,800,20
  2072                        	.sym	PDESKTOP_CONTROL,0,138,14,32,19
  2073                        	.sym	DESKTOP_CONTROL,0,10,14,392,19
  2074                        	.sym	PCONSOLE_CONTROL,0,138,14,32,18
  2075                        	.sym	CONSOLE_CONTROL,0,10,14,448,18
  2076                        	.sym	FXProcessProc,0,641,14,32
  2077                        	.sym	PFXCMDMESSAGE,0,138,14,32,17
  2078                        	.sym	FXCMDMESSAGE,0,10,14,312,17
  2079                        	.sym	PFXOSMESSAGE,0,138,14,32,16
  2080                        	.sym	FXOSMESSAGE,0,10,14,312,16
  2081                        	.sym	PINT_REGS,0,138,14,32,15
  2082                        	.sym	INT_REGS,0,10,14,104,15
  2083                        	.sym	TASK_STACK,0,10,14,32,14
  2084                        	.sym	TASK,0,10,14,48,13
  2085                        	.sym	PIRQDATA,0,138,14,32,12
  2086                        	.sym	IRQDATA,0,10,14,48,12
  2087                        	.sym	HMENU,0,129,14,32
  2088                        	.sym	HWND,0,129,14,32
  2089                        	.sym	MSGDATA,0,14,14,8
  2090                        	.sym	MSGDEST,0,18,14,32
  2091                        	.sym	MSGSRC,0,18,14,32
  2092                        	.sym	MSGTYPE,0,16,14,16
  2093                        	.sym	PROCESS_RESOURCE_LIST,0,138,14,32,6
  2094                        	.sym	PROCESS_TLS_LIST,0,138,14,32,6
  2095                        	.sym	SEMAPHORE_LIST,0,138,14,32,6
  2096                        	.sym	FILE_BLOCK_LIST,0,138,14,32,6
  2097                        	.sym	FILE_PATH_LIST,0,138,14,32,6
  2098                        	.sym	PROCEDURE_LIST,0,138,14,32,6
  2099                        	.sym	FILE_HANDLE,0,138,14,32,11
  2100                        	.sym	FILE_BLOCK,0,10,14,552,11
  2101                        	.sym	SEMAPHORE,0,10,14,16,10
  2102                        	.sym	PPROCESS_SIGNAL,0,138,14,32,9
  2103                        	.sym	PROCESS_SIGNAL,0,10,14,16,9
  2104                        	.sym	KRESULT,0,18,14,32
  2105                        	.sym	PKERNEL_ERROR,0,138,14,32,8
  2106                        	.sym	KERNEL_ERROR,0,10,14,32,8
  2107                        	.sym	PROCESS_STATUS,0,16,14,16
  2108                        	.sym	FILE_PATH_NAME,0,142,14,32
  2109                        	.sym	PROCESS_RESOURCE,0,129,14,32
  2110                        	.sym	PROCESS_TLS,0,129,14,32
  2111                        	.sym	PROCESS_CTX,0,129,14,32
  Mon Aug  9 2021 16:52                                                Page 44


  2112                        	.sym	USERID,0,16,14,16
  2113                        	.sym	PROCESS_ID,0,18,14,32
  2114                        	.sym	PROCESS_BANK,0,14,14,8
  2115                        	.sym	PFXQUEUE,0,138,14,32,7
  2116                        	.sym	FXQUEUE,0,10,14,80,7
  2117                        	.sym	PFXNODELIST,0,138,14,32,6
  2118                        	.sym	FXNODELIST,0,10,14,96,6
  2119                        	.sym	NodeListDeallocator,0,641,14,32
  2120                        	.sym	PFXNODE,0,138,14,32,5
  2121                        	.sym	FXNODE,0,10,14,384,5
  2122                        	.sym	PBYTEBITS,0,138,14,32,4
  2123                        	.sym	BYTEBITS,0,10,14,8,4
  2124                        	.sym	HRESULT,0,18,14,32
  2125                        	.sym	LPWCHAR,0,144,14,32
  2126                        	.sym	WCHAR,0,16,14,16
  2127                        	.sym	HSTRINGTABLE,0,129,14,32
  2128                        	.sym	HCOLOR,0,129,14,32
  2129                        	.sym	HFONT,0,129,14,32
  2130                        	.sym	HDC,0,129,14,32
  2131                        	.sym	HPOINTER,0,129,14,32
  2132                        	.sym	uint32_t,0,18,14,32
  2133                        	.sym	uint8_t,0,14,14,8
  2134                        	.sym	LPBOOL,0,142,14,32
  2135                        	.sym	BOOL,0,14,14,8
  2136                        	.sym	DWORD,0,18,14,32
  2137                        	.sym	ULONG,0,18,14,32
  2138                        	.sym	LPLONG,0,135,14,32
  2139                        	.sym	LONG,0,7,14,32
  2140                        	.sym	PUINT,0,144,14,32
  2141                        	.sym	USHORT,0,16,14,16
  2142                        	.sym	UINT,0,16,14,16
  2143                        	.sym	INT,0,5,14,16
  2144                        	.sym	WORD,0,5,14,16
  2145                        	.sym	PBYTE,0,142,14,32
  2146                        	.sym	BYTE,0,14,14,8
  2147                        	.sym	IOPORT,0,142,14,32
  2148                        	.sym	PUCHAR,0,142,14,32
  2149                        	.sym	UCHAR,0,14,14,8
  2150                        	.sym	LPWCSTR,0,142,14,32
  2151                        	.sym	LPCSTR,0,142,14,32
  2152                        	.sym	LPSTR,0,142,14,32
  2153                        	.sym	LPCHAR,0,142,14,32
  2154                        	.sym	CHAR,0,14,14,8
  2155                        	.sym	PUINT_32,0,146,14,32
  2156                        	.sym	UINT_32,0,18,14,32
  2157                        	.sym	PUINT_16,0,144,14,32
  2158                        	.sym	UINT_16,0,16,14,16
  2159                        	.sym	PUINT_8,0,142,14,32
  2160                        	.sym	UINT_8,0,14,14,8
  2161                        	.sym	LPVOID,0,129,14,32
  2162                        	.sym	VOID,0,1,14,32
  2163                        	.sym	~~memset,~~memset,1089,18,32
  2164                        	.sym	Boolean_T,0,5,14,16
  2165                        	.sym	ldiv_t,0,10,14,64,2
  2166                        	.sym	div_t,0,10,14,32,1
  2167                        	.sym	wctype_t,0,16,14,16
  2168                        	.sym	wint_t,0,16,14,16
  2169                        	.sym	wchar_t,0,14,14,8
  Mon Aug  9 2021 16:52                                                Page 45


  2170                        	.sym	ptrdiff_t,0,7,14,32
  2171                        	.sym	size_t,0,16,14,16
  2172                        	end


      Lines assembled: 2172
      Errors: 0
