  Mon Aug  9 2021 16:52                                                Page 1


                     ***************************************
                     **      WDC 65C816 Macro Assembler   **
                     **                                   **
                     **     Version 3.49.1- Feb  6 2006    **
                     ***************************************

     1                        ;:ts=8
     2             00000001   R0	equ	1
     3             00000005   R1	equ	5
     4             00000009   R2	equ	9
     5             0000000D   R3	equ	13
     6                        	.file	"G:\devprojects\c256Foenix\fxos\FXOSWork
                    space\FXOS-Beta\src\fxnode.c",0
     7                        ;/*
     8                        ; * fxnode.c
     9                        ;
    10                        ; *
    11                        ; *  Created on: Aug 16, 2019
    12                        ; *      Author: mtbush
    13                        ; */
    14                        ;//#include <stdlib.h>
    15                        ;#include "fxnode.h"
    16                        	.file	"G:\devprojects\c256Foenix\fxos\FXOSWork
                    space\FXOS-Beta\src\fxnode.h",0
    17                        	.file	"G:\devprojects\c256Foenix\fxos\FXOSWork
                    space\FXOS-Beta\src\fxtypes.h",0
    18                        	.stag	_fx_bytebits,8,1
    19                        	.member	b7,0,14,17,1
    20                        	.member	b6,1,14,17,1
    21                        	.member	b5,2,14,17,1
    22                        	.member	b4,3,14,17,1
    23                        	.member	b3,4,14,17,1
    24                        	.member	b2,5,14,17,1
    25                        	.member	b1,6,14,17,1
    26                        	.member	b0,7,14,17,1
    27                        	.eos
    28                        	.stag	_fx_node,384,2
    29                        	.member	type,0,14,8,8
    30                        	.member	Reserved0,8,14,8,8
    31                        	.member	data,16,129,8,32
    32                        	.member	last,48,138,8,32,2
    33                        	.member	next,80,138,8,32,2
    34                        	.member	name,112,110,8,0,32
    35                        	.member	Reserved1,368,16,8,16
    36                        	.eos
    37                        	.stag	_fx_nodelist,96,3
    38                        	.member	listhead,0,138,8,32,2
    39                        	.member	listData,32,129,8,32
    40                        	.member	deallocator,64,641,8,32
    41                        	.eos
    42                        	.stag	_fx_queue,80,4
    43                        	.member	count,0,5,8,16
    44                        	.member	front,16,138,8,32,2
    45                        	.member	rear,48,138,8,32,2
    46                        	.eos
    47                        	.stag	fake5_,32,5
    48                        	.member	subsystem,0,14,8,8
    49                        	.member	level,8,14,8,8
  Mon Aug  9 2021 16:52                                                Page 2


    50                        	.member	error,16,16,8,16
    51                        	.eos
    52                        	.stag	_fx_process_signal,16,6
    53                        	.member	cbSize,0,16,8,16
    54                        	.eos
    55                        	.stag	_fx_semaphore,16,7
    56                        	.member	reserved,0,5,8,16
    57                        	.eos
    58                        	.stag	_fx_fileBlock,552,8
    59                        	.member	openCount,0,16,8,16
    60                        	.member	lockCount,16,16,8,16
    61                        	.member	dirty,32,14,8,8
    62                        	.member	fileBuffer,40,110,8,0,64
    63                        	.eos
    64                        	.stag	_fx_irq_data,48,9
    65                        	.member	line,0,5,8,16
    66                        	.member	keycode,16,142,8,32
    67                        	.eos
    68                        	.stag	_task,48,10
    69                        	.member	SPL,0,14,8,8
    70                        	.member	SPH,8,14,8,8
    71                        	.member	pstack,16,142,8,32
    72                        	.eos
    73                        	.stag	_task_stack,32,11
    74                        	.member	SS,0,142,8,32
    75                        	.eos
    76                        	.stag	int_regs,104,12
    77                        	.member	PB,0,14,8,8
    78                        	.member	PH,8,14,8,8
    79                        	.member	PL,16,14,8,8
    80                        	.member	PP,24,14,8,8
    81                        	.member	DB,32,14,8,8
    82                        	.member	DH,40,14,8,8
    83                        	.member	DL,48,14,8,8
    84                        	.member	AH,56,14,8,8
    85                        	.member	AL,64,14,8,8
    86                        	.member	XH,72,14,8,8
    87                        	.member	XL,80,14,8,8
    88                        	.member	YH,88,14,8,8
    89                        	.member	YL,96,14,8,8
    90                        	.eos
    91                        	.stag	_fx_eventMessage,312,13
    92                        	.member	src,0,18,8,32
    93                        	.member	dest,32,18,8,32
    94                        	.member	type,64,16,8,16
    95                        	.member	hwnd,80,129,8,32
    96                        	.member	pheap,112,129,8,32
    97                        	.member	msgTime,144,18,8,32
    98                        	.member	data,176,110,8,0,16
    99                        	.member	attr,304,14,8,8
   100                        	.eos
   101                        	.stag	_fx_cmdMessage,312,14
   102                        	.member	src,0,18,8,32
   103                        	.member	dest,32,18,8,32
   104                        	.member	type,64,16,8,16
   105                        	.member	hwnd,80,129,8,32
   106                        	.member	pheap,112,129,8,32
   107                        	.member	msgTime,144,18,8,32
  Mon Aug  9 2021 16:52                                                Page 3


   108                        	.member	cmdCId,176,16,8,16
   109                        	.member	cmdMId,192,16,8,16
   110                        	.member	parameter1,208,18,8,32
   111                        	.member	parameter2,240,18,8,32
   112                        	.member	parameter3,272,18,8,32
   113                        	.member	attr,304,14,8,8
   114                        	.eos
   115                        	.stag	_fx_console_ctl,448,15
   116                        	.member	maxCols,0,5,8,16
   117                        	.member	maxRows,16,5,8,16
   118                        	.member	curX,32,5,8,16
   119                        	.member	curY,48,5,8,16
   120                        	.member	fgColor,64,5,8,16
   121                        	.member	bgColor,80,5,8,16
   122                        	.member	mode,96,14,8,8
   123                        	.member	kbBuffer,104,101,8,0,16
   124                        	.member	screenBuffer,360,142,8,32
   125                        	.member	desktopMode,392,14,8,8
   126                        	.member	lastMouseButton,400,5,8,16
   127                        	.member	lastMouseX,416,5,8,16
   128                        	.member	lastMouseY,432,5,8,16
   129                        	.eos
   130                        	.stag	_fx_desktop_ctl,392,16
   131                        	.member	desktopMode,0,14,8,8
   132                        	.member	cursorCtl,8,5,8,16
   133                        	.member	cursorState,24,5,8,16
   134                        	.member	backgroundColor,40,5,8,16
   135                        	.member	foregroundColor,56,5,8,16
   136                        	.member	menuMode,72,5,8,16
   137                        	.member	lastMouseButton,88,5,8,16
   138                        	.member	lastMouseX,104,5,8,16
   139                        	.member	lastMouseY,120,5,8,16
   140                        	.member	currentDiskName,136,142,8,32
   141                        	.member	diskNodes,168,129,8,32
   142                        	.member	titleNodes,200,129,8,32
   143                        	.member	menuNodes,232,129,8,32
   144                        	.member	iconNodes,264,129,8,32
   145                        	.member	windowNodes,296,129,8,32
   146                        	.member	fontNodes,328,129,8,32
   147                        	.member	wndProc,360,138,8,32,3
   148                        	.eos
   149                        	.stag	_fx_process,800,17
   150                        	.member	cbSize,0,5,8,16
   151                        	.member	procId,16,18,8,32
   152                        	.member	parentId,48,18,8,32
   153                        	.member	ctx,80,129,8,32
   154                        	.member	userId,112,16,8,16
   155                        	.member	status,128,16,8,16
   156                        	.member	foregroundActive,144,14,8,8
   157                        	.member	tls,152,1121,8,32,8
   158                        	.member	commandLine,408,142,8,32
   159                        	.member	semaphores,440,138,8,32,3
   160                        	.member	fileHandles,472,138,8,32,3
   161                        	.member	pathList,504,138,8,32,3
   162                        	.member	resources,536,138,8,32,3
   163                        	.member	timerAware,568,14,8,8
   164                        	.member	timerTicks,576,112,8,0,2
   165                        	.member	timerTickCount,608,112,8,0,2
  Mon Aug  9 2021 16:52                                                Page 4


   166                        	.member	kernelError,640,10,8,32,5
   167                        	.member	consoleCtl,672,138,8,32,15
   168                        	.member	desktopCtl,704,138,8,32,16
   169                        	.member	execProc,736,641,8,32
   170                        	.member	startupArgs,768,129,8,32
   171                        	.eos
   172                        	.stag	_fxProcessMessage,112,18
   173                        	.member	src,0,18,8,32
   174                        	.member	dest,32,18,8,32
   175                        	.member	type,64,16,8,16
   176                        	.member	processInfo,80,138,8,32,17
   177                        	.eos
   178                        	.stag	_k_key_state,112,19
   179                        	.member	scanCode,0,14,8,8
   180                        	.member	isShifted,8,14,8,8
   181                        	.member	isAlt,16,14,8,8
   182                        	.member	isExtended,24,14,8,8
   183                        	.member	isCapsLock,32,14,8,8
   184                        	.member	isNumLock,40,14,8,8
   185                        	.member	isScrollLock,48,14,8,8
   186                        	.member	keyChar,56,16,8,16
   187                        	.member	scanTime,72,18,8,32
   188                        	.member	ledStatus,104,14,8,8
   189                        	.eos
   190                        	.stag	_fx_property,384,20
   191                        	.member	name,0,110,8,0,16
   192                        	.member	value,128,110,8,0,32
   193                        	.eos
   194                        	.utag	_24bitPointer,32,21
   195                        	.member	address,0,142,11,32
   196                        	.member	bytes,0,110,11,0,4
   197                        	.eos
   198                        	.stag	_PointStruct,32,22
   199                        	.member	x,0,5,8,16
   200                        	.member	y,16,5,8,16
   201                        	.eos
   202                        	.stag	_RectStruct,112,23
   203                        	.member	x,0,5,8,16
   204                        	.member	y,16,5,8,16
   205                        	.member	z,32,18,8,32
   206                        	.member	width,64,5,8,16
   207                        	.member	height,80,5,8,16
   208                        	.member	attr,96,5,8,16
   209                        	.eos
   210                        	.stag	fake24_,96,24
   211                        	.member	name,0,142,8,32
   212                        	.member	topLeft,32,10,8,32,22
   213                        	.member	bottomRight,64,10,8,32,22
   214                        	.eos
   215                        	.stag	fake25_,112,25
   216                        	.member	x,0,5,8,16
   217                        	.member	y,16,5,8,16
   218                        	.member	z,32,5,8,16
   219                        	.member	width,48,5,8,16
   220                        	.member	height,64,5,8,16
   221                        	.member	data,80,18,8,32
   222                        	.eos
   223                        	.stag	_k_WindowClass,272,26
  Mon Aug  9 2021 16:52                                                Page 5


   224                        	.member	cbSize,0,16,8,16
   225                        	.member	style,16,16,8,16
   226                        	.member	styleEx,32,16,8,16
   227                        	.member	pWndProc,48,654,8,32
   228                        	.member	hInstance,80,129,8,32
   229                        	.member	hIcon,112,129,8,32
   230                        	.member	hCursor,144,129,8,32
   231                        	.member	hbrBackground,176,129,8,32
   232                        	.member	lpszMenuName,208,142,8,32
   233                        	.member	lpszClassName,240,142,8,32
   234                        	.eos
   235                        	.stag	_ClickableRect,152,27
   236                        	.member	area,0,10,8,112,23
   237                        	.member	z,112,18,8,32
   238                        	.member	enabled,144,14,8,8
   239                        	.eos
   240                        	.stag	_NCClickableRect,136,28
   241                        	.member	area,0,10,8,112,23
   242                        	.member	msgType,112,16,8,16
   243                        	.member	enabled,128,14,8,8
   244                        	.eos
   245                        	.stag	_DragData,216,29
   246                        	.member	area,0,10,8,112,23
   247                        	.member	xoffset,112,5,8,16
   248                        	.member	yoffset,128,5,8,16
   249                        	.member	msgType,144,16,8,16
   250                        	.member	ncAction,160,16,8,16
   251                        	.member	isDrag,176,14,8,8
   252                        	.member	isResize,184,14,8,8
   253                        	.member	canDrag,192,14,8,8
   254                        	.member	canDrop,200,14,8,8
   255                        	.member	didDrag,208,14,8,8
   256                        	.eos
   257                        	.stag	_k_WindowStruct,3904,30
   258                        	.member	cbSize,0,16,8,16
   259                        	.member	style,16,18,8,32
   260                        	.member	styleEx,48,18,8,32
   261                        	.member	win_id,80,5,8,16
   262                        	.member	win_x,96,5,8,16
   263                        	.member	win_y,112,5,8,16
   264                        	.member	win_width,128,5,8,16
   265                        	.member	win_height,144,5,8,16
   266                        	.member	win_xoffset,160,5,8,16
   267                        	.member	win_yoffset,176,5,8,16
   268                        	.member	win_cxoffset,192,5,8,16
   269                        	.member	win_cyoffset,208,5,8,16
   270                        	.member	wndRect,224,10,8,112,23
   271                        	.member	clientRect,336,10,8,112,23
   272                        	.member	nonclientGadgets,448,106,8,0,28,16
   273                        	.member	clickable,2624,129,8,32
   274                        	.member	win_title,2656,110,8,0,32
   275                        	.member	Reserved0,2912,16,8,16
   276                        	.member	win_class,2928,110,8,0,16
   277                        	.member	win_class_name,3056,110,8,0,32
   278                        	.member	nBitmapLayer,3312,16,8,16
   279                        	.member	bgRegion,3328,129,8,32
   280                        	.member	procid,3360,18,8,32
   281                        	.member	pWndClass,3392,138,8,32,26
  Mon Aug  9 2021 16:52                                                Page 6


   282                        	.member	pParentWindow,3424,129,8,32
   283                        	.member	hMenu,3456,129,8,32
   284                        	.member	hPointer,3488,129,8,32
   285                        	.member	hBackground,3520,129,8,32
   286                        	.member	pChildWindows,3552,138,8,32,3
   287                        	.member	pChildHitList,3584,138,8,32,3
   288                        	.member	isVisible,3616,14,8,8
   289                        	.member	windowData,3624,129,8,32
   290                        	.member	clientData,3656,1121,8,32,6
   291                        	.member	isClosed,3848,14,8,8
   292                        	.member	isClosing,3856,14,8,8
   293                        	.member	isDesktop,3864,14,8,8
   294                        	.member	clickableNode,3872,138,8,32,2
   295                        	.eos
   296                        	.stag	_k_WindowStructEx,3880,31
   297                        	.member	cbSize,0,16,8,16
   298                        	.member	style,16,18,8,32
   299                        	.member	styleEx,48,18,8,32
   300                        	.member	win_id,80,5,8,16
   301                        	.member	win_x,96,5,8,16
   302                        	.member	win_y,112,5,8,16
   303                        	.member	win_width,128,5,8,16
   304                        	.member	win_height,144,5,8,16
   305                        	.member	win_xoffset,160,5,8,16
   306                        	.member	win_yoffset,176,5,8,16
   307                        	.member	win_cxoffset,192,5,8,16
   308                        	.member	win_cyoffset,208,5,8,16
   309                        	.member	wndRect,224,10,8,112,23
   310                        	.member	clientRect,336,10,8,112,23
   311                        	.member	nonclientGadgets,448,106,8,0,28,16
   312                        	.member	clickable,2624,129,8,32
   313                        	.member	win_title,2656,110,8,0,32
   314                        	.member	Reserved0,2912,16,8,16
   315                        	.member	win_class,2928,110,8,0,16
   316                        	.member	nBitmapLayer,3056,16,8,16
   317                        	.member	procid,3072,18,8,32
   318                        	.member	pWndClass,3104,138,8,32,26
   319                        	.member	pParentWindow,3136,129,8,32
   320                        	.member	hMenu,3168,129,8,32
   321                        	.member	hPointer,3200,129,8,32
   322                        	.member	hBackground,3232,129,8,32
   323                        	.member	pChildWindows,3264,138,8,32,3
   324                        	.member	pChildHitList,3296,138,8,32,3
   325                        	.member	isVisible,3328,14,8,8
   326                        	.member	windowData,3336,129,8,32
   327                        	.member	clientData,3368,1121,8,32,4
   328                        	.member	isClosed,3496,14,8,8
   329                        	.member	hWnd,3504,129,8,32
   330                        	.member	localRect,3536,10,8,112,23
   331                        	.member	globalRect,3648,10,8,112,23
   332                        	.member	clientOffsetRect,3760,10,8,112,23
   333                        	.member	isDesktop,3872,14,8,8
   334                        	.eos
   335                        	.stag	_FontMetric,32,32
   336                        	.member	width,0,5,8,16
   337                        	.member	height,16,5,8,16
   338                        	.eos
   339                        	.stag	_MenuStruct,280,33
  Mon Aug  9 2021 16:52                                                Page 7


   340                        	.member	cx,0,5,8,16
   341                        	.member	cy,16,5,8,16
   342                        	.member	width,32,5,8,16
   343                        	.member	height,48,5,8,16
   344                        	.member	fcolor,64,14,8,8
   345                        	.member	bcolor,72,14,8,8
   346                        	.member	chromeLeft,80,14,8,8
   347                        	.member	chromeRight1,88,14,8,8
   348                        	.member	chromeRight2,96,14,8,8
   349                        	.member	hFont,104,129,8,32
   350                        	.member	itemId,136,16,8,16
   351                        	.member	pCaption,152,142,8,32
   352                        	.member	subMenus,184,138,8,32,3
   353                        	.member	pBackground,216,129,8,32
   354                        	.member	hWndOwner,248,129,8,32
   355                        	.eos
   356                        	.stag	fake34_,160,34
   357                        	.member	menuId,0,16,8,16
   358                        	.member	caption,16,142,8,32
   359                        	.member	rect,48,10,8,112,23
   360                        	.eos
   361                        	.stag	fake35_,5152,35
   362                        	.member	pParent,0,138,8,32,30
   363                        	.member	rect,32,10,8,112,23
   364                        	.member	captions,144,1134,8,32,24
   365                        	.member	chrome,912,110,8,0,24
   366                        	.member	ids,1104,112,8,0,24
   367                        	.member	clickable,1488,106,8,0,27,24
   368                        	.member	selected,5136,16,8,16
   369                        	.eos
   370                        	.stag	_fx_button_t,96,36
   371                        	.member	pCaption,0,142,8,32
   372                        	.member	cCaption,32,16,8,16
   373                        	.member	data,48,129,8,32
   374                        	.member	captionPixelWidth,80,16,8,16
   375                        	.eos
   376                        	.stag	_fx_scrollbar_t,240,37
   377                        	.member	min,0,16,8,16
   378                        	.member	max,16,16,8,16
   379                        	.member	increment,32,16,8,16
   380                        	.member	stopsize,48,16,8,16
   381                        	.member	location,64,5,8,16
   382                        	.member	state,80,5,8,16
   383                        	.member	rectThumb,96,10,8,112,23
   384                        	.member	data,208,129,8,32
   385                        	.eos
   386                        	.stag	_fx_listbox_t,240,38
   387                        	.member	pos,0,5,8,16
   388                        	.member	selected,16,16,8,16
   389                        	.member	offsetX,32,5,8,16
   390                        	.member	offsetY,48,5,8,16
   391                        	.member	inc,64,5,8,16
   392                        	.member	direction,80,5,8,16
   393                        	.member	top,96,5,8,16
   394                        	.member	bottom,112,5,8,16
   395                        	.member	indexTop,128,5,8,16
   396                        	.member	indexBottom,144,5,8,16
   397                        	.member	maxItems,160,16,8,16
  Mon Aug  9 2021 16:52                                                Page 8


   398                        	.member	fontSet,176,142,8,32
   399                        	.member	data,208,129,8,32
   400                        	.eos
   401                        	.stag	_fx_textbox_t,144,39
   402                        	.member	pos,0,5,8,16
   403                        	.member	selected,16,16,8,16
   404                        	.member	offsetX,32,5,8,16
   405                        	.member	offsetY,48,5,8,16
   406                        	.member	isShifted,64,14,8,8
   407                        	.member	cursorState,72,14,8,8
   408                        	.member	fontSet,80,142,8,32
   409                        	.member	data,112,129,8,32
   410                        	.eos
   411                        	.stag	_fx_msgbox_t,144,40
   412                        	.member	pos,0,5,8,16
   413                        	.member	selected,16,16,8,16
   414                        	.member	offsetX,32,5,8,16
   415                        	.member	offsetY,48,5,8,16
   416                        	.member	isShifted,64,14,8,8
   417                        	.member	cursorState,72,14,8,8
   418                        	.member	fontSet,80,142,8,32
   419                        	.member	data,112,129,8,32
   420                        	.eos
   421                        	.stag	_fx_menuAnchor_t,272,41
   422                        	.member	pCaption,0,142,8,32
   423                        	.member	renderLayoutX,32,16,8,16
   424                        	.member	renderLayoutY,48,16,8,16
   425                        	.member	captionPixelWidth,64,16,8,16
   426                        	.member	data,80,129,8,32
   427                        	.member	droppedWindow,112,138,8,32,30
   428                        	.member	bytes,144,110,8,0,16
   429                        	.eos
   430                        	.stag	_SubMenuStruct,64,42
   431                        	.member	caption,0,142,8,32
   432                        	.member	action,32,641,8,32
   433                        	.eos
   434                        	.stag	_SubMenuListStruct,40,43
   435                        	.member	cMenus,0,14,8,8
   436                        	.member	psubmenus,8,9354,8,32,42
   437                        	.eos
   438                        	.stag	_fx_ComBuffer,2080,44
   439                        	.member	cbSize,0,16,8,16
   440                        	.member	cbBuffer,16,16,8,16
   441                        	.member	buffer,32,110,8,0,256
   442                        	.eos
   443                        	.stag	_fx_resource_header,72,45
   444                        	.member	magic,0,110,8,0,4
   445                        	.member	major,32,14,8,8
   446                        	.member	minor,40,14,8,8
   447                        	.member	type,48,14,8,8
   448                        	.member	reserved,56,14,8,8
   449                        	.member	resheaderSize,64,14,8,8
   450                        	.eos
   451                        	.stag	_fx_resource_header_font,144,46
   452                        	.member	title,0,110,8,0,16
   453                        	.member	height,128,14,8,8
   454                        	.member	width,136,14,8,8
   455                        	.eos
  Mon Aug  9 2021 16:52                                                Page 9


   456                        	.stag	_fx_resource_string,32,47
   457                        	.member	locale,0,110,8,0,2
   458                        	.member	entries,16,16,8,16
   459                        	.eos
   460                        	.stag	_fx_resource_string_entry,40,48
   461                        	.member	index,0,16,8,16
   462                        	.member	length,16,16,8,16
   463                        	.member	data,32,14,8,8
   464                        	.eos
   465                        	.line	1064
   466                        	.file	"G:\devprojects\c256Foenix\fxos\FXOSWork
                    space\FXOS-Beta\src\fxnode.h",11
   467                        	.line	118
   468                        	.file	"G:\devprojects\c256Foenix\fxos\FXOSWork
                    space\FXOS-Beta\src\fxnode.c",9
   469                        ;#include "fxkernel.h"
   470                        	.file	"G:\devprojects\c256Foenix\fxos\FXOSWork
                    space\FXOS-Beta\src\fxkernel.h",0
   471                        	.file	"G:\devprojects\c256Foenix\fxos\FXOSWork
                    space\FXOS-Beta\src\fxos.h",0
   472                        	.file	"G:\devtools\WDCTools\wdc\Tools\include\
                    stdlib.h",0
   473                        	.file	"G:\devtools\WDCTools\wdc\Tools\include\
                    stddef.h",0
   474                        	.line	88
   475                        	.file	"G:\devtools\WDCTools\wdc\Tools\include\
                    stdlib.h",43
   476                        	.stag	fake49_,32,49
   477                        	.member	quot,0,5,8,16
   478                        	.member	rem,16,5,8,16
   479                        	.eos
   480                        	.stag	fake50_,64,50
   481                        	.member	quot,0,7,8,32
   482                        	.member	rem,32,7,8,32
   483                        	.eos
   484                        	.stag	int_sqrt,32,51
   485                        	.member	sqrt,0,16,8,16
   486                        	.member	frac,16,16,8,16
   487                        	.eos
   488                        	.line	205
   489                        	.file	"G:\devprojects\c256Foenix\fxos\FXOSWork
                    space\FXOS-Beta\src\fxos.h",4
   490                        	.file	"G:\devtools\WDCTools\wdc\Tools\include\
                    string.h",0
   491                        	.line	134
   492                        	.file	"G:\devprojects\c256Foenix\fxos\FXOSWork
                    space\FXOS-Beta\src\fxos.h",5
   493                        	.file	"G:\devtools\WDCTools\wdc\Tools\include\
                    ctype.h",0
   494                        	.line	103
   495                        	.file	"G:\devprojects\c256Foenix\fxos\FXOSWork
                    space\FXOS-Beta\src\fxos.h",6
   496                        	.file	"G:\devprojects\c256Foenix\fxos\FXOSWork
                    space\FXOS-Beta\src\fxtypes.h",0
   497                        	.line	1064
   498                        	.file	"G:\devprojects\c256Foenix\fxos\FXOSWork
                    space\FXOS-Beta\src\fxos.h",8
   499                        	.file	"G:\devprojects\c256Foenix\fxos\FXOSWork
  Mon Aug  9 2021 16:52                                                Page 10


                    space\FXOS-Beta\src\fxstringtable.h",0
   500                        	.line	90
   501                        	.file	"G:\devprojects\c256Foenix\fxos\FXOSWork
                    space\FXOS-Beta\src\fxos.h",9
   502                        	.file	"G:\devprojects\c256Foenix\fxos\FXOSWork
                    space\FXOS-Beta\src\fxc256u.h",0
   503                        	.file	"G:\devprojects\c256Foenix\fxos\FXOSWork
                    space\FXOS-Beta\src\fxtypes.h",0
   504                        	.line	1064
   505                        	.file	"G:\devprojects\c256Foenix\fxos\FXOSWork
                    space\FXOS-Beta\src\fxc256u.h",5
   506                        	.file	"G:\devprojects\c256Foenix\fxos\FXOSWork
                    space\FXOS-Beta\src\fmx_vicky.h",0
   507                        	.file	"G:\devprojects\c256Foenix\fxos\FXOSWork
                    space\FXOS-Beta\src\fxtypes.h",0
   508                        	.line	1064
   509                        	.file	"G:\devprojects\c256Foenix\fxos\FXOSWork
                    space\FXOS-Beta\src\fmx_vicky.h",11
   510                        	.line	72
   511                        	.file	"G:\devprojects\c256Foenix\fxos\FXOSWork
                    space\FXOS-Beta\src\fxc256u.h",6
   512                        	.line	1960
   513                        	.file	"G:\devprojects\c256Foenix\fxos\FXOSWork
                    space\FXOS-Beta\src\fxos.h",16
   514                        	.file	"G:\devprojects\c256Foenix\fxos\FXOSWork
                    space\FXOS-Beta\src\fxkernel.h",0
   515                        	.line	490
   516                        	.file	"G:\devprojects\c256Foenix\fxos\FXOSWork
                    space\FXOS-Beta\src\fxos.h",22
   517                        	.file	"G:\devprojects\c256Foenix\fxos\FXOSWork
                    space\FXOS-Beta\src\fxconsole.h",0
   518                        	.file	"G:\devtools\WDCTools\wdc\Tools\include\
                    string.h",0
   519                        	.line	134
   520                        	.file	"G:\devprojects\c256Foenix\fxos\FXOSWork
                    space\FXOS-Beta\src\fxconsole.h",5
   521                        	.file	"G:\devtools\WDCTools\wdc\Tools\include\
                    stdlib.h",0
   522                        	.line	205
   523                        	.file	"G:\devprojects\c256Foenix\fxos\FXOSWork
                    space\FXOS-Beta\src\fxconsole.h",6
   524                        	.file	"G:\devprojects\c256Foenix\fxos\FXOSWork
                    space\FXOS-Beta\src\fxtypes.h",0
   525                        	.line	1064
   526                        	.file	"G:\devprojects\c256Foenix\fxos\FXOSWork
                    space\FXOS-Beta\src\fxconsole.h",7
   527                        	.file	"G:\devprojects\c256Foenix\fxos\FXOSWork
                    space\FXOS-Beta\src\fxc256u.h",0
   528                        	.line	1960
   529                        	.file	"G:\devprojects\c256Foenix\fxos\FXOSWork
                    space\FXOS-Beta\src\fxconsole.h",12
   530                        	.file	"G:\devprojects\c256Foenix\fxos\FXOSWork
                    space\FXOS-Beta\src\fxstring.h",0
   531                        	.file	"G:\devtools\WDCTools\wdc\Tools\include\
                    stdlib.h",0
   532                        	.line	205
   533                        	.file	"G:\devprojects\c256Foenix\fxos\FXOSWork
                    space\FXOS-Beta\src\fxstring.h",5
  Mon Aug  9 2021 16:52                                                Page 11


   534                        	.file	"G:\devtools\WDCTools\wdc\Tools\include\
                    string.h",0
   535                        	.line	134
   536                        	.file	"G:\devprojects\c256Foenix\fxos\FXOSWork
                    space\FXOS-Beta\src\fxstring.h",6
   537                        	.file	"G:\devprojects\c256Foenix\fxos\FXOSWork
                    space\FXOS-Beta\src\fxtypes.h",0
   538                        	.line	1064
   539                        	.file	"G:\devprojects\c256Foenix\fxos\FXOSWork
                    space\FXOS-Beta\src\fxstring.h",7
   540                        	.stag	_fx_string,64,52
   541                        	.member	size,0,16,8,16
   542                        	.member	pos,16,5,8,16
   543                        	.member	buffer,32,142,8,32
   544                        	.eos
   545                        	.line	141
   546                        	.file	"G:\devprojects\c256Foenix\fxos\FXOSWork
                    space\FXOS-Beta\src\fxconsole.h",17
   547                        	.file	"G:\devprojects\c256Foenix\fxos\FXOSWork
                    space\FXOS-Beta\src\fxeventmanager.h",0
   548                        	.file	"G:\devprojects\c256Foenix\fxos\FXOSWork
                    space\FXOS-Beta\src\fxos.h",0
   549                        	.line	30
   550                        	.file	"G:\devprojects\c256Foenix\fxos\FXOSWork
                    space\FXOS-Beta\src\fxeventmanager.h",5
   551                        	.file	"G:\devprojects\c256Foenix\fxos\FXOSWork
                    space\FXOS-Beta\src\fxexec.h",0
   552                        	.file	"G:\devprojects\c256Foenix\fxos\FXOSWork
                    space\FXOS-Beta\src\fxtypes.h",0
   553                        	.line	1064
   554                        	.file	"G:\devprojects\c256Foenix\fxos\FXOSWork
                    space\FXOS-Beta\src\fxexec.h",5
   555                        	.stag	_fxos_executive_vtable,128,53
   556                        	.member	Init,0,8833,8,32
   557                        	.member	Configure,32,656,8,32
   558                        	.member	Query,64,656,8,32
   559                        	.member	Uninit,96,641,8,32
   560                        	.eos
   561                        	.line	86
   562                        	.file	"G:\devprojects\c256Foenix\fxos\FXOSWork
                    space\FXOS-Beta\src\fxeventmanager.h",6
   563                        	.file	"G:\devprojects\c256Foenix\fxos\FXOSWork
                    space\FXOS-Beta\src\fxnode.h",0
   564                        	.line	118
   565                        	.file	"G:\devprojects\c256Foenix\fxos\FXOSWork
                    space\FXOS-Beta\src\fxeventmanager.h",7
   566                        	.file	"G:\devprojects\c256Foenix\fxos\FXOSWork
                    space\FXOS-Beta\src\fxconsole.h",0
   567                        	.line	208
   568                        	.file	"G:\devprojects\c256Foenix\fxos\FXOSWork
                    space\FXOS-Beta\src\fxeventmanager.h",8
   569                        	.file	"G:\devprojects\c256Foenix\fxos\FXOSWork
                    space\FXOS-Beta\src\fxwindowmanager.h",0
   570                        	.file	"G:\devprojects\c256Foenix\fxos\FXOSWork
                    space\FXOS-Beta\src\fxos.h",0
   571                        	.line	30
   572                        	.file	"G:\devprojects\c256Foenix\fxos\FXOSWork
                    space\FXOS-Beta\src\fxwindowmanager.h",5
  Mon Aug  9 2021 16:52                                                Page 12


   573                        	.file	"G:\devprojects\c256Foenix\fxos\FXOSWork
                    space\FXOS-Beta\src\fxmemorymanager.h",0
   574                        	.file	"G:\devprojects\c256Foenix\fxos\FXOSWork
                    space\FXOS-Beta\src\fxos.h",0
   575                        	.line	30
   576                        	.file	"G:\devprojects\c256Foenix\fxos\FXOSWork
                    space\FXOS-Beta\src\fxmemorymanager.h",5
   577                        	.file	"G:\devprojects\c256Foenix\fxos\FXOSWork
                    space\FXOS-Beta\src\umm_malloc_cfg.h",0
   578                        	.file	"G:\devprojects\c256Foenix\fxos\FXOSWork
                    space\FXOS-Beta\src\fxos_build_parameters.h",0
   579                        	.line	35
   580                        	.file	"G:\devprojects\c256Foenix\fxos\FXOSWork
                    space\FXOS-Beta\src\umm_malloc_cfg.h",8
   581                        	.stag	UMM_HEAP_INFO_t,256,54
   582                        	.member	totalEntries,0,18,8,32
   583                        	.member	usedEntries,32,18,8,32
   584                        	.member	freeEntries,64,18,8,32
   585                        	.member	totalBlocks,96,18,8,32
   586                        	.member	usedBlocks,128,18,8,32
   587                        	.member	freeBlocks,160,18,8,32
   588                        	.member	maxFreeContiguousBlocks,192,18,8,32
   589                        	.member	blockSize,224,18,8,32
   590                        	.eos
   591                        	.line	199
   592                        	.file	"G:\devprojects\c256Foenix\fxos\FXOSWork
                    space\FXOS-Beta\src\fxmemorymanager.h",6
   593                        	.file	"G:\devprojects\c256Foenix\fxos\FXOSWork
                    space\FXOS-Beta\src\umm_malloc.h",0
   594                        	.file	"G:\devprojects\c256Foenix\fxos\FXOSWork
                    space\FXOS-Beta\src\fxtypes.h",0
   595                        	.line	1064
   596                        	.file	"G:\devprojects\c256Foenix\fxos\FXOSWork
                    space\FXOS-Beta\src\umm_malloc.h",11
   597                        	.line	24
   598                        	.file	"G:\devprojects\c256Foenix\fxos\FXOSWork
                    space\FXOS-Beta\src\fxmemorymanager.h",7
   599                        	.stag	_fx_memory_map,2072,55
   600                        	.member	availableMemory,0,18,8,32
   601                        	.member	valid_segments,32,110,8,0,255
   602                        	.eos
   603                        	.stag	_fx_ipc_port,144,56
   604                        	.member	id,0,18,8,32
   605                        	.member	type,32,14,8,8
   606                        	.member	name,40,138,8,32,52
   607                        	.member	time,72,18,8,32
   608                        	.member	queue,104,138,8,32,4
   609                        	.member	reserved_1,136,14,8,8
   610                        	.eos
   611                        	.stag	_k_mem_alloc_header,80,57
   612                        	.member	user,0,14,8,8
   613                        	.member	attr,8,14,8,8
   614                        	.member	size,16,18,8,32
   615                        	.member	virtual,48,129,8,32
   616                        	.eos
   617                        	.line	129
   618                        	.file	"G:\devprojects\c256Foenix\fxos\FXOSWork
                    space\FXOS-Beta\src\fxwindowmanager.h",6
  Mon Aug  9 2021 16:52                                                Page 13


   619                        	.file	"G:\devprojects\c256Foenix\fxos\FXOSWork
                    space\FXOS-Beta\src\fxeventmanager.h",0
   620                        	.line	568
   621                        	.file	"G:\devprojects\c256Foenix\fxos\FXOSWork
                    space\FXOS-Beta\src\fxwindowmanager.h",7
   622                        	.file	"G:\devprojects\c256Foenix\fxos\FXOSWork
                    space\FXOS-Beta\src\fxgfx.h",0
   623                        	.file	"G:\devprojects\c256Foenix\fxos\FXOSWork
                    space\FXOS-Beta\src\fxfont.h",0
   624                        	.file	"G:\devprojects\c256Foenix\fxos\FXOSWork
                    space\FXOS-Beta\src\fxtypes.h",0
   625                        	.line	1064
   626                        	.file	"G:\devprojects\c256Foenix\fxos\FXOSWork
                    space\FXOS-Beta\src\fxfont.h",6
   627                        	.line	74
   628                        	.file	"G:\devprojects\c256Foenix\fxos\FXOSWork
                    space\FXOS-Beta\src\fxgfx.h",5
   629                        	.stag	_click_detected,64,58
   630                        	.member	window,0,138,8,32,30
   631                        	.member	handler,32,641,8,32
   632                        	.eos
   633                        	.stag	_current_palette_map,400,59
   634                        	.member	CUR_DESKTOP,0,5,8,16
   635                        	.member	CUR_BACKGROUND,16,5,8,16
   636                        	.member	CUR_FONT,32,5,8,16
   637                        	.member	CUR_SELECTED_FONT,48,5,8,16
   638                        	.member	CUR_HIGHLIGHT_COLOR,64,5,8,16
   639                        	.member	CUR_WINDOWFRAME,80,5,8,16
   640                        	.member	CUR_WINDOWBORDER,96,5,8,16
   641                        	.member	CUR_WINDOWSHADOW,112,5,8,16
   642                        	.member	CUR_MENU,128,5,8,16
   643                        	.member	CUR_GADGET,144,5,8,16
   644                        	.member	CUR_COLOR,160,101,8,0,15
   645                        	.eos
   646                        	.line	359
   647                        	.file	"G:\devprojects\c256Foenix\fxos\FXOSWork
                    space\FXOS-Beta\src\fxwindowmanager.h",8
   648                        	.stag	_fxos_winman_vtable,160,60
   649                        	.member	Events,0,641,8,32
   650                        	.member	ConfigureWindowManager,32,656,8,32
   651                        	.member	ProcessWindowEvent,64,8833,8,32
   652                        	.member	QueryWindowManager,96,656,8,32
   653                        	.member	DoWndProcs,128,641,8,32
   654                        	.eos
   655                        	.stag	fake61_,64,61
   656                        	.member	type,0,16,8,16
   657                        	.member	size,16,16,8,16
   658                        	.member	desktopAction,32,129,8,32
   659                        	.eos
   660                        	.stag	fake62_,96,62
   661                        	.member	type,0,16,8,16
   662                        	.member	caption,16,138,8,32,52
   663                        	.member	buttonType,48,16,8,16
   664                        	.member	x,64,5,8,16
   665                        	.member	y,80,5,8,16
   666                        	.eos
   667                        	.stag	_childMessage_t,64,63
   668                        	.member	msgType,0,16,8,16
  Mon Aug  9 2021 16:52                                                Page 14


   669                        	.member	msgData,16,129,8,32
   670                        	.member	dataSize,48,16,8,16
   671                        	.eos
   672                        	.line	594
   673                        	.file	"G:\devprojects\c256Foenix\fxos\FXOSWork
                    space\FXOS-Beta\src\fxeventmanager.h",9
   674                        	.stag	_fx_main_loopvars,16,64
   675                        	.member	dummy,0,5,8,16
   676                        	.eos
   677                        	.stag	_fxMouseMessageData,64,65
   678                        	.member	button1,0,14,8,8
   679                        	.member	button2,8,14,8,8
   680                        	.member	button3,16,14,8,8
   681                        	.member	button4,24,14,8,8
   682                        	.member	x,32,16,8,16
   683                        	.member	y,48,16,8,16
   684                        	.eos
   685                        	.utag	marshalled_data,32,66
   686                        	.member	byteValue,0,14,11,8
   687                        	.member	verbValue,0,110,11,0,2
   688                        	.member	intValue,0,16,11,16
   689                        	.member	longValue,0,18,11,32
   690                        	.member	pointerValue,0,129,11,32
   691                        	.eos
   692                        	.stag	_fx_eventProcess,64,67
   693                        	.member	process,0,138,8,32,17
   694                        	.member	eventProc,32,641,8,32
   695                        	.eos
   696                        	.stag	_mouse_msg_state,184,68
   697                        	.member	lastEvent,0,18,8,32
   698                        	.member	buttonLeftDown,32,14,8,8
   699                        	.member	lastLeftDown,40,18,8,32
   700                        	.member	buttonRightDown,72,14,8,8
   701                        	.member	lastRightDown,80,18,8,32
   702                        	.member	buttonMiddleDown,112,14,8,8
   703                        	.member	lastMiddleDown,120,18,8,32
   704                        	.member	lastX,152,16,8,16
   705                        	.member	lastY,168,16,8,16
   706                        	.eos
   707                        	.stag	_fxos_eventmanager_vtable,192,69
   708                        	.member	EventQueue,0,138,8,32,4
   709                        	.member	Init,32,8833,8,32
   710                        	.member	Run,64,656,8,32
   711                        	.member	Configure,96,656,8,32
   712                        	.member	Query,128,656,8,32
   713                        	.member	Uninit,160,641,8,32
   714                        	.eos
   715                        	.stag	_k_clipboard_data,168,70
   716                        	.member	type,0,14,8,8
   717                        	.member	readable,8,110,8,0,16
   718                        	.member	data,136,129,8,32
   719                        	.eos
   720                        	.line	568
   721                        	.file	"G:\devprojects\c256Foenix\fxos\FXOSWork
                    space\FXOS-Beta\src\fxconsole.h",18
   722                        	.stag	_fx_spinner_ctx,48,71
   723                        	.member	index,0,5,8,16
   724                        	.member	spinner,16,142,8,32
  Mon Aug  9 2021 16:52                                                Page 15


   725                        	.eos
   726                        	.stag	_fx_console_ctx,1144,72
   727                        	.member	lineBufferIndex,0,5,8,16
   728                        	.member	lineBuffer,16,110,8,0,128
   729                        	.member	isShifted,1040,14,8,8
   730                        	.member	userData,1048,129,8,32
   731                        	.member	screenBuffer,1080,129,8,32
   732                        	.member	Reserved1,1112,129,8,32
   733                        	.eos
   734                        	.stag	_token,64,73
   735                        	.member	type,0,5,8,16
   736                        	.member	depth,16,16,8,16
   737                        	.member	text,32,142,8,32
   738                        	.eos
   739                        	.stag	_command_args,64,74
   740                        	.member	proc,0,656,8,32
   741                        	.member	tokens,32,138,8,32,2
   742                        	.eos
   743                        	.line	208
   744                        	.file	"G:\devprojects\c256Foenix\fxos\FXOSWork
                    space\FXOS-Beta\src\fxos.h",23
   745                        	.file	"G:\devprojects\c256Foenix\fxos\FXOSWork
                    space\FXOS-Beta\src\fxstring.h",0
   746                        	.line	141
   747                        	.file	"G:\devprojects\c256Foenix\fxos\FXOSWork
                    space\FXOS-Beta\src\fxos.h",24
   748                        	.file	"G:\devprojects\c256Foenix\fxos\FXOSWork
                    space\FXOS-Beta\src\fxnode.h",0
   749                        	.line	118
   750                        	.file	"G:\devprojects\c256Foenix\fxos\FXOSWork
                    space\FXOS-Beta\src\fxos.h",25
   751                        	.file	"G:\devprojects\c256Foenix\fxos\FXOSWork
                    space\FXOS-Beta\src\ff/ff.h",0
   752                        	.file	"G:\devprojects\c256Foenix\fxos\FXOSWork
                    space\FXOS-Beta\src\ff/ffconf.h",0
   753                        	.line	298
   754                        	.file	"G:\devprojects\c256Foenix\fxos\FXOSWork
                    space\FXOS-Beta\src\ff/ff.h",29
   755                        	.file	"G:\devprojects\c256Foenix\fxos\FXOSWork
                    space\FXOS-Beta\src\fxtypes.h",0
   756                        	.line	1064
   757                        	.file	"G:\devprojects\c256Foenix\fxos\FXOSWork
                    space\FXOS-Beta\src\ff/ff.h",30
   758                        	.stag	fake75_,4504,75
   759                        	.member	fs_type,0,14,8,8
   760                        	.member	pdrv,8,14,8,8
   761                        	.member	n_fats,16,14,8,8
   762                        	.member	wflag,24,14,8,8
   763                        	.member	fsi_flag,32,14,8,8
   764                        	.member	id,40,5,8,16
   765                        	.member	n_rootdir,56,5,8,16
   766                        	.member	csize,72,5,8,16
   767                        	.member	lfnbuf,88,144,8,32
   768                        	.member	last_clst,120,18,8,32
   769                        	.member	free_clst,152,18,8,32
   770                        	.member	n_fatent,184,18,8,32
   771                        	.member	fsize,216,18,8,32
   772                        	.member	volbase,248,18,8,32
  Mon Aug  9 2021 16:52                                                Page 16


   773                        	.member	fatbase,280,18,8,32
   774                        	.member	dirbase,312,18,8,32
   775                        	.member	database,344,18,8,32
   776                        	.member	winsect,376,18,8,32
   777                        	.member	win,408,110,8,0,512
   778                        	.eos
   779                        	.stag	fake76_,128,76
   780                        	.member	fs,0,138,8,32,75
   781                        	.member	id,32,5,8,16
   782                        	.member	attr,48,14,8,8
   783                        	.member	stat,56,14,8,8
   784                        	.member	sclust,64,18,8,32
   785                        	.member	objsize,96,18,8,32
   786                        	.eos
   787                        	.stag	fake77_,4400,77
   788                        	.member	obj,0,10,8,128,76
   789                        	.member	flag,128,14,8,8
   790                        	.member	err,136,14,8,8
   791                        	.member	fptr,144,18,8,32
   792                        	.member	clust,176,18,8,32
   793                        	.member	sect,208,18,8,32
   794                        	.member	dir_sect,240,18,8,32
   795                        	.member	dir_ptr,272,142,8,32
   796                        	.member	buf,304,110,8,0,512
   797                        	.eos
   798                        	.stag	fake78_,416,78
   799                        	.member	obj,0,10,8,128,76
   800                        	.member	dptr,128,18,8,32
   801                        	.member	clust,160,18,8,32
   802                        	.member	sect,192,18,8,32
   803                        	.member	dir,224,142,8,32
   804                        	.member	fn,256,110,8,0,12
   805                        	.member	blk_ofs,352,18,8,32
   806                        	.member	pat,384,142,8,32
   807                        	.eos
   808                        	.stag	fake79_,2224,79
   809                        	.member	fsize,0,18,8,32
   810                        	.member	fdate,32,5,8,16
   811                        	.member	ftime,48,5,8,16
   812                        	.member	fattrib,64,14,8,8
   813                        	.member	altname,72,110,8,0,13
   814                        	.member	fname,176,110,8,0,256
   815                        	.eos
   816                        	.stag	fake80_,80,80
   817                        	.member	fmt,0,14,8,8
   818                        	.member	n_fat,8,14,8,8
   819                        	.member	align,16,16,8,16
   820                        	.member	n_root,32,16,8,16
   821                        	.member	au_size,48,18,8,32
   822                        	.eos
   823                        	.line	429
   824                        	.file	"G:\devprojects\c256Foenix\fxos\FXOSWork
                    space\FXOS-Beta\src\fxos.h",26
   825                        	.line	30
   826                        	.file	"G:\devprojects\c256Foenix\fxos\FXOSWork
                    space\FXOS-Beta\src\fxkernel.h",5
   827                        	.file	"G:\devprojects\c256Foenix\fxos\FXOSWork
                    space\FXOS-Beta\src\fxnode.h",0
  Mon Aug  9 2021 16:52                                                Page 17


   828                        	.line	118
   829                        	.file	"G:\devprojects\c256Foenix\fxos\FXOSWork
                    space\FXOS-Beta\src\fxkernel.h",6
   830                        	.stag	_fx_api_call_table,8192,81
   831                        	.member	call_table,0,1121,8,32,256
   832                        	.eos
   833                        	.stag	_fx_zero_page_irq_data,32,82
   834                        	.member	data,0,110,8,0,4
   835                        	.eos
   836                        	.stag	_fx_zero_page,720,83
   837                        	.member	fxos_mouse_byte_0,0,14,8,8
   838                        	.member	fxos_mouse_byte_1,8,14,8,8
   839                        	.member	fxos_mouse_byte_2,16,14,8,8
   840                        	.member	fxos_mouse_byte_t,24,14,8,8
   841                        	.member	fxos_mouse_byte_x_l,32,14,8,8
   842                        	.member	fxos_mouse_byte_x_h,40,14,8,8
   843                        	.member	fxos_mouse_byte_y_l,48,14,8,8
   844                        	.member	fxos_mouse_byte_y_h,56,14,8,8
   845                        	.member	fxos_key_byte_0,64,14,8,8
   846                        	.member	fxos_key_byte_1,72,14,8,8
   847                        	.member	fxos_key_byte_2,80,14,8,8
   848                        	.member	fxos_mouse_ctl,88,14,8,8
   849                        	.member	fxos_mouse_index,96,14,8,8
   850                        	.member	fxos_mouse_status,104,14,8,8
   851                        	.member	Endianness,112,16,8,16
   852                        	.member	VersionMajor,128,16,8,16
   853                        	.member	VersionMinor,144,16,8,16
   854                        	.member	VersionRelease,160,16,8,16
   855                        	.member	topMemory,176,18,8,32
   856                        	.member	bottomMemory,208,18,8,32
   857                        	.member	availableMemory,240,18,8,32
   858                        	.member	availableMemoryK,272,18,8,32
   859                        	.member	availableHeapMemory,304,18,8,32
   860                        	.member	availableHeapMemoryK,336,18,8,32
   861                        	.member	fxos_console_row,368,16,8,16
   862                        	.member	fxos_console_col,384,16,8,16
   863                        	.member	executive,400,129,8,32
   864                        	.member	eventmanager,432,129,8,32
   865                        	.member	devicemanager,464,129,8,32
   866                        	.member	windowmanager,496,129,8,32
   867                        	.member	fxos_kernel_api,528,138,8,32,81
   868                        	.member	fxos_dos_api,560,138,8,32,81
   869                        	.member	fxos_gfx_api,592,138,8,32,81
   870                        	.member	fxos_gui_api,624,138,8,32,81
   871                        	.member	fxos_con_api,656,138,8,32,81
   872                        	.member	fxos_reserved_2_api,688,138,8,32,81
   873                        	.eos
   874                        	.stag	_fx_environment,96,84
   875                        	.member	variables,0,142,8,32
   876                        	.member	reserved1,32,5,8,16
   877                        	.member	reserved2,48,5,8,16
   878                        	.member	reserved3,64,5,8,16
   879                        	.member	reserved4,80,5,8,16
   880                        	.eos
   881                        	.stag	_debug_byte_bits,8,85
   882                        	.member	bit7,0,14,17,1
   883                        	.member	bit6,1,14,17,1
   884                        	.member	bit5,2,14,17,1
  Mon Aug  9 2021 16:52                                                Page 18


   885                        	.member	bit4,3,14,17,1
   886                        	.member	bit3,4,14,17,1
   887                        	.member	bit2,5,14,17,1
   888                        	.member	bit1,6,14,17,1
   889                        	.member	bit0,7,14,17,1
   890                        	.eos
   891                        	.stag	_k_segmentheader,160,86
   892                        	.member	version_major,0,14,8,8
   893                        	.member	version_minor,8,14,8,8
   894                        	.member	length,16,5,8,16
   895                        	.member	segment_start_addr,32,7,8,32
   896                        	.member	segment_end_addr,64,7,8,32
   897                        	.member	segment_size,96,7,8,32
   898                        	.member	main_entry_addr,128,7,8,32
   899                        	.eos
   900                        	.stag	_fx_device_driver,776,87
   901                        	.member	name,0,110,8,0,32
   902                        	.member	version,256,110,8,0,16
   903                        	.member	hmajor,384,110,8,0,8
   904                        	.member	hminor,448,110,8,0,8
   905                        	.member	type,512,14,8,8
   906                        	.member	designation,520,110,8,0,6
   907                        	.member	irq_ctl,568,16,8,16
   908                        	.member	f_driver_irq,584,129,8,32
   909                        	.member	driver_context,616,129,8,32
   910                        	.member	f_driver_load,648,129,8,32
   911                        	.member	f_driver_read,680,129,8,32
   912                        	.member	f_driver_write,712,129,8,32
   913                        	.member	f_driver_unload,744,129,8,32
   914                        	.eos
   915                        	.stag	_fx_block_device_driver,808,88
   916                        	.member	name,0,110,8,0,32
   917                        	.member	version,256,110,8,0,16
   918                        	.member	hmajor,384,110,8,0,8
   919                        	.member	hminor,448,110,8,0,8
   920                        	.member	type,512,14,8,8
   921                        	.member	designation,520,110,8,0,6
   922                        	.member	irq_ctl,568,16,8,16
   923                        	.member	f_driver_irq,584,129,8,32
   924                        	.member	driver_context,616,129,8,32
   925                        	.member	f_driver_load,648,129,8,32
   926                        	.member	f_driver_read,680,129,8,32
   927                        	.member	f_driver_write,712,129,8,32
   928                        	.member	f_driver_unload,744,129,8,32
   929                        	.member	f_driver_command,776,129,8,32
   930                        	.eos
   931                        	.stag	_k_irq_chain,128,89
   932                        	.member	handlers,0,5217,8,32,4
   933                        	.eos
   934                        	.line	490
   935                        	.file	"G:\devprojects\c256Foenix\fxos\FXOSWork
                    space\FXOS-Beta\src\fxnode.c",10
   936                        ;#include "fxeventmanager.h"
   937                        	.file	"G:\devprojects\c256Foenix\fxos\FXOSWork
                    space\FXOS-Beta\src\fxeventmanager.h",0
   938                        	.line	568
   939                        	.file	"G:\devprojects\c256Foenix\fxos\FXOSWork
                    space\FXOS-Beta\src\fxnode.c",11
  Mon Aug  9 2021 16:52                                                Page 19


   940                        ;#include "fxmemorymanager.h"
   941                        	.file	"G:\devprojects\c256Foenix\fxos\FXOSWork
                    space\FXOS-Beta\src\fxmemorymanager.h",0
   942                        	.line	129
   943                        	.file	"G:\devprojects\c256Foenix\fxos\FXOSWork
                    space\FXOS-Beta\src\fxnode.c",12
   944                        ;
   945                        ;static ULONG THIS_MODULE = 0xA000000A;
   946                        	data
   947                        ~~THIS_MODULE:
   948 00:0000: 0A 00 00 A0  	dl	$A000000A
   949 00:0004:              	ends
   950                        ;static BOOL  bExceptionStatus = FALSE;
   951                        	data
   952                        ~~bExceptionStatus:
   953 00:0004: 00           	db	$0
   954 00:0005:              	ends
   955                        ;
   956                        ;#define MSG_MAX (1024)
   957                        ;
   958                        ;#pragma section CODE=NODEMAN,offset $5:B000
   959                        NODEMAN	section	offset $5:B000
   960 05:B000:              	ends
   961                        ;
   962                        ;void k_initialize(PFXQUEUE q)
   963                        ;{
   964                        	.line	21
   965                        	.line	22
   966                        	NODEMAN
   967                        	xdef	~~k_initialize
   968                        	func
   969                        	.function	22
   970                        ~~k_initialize:
   971                        	longa	on
   972                        	longi	on
   973 05:B000: 3B           	tsc
   974 05:B001: 38           	sec
   975 05:B002: E9 00 00     	sbc	#L2
   976 05:B005: 1B           	tcs
   977 05:B006: 0B           	phd
   978 05:B007: 5B           	tcd
   979             00000004   q_0	set	4
   980                        	.block	22
   981                        ;    q->count = 0;
   982                        	.sym	q,4,138,6,32,4
   983                        	.line	23
   984 05:B008: A9 00 00     	lda	#$0
   985 05:B00B: 87 04        	sta	[<L2+q_0]
   986                        ;    q->front = NULL;
   987                        	.line	24
   988 05:B00D: A9 00 00     	lda	#$0
   989 05:B010: A0 02 00     	ldy	#$2
   990 05:B013: 97 04        	sta	[<L2+q_0],Y
   991 05:B015: A9 00 00     	lda	#$0
   992 05:B018: A0 04 00     	ldy	#$4
   993 05:B01B: 97 04        	sta	[<L2+q_0],Y
   994                        ;    q->rear  = NULL;
   995                        	.line	25
  Mon Aug  9 2021 16:52                                                Page 20


   996 05:B01D: A9 00 00     	lda	#$0
   997 05:B020: A0 06 00     	ldy	#$6
   998 05:B023: 97 04        	sta	[<L2+q_0],Y
   999 05:B025: A9 00 00     	lda	#$0
  1000 05:B028: A0 08 00     	ldy	#$8
  1001 05:B02B: 97 04        	sta	[<L2+q_0],Y
  1002                        ;}
  1003                        	.line	26
  1004                        L5:
  1005 05:B02D: A5 02        	lda	<L2+2
  1006 05:B02F: 85 06        	sta	<L2+2+4
  1007 05:B031: A5 01        	lda	<L2+1
  1008 05:B033: 85 05        	sta	<L2+1+4
  1009 05:B035: 2B           	pld
  1010 05:B036: 3B           	tsc
  1011 05:B037: 18           	clc
  1012 05:B038: 69 04 00     	adc	#L2+4
  1013 05:B03B: 1B           	tcs
  1014 05:B03C: 6B           	rtl
  1015                        	.endblock	26
  1016             00000000   L2	equ	0
  1017             00000001   L3	equ	1
  1018 05:B03D:              	ends
  1019                        	efunc
  1020                        	.endfunc	26,1,0
  1021                        	.line	26
  1022                        ;
  1023                        ;int k_isempty(PFXQUEUE q)
  1024                        ;{
  1025                        	.line	28
  1026                        	.line	29
  1027                        	NODEMAN
  1028                        	xdef	~~k_isempty
  1029                        	func
  1030                        	.function	29
  1031                        ~~k_isempty:
  1032                        	longa	on
  1033                        	longi	on
  1034 05:B03D: 3B           	tsc
  1035 05:B03E: 38           	sec
  1036 05:B03F: E9 04 00     	sbc	#L6
  1037 05:B042: 1B           	tcs
  1038 05:B043: 0B           	phd
  1039 05:B044: 5B           	tcd
  1040             00000004   q_0	set	4
  1041                        	.block	29
  1042                        ;	if(q == NULL)
  1043                        	.sym	q,4,138,6,32,4
  1044                        	.line	30
  1045                        ;		k_exec_throw_exception(k_isempty,0x00010
                    001,"Kernel node list is NULL.",-1);
  1046 05:B045: A5 08        	lda	<L6+q_0
  1047 05:B047: 05 0A        	ora	<L6+q_0+2
  1048 05:B049: F0 03        	beq	L9
  1049 05:B04B: 82 19 00     	brl	L10001
  1050                        L9:
  1051                        	.line	31
  1052 05:B04E: F4 FF FF     	pea	#<$ffffffff
  Mon Aug  9 2021 16:52                                                Page 21


  1053 05:B051: F4 xx xx     	pea	#^L1
  1054 05:B054: F4 xx xx     	pea	#<L1
  1055 05:B057: F4 01 00     	pea	#^$10001
  1056 05:B05A: F4 01 00     	pea	#<$10001
  1057 05:B05D: F4 05 00     	pea	#^~~k_isempty
  1058 05:B060: F4 3D B0     	pea	#<~~k_isempty
  1059 05:B063: 22 xx xx xx  	jsl	~~k_exec_throw_exception
  1060                        ;
  1061                        ;    return (q->rear == NULL);
  1062                        L10001:
  1063                        	.line	33
  1064 05:B067: 64 01        	stz	<R0
  1065 05:B069: A0 06 00     	ldy	#$6
  1066 05:B06C: B7 08        	lda	[<L6+q_0],Y
  1067 05:B06E: A0 08 00     	ldy	#$8
  1068 05:B071: 17 08        	ora	[<L6+q_0],Y
  1069 05:B073: F0 03        	beq	L11
  1070 05:B075: 82 02 00     	brl	L10
  1071                        L11:
  1072 05:B078: E6 01        	inc	<R0
  1073                        L10:
  1074 05:B07A: A5 01        	lda	<R0
  1075                        L12:
  1076 05:B07C: A8           	tay
  1077 05:B07D: A5 06        	lda	<L6+2
  1078 05:B07F: 85 0A        	sta	<L6+2+4
  1079 05:B081: A5 05        	lda	<L6+1
  1080 05:B083: 85 09        	sta	<L6+1+4
  1081 05:B085: 2B           	pld
  1082 05:B086: 3B           	tsc
  1083 05:B087: 18           	clc
  1084 05:B088: 69 08 00     	adc	#L6+4
  1085 05:B08B: 1B           	tcs
  1086 05:B08C: 98           	tya
  1087 05:B08D: 6B           	rtl
  1088                        ;}
  1089                        	.line	34
  1090                        	.endblock	34
  1091             00000004   L6	equ	4
  1092             00000005   L7	equ	5
  1093 05:B08E:              	ends
  1094                        	efunc
  1095                        	.endfunc	34,5,4
  1096                        	.line	34
  1097                        	data
  1098                        L1:
  1099 00:0005: 4B 65 72 6E  	db	$4B,$65,$72,$6E,$65,$6C,$20,$6E,$6F,$64,
                    $65,$20,$6C,$69,$73
       00:0009: 65 6C 20 6E 
       00:000D: 6F 64 65 20 
       00:0011: 6C 69 73 
  1100 00:0014: 74 20 69 73  	db	$74,$20,$69,$73,$20,$4E,$55,$4C,$4C,$2E,
                    $00
       00:0018: 20 4E 55 4C 
       00:001C: 4C 2E 00 
  1101 00:001F:              	ends
  1102                        ;
  1103                        ;void k_enqueue_with_lock(PFXQUEUE q, LPVOID value
  Mon Aug  9 2021 16:52                                                Page 22


                    )
  1104                        ;{
  1105                        	.line	36
  1106                        	.line	37
  1107                        	NODEMAN
  1108                        	xdef	~~k_enqueue_with_lock
  1109                        	func
  1110                        	.function	37
  1111                        ~~k_enqueue_with_lock:
  1112                        	longa	on
  1113                        	longi	on
  1114 05:B08E: 3B           	tsc
  1115 05:B08F: 38           	sec
  1116 05:B090: E9 00 00     	sbc	#L14
  1117 05:B093: 1B           	tcs
  1118 05:B094: 0B           	phd
  1119 05:B095: 5B           	tcd
  1120             00000004   q_0	set	4
  1121             00000008   value_0	set	8
  1122                        	.block	37
  1123                        ;#ifdef FXOS_WITH_LOCK
  1124                        ;	asm sei;
  1125                        ;#endif
  1126                        ;
  1127                        ;	k_enqueue(q, value);
  1128                        	.sym	q,4,138,6,32,4
  1129                        	.sym	value,8,129,6,32
  1130                        	.line	42
  1131 05:B096: D4 0A        	pei	<L14+value_0+2
  1132 05:B098: D4 08        	pei	<L14+value_0
  1133 05:B09A: D4 06        	pei	<L14+q_0+2
  1134 05:B09C: D4 04        	pei	<L14+q_0
  1135 05:B09E: 22 E0 B0 05  	jsl	~~k_enqueue
  1136                        ;
  1137                        ;#ifdef FXOS_WITH_LOCK
  1138                        ;	asm cli;
  1139                        ;#endif
  1140                        ;
  1141                        ;}
  1142                        	.line	48
  1143                        L17:
  1144 05:B0A2: A5 02        	lda	<L14+2
  1145 05:B0A4: 85 0A        	sta	<L14+2+8
  1146 05:B0A6: A5 01        	lda	<L14+1
  1147 05:B0A8: 85 09        	sta	<L14+1+8
  1148 05:B0AA: 2B           	pld
  1149 05:B0AB: 3B           	tsc
  1150 05:B0AC: 18           	clc
  1151 05:B0AD: 69 08 00     	adc	#L14+8
  1152 05:B0B0: 1B           	tcs
  1153 05:B0B1: 6B           	rtl
  1154                        	.endblock	48
  1155             00000000   L14	equ	0
  1156             00000001   L15	equ	1
  1157 05:B0B2:              	ends
  1158                        	efunc
  1159                        	.endfunc	48,1,0
  1160                        	.line	48
  Mon Aug  9 2021 16:52                                                Page 23


  1161                        ;
  1162                        ;LPVOID k_dequeue_with_lock(PFXQUEUE q)
  1163                        ;{
  1164                        	.line	50
  1165                        	.line	51
  1166                        	NODEMAN
  1167                        	xdef	~~k_dequeue_with_lock
  1168                        	func
  1169                        	.function	51
  1170                        ~~k_dequeue_with_lock:
  1171                        	longa	on
  1172                        	longi	on
  1173 05:B0B2: 3B           	tsc
  1174 05:B0B3: 38           	sec
  1175 05:B0B4: E9 04 00     	sbc	#L18
  1176 05:B0B7: 1B           	tcs
  1177 05:B0B8: 0B           	phd
  1178 05:B0B9: 5B           	tcd
  1179             00000004   q_0	set	4
  1180                        	.block	51
  1181                        ;	LPVOID data = NULL;
  1182                        ;
  1183                        ;#ifdef FXOS_WITH_LOCK
  1184                        ;	asm sei;
  1185                        ;#endif
  1186                        ;
  1187                        ;	data =  k_dequeue(q);
  1188             00000000   data_1	set	0
  1189                        	.sym	data,0,129,1,32
  1190                        	.sym	q,4,138,6,32,4
  1191 05:B0BA: 64 01        	stz	<L19+data_1
  1192 05:B0BC: 64 03        	stz	<L19+data_1+2
  1193                        	.line	58
  1194 05:B0BE: D4 0A        	pei	<L18+q_0+2
  1195 05:B0C0: D4 08        	pei	<L18+q_0
  1196 05:B0C2: 22 25 B2 05  	jsl	~~k_dequeue
  1197 05:B0C6: 85 01        	sta	<L19+data_1
  1198 05:B0C8: 86 03        	stx	<L19+data_1+2
  1199                        ;
  1200                        ;#ifdef FXOS_WITH_LOCK
  1201                        ;	asm cli;
  1202                        ;#endif
  1203                        ;
  1204                        ;	return data;
  1205                        	.line	64
  1206 05:B0CA: A6 03        	ldx	<L19+data_1+2
  1207 05:B0CC: A5 01        	lda	<L19+data_1
  1208                        L21:
  1209 05:B0CE: A8           	tay
  1210 05:B0CF: A5 06        	lda	<L18+2
  1211 05:B0D1: 85 0A        	sta	<L18+2+4
  1212 05:B0D3: A5 05        	lda	<L18+1
  1213 05:B0D5: 85 09        	sta	<L18+1+4
  1214 05:B0D7: 2B           	pld
  1215 05:B0D8: 3B           	tsc
  1216 05:B0D9: 18           	clc
  1217 05:B0DA: 69 08 00     	adc	#L18+4
  1218 05:B0DD: 1B           	tcs
  Mon Aug  9 2021 16:52                                                Page 24


  1219 05:B0DE: 98           	tya
  1220 05:B0DF: 6B           	rtl
  1221                        ;}
  1222                        	.line	65
  1223                        	.endblock	65
  1224             00000004   L18	equ	4
  1225             00000001   L19	equ	1
  1226 05:B0E0:              	ends
  1227                        	efunc
  1228                        	.endfunc	65,1,4
  1229                        	.line	65
  1230                        ;
  1231                        ;
  1232                        ;BOOL k_enqueue(PFXQUEUE q, LPVOID value)
  1233                        ;{
  1234                        	.line	68
  1235                        	.line	69
  1236                        	NODEMAN
  1237                        	xdef	~~k_enqueue
  1238                        	func
  1239                        	.function	69
  1240                        ~~k_enqueue:
  1241                        	longa	on
  1242                        	longi	on
  1243 05:B0E0: 3B           	tsc
  1244 05:B0E1: 38           	sec
  1245 05:B0E2: E9 08 00     	sbc	#L22
  1246 05:B0E5: 1B           	tcs
  1247 05:B0E6: 0B           	phd
  1248 05:B0E7: 5B           	tcd
  1249             00000004   q_0	set	4
  1250             00000008   value_0	set	8
  1251                        	.block	69
  1252                        ;	PFXNODE tmp = NULL;
  1253                        ;
  1254                        ;
  1255                        ;
  1256                        ;    //k_debug_pointer("k_enqueue::enter:",q);
  1257                        ;    //k_debug_integer("k_enqueue::malloc:",sizeof
                    (FXNODE));
  1258                        ;
  1259                        ;    if(q && value)
  1260             00000000   tmp_1	set	0
  1261                        	.sym	tmp,0,138,1,32,2
  1262                        	.sym	q,4,138,6,32,4
  1263                        	.sym	value,8,129,6,32
  1264 05:B0E8: 64 05        	stz	<L23+tmp_1
  1265 05:B0EA: 64 07        	stz	<L23+tmp_1+2
  1266                        	.line	77
  1267                        ;    {
  1268 05:B0EC: A5 0C        	lda	<L22+q_0
  1269 05:B0EE: 05 0E        	ora	<L22+q_0+2
  1270 05:B0F0: D0 03        	bne	L25
  1271 05:B0F2: 82 11 01     	brl	L10002
  1272                        L25:
  1273 05:B0F5: A5 10        	lda	<L22+value_0
  1274 05:B0F7: 05 12        	ora	<L22+value_0+2
  1275 05:B0F9: D0 03        	bne	L26
  Mon Aug  9 2021 16:52                                                Page 25


  1276 05:B0FB: 82 08 01     	brl	L10002
  1277                        L26:
  1278                        	.line	78
  1279                        ;    	if(q->count>MSG_MAX)
  1280                        	.line	79
  1281                        ;    	{
  1282 05:B0FE: 38           	sec
  1283 05:B0FF: A9 00 04     	lda	#$400
  1284 05:B102: E7 0C        	sbc	[<L22+q_0]
  1285 05:B104: 70 03        	bvs	L27
  1286 05:B106: 49 00 80     	eor	#$8000
  1287                        L27:
  1288 05:B109: 10 03        	bpl	L28
  1289 05:B10B: 82 33 00     	brl	L10003
  1290                        L28:
  1291                        	.line	80
  1292                        ;    		if(value)
  1293                        	.line	81
  1294                        ;    		{
  1295 05:B10E: A5 10        	lda	<L22+value_0
  1296 05:B110: 05 12        	ora	<L22+value_0+2
  1297 05:B112: D0 03        	bne	L29
  1298 05:B114: 82 15 00     	brl	L10004
  1299                        L29:
  1300                        	.line	82
  1301                        ;    			k_debug_integer("k_enque
                    ue::MSG_MAX:",q->count);
  1302                        	.line	83
  1303 05:B117: A7 0C        	lda	[<L22+q_0]
  1304 05:B119: 48           	pha
  1305 05:B11A: F4 xx xx     	pea	#^L13
  1306 05:B11D: F4 xx xx     	pea	#<L13
  1307 05:B120: 22 xx xx xx  	jsl	~~k_debug_integer
  1308                        ;    			//((PFXOSMESSAGE)value)-
                    >hwnd;
  1309                        ;
  1310                        ;    			//k_debug_pointer("k_enq
                    ueue::((PFXOSMESSAGE)value)->hwnd:",((PFXOSMESSAGE)value)->h
                    wnd);
  1311                        ;    			//k_debug_integer("k_enq
                    ueue::((PFXOSMESSAGE)value)->type:",((PFXOSMESSAGE)value)->t
                    ype);
  1312                        ;    			k_mem_deallocate_heap(va
                    lue);
  1313                        	.line	88
  1314 05:B124: D4 12        	pei	<L22+value_0+2
  1315 05:B126: D4 10        	pei	<L22+value_0
  1316 05:B128: 22 xx xx xx  	jsl	~~k_mem_deallocate_heap
  1317                        ;    		}
  1318                        	.line	89
  1319                        ;    		return FALSE;
  1320                        L10004:
  1321                        	.line	90
  1322 05:B12C: A9 00 00     	lda	#$0
  1323                        L30:
  1324 05:B12F: A8           	tay
  1325 05:B130: A5 0A        	lda	<L22+2
  1326 05:B132: 85 12        	sta	<L22+2+8
  Mon Aug  9 2021 16:52                                                Page 26


  1327 05:B134: A5 09        	lda	<L22+1
  1328 05:B136: 85 11        	sta	<L22+1+8
  1329 05:B138: 2B           	pld
  1330 05:B139: 3B           	tsc
  1331 05:B13A: 18           	clc
  1332 05:B13B: 69 10 00     	adc	#L22+8
  1333 05:B13E: 1B           	tcs
  1334 05:B13F: 98           	tya
  1335 05:B140: 6B           	rtl
  1336                        ;    	}
  1337                        	.line	91
  1338                        ;
  1339                        ;		tmp = (PFXNODE)k_mem_allocate_heap(sizeo
                    f(FXNODE));
  1340                        L10003:
  1341                        	.line	93
  1342 05:B141: F4 00 00     	pea	#^$30
  1343 05:B144: F4 30 00     	pea	#<$30
  1344 05:B147: 22 xx xx xx  	jsl	~~k_mem_allocate_heap
  1345 05:B14B: 85 05        	sta	<L23+tmp_1
  1346 05:B14D: 86 07        	stx	<L23+tmp_1+2
  1347                        ;		if(tmp!=NULL)
  1348                        	.line	94
  1349                        ;		{
  1350 05:B14F: A5 05        	lda	<L23+tmp_1
  1351 05:B151: 05 07        	ora	<L23+tmp_1+2
  1352 05:B153: D0 03        	bne	L31
  1353 05:B155: 82 85 00     	brl	L10005
  1354                        L31:
  1355                        	.line	95
  1356                        ;			//k_debug_integer("k_enqueue::ma
                    lloc'ed:",sizeof(FXNODE));
  1357                        ;
  1358                        ;			tmp->data = value;
  1359                        	.line	98
  1360 05:B158: A5 10        	lda	<L22+value_0
  1361 05:B15A: A0 02 00     	ldy	#$2
  1362 05:B15D: 97 05        	sta	[<L23+tmp_1],Y
  1363 05:B15F: A5 12        	lda	<L22+value_0+2
  1364 05:B161: A0 04 00     	ldy	#$4
  1365 05:B164: 97 05        	sta	[<L23+tmp_1],Y
  1366                        ;			tmp->next = NULL;
  1367                        	.line	99
  1368 05:B166: A9 00 00     	lda	#$0
  1369 05:B169: A0 0A 00     	ldy	#$a
  1370 05:B16C: 97 05        	sta	[<L23+tmp_1],Y
  1371 05:B16E: A9 00 00     	lda	#$0
  1372 05:B171: A0 0C 00     	ldy	#$c
  1373 05:B174: 97 05        	sta	[<L23+tmp_1],Y
  1374                        ;
  1375                        ;			k_lock_irq();
  1376                        	.line	101
  1377 05:B176: 22 xx xx xx  	jsl	~~k_lock_irq
  1378                        ;
  1379                        ;			if(!k_isempty(q))
  1380                        	.line	103
  1381                        ;			{
  1382 05:B17A: D4 0E        	pei	<L22+q_0+2
  Mon Aug  9 2021 16:52                                                Page 27


  1383 05:B17C: D4 0C        	pei	<L22+q_0
  1384 05:B17E: 22 3D B0 05  	jsl	~~k_isempty
  1385 05:B182: AA           	tax
  1386 05:B183: F0 03        	beq	L32
  1387 05:B185: 82 2D 00     	brl	L10006
  1388                        L32:
  1389                        	.line	104
  1390                        ;				//k_debug_string("k_enqu
                    eue::not empty\r\n");
  1391                        ;				q->rear->next = tmp;
  1392                        	.line	106
  1393 05:B188: A0 06 00     	ldy	#$6
  1394 05:B18B: B7 0C        	lda	[<L22+q_0],Y
  1395 05:B18D: 85 01        	sta	<R0
  1396 05:B18F: A0 08 00     	ldy	#$8
  1397 05:B192: B7 0C        	lda	[<L22+q_0],Y
  1398 05:B194: 85 03        	sta	<R0+2
  1399 05:B196: A5 05        	lda	<L23+tmp_1
  1400 05:B198: A0 0A 00     	ldy	#$a
  1401 05:B19B: 97 01        	sta	[<R0],Y
  1402 05:B19D: A5 07        	lda	<L23+tmp_1+2
  1403 05:B19F: A0 0C 00     	ldy	#$c
  1404 05:B1A2: 97 01        	sta	[<R0],Y
  1405                        ;				q->rear = tmp;
  1406                        	.line	107
  1407 05:B1A4: A5 05        	lda	<L23+tmp_1
  1408 05:B1A6: A0 06 00     	ldy	#$6
  1409 05:B1A9: 97 0C        	sta	[<L22+q_0],Y
  1410 05:B1AB: A5 07        	lda	<L23+tmp_1+2
  1411 05:B1AD: A0 08 00     	ldy	#$8
  1412 05:B1B0: 97 0C        	sta	[<L22+q_0],Y
  1413                        ;			}
  1414                        	.line	108
  1415                        ;			else
  1416 05:B1B2: 82 1C 00     	brl	L10007
  1417                        L10006:
  1418                        ;			{
  1419                        	.line	110
  1420                        ;				//k_debug_string("k_enqu
                    eue::empty\r\n");
  1421                        ;				q->front = q->rear = tmp
                    ;
  1422                        	.line	112
  1423 05:B1B5: A5 05        	lda	<L23+tmp_1
  1424 05:B1B7: A0 06 00     	ldy	#$6
  1425 05:B1BA: 97 0C        	sta	[<L22+q_0],Y
  1426 05:B1BC: A5 07        	lda	<L23+tmp_1+2
  1427 05:B1BE: A0 08 00     	ldy	#$8
  1428 05:B1C1: 97 0C        	sta	[<L22+q_0],Y
  1429 05:B1C3: A5 05        	lda	<L23+tmp_1
  1430 05:B1C5: A0 02 00     	ldy	#$2
  1431 05:B1C8: 97 0C        	sta	[<L22+q_0],Y
  1432 05:B1CA: A5 07        	lda	<L23+tmp_1+2
  1433 05:B1CC: A0 04 00     	ldy	#$4
  1434 05:B1CF: 97 0C        	sta	[<L22+q_0],Y
  1435                        ;			}
  1436                        	.line	113
  1437                        L10007:
  Mon Aug  9 2021 16:52                                                Page 28


  1438                        ;			q->count++;
  1439                        	.line	114
  1440 05:B1D1: A7 0C        	lda	[<L22+q_0]
  1441 05:B1D3: 1A           	ina
  1442 05:B1D4: 87 0C        	sta	[<L22+q_0]
  1443                        ;
  1444                        ;			k_unlock_irq();
  1445                        	.line	116
  1446 05:B1D6: 22 xx xx xx  	jsl	~~k_unlock_irq
  1447                        ;
  1448                        ;			//k_debug_integer("k_enqueue::co
                    unt:",q->count);
  1449                        ;		}
  1450                        	.line	119
  1451                        ;		else
  1452 05:B1DA: 82 26 00     	brl	L10008
  1453                        L10005:
  1454                        ;		{
  1455                        	.line	121
  1456                        ;			k_debug_integer("k_enqueue::size
                    :",q->count);
  1457                        	.line	122
  1458 05:B1DD: A7 0C        	lda	[<L22+q_0]
  1459 05:B1DF: 48           	pha
  1460 05:B1E0: F4 xx xx     	pea	#^L13+20
  1461 05:B1E3: F4 xx xx     	pea	#<L13+20
  1462 05:B1E6: 22 xx xx xx  	jsl	~~k_debug_integer
  1463                        ;			k_exec_throw_exception(k_enqueue
                    ,0x00010000,"Cannot allocate a kernel node.",-1);
  1464                        	.line	123
  1465 05:B1EA: F4 FF FF     	pea	#<$ffffffff
  1466 05:B1ED: F4 xx xx     	pea	#^L13+37
  1467 05:B1F0: F4 xx xx     	pea	#<L13+37
  1468 05:B1F3: F4 01 00     	pea	#^$10000
  1469 05:B1F6: F4 00 00     	pea	#<$10000
  1470 05:B1F9: F4 05 00     	pea	#^~~k_enqueue
  1471 05:B1FC: F4 E0 B0     	pea	#<~~k_enqueue
  1472 05:B1FF: 22 xx xx xx  	jsl	~~k_exec_throw_exception
  1473                        ;		}
  1474                        	.line	124
  1475                        L10008:
  1476                        ;    }
  1477                        	.line	125
  1478                        ;    else
  1479 05:B203: 82 19 00     	brl	L10009
  1480                        L10002:
  1481                        ;    {
  1482                        	.line	127
  1483                        ;    	k_exec_throw_exception(k_enqueue,0x00010
                    001,"Kernel node list is NULL.",-1);
  1484                        	.line	128
  1485 05:B206: F4 FF FF     	pea	#<$ffffffff
  1486 05:B209: F4 xx xx     	pea	#^L13+68
  1487 05:B20C: F4 xx xx     	pea	#<L13+68
  1488 05:B20F: F4 01 00     	pea	#^$10001
  1489 05:B212: F4 01 00     	pea	#<$10001
  1490 05:B215: F4 05 00     	pea	#^~~k_enqueue
  1491 05:B218: F4 E0 B0     	pea	#<~~k_enqueue
  Mon Aug  9 2021 16:52                                                Page 29


  1492 05:B21B: 22 xx xx xx  	jsl	~~k_exec_throw_exception
  1493                        ;    }
  1494                        	.line	129
  1495                        L10009:
  1496                        ;
  1497                        ;
  1498                        ;
  1499                        ;    //k_debug_string("k_enqueue::exit\r\n");
  1500                        ;    //k_debug_integer("k_enqueue data:",((PFXOSME
                    SSAGE)tmp->data)->type);
  1501                        ;    return TRUE;
  1502                        	.line	135
  1503 05:B21F: A9 01 00     	lda	#$1
  1504 05:B222: 82 0A FF     	brl	L30
  1505                        ;}
  1506                        	.line	136
  1507                        	.endblock	136
  1508             00000008   L22	equ	8
  1509             00000005   L23	equ	5
  1510 05:B225:              	ends
  1511                        	efunc
  1512                        	.endfunc	136,5,8
  1513                        	.line	136
  1514                        	data
  1515                        L13:
  1516 00:001F: 6B 5F 65 6E  	db	$6B,$5F,$65,$6E,$71,$75,$65,$75,$65,$3A,
                    $3A,$4D,$53,$47,$5F
       00:0023: 71 75 65 75 
       00:0027: 65 3A 3A 4D 
       00:002B: 53 47 5F 
  1517 00:002E: 4D 41 58 3A  	db	$4D,$41,$58,$3A,$00,$6B,$5F,$65,$6E,$71,
                    $75,$65,$75,$65,$3A
       00:0032: 00 6B 5F 65 
       00:0036: 6E 71 75 65 
       00:003A: 75 65 3A 
  1518 00:003D: 3A 73 69 7A  	db	$3A,$73,$69,$7A,$65,$3A,$00,$43,$61,$6E,
                    $6E,$6F,$74,$20,$61
       00:0041: 65 3A 00 43 
       00:0045: 61 6E 6E 6F 
       00:0049: 74 20 61 
  1519 00:004C: 6C 6C 6F 63  	db	$6C,$6C,$6F,$63,$61,$74,$65,$20,$61,$20,
                    $6B,$65,$72,$6E,$65
       00:0050: 61 74 65 20 
       00:0054: 61 20 6B 65 
       00:0058: 72 6E 65 
  1520 00:005B: 6C 20 6E 6F  	db	$6C,$20,$6E,$6F,$64,$65,$2E,$00,$4B,$65,
                    $72,$6E,$65,$6C,$20
       00:005F: 64 65 2E 00 
       00:0063: 4B 65 72 6E 
       00:0067: 65 6C 20 
  1521 00:006A: 6E 6F 64 65  	db	$6E,$6F,$64,$65,$20,$6C,$69,$73,$74,$20,
                    $69,$73,$20,$4E,$55
       00:006E: 20 6C 69 73 
       00:0072: 74 20 69 73 
       00:0076: 20 4E 55 
  1522 00:0079: 4C 4C 2E 00  	db	$4C,$4C,$2E,$00
  1523 00:007D:              	ends
  1524                        ;
  Mon Aug  9 2021 16:52                                                Page 30


  1525                        ;LPVOID k_dequeue(PFXQUEUE q)
  1526                        ;{
  1527                        	.line	138
  1528                        	.line	139
  1529                        	NODEMAN
  1530                        	xdef	~~k_dequeue
  1531                        	func
  1532                        	.function	139
  1533                        ~~k_dequeue:
  1534                        	longa	on
  1535                        	longi	on
  1536 05:B225: 3B           	tsc
  1537 05:B226: 38           	sec
  1538 05:B227: E9 08 00     	sbc	#L34
  1539 05:B22A: 1B           	tcs
  1540 05:B22B: 0B           	phd
  1541 05:B22C: 5B           	tcd
  1542             00000004   q_0	set	4
  1543                        	.block	139
  1544                        ;	FXNODE *tmp = NULL;
  1545                        ;	LPVOID n = NULL;
  1546                        ;
  1547                        ;
  1548                        ;	if(q)
  1549             00000000   tmp_1	set	0
  1550             00000004   n_1	set	4
  1551                        	.sym	tmp,0,138,1,32,2
  1552                        	.sym	n,4,129,1,32
  1553                        	.sym	q,4,138,6,32,4
  1554 05:B22D: 64 01        	stz	<L35+tmp_1
  1555 05:B22F: 64 03        	stz	<L35+tmp_1+2
  1556 05:B231: 64 05        	stz	<L35+n_1
  1557 05:B233: 64 07        	stz	<L35+n_1+2
  1558                        	.line	144
  1559                        ;	{
  1560 05:B235: A5 0C        	lda	<L34+q_0
  1561 05:B237: 05 0E        	ora	<L34+q_0+2
  1562 05:B239: D0 03        	bne	L37
  1563 05:B23B: 82 B7 00     	brl	L10010
  1564                        L37:
  1565                        	.line	145
  1566                        ;		//k_debug_string("k_dequeue:enter...\r\n
                    ");
  1567                        ;
  1568                        ;		if(q->front == NULL)
  1569                        	.line	148
  1570                        ;		{
  1571 05:B23E: A0 02 00     	ldy	#$2
  1572 05:B241: B7 0C        	lda	[<L34+q_0],Y
  1573 05:B243: A0 04 00     	ldy	#$4
  1574 05:B246: 17 0C        	ora	[<L34+q_0],Y
  1575 05:B248: F0 03        	beq	L38
  1576 05:B24A: 82 19 00     	brl	L10011
  1577                        L38:
  1578                        	.line	149
  1579                        ;			//k_debug_string("k_dequeue:exit
                     NULL...\r\n");
  1580                        ;			return NULL;
  Mon Aug  9 2021 16:52                                                Page 31


  1581                        	.line	151
  1582 05:B24D: A9 00 00     	lda	#$0
  1583 05:B250: AA           	tax
  1584 05:B251: A9 00 00     	lda	#$0
  1585                        L39:
  1586 05:B254: A8           	tay
  1587 05:B255: A5 0A        	lda	<L34+2
  1588 05:B257: 85 0E        	sta	<L34+2+4
  1589 05:B259: A5 09        	lda	<L34+1
  1590 05:B25B: 85 0D        	sta	<L34+1+4
  1591 05:B25D: 2B           	pld
  1592 05:B25E: 3B           	tsc
  1593 05:B25F: 18           	clc
  1594 05:B260: 69 0C 00     	adc	#L34+4
  1595 05:B263: 1B           	tcs
  1596 05:B264: 98           	tya
  1597 05:B265: 6B           	rtl
  1598                        ;		}
  1599                        	.line	152
  1600                        ;		k_lock_irq();
  1601                        L10011:
  1602                        	.line	153
  1603 05:B266: 22 xx xx xx  	jsl	~~k_lock_irq
  1604                        ;
  1605                        ;		tmp = q->front;
  1606                        	.line	155
  1607 05:B26A: A0 02 00     	ldy	#$2
  1608 05:B26D: B7 0C        	lda	[<L34+q_0],Y
  1609 05:B26F: 85 01        	sta	<L35+tmp_1
  1610 05:B271: A0 04 00     	ldy	#$4
  1611 05:B274: B7 0C        	lda	[<L34+q_0],Y
  1612 05:B276: 85 03        	sta	<L35+tmp_1+2
  1613                        ;		if(tmp)
  1614                        	.line	156
  1615                        ;		{
  1616 05:B278: A5 01        	lda	<L35+tmp_1
  1617 05:B27A: 05 03        	ora	<L35+tmp_1+2
  1618 05:B27C: D0 03        	bne	L40
  1619 05:B27E: 82 54 00     	brl	L10012
  1620                        L40:
  1621                        	.line	157
  1622                        ;			n = tmp->data;
  1623                        	.line	158
  1624 05:B281: A0 02 00     	ldy	#$2
  1625 05:B284: B7 01        	lda	[<L35+tmp_1],Y
  1626 05:B286: 85 05        	sta	<L35+n_1
  1627 05:B288: A0 04 00     	ldy	#$4
  1628 05:B28B: B7 01        	lda	[<L35+tmp_1],Y
  1629 05:B28D: 85 07        	sta	<L35+n_1+2
  1630                        ;
  1631                        ;			//k_debug_integer("n:",n);
  1632                        ;			//if(n!=NULL)
  1633                        ;			//	k_debug_integer("k_deque
                    ue:",((PFXOSMESSAGE)n)->type);
  1634                        ;
  1635                        ;			//if(q->count < 1)
  1636                        ;			//	return NULL;
  1637                        ;
  Mon Aug  9 2021 16:52                                                Page 32


  1638                        ;			q->front = tmp->next;
  1639                        	.line	167
  1640 05:B28F: A0 0A 00     	ldy	#$a
  1641 05:B292: B7 01        	lda	[<L35+tmp_1],Y
  1642 05:B294: A0 02 00     	ldy	#$2
  1643 05:B297: 97 0C        	sta	[<L34+q_0],Y
  1644 05:B299: A0 0C 00     	ldy	#$c
  1645 05:B29C: B7 01        	lda	[<L35+tmp_1],Y
  1646 05:B29E: A0 04 00     	ldy	#$4
  1647 05:B2A1: 97 0C        	sta	[<L34+q_0],Y
  1648                        ;			if(!q->front)
  1649                        	.line	168
  1650                        ;			{
  1651 05:B2A3: A0 02 00     	ldy	#$2
  1652 05:B2A6: B7 0C        	lda	[<L34+q_0],Y
  1653 05:B2A8: A0 04 00     	ldy	#$4
  1654 05:B2AB: 17 0C        	ora	[<L34+q_0],Y
  1655 05:B2AD: F0 03        	beq	L41
  1656 05:B2AF: 82 10 00     	brl	L10013
  1657                        L41:
  1658                        	.line	169
  1659                        ;				q->rear = NULL;
  1660                        	.line	170
  1661 05:B2B2: A9 00 00     	lda	#$0
  1662 05:B2B5: A0 06 00     	ldy	#$6
  1663 05:B2B8: 97 0C        	sta	[<L34+q_0],Y
  1664 05:B2BA: A9 00 00     	lda	#$0
  1665 05:B2BD: A0 08 00     	ldy	#$8
  1666 05:B2C0: 97 0C        	sta	[<L34+q_0],Y
  1667                        ;			}
  1668                        	.line	171
  1669                        ;
  1670                        ;			q->count--;
  1671                        L10013:
  1672                        	.line	173
  1673 05:B2C2: 18           	clc
  1674 05:B2C3: A9 FF FF     	lda	#$ffff
  1675 05:B2C6: 67 0C        	adc	[<L34+q_0]
  1676 05:B2C8: 87 0C        	sta	[<L34+q_0]
  1677                        ;
  1678                        ;
  1679                        ;
  1680                        ;			k_mem_deallocate_heap(tmp);
  1681                        	.line	177
  1682 05:B2CA: D4 03        	pei	<L35+tmp_1+2
  1683 05:B2CC: D4 01        	pei	<L35+tmp_1
  1684 05:B2CE: 22 xx xx xx  	jsl	~~k_mem_deallocate_heap
  1685                        ;
  1686                        ;			//k_debug_integer("k_dequeue:",(
                    (PFXOSMESSAGE)n)->type);
  1687                        ;		}
  1688                        	.line	180
  1689                        ;		else
  1690 05:B2D2: 82 19 00     	brl	L10014
  1691                        L10012:
  1692                        ;		{
  1693                        	.line	182
  1694                        ;			k_exec_throw_exception(k_dequeue
  Mon Aug  9 2021 16:52                                                Page 33


                    ,0x00010002,"Kernel node is NULL.",-1);
  1695                        	.line	183
  1696 05:B2D5: F4 FF FF     	pea	#<$ffffffff
  1697 05:B2D8: F4 xx xx     	pea	#^L33
  1698 05:B2DB: F4 xx xx     	pea	#<L33
  1699 05:B2DE: F4 01 00     	pea	#^$10002
  1700 05:B2E1: F4 02 00     	pea	#<$10002
  1701 05:B2E4: F4 05 00     	pea	#^~~k_dequeue
  1702 05:B2E7: F4 25 B2     	pea	#<~~k_dequeue
  1703 05:B2EA: 22 xx xx xx  	jsl	~~k_exec_throw_exception
  1704                        ;		}
  1705                        	.line	184
  1706                        L10014:
  1707                        ;
  1708                        ;		k_unlock_irq();
  1709                        	.line	186
  1710 05:B2EE: 22 xx xx xx  	jsl	~~k_unlock_irq
  1711                        ;	}
  1712                        	.line	187
  1713                        ;    else
  1714 05:B2F2: 82 19 00     	brl	L10015
  1715                        L10010:
  1716                        ;    {
  1717                        	.line	189
  1718                        ;    	k_exec_throw_exception(k_dequeue,0x00010
                    001,"Kernel node list is NULL.",-1);
  1719                        	.line	190
  1720 05:B2F5: F4 FF FF     	pea	#<$ffffffff
  1721 05:B2F8: F4 xx xx     	pea	#^L33+21
  1722 05:B2FB: F4 xx xx     	pea	#<L33+21
  1723 05:B2FE: F4 01 00     	pea	#^$10001
  1724 05:B301: F4 01 00     	pea	#<$10001
  1725 05:B304: F4 05 00     	pea	#^~~k_dequeue
  1726 05:B307: F4 25 B2     	pea	#<~~k_dequeue
  1727 05:B30A: 22 xx xx xx  	jsl	~~k_exec_throw_exception
  1728                        ;    }
  1729                        	.line	191
  1730                        L10015:
  1731                        ;
  1732                        ;	//k_debug_string("k_dequeue:exit...\r\n");
  1733                        ;
  1734                        ;	return(n);
  1735                        	.line	195
  1736 05:B30E: A6 07        	ldx	<L35+n_1+2
  1737 05:B310: A5 05        	lda	<L35+n_1
  1738 05:B312: 82 3F FF     	brl	L39
  1739                        ;}
  1740                        	.line	196
  1741                        	.endblock	196
  1742             00000008   L34	equ	8
  1743             00000001   L35	equ	1
  1744 05:B315:              	ends
  1745                        	efunc
  1746                        	.endfunc	196,1,8
  1747                        	.line	196
  1748                        	data
  1749                        L33:
  1750 00:007D: 4B 65 72 6E  	db	$4B,$65,$72,$6E,$65,$6C,$20,$6E,$6F,$64,
  Mon Aug  9 2021 16:52                                                Page 34


                    $65,$20,$69,$73,$20
       00:0081: 65 6C 20 6E 
       00:0085: 6F 64 65 20 
       00:0089: 69 73 20 
  1751 00:008C: 4E 55 4C 4C  	db	$4E,$55,$4C,$4C,$2E,$00,$4B,$65,$72,$6E,
                    $65,$6C,$20,$6E,$6F
       00:0090: 2E 00 4B 65 
       00:0094: 72 6E 65 6C 
       00:0098: 20 6E 6F 
  1752 00:009B: 64 65 20 6C  	db	$64,$65,$20,$6C,$69,$73,$74,$20,$69,$73,
                    $20,$4E,$55,$4C,$4C
       00:009F: 69 73 74 20 
       00:00A3: 69 73 20 4E 
       00:00A7: 55 4C 4C 
  1753 00:00AA: 2E 00        	db	$2E,$00
  1754 00:00AC:              	ends
  1755                        ;
  1756                        ;void k_debug_queue(FXNODE FAR* head)
  1757                        ;{
  1758                        	.line	198
  1759                        	.line	199
  1760                        	NODEMAN
  1761                        	xdef	~~k_debug_queue
  1762                        	func
  1763                        	.function	199
  1764                        ~~k_debug_queue:
  1765                        	longa	on
  1766                        	longi	on
  1767 05:B315: 3B           	tsc
  1768 05:B316: 38           	sec
  1769 05:B317: E9 00 00     	sbc	#L43
  1770 05:B31A: 1B           	tcs
  1771 05:B31B: 0B           	phd
  1772 05:B31C: 5B           	tcd
  1773             00000004   head_0	set	4
  1774                        	.block	199
  1775                        ;    if(head == NULL)
  1776                        	.sym	head,4,138,6,32,2
  1777                        	.line	200
  1778                        ;    {
  1779 05:B31D: A5 04        	lda	<L43+head_0
  1780 05:B31F: 05 06        	ora	<L43+head_0+2
  1781 05:B321: F0 03        	beq	L46
  1782 05:B323: 82 0D 00     	brl	L10016
  1783                        L46:
  1784                        	.line	201
  1785                        ;    	k_debug_string("HEAD == NULL\r\n");
  1786                        	.line	202
  1787 05:B326: F4 xx xx     	pea	#^L42
  1788 05:B329: F4 xx xx     	pea	#<L42
  1789 05:B32C: 22 xx xx xx  	jsl	~~k_debug_string
  1790                        ;    }
  1791                        	.line	203
  1792                        ;    else
  1793 05:B330: 82 10 00     	brl	L10017
  1794                        L10016:
  1795                        ;    {
  1796                        	.line	205
  Mon Aug  9 2021 16:52                                                Page 35


  1797                        ;    	//k_debug_pointer("NODE:",head->data);
  1798                        ;        k_debug_queue(head->next);
  1799                        	.line	207
  1800 05:B333: A0 0C 00     	ldy	#$c
  1801 05:B336: B7 04        	lda	[<L43+head_0],Y
  1802 05:B338: 48           	pha
  1803 05:B339: A0 0A 00     	ldy	#$a
  1804 05:B33C: B7 04        	lda	[<L43+head_0],Y
  1805 05:B33E: 48           	pha
  1806 05:B33F: 22 15 B3 05  	jsl	~~k_debug_queue
  1807                        ;    }
  1808                        	.line	208
  1809                        L10017:
  1810                        ;}
  1811                        	.line	209
  1812                        L47:
  1813 05:B343: A5 02        	lda	<L43+2
  1814 05:B345: 85 06        	sta	<L43+2+4
  1815 05:B347: A5 01        	lda	<L43+1
  1816 05:B349: 85 05        	sta	<L43+1+4
  1817 05:B34B: 2B           	pld
  1818 05:B34C: 3B           	tsc
  1819 05:B34D: 18           	clc
  1820 05:B34E: 69 04 00     	adc	#L43+4
  1821 05:B351: 1B           	tcs
  1822 05:B352: 6B           	rtl
  1823                        	.endblock	209
  1824             00000000   L43	equ	0
  1825             00000001   L44	equ	1
  1826 05:B353:              	ends
  1827                        	efunc
  1828                        	.endfunc	209,1,0
  1829                        	.line	209
  1830                        	data
  1831                        L42:
  1832 00:00AC: 48 45 41 44  	db	$48,$45,$41,$44,$20,$3D,$3D,$20,$4E,$55,
                    $4C,$4C,$0D,$0A,$00
       00:00B0: 20 3D 3D 20 
       00:00B4: 4E 55 4C 4C 
       00:00B8: 0D 0A 00 
  1833 00:00BB:              	ends
  1834                        ;
  1835                        ;
  1836                        ;/**
  1837                        ; *
  1838                        ; *
  1839                        ; */
  1840                        ;PFXNODE k_nodelist_create(BYTE type,LPCSTR name,L
                    PVOID data,PFXNODE last,PFXNODE next)
  1841                        ;{
  1842                        	.line	216
  1843                        	.line	217
  1844                        	NODEMAN
  1845                        	xdef	~~k_nodelist_create
  1846                        	func
  1847                        	.function	217
  1848                        ~~k_nodelist_create:
  1849                        	longa	on
  Mon Aug  9 2021 16:52                                                Page 36


  1850                        	longi	on
  1851 05:B353: 3B           	tsc
  1852 05:B354: 38           	sec
  1853 05:B355: E9 08 00     	sbc	#L49
  1854 05:B358: 1B           	tcs
  1855 05:B359: 0B           	phd
  1856 05:B35A: 5B           	tcd
  1857             00000004   type_0	set	4
  1858             00000006   name_0	set	6
  1859             0000000A   data_0	set	10
  1860             0000000E   last_0	set	14
  1861             00000012   next_0	set	18
  1862                        	.block	217
  1863                        ;	PFXNODE node = (PFXNODE)k_mem_allocate_heap(size
                    of(FXNODE));
  1864                        ;
  1865                        ;	memset(node,0,sizeof(FXNODE));
  1866             00000000   node_1	set	0
  1867                        	.sym	node,0,138,1,32,2
  1868                        	.sym	type,4,14,6,8
  1869                        	.sym	name,6,142,6,32
  1870                        	.sym	data,10,129,6,32
  1871                        	.sym	last,14,138,6,32,2
  1872                        	.sym	next,18,138,6,32,2
  1873 05:B35B: F4 00 00     	pea	#^$30
  1874 05:B35E: F4 30 00     	pea	#<$30
  1875 05:B361: 22 xx xx xx  	jsl	~~k_mem_allocate_heap
  1876 05:B365: 85 05        	sta	<L50+node_1
  1877 05:B367: 86 07        	stx	<L50+node_1+2
  1878                        	.line	220
  1879 05:B369: F4 30 00     	pea	#<$30
  1880 05:B36C: F4 00 00     	pea	#<$0
  1881 05:B36F: D4 07        	pei	<L50+node_1+2
  1882 05:B371: D4 05        	pei	<L50+node_1
  1883 05:B373: 22 xx xx xx  	jsl	~~memset
  1884                        ;
  1885                        ;	node->last = last;
  1886                        	.line	222
  1887 05:B377: A5 16        	lda	<L49+last_0
  1888 05:B379: A0 06 00     	ldy	#$6
  1889 05:B37C: 97 05        	sta	[<L50+node_1],Y
  1890 05:B37E: A5 18        	lda	<L49+last_0+2
  1891 05:B380: A0 08 00     	ldy	#$8
  1892 05:B383: 97 05        	sta	[<L50+node_1],Y
  1893                        ;	node->next = next;
  1894                        	.line	223
  1895 05:B385: A5 1A        	lda	<L49+next_0
  1896 05:B387: A0 0A 00     	ldy	#$a
  1897 05:B38A: 97 05        	sta	[<L50+node_1],Y
  1898 05:B38C: A5 1C        	lda	<L49+next_0+2
  1899 05:B38E: A0 0C 00     	ldy	#$c
  1900 05:B391: 97 05        	sta	[<L50+node_1],Y
  1901                        ;	node->type = type;
  1902                        	.line	224
  1903 05:B393: E2 20        	sep	#$20
  1904                        	longa	off
  1905 05:B395: A5 0C        	lda	<L49+type_0
  1906 05:B397: 87 05        	sta	[<L50+node_1]
  Mon Aug  9 2021 16:52                                                Page 37


  1907 05:B399: C2 20        	rep	#$20
  1908                        	longa	on
  1909                        ;	node->data = data;
  1910                        	.line	225
  1911 05:B39B: A5 12        	lda	<L49+data_0
  1912 05:B39D: A0 02 00     	ldy	#$2
  1913 05:B3A0: 97 05        	sta	[<L50+node_1],Y
  1914 05:B3A2: A5 14        	lda	<L49+data_0+2
  1915 05:B3A4: A0 04 00     	ldy	#$4
  1916 05:B3A7: 97 05        	sta	[<L50+node_1],Y
  1917                        ;	node->Reserved1 = 0;
  1918                        	.line	226
  1919 05:B3A9: A9 00 00     	lda	#$0
  1920 05:B3AC: A0 2E 00     	ldy	#$2e
  1921 05:B3AF: 97 05        	sta	[<L50+node_1],Y
  1922                        ;	node->name[0] = 0;
  1923                        	.line	227
  1924 05:B3B1: E2 20        	sep	#$20
  1925                        	longa	off
  1926 05:B3B3: A9 00        	lda	#$0
  1927 05:B3B5: A0 0E 00     	ldy	#$e
  1928 05:B3B8: 97 05        	sta	[<L50+node_1],Y
  1929 05:B3BA: C2 20        	rep	#$20
  1930                        	longa	on
  1931                        ;	//k_debug_strings("k_nodelist_create::name:", (L
                    PCHAR)name);
  1932                        ;	//k_debug_integer("k_nodelist_create::sizeof(nod
                    e->name):", sizeof(node->name));
  1933                        ;
  1934                        ;	//if(name!=NULL && (strlen(name) < sizeof(node->
                    name)))
  1935                        ;	//	strcpy(node->name,name);
  1936                        ;
  1937                        ;	if(name!=NULL)
  1938                        	.line	234
  1939                        ;	{
  1940 05:B3BC: A5 0E        	lda	<L49+name_0
  1941 05:B3BE: 05 10        	ora	<L49+name_0+2
  1942 05:B3C0: D0 03        	bne	L52
  1943 05:B3C2: 82 5B 00     	brl	L10018
  1944                        L52:
  1945                        	.line	235
  1946                        ;		if(strlen(name) < sizeof(node->name))
  1947                        	.line	236
  1948                        ;		{
  1949 05:B3C5: D4 10        	pei	<L49+name_0+2
  1950 05:B3C7: D4 0E        	pei	<L49+name_0
  1951 05:B3C9: 22 xx xx xx  	jsl	~~strlen
  1952 05:B3CD: 85 01        	sta	<R0
  1953 05:B3CF: A5 01        	lda	<R0
  1954 05:B3D1: C9 20 00     	cmp	#<$20
  1955 05:B3D4: 90 03        	bcc	L53
  1956 05:B3D6: 82 1E 00     	brl	L10019
  1957                        L53:
  1958                        	.line	237
  1959                        ;			strcpy(node->name,name);
  1960                        	.line	238
  1961 05:B3D9: D4 10        	pei	<L49+name_0+2
  Mon Aug  9 2021 16:52                                                Page 38


  1962 05:B3DB: D4 0E        	pei	<L49+name_0
  1963 05:B3DD: 18           	clc
  1964 05:B3DE: A9 0E 00     	lda	#$e
  1965 05:B3E1: 65 05        	adc	<L50+node_1
  1966 05:B3E3: 85 01        	sta	<R0
  1967 05:B3E5: A9 00 00     	lda	#$0
  1968 05:B3E8: 65 07        	adc	<L50+node_1+2
  1969 05:B3EA: 85 03        	sta	<R0+2
  1970 05:B3EC: D4 03        	pei	<R0+2
  1971 05:B3EE: D4 01        	pei	<R0
  1972 05:B3F0: 22 xx xx xx  	jsl	~~strcpy
  1973                        ;		}
  1974                        	.line	239
  1975                        ;		else
  1976 05:B3F4: 82 1E 00     	brl	L10020
  1977                        L10019:
  1978                        ;		{
  1979                        	.line	241
  1980                        ;			strncpy(node->name,name,sizeof(n
                    ode->name)-1);
  1981                        	.line	242
  1982 05:B3F7: F4 1F 00     	pea	#<$1f
  1983 05:B3FA: D4 10        	pei	<L49+name_0+2
  1984 05:B3FC: D4 0E        	pei	<L49+name_0
  1985 05:B3FE: 18           	clc
  1986 05:B3FF: A9 0E 00     	lda	#$e
  1987 05:B402: 65 05        	adc	<L50+node_1
  1988 05:B404: 85 01        	sta	<R0
  1989 05:B406: A9 00 00     	lda	#$0
  1990 05:B409: 65 07        	adc	<L50+node_1+2
  1991 05:B40B: 85 03        	sta	<R0+2
  1992 05:B40D: D4 03        	pei	<R0+2
  1993 05:B40F: D4 01        	pei	<R0
  1994 05:B411: 22 xx xx xx  	jsl	~~strncpy
  1995                        ;		}
  1996                        	.line	243
  1997                        L10020:
  1998                        ;		node->name[31] = 0;
  1999                        	.line	244
  2000 05:B415: E2 20        	sep	#$20
  2001                        	longa	off
  2002 05:B417: A9 00        	lda	#$0
  2003 05:B419: A0 2D 00     	ldy	#$2d
  2004 05:B41C: 97 05        	sta	[<L50+node_1],Y
  2005 05:B41E: C2 20        	rep	#$20
  2006                        	longa	on
  2007                        ;
  2008                        ;		//k_debug_strings("k_nodelist_create::no
                    de->name:", node->name);
  2009                        ;
  2010                        ;	}
  2011                        	.line	248
  2012                        ;	//umm_integrity_check();
  2013                        ;
  2014                        ;	//k_debug_string("k_nodelist_create::exit\r\n");
  2015                        ;
  2016                        ;	return node;
  2017                        L10018:
  Mon Aug  9 2021 16:52                                                Page 39


  2018                        	.line	253
  2019 05:B420: A6 07        	ldx	<L50+node_1+2
  2020 05:B422: A5 05        	lda	<L50+node_1
  2021                        L54:
  2022 05:B424: A8           	tay
  2023 05:B425: A5 0A        	lda	<L49+2
  2024 05:B427: 85 1C        	sta	<L49+2+18
  2025 05:B429: A5 09        	lda	<L49+1
  2026 05:B42B: 85 1B        	sta	<L49+1+18
  2027 05:B42D: 2B           	pld
  2028 05:B42E: 3B           	tsc
  2029 05:B42F: 18           	clc
  2030 05:B430: 69 1A 00     	adc	#L49+18
  2031 05:B433: 1B           	tcs
  2032 05:B434: 98           	tya
  2033 05:B435: 6B           	rtl
  2034                        ;}
  2035                        	.line	254
  2036                        	.endblock	254
  2037             00000008   L49	equ	8
  2038             00000005   L50	equ	5
  2039 05:B436:              	ends
  2040                        	efunc
  2041                        	.endfunc	254,5,8
  2042                        	.line	254
  2043                        ;
  2044                        ;PFXNODE k_nodelist_ncreate(BYTE type,ULONG objId,
                    LPVOID data,PFXNODE last,PFXNODE next)
  2045                        ;{
  2046                        	.line	256
  2047                        	.line	257
  2048                        	NODEMAN
  2049                        	xdef	~~k_nodelist_ncreate
  2050                        	func
  2051                        	.function	257
  2052                        ~~k_nodelist_ncreate:
  2053                        	longa	on
  2054                        	longi	on
  2055 05:B436: 3B           	tsc
  2056 05:B437: 38           	sec
  2057 05:B438: E9 1C 00     	sbc	#L55
  2058 05:B43B: 1B           	tcs
  2059 05:B43C: 0B           	phd
  2060 05:B43D: 5B           	tcd
  2061             00000004   type_0	set	4
  2062             00000006   objId_0	set	6
  2063             0000000A   data_0	set	10
  2064             0000000E   last_0	set	14
  2065             00000012   next_0	set	18
  2066                        	.block	257
  2067                        ;	UCHAR buffer[16];
  2068                        ;	LPCHAR name = NULL;
  2069                        ;	PFXNODE node = (PFXNODE)k_mem_allocate_heap(size
                    of(FXNODE));
  2070                        ;
  2071                        ;	memset(node,0,sizeof(FXNODE));
  2072             00000000   buffer_1	set	0
  2073             00000010   name_1	set	16
  Mon Aug  9 2021 16:52                                                Page 40


  2074             00000014   node_1	set	20
  2075                        	.sym	buffer,0,110,1,0,16
  2076                        	.sym	name,16,142,1,32
  2077                        	.sym	node,20,138,1,32,2
  2078                        	.sym	type,4,14,6,8
  2079                        	.sym	objId,6,18,6,32
  2080                        	.sym	data,10,129,6,32
  2081                        	.sym	last,14,138,6,32,2
  2082                        	.sym	next,18,138,6,32,2
  2083 05:B43E: 64 15        	stz	<L56+name_1
  2084 05:B440: 64 17        	stz	<L56+name_1+2
  2085 05:B442: F4 00 00     	pea	#^$30
  2086 05:B445: F4 30 00     	pea	#<$30
  2087 05:B448: 22 xx xx xx  	jsl	~~k_mem_allocate_heap
  2088 05:B44C: 85 19        	sta	<L56+node_1
  2089 05:B44E: 86 1B        	stx	<L56+node_1+2
  2090                        	.line	262
  2091 05:B450: F4 30 00     	pea	#<$30
  2092 05:B453: F4 00 00     	pea	#<$0
  2093 05:B456: D4 1B        	pei	<L56+node_1+2
  2094 05:B458: D4 19        	pei	<L56+node_1
  2095 05:B45A: 22 xx xx xx  	jsl	~~memset
  2096                        ;
  2097                        ;	node->last = last;
  2098                        	.line	264
  2099 05:B45E: A5 2A        	lda	<L55+last_0
  2100 05:B460: A0 06 00     	ldy	#$6
  2101 05:B463: 97 19        	sta	[<L56+node_1],Y
  2102 05:B465: A5 2C        	lda	<L55+last_0+2
  2103 05:B467: A0 08 00     	ldy	#$8
  2104 05:B46A: 97 19        	sta	[<L56+node_1],Y
  2105                        ;	node->next = next;
  2106                        	.line	265
  2107 05:B46C: A5 2E        	lda	<L55+next_0
  2108 05:B46E: A0 0A 00     	ldy	#$a
  2109 05:B471: 97 19        	sta	[<L56+node_1],Y
  2110 05:B473: A5 30        	lda	<L55+next_0+2
  2111 05:B475: A0 0C 00     	ldy	#$c
  2112 05:B478: 97 19        	sta	[<L56+node_1],Y
  2113                        ;	node->type = type;
  2114                        	.line	266
  2115 05:B47A: E2 20        	sep	#$20
  2116                        	longa	off
  2117 05:B47C: A5 20        	lda	<L55+type_0
  2118 05:B47E: 87 19        	sta	[<L56+node_1]
  2119 05:B480: C2 20        	rep	#$20
  2120                        	longa	on
  2121                        ;	node->data = data;
  2122                        	.line	267
  2123 05:B482: A5 26        	lda	<L55+data_0
  2124 05:B484: A0 02 00     	ldy	#$2
  2125 05:B487: 97 19        	sta	[<L56+node_1],Y
  2126 05:B489: A5 28        	lda	<L55+data_0+2
  2127 05:B48B: A0 04 00     	ldy	#$4
  2128 05:B48E: 97 19        	sta	[<L56+node_1],Y
  2129                        ;	node->Reserved1 = 0;
  2130                        	.line	268
  2131 05:B490: A9 00 00     	lda	#$0
  Mon Aug  9 2021 16:52                                                Page 41


  2132 05:B493: A0 2E 00     	ldy	#$2e
  2133 05:B496: 97 19        	sta	[<L56+node_1],Y
  2134                        ;	node->name[0] = 0;
  2135                        	.line	269
  2136 05:B498: E2 20        	sep	#$20
  2137                        	longa	off
  2138 05:B49A: A9 00        	lda	#$0
  2139 05:B49C: A0 0E 00     	ldy	#$e
  2140 05:B49F: 97 19        	sta	[<L56+node_1],Y
  2141 05:B4A1: C2 20        	rep	#$20
  2142                        	longa	on
  2143                        ;	//k_debug_strings("k_nodelist_create::name:", (L
                    PCHAR)name);
  2144                        ;	//k_debug_integer("k_nodelist_create::sizeof(nod
                    e->name):", sizeof(node->name));
  2145                        ;
  2146                        ;	name = k_longtodec(objId,buffer);
  2147                        	.line	273
  2148 05:B4A3: F4 00 00     	pea	#0
  2149 05:B4A6: 18           	clc
  2150 05:B4A7: 7B           	tdc
  2151 05:B4A8: 69 05 00     	adc	#<L56+buffer_1
  2152 05:B4AB: 48           	pha
  2153 05:B4AC: D4 24        	pei	<L55+objId_0+2
  2154 05:B4AE: D4 22        	pei	<L55+objId_0
  2155 05:B4B0: 22 xx xx xx  	jsl	~~k_longtodec
  2156 05:B4B4: 85 15        	sta	<L56+name_1
  2157 05:B4B6: 86 17        	stx	<L56+name_1+2
  2158                        ;
  2159                        ;	if(name!=NULL && (strlen(name) < sizeof(node->na
                    me)))
  2160                        	.line	275
  2161                        ;		strcpy(node->name,name);
  2162 05:B4B8: A5 15        	lda	<L56+name_1
  2163 05:B4BA: 05 17        	ora	<L56+name_1+2
  2164 05:B4BC: D0 03        	bne	L58
  2165 05:B4BE: 82 2F 00     	brl	L10021
  2166                        L58:
  2167 05:B4C1: D4 17        	pei	<L56+name_1+2
  2168 05:B4C3: D4 15        	pei	<L56+name_1
  2169 05:B4C5: 22 xx xx xx  	jsl	~~strlen
  2170 05:B4C9: 85 01        	sta	<R0
  2171 05:B4CB: A5 01        	lda	<R0
  2172 05:B4CD: C9 20 00     	cmp	#<$20
  2173 05:B4D0: 90 03        	bcc	L59
  2174 05:B4D2: 82 1B 00     	brl	L10021
  2175                        L59:
  2176                        	.line	276
  2177 05:B4D5: D4 17        	pei	<L56+name_1+2
  2178 05:B4D7: D4 15        	pei	<L56+name_1
  2179 05:B4D9: 18           	clc
  2180 05:B4DA: A9 0E 00     	lda	#$e
  2181 05:B4DD: 65 19        	adc	<L56+node_1
  2182 05:B4DF: 85 01        	sta	<R0
  2183 05:B4E1: A9 00 00     	lda	#$0
  2184 05:B4E4: 65 1B        	adc	<L56+node_1+2
  2185 05:B4E6: 85 03        	sta	<R0+2
  2186 05:B4E8: D4 03        	pei	<R0+2
  Mon Aug  9 2021 16:52                                                Page 42


  2187 05:B4EA: D4 01        	pei	<R0
  2188 05:B4EC: 22 xx xx xx  	jsl	~~strcpy
  2189                        ;
  2190                        ;	node->name[31] = 0;
  2191                        L10021:
  2192                        	.line	278
  2193 05:B4F0: E2 20        	sep	#$20
  2194                        	longa	off
  2195 05:B4F2: A9 00        	lda	#$0
  2196 05:B4F4: A0 2D 00     	ldy	#$2d
  2197 05:B4F7: 97 19        	sta	[<L56+node_1],Y
  2198 05:B4F9: C2 20        	rep	#$20
  2199                        	longa	on
  2200                        ;	//umm_integrity_check();
  2201                        ;
  2202                        ;	//k_debug_string("k_nodelist_create::exit\r\n");
  2203                        ;
  2204                        ;	return node;
  2205                        	.line	283
  2206 05:B4FB: A6 1B        	ldx	<L56+node_1+2
  2207 05:B4FD: A5 19        	lda	<L56+node_1
  2208                        L60:
  2209 05:B4FF: A8           	tay
  2210 05:B500: A5 1E        	lda	<L55+2
  2211 05:B502: 85 30        	sta	<L55+2+18
  2212 05:B504: A5 1D        	lda	<L55+1
  2213 05:B506: 85 2F        	sta	<L55+1+18
  2214 05:B508: 2B           	pld
  2215 05:B509: 3B           	tsc
  2216 05:B50A: 18           	clc
  2217 05:B50B: 69 2E 00     	adc	#L55+18
  2218 05:B50E: 1B           	tcs
  2219 05:B50F: 98           	tya
  2220 05:B510: 6B           	rtl
  2221                        ;}
  2222                        	.line	284
  2223                        	.endblock	284
  2224             0000001C   L55	equ	28
  2225             00000005   L56	equ	5
  2226 05:B511:              	ends
  2227                        	efunc
  2228                        	.endfunc	284,5,28
  2229                        	.line	284
  2230                        ;/**
  2231                        ; *
  2232                        ; *
  2233                        ; */
  2234                        ;PFXNODE k_nodelist_init(BYTE type,LPCSTR name,LPV
                    OID data)
  2235                        ;{
  2236                        	.line	289
  2237                        	.line	290
  2238                        	NODEMAN
  2239                        	xdef	~~k_nodelist_init
  2240                        	func
  2241                        	.function	290
  2242                        ~~k_nodelist_init:
  2243                        	longa	on
  Mon Aug  9 2021 16:52                                                Page 43


  2244                        	longi	on
  2245 05:B511: 3B           	tsc
  2246 05:B512: 38           	sec
  2247 05:B513: E9 08 00     	sbc	#L61
  2248 05:B516: 1B           	tcs
  2249 05:B517: 0B           	phd
  2250 05:B518: 5B           	tcd
  2251             00000004   type_0	set	4
  2252             00000006   name_0	set	6
  2253             0000000A   data_0	set	10
  2254                        	.block	290
  2255                        ;	PFXNODE node = (PFXNODE)k_mem_allocate_heap(size
                    of(FXNODE));
  2256                        ;
  2257                        ;	memset(node,0,sizeof(FXNODE));
  2258             00000000   node_1	set	0
  2259                        	.sym	node,0,138,1,32,2
  2260                        	.sym	type,4,14,6,8
  2261                        	.sym	name,6,142,6,32
  2262                        	.sym	data,10,129,6,32
  2263 05:B519: F4 00 00     	pea	#^$30
  2264 05:B51C: F4 30 00     	pea	#<$30
  2265 05:B51F: 22 xx xx xx  	jsl	~~k_mem_allocate_heap
  2266 05:B523: 85 05        	sta	<L62+node_1
  2267 05:B525: 86 07        	stx	<L62+node_1+2
  2268                        	.line	293
  2269 05:B527: F4 30 00     	pea	#<$30
  2270 05:B52A: F4 00 00     	pea	#<$0
  2271 05:B52D: D4 07        	pei	<L62+node_1+2
  2272 05:B52F: D4 05        	pei	<L62+node_1
  2273 05:B531: 22 xx xx xx  	jsl	~~memset
  2274                        ;
  2275                        ;	node->last = NULL;
  2276                        	.line	295
  2277 05:B535: A9 00 00     	lda	#$0
  2278 05:B538: A0 06 00     	ldy	#$6
  2279 05:B53B: 97 05        	sta	[<L62+node_1],Y
  2280 05:B53D: A9 00 00     	lda	#$0
  2281 05:B540: A0 08 00     	ldy	#$8
  2282 05:B543: 97 05        	sta	[<L62+node_1],Y
  2283                        ;	node->next = NULL;
  2284                        	.line	296
  2285 05:B545: A9 00 00     	lda	#$0
  2286 05:B548: A0 0A 00     	ldy	#$a
  2287 05:B54B: 97 05        	sta	[<L62+node_1],Y
  2288 05:B54D: A9 00 00     	lda	#$0
  2289 05:B550: A0 0C 00     	ldy	#$c
  2290 05:B553: 97 05        	sta	[<L62+node_1],Y
  2291                        ;	node->type = type;
  2292                        	.line	297
  2293 05:B555: E2 20        	sep	#$20
  2294                        	longa	off
  2295 05:B557: A5 0C        	lda	<L61+type_0
  2296 05:B559: 87 05        	sta	[<L62+node_1]
  2297 05:B55B: C2 20        	rep	#$20
  2298                        	longa	on
  2299                        ;	node->data = data;
  2300                        	.line	298
  Mon Aug  9 2021 16:52                                                Page 44


  2301 05:B55D: A5 12        	lda	<L61+data_0
  2302 05:B55F: A0 02 00     	ldy	#$2
  2303 05:B562: 97 05        	sta	[<L62+node_1],Y
  2304 05:B564: A5 14        	lda	<L61+data_0+2
  2305 05:B566: A0 04 00     	ldy	#$4
  2306 05:B569: 97 05        	sta	[<L62+node_1],Y
  2307                        ;	node->Reserved1 = 0;
  2308                        	.line	299
  2309 05:B56B: A9 00 00     	lda	#$0
  2310 05:B56E: A0 2E 00     	ldy	#$2e
  2311 05:B571: 97 05        	sta	[<L62+node_1],Y
  2312                        ;	if(name!=NULL)
  2313                        	.line	300
  2314                        ;		strncpy(node->name,name,sizeof(node->nam
                    e));
  2315 05:B573: A5 0E        	lda	<L61+name_0
  2316 05:B575: 05 10        	ora	<L61+name_0+2
  2317 05:B577: D0 03        	bne	L64
  2318 05:B579: 82 1E 00     	brl	L10022
  2319                        L64:
  2320                        	.line	301
  2321 05:B57C: F4 20 00     	pea	#<$20
  2322 05:B57F: D4 10        	pei	<L61+name_0+2
  2323 05:B581: D4 0E        	pei	<L61+name_0
  2324 05:B583: 18           	clc
  2325 05:B584: A9 0E 00     	lda	#$e
  2326 05:B587: 65 05        	adc	<L62+node_1
  2327 05:B589: 85 01        	sta	<R0
  2328 05:B58B: A9 00 00     	lda	#$0
  2329 05:B58E: 65 07        	adc	<L62+node_1+2
  2330 05:B590: 85 03        	sta	<R0+2
  2331 05:B592: D4 03        	pei	<R0+2
  2332 05:B594: D4 01        	pei	<R0
  2333 05:B596: 22 xx xx xx  	jsl	~~strncpy
  2334                        ;
  2335                        ;	node->name[31] = 0;
  2336                        L10022:
  2337                        	.line	303
  2338 05:B59A: E2 20        	sep	#$20
  2339                        	longa	off
  2340 05:B59C: A9 00        	lda	#$0
  2341 05:B59E: A0 2D 00     	ldy	#$2d
  2342 05:B5A1: 97 05        	sta	[<L62+node_1],Y
  2343 05:B5A3: C2 20        	rep	#$20
  2344                        	longa	on
  2345                        ;
  2346                        ;	return node;
  2347                        	.line	305
  2348 05:B5A5: A6 07        	ldx	<L62+node_1+2
  2349 05:B5A7: A5 05        	lda	<L62+node_1
  2350                        L65:
  2351 05:B5A9: A8           	tay
  2352 05:B5AA: A5 0A        	lda	<L61+2
  2353 05:B5AC: 85 14        	sta	<L61+2+10
  2354 05:B5AE: A5 09        	lda	<L61+1
  2355 05:B5B0: 85 13        	sta	<L61+1+10
  2356 05:B5B2: 2B           	pld
  2357 05:B5B3: 3B           	tsc
  Mon Aug  9 2021 16:52                                                Page 45


  2358 05:B5B4: 18           	clc
  2359 05:B5B5: 69 12 00     	adc	#L61+10
  2360 05:B5B8: 1B           	tcs
  2361 05:B5B9: 98           	tya
  2362 05:B5BA: 6B           	rtl
  2363                        ;}
  2364                        	.line	306
  2365                        	.endblock	306
  2366             00000008   L61	equ	8
  2367             00000005   L62	equ	5
  2368 05:B5BB:              	ends
  2369                        	efunc
  2370                        	.endfunc	306,5,8
  2371                        	.line	306
  2372                        ;/**
  2373                        ; *
  2374                        ; *
  2375                        ; */
  2376                        ;PFXNODE k_nodelist_copy(PFXNODE node)
  2377                        ;{
  2378                        	.line	311
  2379                        	.line	312
  2380                        	NODEMAN
  2381                        	xdef	~~k_nodelist_copy
  2382                        	func
  2383                        	.function	312
  2384                        ~~k_nodelist_copy:
  2385                        	longa	on
  2386                        	longi	on
  2387 05:B5BB: 3B           	tsc
  2388 05:B5BC: 38           	sec
  2389 05:B5BD: E9 08 00     	sbc	#L66
  2390 05:B5C0: 1B           	tcs
  2391 05:B5C1: 0B           	phd
  2392 05:B5C2: 5B           	tcd
  2393             00000004   node_0	set	4
  2394                        	.block	312
  2395                        ;	PFXNODE newnode = k_nodelist_init(node->type,nod
                    e->name,node->data);
  2396                        ;	if(newnode!=NULL)
  2397             00000000   newnode_1	set	0
  2398                        	.sym	newnode,0,138,1,32,2
  2399                        	.sym	node,4,138,6,32,2
  2400 05:B5C3: A0 04 00     	ldy	#$4
  2401 05:B5C6: B7 0C        	lda	[<L66+node_0],Y
  2402 05:B5C8: 48           	pha
  2403 05:B5C9: A0 02 00     	ldy	#$2
  2404 05:B5CC: B7 0C        	lda	[<L66+node_0],Y
  2405 05:B5CE: 48           	pha
  2406 05:B5CF: 18           	clc
  2407 05:B5D0: A9 0E 00     	lda	#$e
  2408 05:B5D3: 65 0C        	adc	<L66+node_0
  2409 05:B5D5: 85 01        	sta	<R0
  2410 05:B5D7: A9 00 00     	lda	#$0
  2411 05:B5DA: 65 0E        	adc	<L66+node_0+2
  2412 05:B5DC: 85 03        	sta	<R0+2
  2413 05:B5DE: D4 03        	pei	<R0+2
  2414 05:B5E0: D4 01        	pei	<R0
  Mon Aug  9 2021 16:52                                                Page 46


  2415 05:B5E2: A7 0C        	lda	[<L66+node_0]
  2416 05:B5E4: 48           	pha
  2417 05:B5E5: 22 11 B5 05  	jsl	~~k_nodelist_init
  2418 05:B5E9: 85 05        	sta	<L67+newnode_1
  2419 05:B5EB: 86 07        	stx	<L67+newnode_1+2
  2420                        	.line	314
  2421                        ;	{
  2422 05:B5ED: A5 05        	lda	<L67+newnode_1
  2423 05:B5EF: 05 07        	ora	<L67+newnode_1+2
  2424 05:B5F1: D0 03        	bne	L69
  2425 05:B5F3: 82 28 00     	brl	L10023
  2426                        L69:
  2427                        	.line	315
  2428                        ;		newnode->last = node->last;
  2429                        	.line	316
  2430 05:B5F6: A0 06 00     	ldy	#$6
  2431 05:B5F9: B7 0C        	lda	[<L66+node_0],Y
  2432 05:B5FB: A0 06 00     	ldy	#$6
  2433 05:B5FE: 97 05        	sta	[<L67+newnode_1],Y
  2434 05:B600: A0 08 00     	ldy	#$8
  2435 05:B603: B7 0C        	lda	[<L66+node_0],Y
  2436 05:B605: A0 08 00     	ldy	#$8
  2437 05:B608: 97 05        	sta	[<L67+newnode_1],Y
  2438                        ;		newnode->next = node->next;
  2439                        	.line	317
  2440 05:B60A: A0 0A 00     	ldy	#$a
  2441 05:B60D: B7 0C        	lda	[<L66+node_0],Y
  2442 05:B60F: A0 0A 00     	ldy	#$a
  2443 05:B612: 97 05        	sta	[<L67+newnode_1],Y
  2444 05:B614: A0 0C 00     	ldy	#$c
  2445 05:B617: B7 0C        	lda	[<L66+node_0],Y
  2446 05:B619: A0 0C 00     	ldy	#$c
  2447 05:B61C: 97 05        	sta	[<L67+newnode_1],Y
  2448                        ;	}
  2449                        	.line	318
  2450                        ;	return newnode;
  2451                        L10023:
  2452                        	.line	319
  2453 05:B61E: A6 07        	ldx	<L67+newnode_1+2
  2454 05:B620: A5 05        	lda	<L67+newnode_1
  2455                        L70:
  2456 05:B622: A8           	tay
  2457 05:B623: A5 0A        	lda	<L66+2
  2458 05:B625: 85 0E        	sta	<L66+2+4
  2459 05:B627: A5 09        	lda	<L66+1
  2460 05:B629: 85 0D        	sta	<L66+1+4
  2461 05:B62B: 2B           	pld
  2462 05:B62C: 3B           	tsc
  2463 05:B62D: 18           	clc
  2464 05:B62E: 69 0C 00     	adc	#L66+4
  2465 05:B631: 1B           	tcs
  2466 05:B632: 98           	tya
  2467 05:B633: 6B           	rtl
  2468                        ;}
  2469                        	.line	320
  2470                        	.endblock	320
  2471             00000008   L66	equ	8
  2472             00000005   L67	equ	5
  Mon Aug  9 2021 16:52                                                Page 47


  2473 05:B634:              	ends
  2474                        	efunc
  2475                        	.endfunc	320,5,8
  2476                        	.line	320
  2477                        ;/**
  2478                        ; *
  2479                        ; *
  2480                        ; */
  2481                        ;VOID k_nodelist_add(PFXNODE head,PFXNODE new)
  2482                        ;{
  2483                        	.line	325
  2484                        	.line	326
  2485                        	NODEMAN
  2486                        	xdef	~~k_nodelist_add
  2487                        	func
  2488                        	.function	326
  2489                        ~~k_nodelist_add:
  2490                        	longa	on
  2491                        	longi	on
  2492 05:B634: 3B           	tsc
  2493 05:B635: 38           	sec
  2494 05:B636: E9 04 00     	sbc	#L71
  2495 05:B639: 1B           	tcs
  2496 05:B63A: 0B           	phd
  2497 05:B63B: 5B           	tcd
  2498             00000004   head_0	set	4
  2499             00000008   new_0	set	8
  2500                        	.block	326
  2501                        ;	PFXNODE lastNode = k_nodelist_last(head);
  2502                        ;	if(lastNode!=NULL)
  2503             00000000   lastNode_1	set	0
  2504                        	.sym	lastNode,0,138,1,32,2
  2505                        	.sym	head,4,138,6,32,2
  2506                        	.sym	new,8,138,6,32,2
  2507 05:B63C: D4 0A        	pei	<L71+head_0+2
  2508 05:B63E: D4 08        	pei	<L71+head_0
  2509 05:B640: 22 D3 BA 05  	jsl	~~k_nodelist_last
  2510 05:B644: 85 01        	sta	<L72+lastNode_1
  2511 05:B646: 86 03        	stx	<L72+lastNode_1+2
  2512                        	.line	328
  2513                        ;	{
  2514 05:B648: A5 01        	lda	<L72+lastNode_1
  2515 05:B64A: 05 03        	ora	<L72+lastNode_1+2
  2516 05:B64C: D0 03        	bne	L74
  2517 05:B64E: 82 2C 00     	brl	L10024
  2518                        L74:
  2519                        	.line	329
  2520                        ;		new->last = lastNode;
  2521                        	.line	330
  2522 05:B651: A5 01        	lda	<L72+lastNode_1
  2523 05:B653: A0 06 00     	ldy	#$6
  2524 05:B656: 97 0C        	sta	[<L71+new_0],Y
  2525 05:B658: A5 03        	lda	<L72+lastNode_1+2
  2526 05:B65A: A0 08 00     	ldy	#$8
  2527 05:B65D: 97 0C        	sta	[<L71+new_0],Y
  2528                        ;		new->next = NULL;
  2529                        	.line	331
  2530 05:B65F: A9 00 00     	lda	#$0
  Mon Aug  9 2021 16:52                                                Page 48


  2531 05:B662: A0 0A 00     	ldy	#$a
  2532 05:B665: 97 0C        	sta	[<L71+new_0],Y
  2533 05:B667: A9 00 00     	lda	#$0
  2534 05:B66A: A0 0C 00     	ldy	#$c
  2535 05:B66D: 97 0C        	sta	[<L71+new_0],Y
  2536                        ;		lastNode->next = new;
  2537                        	.line	332
  2538 05:B66F: A5 0C        	lda	<L71+new_0
  2539 05:B671: A0 0A 00     	ldy	#$a
  2540 05:B674: 97 01        	sta	[<L72+lastNode_1],Y
  2541 05:B676: A5 0E        	lda	<L71+new_0+2
  2542 05:B678: A0 0C 00     	ldy	#$c
  2543 05:B67B: 97 01        	sta	[<L72+lastNode_1],Y
  2544                        ;	}
  2545                        	.line	333
  2546                        ;	return;
  2547                        L10024:
  2548                        	.line	334
  2549                        L75:
  2550 05:B67D: A5 06        	lda	<L71+2
  2551 05:B67F: 85 0E        	sta	<L71+2+8
  2552 05:B681: A5 05        	lda	<L71+1
  2553 05:B683: 85 0D        	sta	<L71+1+8
  2554 05:B685: 2B           	pld
  2555 05:B686: 3B           	tsc
  2556 05:B687: 18           	clc
  2557 05:B688: 69 0C 00     	adc	#L71+8
  2558 05:B68B: 1B           	tcs
  2559 05:B68C: 6B           	rtl
  2560                        ;}
  2561                        	.line	335
  2562                        	.endblock	335
  2563             00000004   L71	equ	4
  2564             00000001   L72	equ	1
  2565 05:B68D:              	ends
  2566                        	efunc
  2567                        	.endfunc	335,1,4
  2568                        	.line	335
  2569                        ;
  2570                        ;VOID k_nodelist_addtohead(PFXNODE listhead,PFXNOD
                    E new)
  2571                        ;{
  2572                        	.line	337
  2573                        	.line	338
  2574                        	NODEMAN
  2575                        	xdef	~~k_nodelist_addtohead
  2576                        	func
  2577                        	.function	338
  2578                        ~~k_nodelist_addtohead:
  2579                        	longa	on
  2580                        	longi	on
  2581 05:B68D: 3B           	tsc
  2582 05:B68E: 38           	sec
  2583 05:B68F: E9 04 00     	sbc	#L76
  2584 05:B692: 1B           	tcs
  2585 05:B693: 0B           	phd
  2586 05:B694: 5B           	tcd
  2587             00000004   listhead_0	set	4
  Mon Aug  9 2021 16:52                                                Page 49


  2588             00000008   new_0	set	8
  2589                        	.block	338
  2590                        ;	PFXNODE head = listhead->next;
  2591                        ;
  2592                        ;	if(head)
  2593             00000000   head_1	set	0
  2594                        	.sym	head,0,138,1,32,2
  2595                        	.sym	listhead,4,138,6,32,2
  2596                        	.sym	new,8,138,6,32,2
  2597 05:B695: A0 0A 00     	ldy	#$a
  2598 05:B698: B7 08        	lda	[<L76+listhead_0],Y
  2599 05:B69A: 85 01        	sta	<L77+head_1
  2600 05:B69C: A0 0C 00     	ldy	#$c
  2601 05:B69F: B7 08        	lda	[<L76+listhead_0],Y
  2602 05:B6A1: 85 03        	sta	<L77+head_1+2
  2603                        	.line	341
  2604                        ;	{
  2605 05:B6A3: A5 01        	lda	<L77+head_1
  2606 05:B6A5: 05 03        	ora	<L77+head_1+2
  2607 05:B6A7: D0 03        	bne	L79
  2608 05:B6A9: 82 3C 00     	brl	L10025
  2609                        L79:
  2610                        	.line	342
  2611                        ;		if(head!=NULL)
  2612                        	.line	343
  2613                        ;		{
  2614 05:B6AC: A5 01        	lda	<L77+head_1
  2615 05:B6AE: 05 03        	ora	<L77+head_1+2
  2616 05:B6B0: D0 03        	bne	L80
  2617 05:B6B2: 82 30 00     	brl	L10026
  2618                        L80:
  2619                        	.line	344
  2620                        ;			new->last = head->last;
  2621                        	.line	345
  2622 05:B6B5: A0 06 00     	ldy	#$6
  2623 05:B6B8: B7 01        	lda	[<L77+head_1],Y
  2624 05:B6BA: A0 06 00     	ldy	#$6
  2625 05:B6BD: 97 0C        	sta	[<L76+new_0],Y
  2626 05:B6BF: A0 08 00     	ldy	#$8
  2627 05:B6C2: B7 01        	lda	[<L77+head_1],Y
  2628 05:B6C4: A0 08 00     	ldy	#$8
  2629 05:B6C7: 97 0C        	sta	[<L76+new_0],Y
  2630                        ;			new->next = head;
  2631                        	.line	346
  2632 05:B6C9: A5 01        	lda	<L77+head_1
  2633 05:B6CB: A0 0A 00     	ldy	#$a
  2634 05:B6CE: 97 0C        	sta	[<L76+new_0],Y
  2635 05:B6D0: A5 03        	lda	<L77+head_1+2
  2636 05:B6D2: A0 0C 00     	ldy	#$c
  2637 05:B6D5: 97 0C        	sta	[<L76+new_0],Y
  2638                        ;			head->last = new;
  2639                        	.line	347
  2640 05:B6D7: A5 0C        	lda	<L76+new_0
  2641 05:B6D9: A0 06 00     	ldy	#$6
  2642 05:B6DC: 97 01        	sta	[<L77+head_1],Y
  2643 05:B6DE: A5 0E        	lda	<L76+new_0+2
  2644 05:B6E0: A0 08 00     	ldy	#$8
  2645 05:B6E3: 97 01        	sta	[<L77+head_1],Y
  Mon Aug  9 2021 16:52                                                Page 50


  2646                        ;
  2647                        ;			//new->last = head;
  2648                        ;			//new->next = head->next;
  2649                        ;			//head->next = new;
  2650                        ;		}
  2651                        	.line	352
  2652                        ;	}
  2653                        L10026:
  2654                        	.line	353
  2655                        ;	else
  2656 05:B6E5: 82 2C 00     	brl	L10027
  2657                        L10025:
  2658                        ;	{
  2659                        	.line	355
  2660                        ;		listhead->next = new;
  2661                        	.line	356
  2662 05:B6E8: A5 0C        	lda	<L76+new_0
  2663 05:B6EA: A0 0A 00     	ldy	#$a
  2664 05:B6ED: 97 08        	sta	[<L76+listhead_0],Y
  2665 05:B6EF: A5 0E        	lda	<L76+new_0+2
  2666 05:B6F1: A0 0C 00     	ldy	#$c
  2667 05:B6F4: 97 08        	sta	[<L76+listhead_0],Y
  2668                        ;		new->last = listhead;
  2669                        	.line	357
  2670 05:B6F6: A5 08        	lda	<L76+listhead_0
  2671 05:B6F8: A0 06 00     	ldy	#$6
  2672 05:B6FB: 97 0C        	sta	[<L76+new_0],Y
  2673 05:B6FD: A5 0A        	lda	<L76+listhead_0+2
  2674 05:B6FF: A0 08 00     	ldy	#$8
  2675 05:B702: 97 0C        	sta	[<L76+new_0],Y
  2676                        ;		new->next = NULL;
  2677                        	.line	358
  2678 05:B704: A9 00 00     	lda	#$0
  2679 05:B707: A0 0A 00     	ldy	#$a
  2680 05:B70A: 97 0C        	sta	[<L76+new_0],Y
  2681 05:B70C: A9 00 00     	lda	#$0
  2682 05:B70F: A0 0C 00     	ldy	#$c
  2683 05:B712: 97 0C        	sta	[<L76+new_0],Y
  2684                        ;	}
  2685                        	.line	359
  2686                        L10027:
  2687                        ;	return;
  2688                        	.line	360
  2689                        L81:
  2690 05:B714: A5 06        	lda	<L76+2
  2691 05:B716: 85 0E        	sta	<L76+2+8
  2692 05:B718: A5 05        	lda	<L76+1
  2693 05:B71A: 85 0D        	sta	<L76+1+8
  2694 05:B71C: 2B           	pld
  2695 05:B71D: 3B           	tsc
  2696 05:B71E: 18           	clc
  2697 05:B71F: 69 0C 00     	adc	#L76+8
  2698 05:B722: 1B           	tcs
  2699 05:B723: 6B           	rtl
  2700                        ;}
  2701                        	.line	361
  2702                        	.endblock	361
  2703             00000004   L76	equ	4
  Mon Aug  9 2021 16:52                                                Page 51


  2704             00000001   L77	equ	1
  2705 05:B724:              	ends
  2706                        	efunc
  2707                        	.endfunc	361,1,4
  2708                        	.line	361
  2709                        ;/**
  2710                        ; *
  2711                        ; *
  2712                        ; */
  2713                        ;PFXNODE k_nodelist_gettype(PFXNODE head,BYTE type
                    )
  2714                        ;{
  2715                        	.line	366
  2716                        	.line	367
  2717                        	NODEMAN
  2718                        	xdef	~~k_nodelist_gettype
  2719                        	func
  2720                        	.function	367
  2721                        ~~k_nodelist_gettype:
  2722                        	longa	on
  2723                        	longi	on
  2724 05:B724: 3B           	tsc
  2725 05:B725: 38           	sec
  2726 05:B726: E9 08 00     	sbc	#L82
  2727 05:B729: 1B           	tcs
  2728 05:B72A: 0B           	phd
  2729 05:B72B: 5B           	tcd
  2730             00000004   head_0	set	4
  2731             00000008   type_0	set	8
  2732                        	.block	367
  2733                        ;	PFXNODE ptr = head;
  2734                        ;	while(ptr!=NULL)
  2735             00000000   ptr_1	set	0
  2736                        	.sym	ptr,0,138,1,32,2
  2737                        	.sym	head,4,138,6,32,2
  2738                        	.sym	type,8,14,6,8
  2739 05:B72C: A5 0C        	lda	<L82+head_0
  2740 05:B72E: 85 05        	sta	<L83+ptr_1
  2741 05:B730: A5 0E        	lda	<L82+head_0+2
  2742 05:B732: 85 07        	sta	<L83+ptr_1+2
  2743                        	.line	369
  2744                        L10028:
  2745 05:B734: A5 05        	lda	<L83+ptr_1
  2746 05:B736: 05 07        	ora	<L83+ptr_1+2
  2747 05:B738: D0 03        	bne	L85
  2748 05:B73A: 82 29 00     	brl	L10029
  2749                        L85:
  2750                        ;	{
  2751                        	.line	370
  2752                        ;		//k_debug_string("k_nodelist_gettype\r\n
                    ");
  2753                        ;		if(ptr->type == type)
  2754                        	.line	372
  2755                        ;		{
  2756 05:B73D: E2 20        	sep	#$20
  2757                        	longa	off
  2758 05:B73F: A7 05        	lda	[<L83+ptr_1]
  2759 05:B741: C5 10        	cmp	<L82+type_0
  Mon Aug  9 2021 16:52                                                Page 52


  2760 05:B743: C2 20        	rep	#$20
  2761                        	longa	on
  2762 05:B745: F0 03        	beq	L86
  2763 05:B747: 82 03 00     	brl	L10030
  2764                        L86:
  2765                        	.line	373
  2766                        ;			break;
  2767                        	.line	374
  2768 05:B74A: 82 19 00     	brl	L10029
  2769                        ;		}
  2770                        	.line	375
  2771                        ;		ptr = ptr->next;
  2772                        L10030:
  2773                        	.line	376
  2774 05:B74D: A0 0A 00     	ldy	#$a
  2775 05:B750: B7 05        	lda	[<L83+ptr_1],Y
  2776 05:B752: 85 01        	sta	<R0
  2777 05:B754: A0 0C 00     	ldy	#$c
  2778 05:B757: B7 05        	lda	[<L83+ptr_1],Y
  2779 05:B759: 85 03        	sta	<R0+2
  2780 05:B75B: A5 01        	lda	<R0
  2781 05:B75D: 85 05        	sta	<L83+ptr_1
  2782 05:B75F: A5 03        	lda	<R0+2
  2783 05:B761: 85 07        	sta	<L83+ptr_1+2
  2784                        ;	}
  2785                        	.line	377
  2786 05:B763: 82 CE FF     	brl	L10028
  2787                        L10029:
  2788                        ;	return ptr;
  2789                        	.line	378
  2790 05:B766: A6 07        	ldx	<L83+ptr_1+2
  2791 05:B768: A5 05        	lda	<L83+ptr_1
  2792                        L87:
  2793 05:B76A: A8           	tay
  2794 05:B76B: A5 0A        	lda	<L82+2
  2795 05:B76D: 85 10        	sta	<L82+2+6
  2796 05:B76F: A5 09        	lda	<L82+1
  2797 05:B771: 85 0F        	sta	<L82+1+6
  2798 05:B773: 2B           	pld
  2799 05:B774: 3B           	tsc
  2800 05:B775: 18           	clc
  2801 05:B776: 69 0E 00     	adc	#L82+6
  2802 05:B779: 1B           	tcs
  2803 05:B77A: 98           	tya
  2804 05:B77B: 6B           	rtl
  2805                        ;}
  2806                        	.line	379
  2807                        	.endblock	379
  2808             00000008   L82	equ	8
  2809             00000005   L83	equ	5
  2810 05:B77C:              	ends
  2811                        	efunc
  2812                        	.endfunc	379,5,8
  2813                        	.line	379
  2814                        ;/**
  2815                        ; *
  2816                        ; *
  2817                        ; */
  Mon Aug  9 2021 16:52                                                Page 53


  2818                        ;PFXNODE k_nodelist_getname(PFXNODE head,LPCSTR na
                    me)
  2819                        ;{
  2820                        	.line	384
  2821                        	.line	385
  2822                        	NODEMAN
  2823                        	xdef	~~k_nodelist_getname
  2824                        	func
  2825                        	.function	385
  2826                        ~~k_nodelist_getname:
  2827                        	longa	on
  2828                        	longi	on
  2829 05:B77C: 3B           	tsc
  2830 05:B77D: 38           	sec
  2831 05:B77E: E9 08 00     	sbc	#L88
  2832 05:B781: 1B           	tcs
  2833 05:B782: 0B           	phd
  2834 05:B783: 5B           	tcd
  2835             00000004   head_0	set	4
  2836             00000008   name_0	set	8
  2837                        	.block	385
  2838                        ;	PFXNODE ptr = head;
  2839                        ;	while(ptr!=NULL)
  2840             00000000   ptr_1	set	0
  2841                        	.sym	ptr,0,138,1,32,2
  2842                        	.sym	head,4,138,6,32,2
  2843                        	.sym	name,8,142,6,32
  2844 05:B784: A5 0C        	lda	<L88+head_0
  2845 05:B786: 85 05        	sta	<L89+ptr_1
  2846 05:B788: A5 0E        	lda	<L88+head_0+2
  2847 05:B78A: 85 07        	sta	<L89+ptr_1+2
  2848                        	.line	387
  2849                        L10031:
  2850 05:B78C: A5 05        	lda	<L89+ptr_1
  2851 05:B78E: 05 07        	ora	<L89+ptr_1+2
  2852 05:B790: D0 03        	bne	L91
  2853 05:B792: 82 46 00     	brl	L10032
  2854                        L91:
  2855                        ;	{
  2856                        	.line	388
  2857                        ;		//k_debug_strings("k_nodelist_getname:",
                    (LPSTR)name);
  2858                        ;		//k_debug_strings("             found:",
                    ptr->name);
  2859                        ;		if(name && strcmp(ptr->name,name) == 0)
  2860                        	.line	391
  2861                        ;		{
  2862 05:B795: A5 10        	lda	<L88+name_0
  2863 05:B797: 05 12        	ora	<L88+name_0+2
  2864 05:B799: D0 03        	bne	L92
  2865 05:B79B: 82 24 00     	brl	L10033
  2866                        L92:
  2867 05:B79E: D4 12        	pei	<L88+name_0+2
  2868 05:B7A0: D4 10        	pei	<L88+name_0
  2869 05:B7A2: 18           	clc
  2870 05:B7A3: A9 0E 00     	lda	#$e
  2871 05:B7A6: 65 05        	adc	<L89+ptr_1
  2872 05:B7A8: 85 01        	sta	<R0
  Mon Aug  9 2021 16:52                                                Page 54


  2873 05:B7AA: A9 00 00     	lda	#$0
  2874 05:B7AD: 65 07        	adc	<L89+ptr_1+2
  2875 05:B7AF: 85 03        	sta	<R0+2
  2876 05:B7B1: D4 03        	pei	<R0+2
  2877 05:B7B3: D4 01        	pei	<R0
  2878 05:B7B5: 22 xx xx xx  	jsl	~~strcmp
  2879 05:B7B9: AA           	tax
  2880 05:B7BA: F0 03        	beq	L93
  2881 05:B7BC: 82 03 00     	brl	L10033
  2882                        L93:
  2883                        	.line	392
  2884                        ;			//k_debug_strings("k_nodelist_ge
                    tname:found:",(LPSTR)name);
  2885                        ;			//k_debug_strings("k_nodelist_ge
                    tname:name:",(LPSTR)ptr->name);
  2886                        ;			//k_debug_pointer("k_nodelist_ge
                    tname:name:",ptr);
  2887                        ;			break;
  2888                        	.line	396
  2889 05:B7BF: 82 19 00     	brl	L10032
  2890                        ;		}
  2891                        	.line	397
  2892                        ;		ptr = ptr->next;
  2893                        L10033:
  2894                        	.line	398
  2895 05:B7C2: A0 0A 00     	ldy	#$a
  2896 05:B7C5: B7 05        	lda	[<L89+ptr_1],Y
  2897 05:B7C7: 85 01        	sta	<R0
  2898 05:B7C9: A0 0C 00     	ldy	#$c
  2899 05:B7CC: B7 05        	lda	[<L89+ptr_1],Y
  2900 05:B7CE: 85 03        	sta	<R0+2
  2901 05:B7D0: A5 01        	lda	<R0
  2902 05:B7D2: 85 05        	sta	<L89+ptr_1
  2903 05:B7D4: A5 03        	lda	<R0+2
  2904 05:B7D6: 85 07        	sta	<L89+ptr_1+2
  2905                        ;	}
  2906                        	.line	399
  2907 05:B7D8: 82 B1 FF     	brl	L10031
  2908                        L10032:
  2909                        ;	return ptr;
  2910                        	.line	400
  2911 05:B7DB: A6 07        	ldx	<L89+ptr_1+2
  2912 05:B7DD: A5 05        	lda	<L89+ptr_1
  2913                        L94:
  2914 05:B7DF: A8           	tay
  2915 05:B7E0: A5 0A        	lda	<L88+2
  2916 05:B7E2: 85 12        	sta	<L88+2+8
  2917 05:B7E4: A5 09        	lda	<L88+1
  2918 05:B7E6: 85 11        	sta	<L88+1+8
  2919 05:B7E8: 2B           	pld
  2920 05:B7E9: 3B           	tsc
  2921 05:B7EA: 18           	clc
  2922 05:B7EB: 69 10 00     	adc	#L88+8
  2923 05:B7EE: 1B           	tcs
  2924 05:B7EF: 98           	tya
  2925 05:B7F0: 6B           	rtl
  2926                        ;}
  2927                        	.line	401
  Mon Aug  9 2021 16:52                                                Page 55


  2928                        	.endblock	401
  2929             00000008   L88	equ	8
  2930             00000005   L89	equ	5
  2931 05:B7F1:              	ends
  2932                        	efunc
  2933                        	.endfunc	401,5,8
  2934                        	.line	401
  2935                        ;
  2936                        ;
  2937                        ;PFXNODE k_nodelist_getname_and_type(PFXNODE head,
                    LPCSTR name,BYTE type)
  2938                        ;{
  2939                        	.line	404
  2940                        	.line	405
  2941                        	NODEMAN
  2942                        	xdef	~~k_nodelist_getname_and_type
  2943                        	func
  2944                        	.function	405
  2945                        ~~k_nodelist_getname_and_type:
  2946                        	longa	on
  2947                        	longi	on
  2948 05:B7F1: 3B           	tsc
  2949 05:B7F2: 38           	sec
  2950 05:B7F3: E9 04 00     	sbc	#L95
  2951 05:B7F6: 1B           	tcs
  2952 05:B7F7: 0B           	phd
  2953 05:B7F8: 5B           	tcd
  2954             00000004   head_0	set	4
  2955             00000008   name_0	set	8
  2956             0000000C   type_0	set	12
  2957                        	.block	405
  2958                        ;	PFXNODE node = NULL;
  2959                        ;
  2960                        ;	if(head && name)
  2961             00000000   node_1	set	0
  2962                        	.sym	node,0,138,1,32,2
  2963                        	.sym	head,4,138,6,32,2
  2964                        	.sym	name,8,142,6,32
  2965                        	.sym	type,12,14,6,8
  2966 05:B7F9: 64 01        	stz	<L96+node_1
  2967 05:B7FB: 64 03        	stz	<L96+node_1+2
  2968                        	.line	408
  2969                        ;	{
  2970 05:B7FD: A5 08        	lda	<L95+head_0
  2971 05:B7FF: 05 0A        	ora	<L95+head_0+2
  2972 05:B801: D0 03        	bne	L98
  2973 05:B803: 82 33 00     	brl	L10034
  2974                        L98:
  2975 05:B806: A5 0C        	lda	<L95+name_0
  2976 05:B808: 05 0E        	ora	<L95+name_0+2
  2977 05:B80A: D0 03        	bne	L99
  2978 05:B80C: 82 2A 00     	brl	L10034
  2979                        L99:
  2980                        	.line	409
  2981                        ;		node = k_nodelist_getname(head,(LPCHAR)n
                    ame);
  2982                        	.line	410
  2983 05:B80F: D4 0E        	pei	<L95+name_0+2
  Mon Aug  9 2021 16:52                                                Page 56


  2984 05:B811: D4 0C        	pei	<L95+name_0
  2985 05:B813: D4 0A        	pei	<L95+head_0+2
  2986 05:B815: D4 08        	pei	<L95+head_0
  2987 05:B817: 22 7C B7 05  	jsl	~~k_nodelist_getname
  2988 05:B81B: 85 01        	sta	<L96+node_1
  2989 05:B81D: 86 03        	stx	<L96+node_1+2
  2990                        ;		if(node && node->type != type)
  2991                        	.line	411
  2992                        ;		{
  2993 05:B81F: A5 01        	lda	<L96+node_1
  2994 05:B821: 05 03        	ora	<L96+node_1+2
  2995 05:B823: D0 03        	bne	L100
  2996 05:B825: 82 11 00     	brl	L10035
  2997                        L100:
  2998 05:B828: E2 20        	sep	#$20
  2999                        	longa	off
  3000 05:B82A: A7 01        	lda	[<L96+node_1]
  3001 05:B82C: C5 10        	cmp	<L95+type_0
  3002 05:B82E: C2 20        	rep	#$20
  3003                        	longa	on
  3004 05:B830: D0 03        	bne	L101
  3005 05:B832: 82 04 00     	brl	L10035
  3006                        L101:
  3007                        	.line	412
  3008                        ;			//k_debug_strings("k_nodelist_ge
                    tname_and_type:found:name:",node->name);
  3009                        ;			//k_debug_pointer("k_nodelist_ge
                    tname_and_type:found:data:",node->data);
  3010                        ;			node = NULL;
  3011                        	.line	415
  3012 05:B835: 64 01        	stz	<L96+node_1
  3013 05:B837: 64 03        	stz	<L96+node_1+2
  3014                        ;		}
  3015                        	.line	416
  3016                        ;	}
  3017                        L10035:
  3018                        	.line	417
  3019                        ;	return node;
  3020                        L10034:
  3021                        	.line	418
  3022 05:B839: A6 03        	ldx	<L96+node_1+2
  3023 05:B83B: A5 01        	lda	<L96+node_1
  3024                        L102:
  3025 05:B83D: A8           	tay
  3026 05:B83E: A5 06        	lda	<L95+2
  3027 05:B840: 85 10        	sta	<L95+2+10
  3028 05:B842: A5 05        	lda	<L95+1
  3029 05:B844: 85 0F        	sta	<L95+1+10
  3030 05:B846: 2B           	pld
  3031 05:B847: 3B           	tsc
  3032 05:B848: 18           	clc
  3033 05:B849: 69 0E 00     	adc	#L95+10
  3034 05:B84C: 1B           	tcs
  3035 05:B84D: 98           	tya
  3036 05:B84E: 6B           	rtl
  3037                        ;}
  3038                        	.line	419
  3039                        	.endblock	419
  Mon Aug  9 2021 16:52                                                Page 57


  3040             00000004   L95	equ	4
  3041             00000001   L96	equ	1
  3042 05:B84F:              	ends
  3043                        	efunc
  3044                        	.endfunc	419,1,4
  3045                        	.line	419
  3046                        ;
  3047                        ;PFXNODE k_nodelist_get(PFXNODE head,INT index)
  3048                        ;{
  3049                        	.line	421
  3050                        	.line	422
  3051                        	NODEMAN
  3052                        	xdef	~~k_nodelist_get
  3053                        	func
  3054                        	.function	422
  3055                        ~~k_nodelist_get:
  3056                        	longa	on
  3057                        	longi	on
  3058 05:B84F: 3B           	tsc
  3059 05:B850: 38           	sec
  3060 05:B851: E9 08 00     	sbc	#L103
  3061 05:B854: 1B           	tcs
  3062 05:B855: 0B           	phd
  3063 05:B856: 5B           	tcd
  3064             00000004   head_0	set	4
  3065             00000008   index_0	set	8
  3066                        	.block	422
  3067                        ;	PFXNODE ptr = head;
  3068                        ;	while(ptr!=NULL)
  3069             00000000   ptr_1	set	0
  3070                        	.sym	ptr,0,138,1,32,2
  3071                        	.sym	head,4,138,6,32,2
  3072                        	.sym	index,8,5,6,16
  3073 05:B857: A5 0C        	lda	<L103+head_0
  3074 05:B859: 85 05        	sta	<L104+ptr_1
  3075 05:B85B: A5 0E        	lda	<L103+head_0+2
  3076 05:B85D: 85 07        	sta	<L104+ptr_1+2
  3077                        	.line	424
  3078                        L10036:
  3079 05:B85F: A5 05        	lda	<L104+ptr_1
  3080 05:B861: 05 07        	ora	<L104+ptr_1+2
  3081 05:B863: D0 03        	bne	L106
  3082 05:B865: 82 22 00     	brl	L10037
  3083                        L106:
  3084                        ;	{
  3085                        	.line	425
  3086                        ;		index--;
  3087                        	.line	426
  3088 05:B868: C6 10        	dec	<L103+index_0
  3089                        ;
  3090                        ;		if(index == 0)
  3091                        	.line	428
  3092                        ;			break;
  3093 05:B86A: A5 10        	lda	<L103+index_0
  3094 05:B86C: D0 03        	bne	L107
  3095 05:B86E: 82 19 00     	brl	L10037
  3096                        L107:
  3097                        ;
  Mon Aug  9 2021 16:52                                                Page 58


  3098                        ;		ptr = ptr->next;
  3099                        	.line	431
  3100 05:B871: A0 0A 00     	ldy	#$a
  3101 05:B874: B7 05        	lda	[<L104+ptr_1],Y
  3102 05:B876: 85 01        	sta	<R0
  3103 05:B878: A0 0C 00     	ldy	#$c
  3104 05:B87B: B7 05        	lda	[<L104+ptr_1],Y
  3105 05:B87D: 85 03        	sta	<R0+2
  3106 05:B87F: A5 01        	lda	<R0
  3107 05:B881: 85 05        	sta	<L104+ptr_1
  3108 05:B883: A5 03        	lda	<R0+2
  3109 05:B885: 85 07        	sta	<L104+ptr_1+2
  3110                        ;	}
  3111                        	.line	432
  3112 05:B887: 82 D5 FF     	brl	L10036
  3113                        L10037:
  3114                        ;
  3115                        ;	//k_debug_integer("k_nodelist_get type:",ptr->ty
                    pe);
  3116                        ;
  3117                        ;	return ptr;
  3118                        	.line	436
  3119 05:B88A: A6 07        	ldx	<L104+ptr_1+2
  3120 05:B88C: A5 05        	lda	<L104+ptr_1
  3121                        L108:
  3122 05:B88E: A8           	tay
  3123 05:B88F: A5 0A        	lda	<L103+2
  3124 05:B891: 85 10        	sta	<L103+2+6
  3125 05:B893: A5 09        	lda	<L103+1
  3126 05:B895: 85 0F        	sta	<L103+1+6
  3127 05:B897: 2B           	pld
  3128 05:B898: 3B           	tsc
  3129 05:B899: 18           	clc
  3130 05:B89A: 69 0E 00     	adc	#L103+6
  3131 05:B89D: 1B           	tcs
  3132 05:B89E: 98           	tya
  3133 05:B89F: 6B           	rtl
  3134                        ;}
  3135                        	.line	437
  3136                        	.endblock	437
  3137             00000008   L103	equ	8
  3138             00000005   L104	equ	5
  3139 05:B8A0:              	ends
  3140                        	efunc
  3141                        	.endfunc	437,5,8
  3142                        	.line	437
  3143                        ;
  3144                        ;/**
  3145                        ; *
  3146                        ; *
  3147                        ; */
  3148                        ;PFXNODE k_nodelist_remove(PFXNODE head,LPCSTR nam
                    e)
  3149                        ;{
  3150                        	.line	443
  3151                        	.line	444
  3152                        	NODEMAN
  3153                        	xdef	~~k_nodelist_remove
  Mon Aug  9 2021 16:52                                                Page 59


  3154                        	func
  3155                        	.function	444
  3156                        ~~k_nodelist_remove:
  3157                        	longa	on
  3158                        	longi	on
  3159 05:B8A0: 3B           	tsc
  3160 05:B8A1: 38           	sec
  3161 05:B8A2: E9 0C 00     	sbc	#L109
  3162 05:B8A5: 1B           	tcs
  3163 05:B8A6: 0B           	phd
  3164 05:B8A7: 5B           	tcd
  3165             00000004   head_0	set	4
  3166             00000008   name_0	set	8
  3167                        	.block	444
  3168                        ;	PFXNODE found = NULL;
  3169                        ;	PFXNODE ptr = head;
  3170                        ;	while(ptr!=NULL)
  3171             00000000   found_1	set	0
  3172             00000004   ptr_1	set	4
  3173                        	.sym	found,0,138,1,32,2
  3174                        	.sym	ptr,4,138,1,32,2
  3175                        	.sym	head,4,138,6,32,2
  3176                        	.sym	name,8,142,6,32
  3177 05:B8A8: 64 05        	stz	<L110+found_1
  3178 05:B8AA: 64 07        	stz	<L110+found_1+2
  3179 05:B8AC: A5 10        	lda	<L109+head_0
  3180 05:B8AE: 85 09        	sta	<L110+ptr_1
  3181 05:B8B0: A5 12        	lda	<L109+head_0+2
  3182 05:B8B2: 85 0B        	sta	<L110+ptr_1+2
  3183                        	.line	447
  3184                        L10038:
  3185 05:B8B4: A5 09        	lda	<L110+ptr_1
  3186 05:B8B6: 05 0B        	ora	<L110+ptr_1+2
  3187 05:B8B8: D0 03        	bne	L112
  3188 05:B8BA: 82 89 00     	brl	L10039
  3189                        L112:
  3190                        ;	{
  3191                        	.line	448
  3192                        ;		//k_debug_string("k_nodelist_remove\r\n"
                    );
  3193                        ;		if(strcmp(ptr->name,name) == 0)
  3194                        	.line	450
  3195                        ;		{
  3196 05:B8BD: D4 16        	pei	<L109+name_0+2
  3197 05:B8BF: D4 14        	pei	<L109+name_0
  3198 05:B8C1: 18           	clc
  3199 05:B8C2: A9 0E 00     	lda	#$e
  3200 05:B8C5: 65 09        	adc	<L110+ptr_1
  3201 05:B8C7: 85 01        	sta	<R0
  3202 05:B8C9: A9 00 00     	lda	#$0
  3203 05:B8CC: 65 0B        	adc	<L110+ptr_1+2
  3204 05:B8CE: 85 03        	sta	<R0+2
  3205 05:B8D0: D4 03        	pei	<R0+2
  3206 05:B8D2: D4 01        	pei	<R0
  3207 05:B8D4: 22 xx xx xx  	jsl	~~strcmp
  3208 05:B8D8: AA           	tax
  3209 05:B8D9: F0 03        	beq	L113
  3210 05:B8DB: 82 4F 00     	brl	L10040
  Mon Aug  9 2021 16:52                                                Page 60


  3211                        L113:
  3212                        	.line	451
  3213                        ;			found = ptr;
  3214                        	.line	452
  3215 05:B8DE: A5 09        	lda	<L110+ptr_1
  3216 05:B8E0: 85 05        	sta	<L110+found_1
  3217 05:B8E2: A5 0B        	lda	<L110+ptr_1+2
  3218 05:B8E4: 85 07        	sta	<L110+found_1+2
  3219                        ;			ptr->last->next = ptr->next;
  3220                        	.line	453
  3221 05:B8E6: A0 06 00     	ldy	#$6
  3222 05:B8E9: B7 09        	lda	[<L110+ptr_1],Y
  3223 05:B8EB: 85 01        	sta	<R0
  3224 05:B8ED: A0 08 00     	ldy	#$8
  3225 05:B8F0: B7 09        	lda	[<L110+ptr_1],Y
  3226 05:B8F2: 85 03        	sta	<R0+2
  3227 05:B8F4: A0 0A 00     	ldy	#$a
  3228 05:B8F7: B7 09        	lda	[<L110+ptr_1],Y
  3229 05:B8F9: A0 0A 00     	ldy	#$a
  3230 05:B8FC: 97 01        	sta	[<R0],Y
  3231 05:B8FE: A0 0C 00     	ldy	#$c
  3232 05:B901: B7 09        	lda	[<L110+ptr_1],Y
  3233 05:B903: A0 0C 00     	ldy	#$c
  3234 05:B906: 97 01        	sta	[<R0],Y
  3235                        ;			ptr->next->last = ptr->last;
  3236                        	.line	454
  3237 05:B908: A0 0A 00     	ldy	#$a
  3238 05:B90B: B7 09        	lda	[<L110+ptr_1],Y
  3239 05:B90D: 85 01        	sta	<R0
  3240 05:B90F: A0 0C 00     	ldy	#$c
  3241 05:B912: B7 09        	lda	[<L110+ptr_1],Y
  3242 05:B914: 85 03        	sta	<R0+2
  3243 05:B916: A0 06 00     	ldy	#$6
  3244 05:B919: B7 09        	lda	[<L110+ptr_1],Y
  3245 05:B91B: A0 06 00     	ldy	#$6
  3246 05:B91E: 97 01        	sta	[<R0],Y
  3247 05:B920: A0 08 00     	ldy	#$8
  3248 05:B923: B7 09        	lda	[<L110+ptr_1],Y
  3249 05:B925: A0 08 00     	ldy	#$8
  3250 05:B928: 97 01        	sta	[<R0],Y
  3251                        ;			break;
  3252                        	.line	455
  3253 05:B92A: 82 19 00     	brl	L10039
  3254                        ;		}
  3255                        	.line	456
  3256                        ;		ptr = ptr->next;
  3257                        L10040:
  3258                        	.line	457
  3259 05:B92D: A0 0A 00     	ldy	#$a
  3260 05:B930: B7 09        	lda	[<L110+ptr_1],Y
  3261 05:B932: 85 01        	sta	<R0
  3262 05:B934: A0 0C 00     	ldy	#$c
  3263 05:B937: B7 09        	lda	[<L110+ptr_1],Y
  3264 05:B939: 85 03        	sta	<R0+2
  3265 05:B93B: A5 01        	lda	<R0
  3266 05:B93D: 85 09        	sta	<L110+ptr_1
  3267 05:B93F: A5 03        	lda	<R0+2
  3268 05:B941: 85 0B        	sta	<L110+ptr_1+2
  Mon Aug  9 2021 16:52                                                Page 61


  3269                        ;	}
  3270                        	.line	458
  3271 05:B943: 82 6E FF     	brl	L10038
  3272                        L10039:
  3273                        ;	return found;
  3274                        	.line	459
  3275 05:B946: A6 07        	ldx	<L110+found_1+2
  3276 05:B948: A5 05        	lda	<L110+found_1
  3277                        L114:
  3278 05:B94A: A8           	tay
  3279 05:B94B: A5 0E        	lda	<L109+2
  3280 05:B94D: 85 16        	sta	<L109+2+8
  3281 05:B94F: A5 0D        	lda	<L109+1
  3282 05:B951: 85 15        	sta	<L109+1+8
  3283 05:B953: 2B           	pld
  3284 05:B954: 3B           	tsc
  3285 05:B955: 18           	clc
  3286 05:B956: 69 14 00     	adc	#L109+8
  3287 05:B959: 1B           	tcs
  3288 05:B95A: 98           	tya
  3289 05:B95B: 6B           	rtl
  3290                        ;}
  3291                        	.line	460
  3292                        	.endblock	460
  3293             0000000C   L109	equ	12
  3294             00000005   L110	equ	5
  3295 05:B95C:              	ends
  3296                        	efunc
  3297                        	.endfunc	460,5,12
  3298                        	.line	460
  3299                        ;
  3300                        ;/**
  3301                        ; *
  3302                        ; *
  3303                        ; */
  3304                        ;PFXNODE k_nodelist_remove_obj(PFXNODE head,ULONG 
                    objId)
  3305                        ;{
  3306                        	.line	466
  3307                        	.line	467
  3308                        	NODEMAN
  3309                        	xdef	~~k_nodelist_remove_obj
  3310                        	func
  3311                        	.function	467
  3312                        ~~k_nodelist_remove_obj:
  3313                        	longa	on
  3314                        	longi	on
  3315 05:B95C: 3B           	tsc
  3316 05:B95D: 38           	sec
  3317 05:B95E: E9 18 00     	sbc	#L115
  3318 05:B961: 1B           	tcs
  3319 05:B962: 0B           	phd
  3320 05:B963: 5B           	tcd
  3321             00000004   head_0	set	4
  3322             00000008   objId_0	set	8
  3323                        	.block	467
  3324                        ;	UCHAR buffer[16];
  3325                        ;
  Mon Aug  9 2021 16:52                                                Page 62


  3326                        ;	return k_nodelist_remove(head,k_longtodec(objId,
                    buffer));
  3327             00000000   buffer_1	set	0
  3328                        	.sym	buffer,0,110,1,0,16
  3329                        	.sym	head,4,138,6,32,2
  3330                        	.sym	objId,8,18,6,32
  3331                        	.line	470
  3332 05:B964: F4 00 00     	pea	#0
  3333 05:B967: 18           	clc
  3334 05:B968: 7B           	tdc
  3335 05:B969: 69 09 00     	adc	#<L116+buffer_1
  3336 05:B96C: 48           	pha
  3337 05:B96D: D4 22        	pei	<L115+objId_0+2
  3338 05:B96F: D4 20        	pei	<L115+objId_0
  3339 05:B971: 22 xx xx xx  	jsl	~~k_longtodec
  3340 05:B975: 85 01        	sta	<R0
  3341 05:B977: 86 03        	stx	<R0+2
  3342 05:B979: DA           	phx
  3343 05:B97A: 48           	pha
  3344 05:B97B: D4 1E        	pei	<L115+head_0+2
  3345 05:B97D: D4 1C        	pei	<L115+head_0
  3346 05:B97F: 22 A0 B8 05  	jsl	~~k_nodelist_remove
  3347 05:B983: 85 05        	sta	<R1
  3348 05:B985: 86 07        	stx	<R1+2
  3349 05:B987: A6 07        	ldx	<R1+2
  3350 05:B989: A5 05        	lda	<R1
  3351                        L118:
  3352 05:B98B: A8           	tay
  3353 05:B98C: A5 1A        	lda	<L115+2
  3354 05:B98E: 85 22        	sta	<L115+2+8
  3355 05:B990: A5 19        	lda	<L115+1
  3356 05:B992: 85 21        	sta	<L115+1+8
  3357 05:B994: 2B           	pld
  3358 05:B995: 3B           	tsc
  3359 05:B996: 18           	clc
  3360 05:B997: 69 20 00     	adc	#L115+8
  3361 05:B99A: 1B           	tcs
  3362 05:B99B: 98           	tya
  3363 05:B99C: 6B           	rtl
  3364                        ;}
  3365                        	.line	471
  3366                        	.endblock	471
  3367             00000018   L115	equ	24
  3368             00000009   L116	equ	9
  3369 05:B99D:              	ends
  3370                        	efunc
  3371                        	.endfunc	471,9,24
  3372                        	.line	471
  3373                        ;
  3374                        ;PFXNODE k_nodelist_remove_node(PFXNODE head,PFXNO
                    DE targetNode)
  3375                        ;{
  3376                        	.line	473
  3377                        	.line	474
  3378                        	NODEMAN
  3379                        	xdef	~~k_nodelist_remove_node
  3380                        	func
  3381                        	.function	474
  Mon Aug  9 2021 16:52                                                Page 63


  3382                        ~~k_nodelist_remove_node:
  3383                        	longa	on
  3384                        	longi	on
  3385 05:B99D: 3B           	tsc
  3386 05:B99E: 38           	sec
  3387 05:B99F: E9 0C 00     	sbc	#L119
  3388 05:B9A2: 1B           	tcs
  3389 05:B9A3: 0B           	phd
  3390 05:B9A4: 5B           	tcd
  3391             00000004   head_0	set	4
  3392             00000008   targetNode_0	set	8
  3393                        	.block	474
  3394                        ;	PFXNODE found = NULL;
  3395                        ;	PFXNODE ptr = head;
  3396                        ;	while(ptr!=NULL)
  3397             00000000   found_1	set	0
  3398             00000004   ptr_1	set	4
  3399                        	.sym	found,0,138,1,32,2
  3400                        	.sym	ptr,4,138,1,32,2
  3401                        	.sym	head,4,138,6,32,2
  3402                        	.sym	targetNode,8,138,6,32,2
  3403 05:B9A5: 64 05        	stz	<L120+found_1
  3404 05:B9A7: 64 07        	stz	<L120+found_1+2
  3405 05:B9A9: A5 10        	lda	<L119+head_0
  3406 05:B9AB: 85 09        	sta	<L120+ptr_1
  3407 05:B9AD: A5 12        	lda	<L119+head_0+2
  3408 05:B9AF: 85 0B        	sta	<L120+ptr_1+2
  3409                        	.line	477
  3410                        L10041:
  3411 05:B9B1: A5 09        	lda	<L120+ptr_1
  3412 05:B9B3: 05 0B        	ora	<L120+ptr_1+2
  3413 05:B9B5: D0 03        	bne	L122
  3414 05:B9B7: 82 85 00     	brl	L10042
  3415                        L122:
  3416                        ;	{
  3417                        	.line	478
  3418                        ;		k_debug_pointer("k_nodelist_remove:",tar
                    getNode);
  3419                        	.line	479
  3420 05:B9BA: D4 16        	pei	<L119+targetNode_0+2
  3421 05:B9BC: D4 14        	pei	<L119+targetNode_0
  3422 05:B9BE: F4 xx xx     	pea	#^L48
  3423 05:B9C1: F4 xx xx     	pea	#<L48
  3424 05:B9C4: 22 xx xx xx  	jsl	~~k_debug_pointer
  3425                        ;		if(ptr == targetNode)
  3426                        	.line	480
  3427                        ;		{
  3428 05:B9C8: A5 09        	lda	<L120+ptr_1
  3429 05:B9CA: C5 14        	cmp	<L119+targetNode_0
  3430 05:B9CC: D0 04        	bne	L123
  3431 05:B9CE: A5 0B        	lda	<L120+ptr_1+2
  3432 05:B9D0: C5 16        	cmp	<L119+targetNode_0+2
  3433                        L123:
  3434 05:B9D2: F0 03        	beq	L124
  3435 05:B9D4: 82 4F 00     	brl	L10043
  3436                        L124:
  3437                        	.line	481
  3438                        ;			found = ptr;
  Mon Aug  9 2021 16:52                                                Page 64


  3439                        	.line	482
  3440 05:B9D7: A5 09        	lda	<L120+ptr_1
  3441 05:B9D9: 85 05        	sta	<L120+found_1
  3442 05:B9DB: A5 0B        	lda	<L120+ptr_1+2
  3443 05:B9DD: 85 07        	sta	<L120+found_1+2
  3444                        ;			ptr->last->next = ptr->next;
  3445                        	.line	483
  3446 05:B9DF: A0 06 00     	ldy	#$6
  3447 05:B9E2: B7 09        	lda	[<L120+ptr_1],Y
  3448 05:B9E4: 85 01        	sta	<R0
  3449 05:B9E6: A0 08 00     	ldy	#$8
  3450 05:B9E9: B7 09        	lda	[<L120+ptr_1],Y
  3451 05:B9EB: 85 03        	sta	<R0+2
  3452 05:B9ED: A0 0A 00     	ldy	#$a
  3453 05:B9F0: B7 09        	lda	[<L120+ptr_1],Y
  3454 05:B9F2: A0 0A 00     	ldy	#$a
  3455 05:B9F5: 97 01        	sta	[<R0],Y
  3456 05:B9F7: A0 0C 00     	ldy	#$c
  3457 05:B9FA: B7 09        	lda	[<L120+ptr_1],Y
  3458 05:B9FC: A0 0C 00     	ldy	#$c
  3459 05:B9FF: 97 01        	sta	[<R0],Y
  3460                        ;			ptr->next->last = ptr->last;
  3461                        	.line	484
  3462 05:BA01: A0 0A 00     	ldy	#$a
  3463 05:BA04: B7 09        	lda	[<L120+ptr_1],Y
  3464 05:BA06: 85 01        	sta	<R0
  3465 05:BA08: A0 0C 00     	ldy	#$c
  3466 05:BA0B: B7 09        	lda	[<L120+ptr_1],Y
  3467 05:BA0D: 85 03        	sta	<R0+2
  3468 05:BA0F: A0 06 00     	ldy	#$6
  3469 05:BA12: B7 09        	lda	[<L120+ptr_1],Y
  3470 05:BA14: A0 06 00     	ldy	#$6
  3471 05:BA17: 97 01        	sta	[<R0],Y
  3472 05:BA19: A0 08 00     	ldy	#$8
  3473 05:BA1C: B7 09        	lda	[<L120+ptr_1],Y
  3474 05:BA1E: A0 08 00     	ldy	#$8
  3475 05:BA21: 97 01        	sta	[<R0],Y
  3476                        ;			break;
  3477                        	.line	485
  3478 05:BA23: 82 19 00     	brl	L10042
  3479                        ;		}
  3480                        	.line	486
  3481                        ;		ptr = ptr->next;
  3482                        L10043:
  3483                        	.line	487
  3484 05:BA26: A0 0A 00     	ldy	#$a
  3485 05:BA29: B7 09        	lda	[<L120+ptr_1],Y
  3486 05:BA2B: 85 01        	sta	<R0
  3487 05:BA2D: A0 0C 00     	ldy	#$c
  3488 05:BA30: B7 09        	lda	[<L120+ptr_1],Y
  3489 05:BA32: 85 03        	sta	<R0+2
  3490 05:BA34: A5 01        	lda	<R0
  3491 05:BA36: 85 09        	sta	<L120+ptr_1
  3492 05:BA38: A5 03        	lda	<R0+2
  3493 05:BA3A: 85 0B        	sta	<L120+ptr_1+2
  3494                        ;	}
  3495                        	.line	488
  3496 05:BA3C: 82 72 FF     	brl	L10041
  Mon Aug  9 2021 16:52                                                Page 65


  3497                        L10042:
  3498                        ;	return found;
  3499                        	.line	489
  3500 05:BA3F: A6 07        	ldx	<L120+found_1+2
  3501 05:BA41: A5 05        	lda	<L120+found_1
  3502                        L125:
  3503 05:BA43: A8           	tay
  3504 05:BA44: A5 0E        	lda	<L119+2
  3505 05:BA46: 85 16        	sta	<L119+2+8
  3506 05:BA48: A5 0D        	lda	<L119+1
  3507 05:BA4A: 85 15        	sta	<L119+1+8
  3508 05:BA4C: 2B           	pld
  3509 05:BA4D: 3B           	tsc
  3510 05:BA4E: 18           	clc
  3511 05:BA4F: 69 14 00     	adc	#L119+8
  3512 05:BA52: 1B           	tcs
  3513 05:BA53: 98           	tya
  3514 05:BA54: 6B           	rtl
  3515                        ;}
  3516                        	.line	490
  3517                        	.endblock	490
  3518             0000000C   L119	equ	12
  3519             00000005   L120	equ	5
  3520 05:BA55:              	ends
  3521                        	efunc
  3522                        	.endfunc	490,5,12
  3523                        	.line	490
  3524                        	data
  3525                        L48:
  3526 00:00BB: 6B 5F 6E 6F  	db	$6B,$5F,$6E,$6F,$64,$65,$6C,$69,$73,$74,
                    $5F,$72,$65,$6D,$6F
       00:00BF: 64 65 6C 69 
       00:00C3: 73 74 5F 72 
       00:00C7: 65 6D 6F 
  3527 00:00CA: 76 65 3A 00  	db	$76,$65,$3A,$00
  3528 00:00CE:              	ends
  3529                        ;
  3530                        ;/**
  3531                        ; *
  3532                        ; *
  3533                        ; */
  3534                        ;LPVOID k_nodelist_data(PFXNODE head,LPCSTR name)
  3535                        ;{
  3536                        	.line	496
  3537                        	.line	497
  3538                        	NODEMAN
  3539                        	xdef	~~k_nodelist_data
  3540                        	func
  3541                        	.function	497
  3542                        ~~k_nodelist_data:
  3543                        	longa	on
  3544                        	longi	on
  3545 05:BA55: 3B           	tsc
  3546 05:BA56: 38           	sec
  3547 05:BA57: E9 0C 00     	sbc	#L127
  3548 05:BA5A: 1B           	tcs
  3549 05:BA5B: 0B           	phd
  3550 05:BA5C: 5B           	tcd
  Mon Aug  9 2021 16:52                                                Page 66


  3551             00000004   head_0	set	4
  3552             00000008   name_0	set	8
  3553                        	.block	497
  3554                        ;	LPVOID found = NULL;
  3555                        ;	PFXNODE ptr = head;
  3556                        ;	while(ptr!=NULL)
  3557             00000000   found_1	set	0
  3558             00000004   ptr_1	set	4
  3559                        	.sym	found,0,129,1,32
  3560                        	.sym	ptr,4,138,1,32,2
  3561                        	.sym	head,4,138,6,32,2
  3562                        	.sym	name,8,142,6,32
  3563 05:BA5D: 64 05        	stz	<L128+found_1
  3564 05:BA5F: 64 07        	stz	<L128+found_1+2
  3565 05:BA61: A5 10        	lda	<L127+head_0
  3566 05:BA63: 85 09        	sta	<L128+ptr_1
  3567 05:BA65: A5 12        	lda	<L127+head_0+2
  3568 05:BA67: 85 0B        	sta	<L128+ptr_1+2
  3569                        	.line	500
  3570                        L10044:
  3571 05:BA69: A5 09        	lda	<L128+ptr_1
  3572 05:BA6B: 05 0B        	ora	<L128+ptr_1+2
  3573 05:BA6D: D0 03        	bne	L130
  3574 05:BA6F: 82 4B 00     	brl	L10045
  3575                        L130:
  3576                        ;	{
  3577                        	.line	501
  3578                        ;		//k_debug_string("k_nodelist_data\r\n");
  3579                        ;		if(strcmp(ptr->name,name) == 0)
  3580                        	.line	503
  3581                        ;		{
  3582 05:BA72: D4 16        	pei	<L127+name_0+2
  3583 05:BA74: D4 14        	pei	<L127+name_0
  3584 05:BA76: 18           	clc
  3585 05:BA77: A9 0E 00     	lda	#$e
  3586 05:BA7A: 65 09        	adc	<L128+ptr_1
  3587 05:BA7C: 85 01        	sta	<R0
  3588 05:BA7E: A9 00 00     	lda	#$0
  3589 05:BA81: 65 0B        	adc	<L128+ptr_1+2
  3590 05:BA83: 85 03        	sta	<R0+2
  3591 05:BA85: D4 03        	pei	<R0+2
  3592 05:BA87: D4 01        	pei	<R0
  3593 05:BA89: 22 xx xx xx  	jsl	~~strcmp
  3594 05:BA8D: AA           	tax
  3595 05:BA8E: F0 03        	beq	L131
  3596 05:BA90: 82 11 00     	brl	L10046
  3597                        L131:
  3598                        	.line	504
  3599                        ;			found = ptr->data;
  3600                        	.line	505
  3601 05:BA93: A0 02 00     	ldy	#$2
  3602 05:BA96: B7 09        	lda	[<L128+ptr_1],Y
  3603 05:BA98: 85 05        	sta	<L128+found_1
  3604 05:BA9A: A0 04 00     	ldy	#$4
  3605 05:BA9D: B7 09        	lda	[<L128+ptr_1],Y
  3606 05:BA9F: 85 07        	sta	<L128+found_1+2
  3607                        ;			break;
  3608                        	.line	506
  Mon Aug  9 2021 16:52                                                Page 67


  3609 05:BAA1: 82 19 00     	brl	L10045
  3610                        ;		}
  3611                        	.line	507
  3612                        ;		ptr = ptr->next;
  3613                        L10046:
  3614                        	.line	508
  3615 05:BAA4: A0 0A 00     	ldy	#$a
  3616 05:BAA7: B7 09        	lda	[<L128+ptr_1],Y
  3617 05:BAA9: 85 01        	sta	<R0
  3618 05:BAAB: A0 0C 00     	ldy	#$c
  3619 05:BAAE: B7 09        	lda	[<L128+ptr_1],Y
  3620 05:BAB0: 85 03        	sta	<R0+2
  3621 05:BAB2: A5 01        	lda	<R0
  3622 05:BAB4: 85 09        	sta	<L128+ptr_1
  3623 05:BAB6: A5 03        	lda	<R0+2
  3624 05:BAB8: 85 0B        	sta	<L128+ptr_1+2
  3625                        ;	}
  3626                        	.line	509
  3627 05:BABA: 82 AC FF     	brl	L10044
  3628                        L10045:
  3629                        ;	return found;
  3630                        	.line	510
  3631 05:BABD: A6 07        	ldx	<L128+found_1+2
  3632 05:BABF: A5 05        	lda	<L128+found_1
  3633                        L132:
  3634 05:BAC1: A8           	tay
  3635 05:BAC2: A5 0E        	lda	<L127+2
  3636 05:BAC4: 85 16        	sta	<L127+2+8
  3637 05:BAC6: A5 0D        	lda	<L127+1
  3638 05:BAC8: 85 15        	sta	<L127+1+8
  3639 05:BACA: 2B           	pld
  3640 05:BACB: 3B           	tsc
  3641 05:BACC: 18           	clc
  3642 05:BACD: 69 14 00     	adc	#L127+8
  3643 05:BAD0: 1B           	tcs
  3644 05:BAD1: 98           	tya
  3645 05:BAD2: 6B           	rtl
  3646                        ;}
  3647                        	.line	511
  3648                        	.endblock	511
  3649             0000000C   L127	equ	12
  3650             00000005   L128	equ	5
  3651 05:BAD3:              	ends
  3652                        	efunc
  3653                        	.endfunc	511,5,12
  3654                        	.line	511
  3655                        ;
  3656                        ;/**
  3657                        ; *
  3658                        ; *
  3659                        ; */
  3660                        ;PFXNODE	k_nodelist_last(PFXNODE head)
  3661                        ;{
  3662                        	.line	517
  3663                        	.line	518
  3664                        	NODEMAN
  3665                        	xdef	~~k_nodelist_last
  3666                        	func
  Mon Aug  9 2021 16:52                                                Page 68


  3667                        	.function	518
  3668                        ~~k_nodelist_last:
  3669                        	longa	on
  3670                        	longi	on
  3671 05:BAD3: 3B           	tsc
  3672 05:BAD4: 38           	sec
  3673 05:BAD5: E9 0A 00     	sbc	#L133
  3674 05:BAD8: 1B           	tcs
  3675 05:BAD9: 0B           	phd
  3676 05:BADA: 5B           	tcd
  3677             00000004   head_0	set	4
  3678                        	.block	518
  3679                        ;	UINT abort = 0;
  3680                        ;	PFXNODE ptr = head;
  3681                        ;
  3682                        ;	//k_debug_pointer("k_nodelist_last:next:",ptr->n
                    ext);
  3683                        ;	//k_debug_pointer("k_nodelist_last:last:",ptr->l
                    ast);
  3684                        ;
  3685                        ;	while(ptr!=NULL)
  3686             00000000   abort_1	set	0
  3687             00000002   ptr_1	set	2
  3688                        	.sym	abort,0,16,1,16
  3689                        	.sym	ptr,2,138,1,32,2
  3690                        	.sym	head,4,138,6,32,2
  3691 05:BADB: 64 05        	stz	<L134+abort_1
  3692 05:BADD: A5 0E        	lda	<L133+head_0
  3693 05:BADF: 85 07        	sta	<L134+ptr_1
  3694 05:BAE1: A5 10        	lda	<L133+head_0+2
  3695 05:BAE3: 85 09        	sta	<L134+ptr_1+2
  3696                        	.line	525
  3697                        L10047:
  3698 05:BAE5: A5 07        	lda	<L134+ptr_1
  3699 05:BAE7: 05 09        	ora	<L134+ptr_1+2
  3700 05:BAE9: D0 03        	bne	L136
  3701 05:BAEB: 82 50 00     	brl	L10048
  3702                        L136:
  3703                        ;	{
  3704                        	.line	526
  3705                        ;		//k_debug_string("k_nodelist_last\r\n");
  3706                        ;		if(ptr->next == NULL)
  3707                        	.line	528
  3708                        ;		{
  3709 05:BAEE: A0 0A 00     	ldy	#$a
  3710 05:BAF1: B7 07        	lda	[<L134+ptr_1],Y
  3711 05:BAF3: A0 0C 00     	ldy	#$c
  3712 05:BAF6: 17 07        	ora	[<L134+ptr_1],Y
  3713 05:BAF8: F0 03        	beq	L137
  3714 05:BAFA: 82 03 00     	brl	L10049
  3715                        L137:
  3716                        	.line	529
  3717                        ;			break;
  3718                        	.line	530
  3719 05:BAFD: 82 3E 00     	brl	L10048
  3720                        ;		}
  3721                        	.line	531
  3722                        ;		ptr = ptr->next;
  Mon Aug  9 2021 16:52                                                Page 69


  3723                        L10049:
  3724                        	.line	532
  3725 05:BB00: A0 0A 00     	ldy	#$a
  3726 05:BB03: B7 07        	lda	[<L134+ptr_1],Y
  3727 05:BB05: 85 01        	sta	<R0
  3728 05:BB07: A0 0C 00     	ldy	#$c
  3729 05:BB0A: B7 07        	lda	[<L134+ptr_1],Y
  3730 05:BB0C: 85 03        	sta	<R0+2
  3731 05:BB0E: A5 01        	lda	<R0
  3732 05:BB10: 85 07        	sta	<L134+ptr_1
  3733 05:BB12: A5 03        	lda	<R0+2
  3734 05:BB14: 85 09        	sta	<L134+ptr_1+2
  3735                        ;		abort++;
  3736                        	.line	533
  3737 05:BB16: E6 05        	inc	<L134+abort_1
  3738                        ;		if(abort == -1)
  3739                        	.line	534
  3740                        ;			k_exec_throw_exception(k_nodelis
                    t_last,0x00020001,"Infinite Node List Detected",-1);
  3741 05:BB18: A5 05        	lda	<L134+abort_1
  3742 05:BB1A: C9 FF FF     	cmp	#<$ffffffff
  3743 05:BB1D: F0 03        	beq	L138
  3744 05:BB1F: 82 19 00     	brl	L10050
  3745                        L138:
  3746                        	.line	535
  3747 05:BB22: F4 FF FF     	pea	#<$ffffffff
  3748 05:BB25: F4 xx xx     	pea	#^L126
  3749 05:BB28: F4 xx xx     	pea	#<L126
  3750 05:BB2B: F4 02 00     	pea	#^$20001
  3751 05:BB2E: F4 01 00     	pea	#<$20001
  3752 05:BB31: F4 05 00     	pea	#^~~k_nodelist_last
  3753 05:BB34: F4 D3 BA     	pea	#<~~k_nodelist_last
  3754 05:BB37: 22 xx xx xx  	jsl	~~k_exec_throw_exception
  3755                        ;	}
  3756                        L10050:
  3757                        	.line	536
  3758 05:BB3B: 82 A7 FF     	brl	L10047
  3759                        L10048:
  3760                        ;	return ptr;
  3761                        	.line	537
  3762 05:BB3E: A6 09        	ldx	<L134+ptr_1+2
  3763 05:BB40: A5 07        	lda	<L134+ptr_1
  3764                        L139:
  3765 05:BB42: A8           	tay
  3766 05:BB43: A5 0C        	lda	<L133+2
  3767 05:BB45: 85 10        	sta	<L133+2+4
  3768 05:BB47: A5 0B        	lda	<L133+1
  3769 05:BB49: 85 0F        	sta	<L133+1+4
  3770 05:BB4B: 2B           	pld
  3771 05:BB4C: 3B           	tsc
  3772 05:BB4D: 18           	clc
  3773 05:BB4E: 69 0E 00     	adc	#L133+4
  3774 05:BB51: 1B           	tcs
  3775 05:BB52: 98           	tya
  3776 05:BB53: 6B           	rtl
  3777                        ;}
  3778                        	.line	538
  3779                        	.endblock	538
  Mon Aug  9 2021 16:52                                                Page 70


  3780             0000000A   L133	equ	10
  3781             00000005   L134	equ	5
  3782 05:BB54:              	ends
  3783                        	efunc
  3784                        	.endfunc	538,5,10
  3785                        	.line	538
  3786                        	data
  3787                        L126:
  3788 00:00CE: 49 6E 66 69  	db	$49,$6E,$66,$69,$6E,$69,$74,$65,$20,$4E,
                    $6F,$64,$65,$20,$4C
       00:00D2: 6E 69 74 65 
       00:00D6: 20 4E 6F 64 
       00:00DA: 65 20 4C 
  3789 00:00DD: 69 73 74 20  	db	$69,$73,$74,$20,$44,$65,$74,$65,$63,$74,
                    $65,$64,$00
       00:00E1: 44 65 74 65 
       00:00E5: 63 74 65 64 
       00:00E9: 00 
  3790 00:00EA:              	ends
  3791                        ;/**
  3792                        ; *
  3793                        ; *
  3794                        ; */
  3795                        ;VOID k_nodelist_foreach_data(PFXNODE head,LPVOID 
                    context,FOREACHNODE each)
  3796                        ;{
  3797                        	.line	543
  3798                        	.line	544
  3799                        	NODEMAN
  3800                        	xdef	~~k_nodelist_foreach_data
  3801                        	func
  3802                        	.function	544
  3803                        ~~k_nodelist_foreach_data:
  3804                        	longa	on
  3805                        	longi	on
  3806 05:BB54: 3B           	tsc
  3807 05:BB55: 38           	sec
  3808 05:BB56: E9 08 00     	sbc	#L141
  3809 05:BB59: 1B           	tcs
  3810 05:BB5A: 0B           	phd
  3811 05:BB5B: 5B           	tcd
  3812             00000004   head_0	set	4
  3813             00000008   context_0	set	8
  3814             0000000C   each_0	set	12
  3815                        	.block	544
  3816                        ;	PFXNODE ptr = head;
  3817                        ;
  3818                        ;	//k_debug_pointer("k_nodelist_foreach_data:",con
                    text);
  3819                        ;
  3820                        ;	while(ptr!=NULL)
  3821             00000000   ptr_1	set	0
  3822                        	.sym	ptr,0,138,1,32,2
  3823                        	.sym	head,4,138,6,32,2
  3824                        	.sym	context,8,129,6,32
  3825                        	.sym	each,12,641,6,32
  3826 05:BB5C: A5 0C        	lda	<L141+head_0
  3827 05:BB5E: 85 05        	sta	<L142+ptr_1
  Mon Aug  9 2021 16:52                                                Page 71


  3828 05:BB60: A5 0E        	lda	<L141+head_0+2
  3829 05:BB62: 85 07        	sta	<L142+ptr_1+2
  3830                        	.line	549
  3831                        L10051:
  3832 05:BB64: A5 05        	lda	<L142+ptr_1
  3833 05:BB66: 05 07        	ora	<L142+ptr_1+2
  3834 05:BB68: D0 03        	bne	L144
  3835 05:BB6A: 82 31 00     	brl	L10052
  3836                        L144:
  3837                        ;	{
  3838                        	.line	550
  3839                        ;		each(context,ptr->data);
  3840                        	.line	551
  3841 05:BB6D: A0 04 00     	ldy	#$4
  3842 05:BB70: B7 05        	lda	[<L142+ptr_1],Y
  3843 05:BB72: 48           	pha
  3844 05:BB73: A0 02 00     	ldy	#$2
  3845 05:BB76: B7 05        	lda	[<L142+ptr_1],Y
  3846 05:BB78: 48           	pha
  3847 05:BB79: D4 12        	pei	<L141+context_0+2
  3848 05:BB7B: D4 10        	pei	<L141+context_0
  3849 05:BB7D: A6 16        	ldx	<L141+each_0+2
  3850 05:BB7F: A5 14        	lda	<L141+each_0
  3851                        	xref	~~~lcal
  3852 05:BB81: 22 xx xx xx  	jsl	~~~lcal
  3853                        ;		ptr = ptr->next;
  3854                        	.line	552
  3855 05:BB85: A0 0A 00     	ldy	#$a
  3856 05:BB88: B7 05        	lda	[<L142+ptr_1],Y
  3857 05:BB8A: 85 01        	sta	<R0
  3858 05:BB8C: A0 0C 00     	ldy	#$c
  3859 05:BB8F: B7 05        	lda	[<L142+ptr_1],Y
  3860 05:BB91: 85 03        	sta	<R0+2
  3861 05:BB93: A5 01        	lda	<R0
  3862 05:BB95: 85 05        	sta	<L142+ptr_1
  3863 05:BB97: A5 03        	lda	<R0+2
  3864 05:BB99: 85 07        	sta	<L142+ptr_1+2
  3865                        ;	}
  3866                        	.line	553
  3867 05:BB9B: 82 C6 FF     	brl	L10051
  3868                        L10052:
  3869                        ;}
  3870                        	.line	554
  3871                        L145:
  3872 05:BB9E: A5 0A        	lda	<L141+2
  3873 05:BBA0: 85 16        	sta	<L141+2+12
  3874 05:BBA2: A5 09        	lda	<L141+1
  3875 05:BBA4: 85 15        	sta	<L141+1+12
  3876 05:BBA6: 2B           	pld
  3877 05:BBA7: 3B           	tsc
  3878 05:BBA8: 18           	clc
  3879 05:BBA9: 69 14 00     	adc	#L141+12
  3880 05:BBAC: 1B           	tcs
  3881 05:BBAD: 6B           	rtl
  3882                        	.endblock	554
  3883             00000008   L141	equ	8
  3884             00000005   L142	equ	5
  3885 05:BBAE:              	ends
  Mon Aug  9 2021 16:52                                                Page 72


  3886                        	efunc
  3887                        	.endfunc	554,5,8
  3888                        	.line	554
  3889                        ;
  3890                        ;PFXNODE k_nodelist_foreach_until_data(PFXNODE hea
                    d,LPVOID context,FOREACHNODEUNTIL each)
  3891                        ;{
  3892                        	.line	556
  3893                        	.line	557
  3894                        	NODEMAN
  3895                        	xdef	~~k_nodelist_foreach_until_data
  3896                        	func
  3897                        	.function	557
  3898                        ~~k_nodelist_foreach_until_data:
  3899                        	longa	on
  3900                        	longi	on
  3901 05:BBAE: 3B           	tsc
  3902 05:BBAF: 38           	sec
  3903 05:BBB0: E9 08 00     	sbc	#L146
  3904 05:BBB3: 1B           	tcs
  3905 05:BBB4: 0B           	phd
  3906 05:BBB5: 5B           	tcd
  3907             00000004   head_0	set	4
  3908             00000008   context_0	set	8
  3909             0000000C   each_0	set	12
  3910                        	.block	557
  3911                        ;	PFXNODE ptr = head;
  3912                        ;
  3913                        ;	while(ptr!=NULL)
  3914             00000000   ptr_1	set	0
  3915                        	.sym	ptr,0,138,1,32,2
  3916                        	.sym	head,4,138,6,32,2
  3917                        	.sym	context,8,129,6,32
  3918                        	.sym	each,12,654,6,32
  3919 05:BBB6: A5 0C        	lda	<L146+head_0
  3920 05:BBB8: 85 05        	sta	<L147+ptr_1
  3921 05:BBBA: A5 0E        	lda	<L146+head_0+2
  3922 05:BBBC: 85 07        	sta	<L147+ptr_1+2
  3923                        	.line	560
  3924                        L10053:
  3925 05:BBBE: A5 05        	lda	<L147+ptr_1
  3926 05:BBC0: 05 07        	ora	<L147+ptr_1+2
  3927 05:BBC2: D0 03        	bne	L149
  3928 05:BBC4: 82 4F 00     	brl	L10054
  3929                        L149:
  3930                        ;	{
  3931                        	.line	561
  3932                        ;		//k_debug_pointer("k_nodelist_foreach_da
                    ta:ptr:",ptr);
  3933                        ;
  3934                        ;		//bRet = each(context,ptr->data);
  3935                        ;		//k_debug_integer("k_nodelist_foreach_da
                    ta:bRet",bRet);
  3936                        ;		if(each(context,ptr->data))
  3937                        	.line	566
  3938                        ;		{
  3939 05:BBC7: A0 04 00     	ldy	#$4
  3940 05:BBCA: B7 05        	lda	[<L147+ptr_1],Y
  Mon Aug  9 2021 16:52                                                Page 73


  3941 05:BBCC: 48           	pha
  3942 05:BBCD: A0 02 00     	ldy	#$2
  3943 05:BBD0: B7 05        	lda	[<L147+ptr_1],Y
  3944 05:BBD2: 48           	pha
  3945 05:BBD3: D4 12        	pei	<L146+context_0+2
  3946 05:BBD5: D4 10        	pei	<L146+context_0
  3947 05:BBD7: A6 16        	ldx	<L146+each_0+2
  3948 05:BBD9: A5 14        	lda	<L146+each_0
  3949                        	xref	~~~lcal
  3950 05:BBDB: 22 xx xx xx  	jsl	~~~lcal
  3951 05:BBDF: 29 FF 00     	and	#$ff
  3952 05:BBE2: D0 03        	bne	L150
  3953 05:BBE4: 82 16 00     	brl	L10055
  3954                        L150:
  3955                        	.line	567
  3956                        ;			//k_debug_pointer("k_nodelist_fo
                    reach_data:FOUND DATA MATCH:",ptr);
  3957                        ;			return ptr;
  3958                        	.line	569
  3959 05:BBE7: A6 07        	ldx	<L147+ptr_1+2
  3960 05:BBE9: A5 05        	lda	<L147+ptr_1
  3961                        L151:
  3962 05:BBEB: A8           	tay
  3963 05:BBEC: A5 0A        	lda	<L146+2
  3964 05:BBEE: 85 16        	sta	<L146+2+12
  3965 05:BBF0: A5 09        	lda	<L146+1
  3966 05:BBF2: 85 15        	sta	<L146+1+12
  3967 05:BBF4: 2B           	pld
  3968 05:BBF5: 3B           	tsc
  3969 05:BBF6: 18           	clc
  3970 05:BBF7: 69 14 00     	adc	#L146+12
  3971 05:BBFA: 1B           	tcs
  3972 05:BBFB: 98           	tya
  3973 05:BBFC: 6B           	rtl
  3974                        ;		}
  3975                        	.line	570
  3976                        ;		ptr = ptr->next;
  3977                        L10055:
  3978                        	.line	571
  3979 05:BBFD: A0 0A 00     	ldy	#$a
  3980 05:BC00: B7 05        	lda	[<L147+ptr_1],Y
  3981 05:BC02: 85 01        	sta	<R0
  3982 05:BC04: A0 0C 00     	ldy	#$c
  3983 05:BC07: B7 05        	lda	[<L147+ptr_1],Y
  3984 05:BC09: 85 03        	sta	<R0+2
  3985 05:BC0B: A5 01        	lda	<R0
  3986 05:BC0D: 85 05        	sta	<L147+ptr_1
  3987 05:BC0F: A5 03        	lda	<R0+2
  3988 05:BC11: 85 07        	sta	<L147+ptr_1+2
  3989                        ;	}
  3990                        	.line	572
  3991 05:BC13: 82 A8 FF     	brl	L10053
  3992                        L10054:
  3993                        ;
  3994                        ;	//k_debug_pointer("k_nodelist_foreach_data:RETUR
                    NING:",ptr);
  3995                        ;
  3996                        ;	return NULL;
  Mon Aug  9 2021 16:52                                                Page 74


  3997                        	.line	576
  3998 05:BC16: A9 00 00     	lda	#$0
  3999 05:BC19: AA           	tax
  4000 05:BC1A: A9 00 00     	lda	#$0
  4001 05:BC1D: 82 CB FF     	brl	L151
  4002                        ;}
  4003                        	.line	577
  4004                        	.endblock	577
  4005             00000008   L146	equ	8
  4006             00000005   L147	equ	5
  4007 05:BC20:              	ends
  4008                        	efunc
  4009                        	.endfunc	577,5,8
  4010                        	.line	577
  4011                        ;
  4012                        ;
  4013                        ;
  4014                        ;VOID k_nodelist_foreach_listdata(PFXNODELIST list
                    ,LPVOID context,FOREACHNODE each)
  4015                        ;{
  4016                        	.line	581
  4017                        	.line	582
  4018                        	NODEMAN
  4019                        	xdef	~~k_nodelist_foreach_listdata
  4020                        	func
  4021                        	.function	582
  4022                        ~~k_nodelist_foreach_listdata:
  4023                        	longa	on
  4024                        	longi	on
  4025 05:BC20: 3B           	tsc
  4026 05:BC21: 38           	sec
  4027 05:BC22: E9 08 00     	sbc	#L152
  4028 05:BC25: 1B           	tcs
  4029 05:BC26: 0B           	phd
  4030 05:BC27: 5B           	tcd
  4031             00000004   list_0	set	4
  4032             00000008   context_0	set	8
  4033             0000000C   each_0	set	12
  4034                        	.block	582
  4035                        ;	PFXNODE ptr = NULL;
  4036                        ;	if(list && list->listhead)
  4037             00000000   ptr_1	set	0
  4038                        	.sym	ptr,0,138,1,32,2
  4039                        	.sym	list,4,138,6,32,3
  4040                        	.sym	context,8,129,6,32
  4041                        	.sym	each,12,641,6,32
  4042 05:BC28: 64 05        	stz	<L153+ptr_1
  4043 05:BC2A: 64 07        	stz	<L153+ptr_1+2
  4044                        	.line	584
  4045                        ;	{
  4046 05:BC2C: A5 0C        	lda	<L152+list_0
  4047 05:BC2E: 05 0E        	ora	<L152+list_0+2
  4048 05:BC30: D0 03        	bne	L155
  4049 05:BC32: 82 2F 00     	brl	L10056
  4050                        L155:
  4051 05:BC35: A7 0C        	lda	[<L152+list_0]
  4052 05:BC37: A0 02 00     	ldy	#$2
  4053 05:BC3A: 17 0C        	ora	[<L152+list_0],Y
  Mon Aug  9 2021 16:52                                                Page 75


  4054 05:BC3C: D0 03        	bne	L156
  4055 05:BC3E: 82 23 00     	brl	L10056
  4056                        L156:
  4057                        	.line	585
  4058                        ;		k_nodelist_foreach_data(list->listhead->
                    next,context,each);
  4059                        	.line	586
  4060 05:BC41: D4 16        	pei	<L152+each_0+2
  4061 05:BC43: D4 14        	pei	<L152+each_0
  4062 05:BC45: D4 12        	pei	<L152+context_0+2
  4063 05:BC47: D4 10        	pei	<L152+context_0
  4064 05:BC49: A7 0C        	lda	[<L152+list_0]
  4065 05:BC4B: 85 01        	sta	<R0
  4066 05:BC4D: A0 02 00     	ldy	#$2
  4067 05:BC50: B7 0C        	lda	[<L152+list_0],Y
  4068 05:BC52: 85 03        	sta	<R0+2
  4069 05:BC54: A0 0C 00     	ldy	#$c
  4070 05:BC57: B7 01        	lda	[<R0],Y
  4071 05:BC59: 48           	pha
  4072 05:BC5A: A0 0A 00     	ldy	#$a
  4073 05:BC5D: B7 01        	lda	[<R0],Y
  4074 05:BC5F: 48           	pha
  4075 05:BC60: 22 54 BB 05  	jsl	~~k_nodelist_foreach_data
  4076                        ;	}
  4077                        	.line	587
  4078                        ;}
  4079                        L10056:
  4080                        	.line	588
  4081                        L157:
  4082 05:BC64: A5 0A        	lda	<L152+2
  4083 05:BC66: 85 16        	sta	<L152+2+12
  4084 05:BC68: A5 09        	lda	<L152+1
  4085 05:BC6A: 85 15        	sta	<L152+1+12
  4086 05:BC6C: 2B           	pld
  4087 05:BC6D: 3B           	tsc
  4088 05:BC6E: 18           	clc
  4089 05:BC6F: 69 14 00     	adc	#L152+12
  4090 05:BC72: 1B           	tcs
  4091 05:BC73: 6B           	rtl
  4092                        	.endblock	588
  4093             00000008   L152	equ	8
  4094             00000005   L153	equ	5
  4095 05:BC74:              	ends
  4096                        	efunc
  4097                        	.endfunc	588,5,8
  4098                        	.line	588
  4099                        ;
  4100                        ;VOID k_nodelist_foreach_listdata_remove(PFXNODELI
                    ST list,LPVOID context,FOREACHNODEUNTIL checkStatus)
  4101                        ;{
  4102                        	.line	590
  4103                        	.line	591
  4104                        	NODEMAN
  4105                        	xdef	~~k_nodelist_foreach_listdata_remove
  4106                        	func
  4107                        	.function	591
  4108                        ~~k_nodelist_foreach_listdata_remove:
  4109                        	longa	on
  Mon Aug  9 2021 16:52                                                Page 76


  4110                        	longi	on
  4111 05:BC74: 3B           	tsc
  4112 05:BC75: 38           	sec
  4113 05:BC76: E9 0C 00     	sbc	#L158
  4114 05:BC79: 1B           	tcs
  4115 05:BC7A: 0B           	phd
  4116 05:BC7B: 5B           	tcd
  4117             00000004   list_0	set	4
  4118             00000008   context_0	set	8
  4119             0000000C   checkStatus_0	set	12
  4120                        	.block	591
  4121                        ;	PFXNODE ptr   = NULL;
  4122                        ;	PFXNODE tmp   = NULL;
  4123                        ;
  4124                        ;	//k_debug_pointer("k_nodelist_foreach_listdata_r
                    emove:",context);
  4125                        ;
  4126                        ;	if(list && list->listhead)
  4127             00000000   ptr_1	set	0
  4128             00000004   tmp_1	set	4
  4129                        	.sym	ptr,0,138,1,32,2
  4130                        	.sym	tmp,4,138,1,32,2
  4131                        	.sym	list,4,138,6,32,3
  4132                        	.sym	context,8,129,6,32
  4133                        	.sym	checkStatus,12,654,6,32
  4134 05:BC7C: 64 05        	stz	<L159+ptr_1
  4135 05:BC7E: 64 07        	stz	<L159+ptr_1+2
  4136 05:BC80: 64 09        	stz	<L159+tmp_1
  4137 05:BC82: 64 0B        	stz	<L159+tmp_1+2
  4138                        	.line	597
  4139                        ;	{
  4140 05:BC84: A5 10        	lda	<L158+list_0
  4141 05:BC86: 05 12        	ora	<L158+list_0+2
  4142 05:BC88: D0 03        	bne	L161
  4143 05:BC8A: 82 27 01     	brl	L10057
  4144                        L161:
  4145 05:BC8D: A7 10        	lda	[<L158+list_0]
  4146 05:BC8F: A0 02 00     	ldy	#$2
  4147 05:BC92: 17 10        	ora	[<L158+list_0],Y
  4148 05:BC94: D0 03        	bne	L162
  4149 05:BC96: 82 1B 01     	brl	L10057
  4150                        L162:
  4151                        	.line	598
  4152                        ;		ptr = list->listhead->next;
  4153                        	.line	599
  4154 05:BC99: A7 10        	lda	[<L158+list_0]
  4155 05:BC9B: 85 01        	sta	<R0
  4156 05:BC9D: A0 02 00     	ldy	#$2
  4157 05:BCA0: B7 10        	lda	[<L158+list_0],Y
  4158 05:BCA2: 85 03        	sta	<R0+2
  4159 05:BCA4: A0 0A 00     	ldy	#$a
  4160 05:BCA7: B7 01        	lda	[<R0],Y
  4161 05:BCA9: 85 05        	sta	<L159+ptr_1
  4162 05:BCAB: A0 0C 00     	ldy	#$c
  4163 05:BCAE: B7 01        	lda	[<R0],Y
  4164 05:BCB0: 85 07        	sta	<L159+ptr_1+2
  4165                        ;		while(ptr!=NULL)
  4166                        	.line	600
  Mon Aug  9 2021 16:52                                                Page 77


  4167                        L10058:
  4168 05:BCB2: A5 05        	lda	<L159+ptr_1
  4169 05:BCB4: 05 07        	ora	<L159+ptr_1+2
  4170 05:BCB6: D0 03        	bne	L163
  4171 05:BCB8: 82 F9 00     	brl	L10059
  4172                        L163:
  4173                        ;		{
  4174                        	.line	601
  4175                        ;			if(checkStatus(context,ptr->data
                    ))
  4176                        	.line	602
  4177                        ;			{
  4178 05:BCBB: A0 04 00     	ldy	#$4
  4179 05:BCBE: B7 05        	lda	[<L159+ptr_1],Y
  4180 05:BCC0: 48           	pha
  4181 05:BCC1: A0 02 00     	ldy	#$2
  4182 05:BCC4: B7 05        	lda	[<L159+ptr_1],Y
  4183 05:BCC6: 48           	pha
  4184 05:BCC7: D4 16        	pei	<L158+context_0+2
  4185 05:BCC9: D4 14        	pei	<L158+context_0
  4186 05:BCCB: A6 1A        	ldx	<L158+checkStatus_0+2
  4187 05:BCCD: A5 18        	lda	<L158+checkStatus_0
  4188                        	xref	~~~lcal
  4189 05:BCCF: 22 xx xx xx  	jsl	~~~lcal
  4190 05:BCD3: 29 FF 00     	and	#$ff
  4191 05:BCD6: D0 03        	bne	L164
  4192 05:BCD8: 82 C0 00     	brl	L10060
  4193                        L164:
  4194                        	.line	603
  4195                        ;				tmp = ptr->next;
  4196                        	.line	604
  4197 05:BCDB: A0 0A 00     	ldy	#$a
  4198 05:BCDE: B7 05        	lda	[<L159+ptr_1],Y
  4199 05:BCE0: 85 09        	sta	<L159+tmp_1
  4200 05:BCE2: A0 0C 00     	ldy	#$c
  4201 05:BCE5: B7 05        	lda	[<L159+ptr_1],Y
  4202 05:BCE7: 85 0B        	sta	<L159+tmp_1+2
  4203                        ;
  4204                        ;				if(ptr->last)
  4205                        	.line	606
  4206                        ;					ptr->last->next 
                    = ptr->next;
  4207 05:BCE9: A0 06 00     	ldy	#$6
  4208 05:BCEC: B7 05        	lda	[<L159+ptr_1],Y
  4209 05:BCEE: A0 08 00     	ldy	#$8
  4210 05:BCF1: 17 05        	ora	[<L159+ptr_1],Y
  4211 05:BCF3: D0 03        	bne	L165
  4212 05:BCF5: 82 22 00     	brl	L10061
  4213                        L165:
  4214                        	.line	607
  4215 05:BCF8: A0 06 00     	ldy	#$6
  4216 05:BCFB: B7 05        	lda	[<L159+ptr_1],Y
  4217 05:BCFD: 85 01        	sta	<R0
  4218 05:BCFF: A0 08 00     	ldy	#$8
  4219 05:BD02: B7 05        	lda	[<L159+ptr_1],Y
  4220 05:BD04: 85 03        	sta	<R0+2
  4221 05:BD06: A0 0A 00     	ldy	#$a
  4222 05:BD09: B7 05        	lda	[<L159+ptr_1],Y
  Mon Aug  9 2021 16:52                                                Page 78


  4223 05:BD0B: A0 0A 00     	ldy	#$a
  4224 05:BD0E: 97 01        	sta	[<R0],Y
  4225 05:BD10: A0 0C 00     	ldy	#$c
  4226 05:BD13: B7 05        	lda	[<L159+ptr_1],Y
  4227 05:BD15: A0 0C 00     	ldy	#$c
  4228 05:BD18: 97 01        	sta	[<R0],Y
  4229                        ;				if(ptr->next)
  4230                        L10061:
  4231                        	.line	608
  4232                        ;					ptr->next->last 
                    = ptr->last;
  4233 05:BD1A: A0 0A 00     	ldy	#$a
  4234 05:BD1D: B7 05        	lda	[<L159+ptr_1],Y
  4235 05:BD1F: A0 0C 00     	ldy	#$c
  4236 05:BD22: 17 05        	ora	[<L159+ptr_1],Y
  4237 05:BD24: D0 03        	bne	L166
  4238 05:BD26: 82 22 00     	brl	L10062
  4239                        L166:
  4240                        	.line	609
  4241 05:BD29: A0 0A 00     	ldy	#$a
  4242 05:BD2C: B7 05        	lda	[<L159+ptr_1],Y
  4243 05:BD2E: 85 01        	sta	<R0
  4244 05:BD30: A0 0C 00     	ldy	#$c
  4245 05:BD33: B7 05        	lda	[<L159+ptr_1],Y
  4246 05:BD35: 85 03        	sta	<R0+2
  4247 05:BD37: A0 06 00     	ldy	#$6
  4248 05:BD3A: B7 05        	lda	[<L159+ptr_1],Y
  4249 05:BD3C: A0 06 00     	ldy	#$6
  4250 05:BD3F: 97 01        	sta	[<R0],Y
  4251 05:BD41: A0 08 00     	ldy	#$8
  4252 05:BD44: B7 05        	lda	[<L159+ptr_1],Y
  4253 05:BD46: A0 08 00     	ldy	#$8
  4254 05:BD49: 97 01        	sta	[<R0],Y
  4255                        ;
  4256                        ;				if(list->deallocator)
  4257                        L10062:
  4258                        	.line	611
  4259                        ;				{
  4260 05:BD4B: A0 08 00     	ldy	#$8
  4261 05:BD4E: B7 10        	lda	[<L158+list_0],Y
  4262 05:BD50: A0 0A 00     	ldy	#$a
  4263 05:BD53: 17 10        	ora	[<L158+list_0],Y
  4264 05:BD55: D0 03        	bne	L167
  4265 05:BD57: 82 36 00     	brl	L10063
  4266                        L167:
  4267                        	.line	612
  4268                        ;					list->deallocato
                    r(ptr->name,ptr->data);
  4269                        	.line	613
  4270 05:BD5A: A0 04 00     	ldy	#$4
  4271 05:BD5D: B7 05        	lda	[<L159+ptr_1],Y
  4272 05:BD5F: 48           	pha
  4273 05:BD60: A0 02 00     	ldy	#$2
  4274 05:BD63: B7 05        	lda	[<L159+ptr_1],Y
  4275 05:BD65: 48           	pha
  4276 05:BD66: 18           	clc
  4277 05:BD67: A9 0E 00     	lda	#$e
  4278 05:BD6A: 65 05        	adc	<L159+ptr_1
  Mon Aug  9 2021 16:52                                                Page 79


  4279 05:BD6C: 85 01        	sta	<R0
  4280 05:BD6E: A9 00 00     	lda	#$0
  4281 05:BD71: 65 07        	adc	<L159+ptr_1+2
  4282 05:BD73: 85 03        	sta	<R0+2
  4283 05:BD75: D4 03        	pei	<R0+2
  4284 05:BD77: D4 01        	pei	<R0
  4285 05:BD79: A0 0A 00     	ldy	#$a
  4286 05:BD7C: B7 10        	lda	[<L158+list_0],Y
  4287 05:BD7E: AA           	tax
  4288 05:BD7F: A0 08 00     	ldy	#$8
  4289 05:BD82: B7 10        	lda	[<L158+list_0],Y
  4290                        	xref	~~~lcal
  4291 05:BD84: 22 xx xx xx  	jsl	~~~lcal
  4292                        ;
  4293                        ;					//k_debug_string
                    s("k_nodelist_foreach_listdata_remove:delete node:",ptr->nam
                    e);
  4294                        ;
  4295                        ;					//memset(ptr,0,s
                    izeof(PFXNODE));
  4296                        ;					k_mem_deallocate
                    _heap(ptr);
  4297                        	.line	618
  4298 05:BD88: D4 07        	pei	<L159+ptr_1+2
  4299 05:BD8A: D4 05        	pei	<L159+ptr_1
  4300 05:BD8C: 22 xx xx xx  	jsl	~~k_mem_deallocate_heap
  4301                        ;				}
  4302                        	.line	619
  4303                        ;
  4304                        ;				ptr = tmp;
  4305                        L10063:
  4306                        	.line	621
  4307 05:BD90: A5 09        	lda	<L159+tmp_1
  4308 05:BD92: 85 05        	sta	<L159+ptr_1
  4309 05:BD94: A5 0B        	lda	<L159+tmp_1+2
  4310 05:BD96: 85 07        	sta	<L159+ptr_1+2
  4311                        ;			}
  4312                        	.line	622
  4313                        ;			else
  4314 05:BD98: 82 16 00     	brl	L10064
  4315                        L10060:
  4316                        ;			{
  4317                        	.line	624
  4318                        ;				ptr = ptr->next;
  4319                        	.line	625
  4320 05:BD9B: A0 0A 00     	ldy	#$a
  4321 05:BD9E: B7 05        	lda	[<L159+ptr_1],Y
  4322 05:BDA0: 85 01        	sta	<R0
  4323 05:BDA2: A0 0C 00     	ldy	#$c
  4324 05:BDA5: B7 05        	lda	[<L159+ptr_1],Y
  4325 05:BDA7: 85 03        	sta	<R0+2
  4326 05:BDA9: A5 01        	lda	<R0
  4327 05:BDAB: 85 05        	sta	<L159+ptr_1
  4328 05:BDAD: A5 03        	lda	<R0+2
  4329 05:BDAF: 85 07        	sta	<L159+ptr_1+2
  4330                        ;			}
  4331                        	.line	626
  4332                        L10064:
  Mon Aug  9 2021 16:52                                                Page 80


  4333                        ;		}
  4334                        	.line	627
  4335 05:BDB1: 82 FE FE     	brl	L10058
  4336                        L10059:
  4337                        ;
  4338                        ;	}
  4339                        	.line	629
  4340                        ;}
  4341                        L10057:
  4342                        	.line	630
  4343                        L168:
  4344 05:BDB4: A5 0E        	lda	<L158+2
  4345 05:BDB6: 85 1A        	sta	<L158+2+12
  4346 05:BDB8: A5 0D        	lda	<L158+1
  4347 05:BDBA: 85 19        	sta	<L158+1+12
  4348 05:BDBC: 2B           	pld
  4349 05:BDBD: 3B           	tsc
  4350 05:BDBE: 18           	clc
  4351 05:BDBF: 69 18 00     	adc	#L158+12
  4352 05:BDC2: 1B           	tcs
  4353 05:BDC3: 6B           	rtl
  4354                        	.endblock	630
  4355             0000000C   L158	equ	12
  4356             00000005   L159	equ	5
  4357 05:BDC4:              	ends
  4358                        	efunc
  4359                        	.endfunc	630,5,12
  4360                        	.line	630
  4361                        ;
  4362                        ;PFXNODE k_nodelist_foreach_until_listdata(PFXNODE
                    LIST list,LPVOID context,FOREACHNODEUNTIL each)
  4363                        ;{
  4364                        	.line	632
  4365                        	.line	633
  4366                        	NODEMAN
  4367                        	xdef	~~k_nodelist_foreach_until_listdata
  4368                        	func
  4369                        	.function	633
  4370                        ~~k_nodelist_foreach_until_listdata:
  4371                        	longa	on
  4372                        	longi	on
  4373 05:BDC4: 3B           	tsc
  4374 05:BDC5: 38           	sec
  4375 05:BDC6: E9 08 00     	sbc	#L169
  4376 05:BDC9: 1B           	tcs
  4377 05:BDCA: 0B           	phd
  4378 05:BDCB: 5B           	tcd
  4379             00000004   list_0	set	4
  4380             00000008   context_0	set	8
  4381             0000000C   each_0	set	12
  4382                        	.block	633
  4383                        ;	PFXNODE ptr = NULL;
  4384                        ;	if(list && list->listhead)
  4385             00000000   ptr_1	set	0
  4386                        	.sym	ptr,0,138,1,32,2
  4387                        	.sym	list,4,138,6,32,3
  4388                        	.sym	context,8,129,6,32
  4389                        	.sym	each,12,654,6,32
  Mon Aug  9 2021 16:52                                                Page 81


  4390 05:BDCC: 64 05        	stz	<L170+ptr_1
  4391 05:BDCE: 64 07        	stz	<L170+ptr_1+2
  4392                        	.line	635
  4393                        ;	{
  4394 05:BDD0: A5 0C        	lda	<L169+list_0
  4395 05:BDD2: 05 0E        	ora	<L169+list_0+2
  4396 05:BDD4: D0 03        	bne	L172
  4397 05:BDD6: 82 33 00     	brl	L10065
  4398                        L172:
  4399 05:BDD9: A7 0C        	lda	[<L169+list_0]
  4400 05:BDDB: A0 02 00     	ldy	#$2
  4401 05:BDDE: 17 0C        	ora	[<L169+list_0],Y
  4402 05:BDE0: D0 03        	bne	L173
  4403 05:BDE2: 82 27 00     	brl	L10065
  4404                        L173:
  4405                        	.line	636
  4406                        ;		//k_debug_nodelist(list->listhead->next)
                    ;
  4407                        ;		ptr = k_nodelist_foreach_until_data(list
                    ->listhead->next,context,each);
  4408                        	.line	638
  4409 05:BDE5: D4 16        	pei	<L169+each_0+2
  4410 05:BDE7: D4 14        	pei	<L169+each_0
  4411 05:BDE9: D4 12        	pei	<L169+context_0+2
  4412 05:BDEB: D4 10        	pei	<L169+context_0
  4413 05:BDED: A7 0C        	lda	[<L169+list_0]
  4414 05:BDEF: 85 01        	sta	<R0
  4415 05:BDF1: A0 02 00     	ldy	#$2
  4416 05:BDF4: B7 0C        	lda	[<L169+list_0],Y
  4417 05:BDF6: 85 03        	sta	<R0+2
  4418 05:BDF8: A0 0C 00     	ldy	#$c
  4419 05:BDFB: B7 01        	lda	[<R0],Y
  4420 05:BDFD: 48           	pha
  4421 05:BDFE: A0 0A 00     	ldy	#$a
  4422 05:BE01: B7 01        	lda	[<R0],Y
  4423 05:BE03: 48           	pha
  4424 05:BE04: 22 AE BB 05  	jsl	~~k_nodelist_foreach_until_data
  4425 05:BE08: 85 05        	sta	<L170+ptr_1
  4426 05:BE0A: 86 07        	stx	<L170+ptr_1+2
  4427                        ;	}
  4428                        	.line	639
  4429                        ;
  4430                        ;	return ptr;
  4431                        L10065:
  4432                        	.line	641
  4433 05:BE0C: A6 07        	ldx	<L170+ptr_1+2
  4434 05:BE0E: A5 05        	lda	<L170+ptr_1
  4435                        L174:
  4436 05:BE10: A8           	tay
  4437 05:BE11: A5 0A        	lda	<L169+2
  4438 05:BE13: 85 16        	sta	<L169+2+12
  4439 05:BE15: A5 09        	lda	<L169+1
  4440 05:BE17: 85 15        	sta	<L169+1+12
  4441 05:BE19: 2B           	pld
  4442 05:BE1A: 3B           	tsc
  4443 05:BE1B: 18           	clc
  4444 05:BE1C: 69 14 00     	adc	#L169+12
  4445 05:BE1F: 1B           	tcs
  Mon Aug  9 2021 16:52                                                Page 82


  4446 05:BE20: 98           	tya
  4447 05:BE21: 6B           	rtl
  4448                        ;}
  4449                        	.line	642
  4450                        	.endblock	642
  4451             00000008   L169	equ	8
  4452             00000005   L170	equ	5
  4453 05:BE22:              	ends
  4454                        	efunc
  4455                        	.endfunc	642,5,8
  4456                        	.line	642
  4457                        ;
  4458                        ;
  4459                        ;VOID k_nodelist_foreach_type(PFXNODELIST list,BYT
                    E type,LPVOID context,FOREACHNODE each)
  4460                        ;{
  4461                        	.line	645
  4462                        	.line	646
  4463                        	NODEMAN
  4464                        	xdef	~~k_nodelist_foreach_type
  4465                        	func
  4466                        	.function	646
  4467                        ~~k_nodelist_foreach_type:
  4468                        	longa	on
  4469                        	longi	on
  4470 05:BE22: 3B           	tsc
  4471 05:BE23: 38           	sec
  4472 05:BE24: E9 08 00     	sbc	#L175
  4473 05:BE27: 1B           	tcs
  4474 05:BE28: 0B           	phd
  4475 05:BE29: 5B           	tcd
  4476             00000004   list_0	set	4
  4477             00000008   type_0	set	8
  4478             0000000A   context_0	set	10
  4479             0000000E   each_0	set	14
  4480                        	.block	646
  4481                        ;	PFXNODE ptr = NULL;
  4482                        ;	if(list && list->listhead)
  4483             00000000   ptr_1	set	0
  4484                        	.sym	ptr,0,138,1,32,2
  4485                        	.sym	list,4,138,6,32,3
  4486                        	.sym	type,8,14,6,8
  4487                        	.sym	context,10,129,6,32
  4488                        	.sym	each,14,641,6,32
  4489 05:BE2A: 64 05        	stz	<L176+ptr_1
  4490 05:BE2C: 64 07        	stz	<L176+ptr_1+2
  4491                        	.line	648
  4492                        ;	{
  4493 05:BE2E: A5 0C        	lda	<L175+list_0
  4494 05:BE30: 05 0E        	ora	<L175+list_0+2
  4495 05:BE32: D0 03        	bne	L178
  4496 05:BE34: 82 5E 00     	brl	L10066
  4497                        L178:
  4498 05:BE37: A7 0C        	lda	[<L175+list_0]
  4499 05:BE39: A0 02 00     	ldy	#$2
  4500 05:BE3C: 17 0C        	ora	[<L175+list_0],Y
  4501 05:BE3E: D0 03        	bne	L179
  4502 05:BE40: 82 52 00     	brl	L10066
  Mon Aug  9 2021 16:52                                                Page 83


  4503                        L179:
  4504                        	.line	649
  4505                        ;		ptr = list->listhead;
  4506                        	.line	650
  4507 05:BE43: A7 0C        	lda	[<L175+list_0]
  4508 05:BE45: 85 05        	sta	<L176+ptr_1
  4509 05:BE47: A0 02 00     	ldy	#$2
  4510 05:BE4A: B7 0C        	lda	[<L175+list_0],Y
  4511 05:BE4C: 85 07        	sta	<L176+ptr_1+2
  4512                        ;		while(ptr!=NULL)
  4513                        	.line	651
  4514                        L10067:
  4515 05:BE4E: A5 05        	lda	<L176+ptr_1
  4516 05:BE50: 05 07        	ora	<L176+ptr_1+2
  4517 05:BE52: D0 03        	bne	L180
  4518 05:BE54: 82 3E 00     	brl	L10068
  4519                        L180:
  4520                        ;		{
  4521                        	.line	652
  4522                        ;			//k_debug_hex("k_nodelist_foreac
                    h_type:type:",type);
  4523                        ;			//k_debug_hex("k_nodelist_foreac
                    h_type:ptr->type:",ptr->type);
  4524                        ;			//k_debug_nstrings("k_nodelist_f
                    oreach_type:name:",ptr->name,32);
  4525                        ;			if(ptr->type == type)
  4526                        	.line	656
  4527                        ;			{
  4528 05:BE57: E2 20        	sep	#$20
  4529                        	longa	off
  4530 05:BE59: A7 05        	lda	[<L176+ptr_1]
  4531 05:BE5B: C5 10        	cmp	<L175+type_0
  4532 05:BE5D: C2 20        	rep	#$20
  4533                        	longa	on
  4534 05:BE5F: F0 03        	beq	L181
  4535 05:BE61: 82 18 00     	brl	L10069
  4536                        L181:
  4537                        	.line	657
  4538                        ;				each(context,ptr->data);
  4539                        	.line	658
  4540 05:BE64: A0 04 00     	ldy	#$4
  4541 05:BE67: B7 05        	lda	[<L176+ptr_1],Y
  4542 05:BE69: 48           	pha
  4543 05:BE6A: A0 02 00     	ldy	#$2
  4544 05:BE6D: B7 05        	lda	[<L176+ptr_1],Y
  4545 05:BE6F: 48           	pha
  4546 05:BE70: D4 14        	pei	<L175+context_0+2
  4547 05:BE72: D4 12        	pei	<L175+context_0
  4548 05:BE74: A6 18        	ldx	<L175+each_0+2
  4549 05:BE76: A5 16        	lda	<L175+each_0
  4550                        	xref	~~~lcal
  4551 05:BE78: 22 xx xx xx  	jsl	~~~lcal
  4552                        ;			}
  4553                        	.line	659
  4554                        ;			ptr = ptr->next;
  4555                        L10069:
  4556                        	.line	660
  4557 05:BE7C: A0 0A 00     	ldy	#$a
  Mon Aug  9 2021 16:52                                                Page 84


  4558 05:BE7F: B7 05        	lda	[<L176+ptr_1],Y
  4559 05:BE81: 85 01        	sta	<R0
  4560 05:BE83: A0 0C 00     	ldy	#$c
  4561 05:BE86: B7 05        	lda	[<L176+ptr_1],Y
  4562 05:BE88: 85 03        	sta	<R0+2
  4563 05:BE8A: A5 01        	lda	<R0
  4564 05:BE8C: 85 05        	sta	<L176+ptr_1
  4565 05:BE8E: A5 03        	lda	<R0+2
  4566 05:BE90: 85 07        	sta	<L176+ptr_1+2
  4567                        ;		}
  4568                        	.line	661
  4569 05:BE92: 82 B9 FF     	brl	L10067
  4570                        L10068:
  4571                        ;	}
  4572                        	.line	662
  4573                        ;}
  4574                        L10066:
  4575                        	.line	663
  4576                        L182:
  4577 05:BE95: A5 0A        	lda	<L175+2
  4578 05:BE97: 85 18        	sta	<L175+2+14
  4579 05:BE99: A5 09        	lda	<L175+1
  4580 05:BE9B: 85 17        	sta	<L175+1+14
  4581 05:BE9D: 2B           	pld
  4582 05:BE9E: 3B           	tsc
  4583 05:BE9F: 18           	clc
  4584 05:BEA0: 69 16 00     	adc	#L175+14
  4585 05:BEA3: 1B           	tcs
  4586 05:BEA4: 6B           	rtl
  4587                        	.endblock	663
  4588             00000008   L175	equ	8
  4589             00000005   L176	equ	5
  4590 05:BEA5:              	ends
  4591                        	efunc
  4592                        	.endfunc	663,5,8
  4593                        	.line	663
  4594                        ;
  4595                        ;//
  4596                        ;// node list helper functions and types
  4597                        ;//
  4598                        ;PFXNODELIST k_nodelist_allocate_list(LPCSTR listN
                    ame,NodeListDeallocator deallocator)
  4599                        ;{
  4600                        	.line	668
  4601                        	.line	669
  4602                        	NODEMAN
  4603                        	xdef	~~k_nodelist_allocate_list
  4604                        	func
  4605                        	.function	669
  4606                        ~~k_nodelist_allocate_list:
  4607                        	longa	on
  4608                        	longi	on
  4609 05:BEA5: 3B           	tsc
  4610 05:BEA6: 38           	sec
  4611 05:BEA7: E9 0C 00     	sbc	#L183
  4612 05:BEAA: 1B           	tcs
  4613 05:BEAB: 0B           	phd
  4614 05:BEAC: 5B           	tcd
  Mon Aug  9 2021 16:52                                                Page 85


  4615             00000004   listName_0	set	4
  4616             00000008   deallocator_0	set	8
  4617                        	.block	669
  4618                        ;	LPCSTR safeName = NULL;
  4619                        ;	PFXNODELIST nodelist = NULL;
  4620                        ;
  4621                        ;	nodelist = (PFXNODELIST)k_mem_allocate_heap(size
                    of(FXNODELIST));
  4622             00000000   safeName_1	set	0
  4623             00000004   nodelist_1	set	4
  4624                        	.sym	safeName,0,142,1,32
  4625                        	.sym	nodelist,4,138,1,32,3
  4626                        	.sym	listName,4,142,6,32
  4627                        	.sym	deallocator,8,641,6,32
  4628 05:BEAD: 64 05        	stz	<L184+safeName_1
  4629 05:BEAF: 64 07        	stz	<L184+safeName_1+2
  4630 05:BEB1: 64 09        	stz	<L184+nodelist_1
  4631 05:BEB3: 64 0B        	stz	<L184+nodelist_1+2
  4632                        	.line	673
  4633 05:BEB5: F4 00 00     	pea	#^$c
  4634 05:BEB8: F4 0C 00     	pea	#<$c
  4635 05:BEBB: 22 xx xx xx  	jsl	~~k_mem_allocate_heap
  4636 05:BEBF: 85 09        	sta	<L184+nodelist_1
  4637 05:BEC1: 86 0B        	stx	<L184+nodelist_1+2
  4638                        ;	if(nodelist)
  4639                        	.line	674
  4640                        ;	{
  4641 05:BEC3: A5 09        	lda	<L184+nodelist_1
  4642 05:BEC5: 05 0B        	ora	<L184+nodelist_1+2
  4643 05:BEC7: D0 03        	bne	L186
  4644 05:BEC9: 82 43 00     	brl	L10070
  4645                        L186:
  4646                        	.line	675
  4647                        ;		if(listName)
  4648                        	.line	676
  4649                        ;			safeName = k_string_copy_string(
                    listName);
  4650 05:BECC: A5 10        	lda	<L183+listName_0
  4651 05:BECE: 05 12        	ora	<L183+listName_0+2
  4652 05:BED0: D0 03        	bne	L187
  4653 05:BED2: 82 0C 00     	brl	L10071
  4654                        L187:
  4655                        	.line	677
  4656 05:BED5: D4 12        	pei	<L183+listName_0+2
  4657 05:BED7: D4 10        	pei	<L183+listName_0
  4658 05:BED9: 22 xx xx xx  	jsl	~~k_string_copy_string
  4659 05:BEDD: 85 05        	sta	<L184+safeName_1
  4660 05:BEDF: 86 07        	stx	<L184+safeName_1+2
  4661                        ;
  4662                        ;		nodelist->listhead = k_nodelist_init(-1,
                    "head",(LPVOID)safeName);
  4663                        L10071:
  4664                        	.line	679
  4665 05:BEE1: D4 07        	pei	<L184+safeName_1+2
  4666 05:BEE3: D4 05        	pei	<L184+safeName_1
  4667 05:BEE5: F4 xx xx     	pea	#^L140
  4668 05:BEE8: F4 xx xx     	pea	#<L140
  4669 05:BEEB: F4 FF FF     	pea	#<$ffffffff
  Mon Aug  9 2021 16:52                                                Page 86


  4670 05:BEEE: 22 11 B5 05  	jsl	~~k_nodelist_init
  4671 05:BEF2: 85 01        	sta	<R0
  4672 05:BEF4: 86 03        	stx	<R0+2
  4673 05:BEF6: A5 01        	lda	<R0
  4674 05:BEF8: 87 09        	sta	[<L184+nodelist_1]
  4675 05:BEFA: A5 03        	lda	<R0+2
  4676 05:BEFC: A0 02 00     	ldy	#$2
  4677 05:BEFF: 97 09        	sta	[<L184+nodelist_1],Y
  4678                        ;		nodelist->deallocator = deallocator;
  4679                        	.line	680
  4680 05:BF01: A5 14        	lda	<L183+deallocator_0
  4681 05:BF03: A0 08 00     	ldy	#$8
  4682 05:BF06: 97 09        	sta	[<L184+nodelist_1],Y
  4683 05:BF08: A5 16        	lda	<L183+deallocator_0+2
  4684 05:BF0A: A0 0A 00     	ldy	#$a
  4685 05:BF0D: 97 09        	sta	[<L184+nodelist_1],Y
  4686                        ;
  4687                        ;		//if(safeName)
  4688                        ;		//	k_mem_deallocate_heap((LPVOID)sa
                    feName);
  4689                        ;	}
  4690                        	.line	684
  4691                        ;
  4692                        ;	return nodelist;
  4693                        L10070:
  4694                        	.line	686
  4695 05:BF0F: A6 0B        	ldx	<L184+nodelist_1+2
  4696 05:BF11: A5 09        	lda	<L184+nodelist_1
  4697                        L188:
  4698 05:BF13: A8           	tay
  4699 05:BF14: A5 0E        	lda	<L183+2
  4700 05:BF16: 85 16        	sta	<L183+2+8
  4701 05:BF18: A5 0D        	lda	<L183+1
  4702 05:BF1A: 85 15        	sta	<L183+1+8
  4703 05:BF1C: 2B           	pld
  4704 05:BF1D: 3B           	tsc
  4705 05:BF1E: 18           	clc
  4706 05:BF1F: 69 14 00     	adc	#L183+8
  4707 05:BF22: 1B           	tcs
  4708 05:BF23: 98           	tya
  4709 05:BF24: 6B           	rtl
  4710                        ;}
  4711                        	.line	687
  4712                        	.endblock	687
  4713             0000000C   L183	equ	12
  4714             00000005   L184	equ	5
  4715 05:BF25:              	ends
  4716                        	efunc
  4717                        	.endfunc	687,5,12
  4718                        	.line	687
  4719                        	data
  4720                        L140:
  4721 00:00EA: 68 65 61 64  	db	$68,$65,$61,$64,$00
       00:00EE: 00 
  4722 00:00EF:              	ends
  4723                        ;
  4724                        ;PFXNODE	k_nodelist_getfirstnode(PFXNODELIST list
                    )
  Mon Aug  9 2021 16:52                                                Page 87


  4725                        ;{
  4726                        	.line	689
  4727                        	.line	690
  4728                        	NODEMAN
  4729                        	xdef	~~k_nodelist_getfirstnode
  4730                        	func
  4731                        	.function	690
  4732                        ~~k_nodelist_getfirstnode:
  4733                        	longa	on
  4734                        	longi	on
  4735 05:BF25: 3B           	tsc
  4736 05:BF26: 38           	sec
  4737 05:BF27: E9 08 00     	sbc	#L190
  4738 05:BF2A: 1B           	tcs
  4739 05:BF2B: 0B           	phd
  4740 05:BF2C: 5B           	tcd
  4741             00000004   list_0	set	4
  4742                        	.block	690
  4743                        ;	PFXNODE node = NULL;
  4744                        ;
  4745                        ;	if(list && list->listhead)
  4746             00000000   node_1	set	0
  4747                        	.sym	node,0,138,1,32,2
  4748                        	.sym	list,4,138,6,32,3
  4749 05:BF2D: 64 05        	stz	<L191+node_1
  4750 05:BF2F: 64 07        	stz	<L191+node_1+2
  4751                        	.line	693
  4752                        ;		node = list->listhead->next;
  4753 05:BF31: A5 0C        	lda	<L190+list_0
  4754 05:BF33: 05 0E        	ora	<L190+list_0+2
  4755 05:BF35: D0 03        	bne	L193
  4756 05:BF37: 82 25 00     	brl	L10072
  4757                        L193:
  4758 05:BF3A: A7 0C        	lda	[<L190+list_0]
  4759 05:BF3C: A0 02 00     	ldy	#$2
  4760 05:BF3F: 17 0C        	ora	[<L190+list_0],Y
  4761 05:BF41: D0 03        	bne	L194
  4762 05:BF43: 82 19 00     	brl	L10072
  4763                        L194:
  4764                        	.line	694
  4765 05:BF46: A7 0C        	lda	[<L190+list_0]
  4766 05:BF48: 85 01        	sta	<R0
  4767 05:BF4A: A0 02 00     	ldy	#$2
  4768 05:BF4D: B7 0C        	lda	[<L190+list_0],Y
  4769 05:BF4F: 85 03        	sta	<R0+2
  4770 05:BF51: A0 0A 00     	ldy	#$a
  4771 05:BF54: B7 01        	lda	[<R0],Y
  4772 05:BF56: 85 05        	sta	<L191+node_1
  4773 05:BF58: A0 0C 00     	ldy	#$c
  4774 05:BF5B: B7 01        	lda	[<R0],Y
  4775 05:BF5D: 85 07        	sta	<L191+node_1+2
  4776                        ;
  4777                        ;	return node;
  4778                        L10072:
  4779                        	.line	696
  4780 05:BF5F: A6 07        	ldx	<L191+node_1+2
  4781 05:BF61: A5 05        	lda	<L191+node_1
  4782                        L195:
  Mon Aug  9 2021 16:52                                                Page 88


  4783 05:BF63: A8           	tay
  4784 05:BF64: A5 0A        	lda	<L190+2
  4785 05:BF66: 85 0E        	sta	<L190+2+4
  4786 05:BF68: A5 09        	lda	<L190+1
  4787 05:BF6A: 85 0D        	sta	<L190+1+4
  4788 05:BF6C: 2B           	pld
  4789 05:BF6D: 3B           	tsc
  4790 05:BF6E: 18           	clc
  4791 05:BF6F: 69 0C 00     	adc	#L190+4
  4792 05:BF72: 1B           	tcs
  4793 05:BF73: 98           	tya
  4794 05:BF74: 6B           	rtl
  4795                        ;}
  4796                        	.line	697
  4797                        	.endblock	697
  4798             00000008   L190	equ	8
  4799             00000005   L191	equ	5
  4800 05:BF75:              	ends
  4801                        	efunc
  4802                        	.endfunc	697,5,8
  4803                        	.line	697
  4804                        ;
  4805                        ;BOOL k_nodelist_empty(PFXNODELIST list)
  4806                        ;{
  4807                        	.line	699
  4808                        	.line	700
  4809                        	NODEMAN
  4810                        	xdef	~~k_nodelist_empty
  4811                        	func
  4812                        	.function	700
  4813                        ~~k_nodelist_empty:
  4814                        	longa	on
  4815                        	longi	on
  4816 05:BF75: 3B           	tsc
  4817 05:BF76: 38           	sec
  4818 05:BF77: E9 05 00     	sbc	#L196
  4819 05:BF7A: 1B           	tcs
  4820 05:BF7B: 0B           	phd
  4821 05:BF7C: 5B           	tcd
  4822             00000004   list_0	set	4
  4823                        	.block	700
  4824                        ;	BOOL bRet = TRUE;
  4825                        ;
  4826                        ;	if(list && list->listhead && list->listhead->nex
                    t)
  4827             00000000   bRet_1	set	0
  4828                        	.sym	bRet,0,14,1,8
  4829                        	.sym	list,4,138,6,32,3
  4830 05:BF7D: E2 20        	sep	#$20
  4831                        	longa	off
  4832 05:BF7F: A9 01        	lda	#$1
  4833 05:BF81: 85 05        	sta	<L197+bRet_1
  4834 05:BF83: C2 20        	rep	#$20
  4835                        	longa	on
  4836                        	.line	703
  4837                        ;	{
  4838 05:BF85: A5 09        	lda	<L196+list_0
  4839 05:BF87: 05 0B        	ora	<L196+list_0+2
  Mon Aug  9 2021 16:52                                                Page 89


  4840 05:BF89: D0 03        	bne	L199
  4841 05:BF8B: 82 2C 00     	brl	L10073
  4842                        L199:
  4843 05:BF8E: A7 09        	lda	[<L196+list_0]
  4844 05:BF90: A0 02 00     	ldy	#$2
  4845 05:BF93: 17 09        	ora	[<L196+list_0],Y
  4846 05:BF95: D0 03        	bne	L200
  4847 05:BF97: 82 20 00     	brl	L10073
  4848                        L200:
  4849 05:BF9A: A7 09        	lda	[<L196+list_0]
  4850 05:BF9C: 85 01        	sta	<R0
  4851 05:BF9E: A0 02 00     	ldy	#$2
  4852 05:BFA1: B7 09        	lda	[<L196+list_0],Y
  4853 05:BFA3: 85 03        	sta	<R0+2
  4854 05:BFA5: A0 0A 00     	ldy	#$a
  4855 05:BFA8: B7 01        	lda	[<R0],Y
  4856 05:BFAA: A0 0C 00     	ldy	#$c
  4857 05:BFAD: 17 01        	ora	[<R0],Y
  4858 05:BFAF: D0 03        	bne	L201
  4859 05:BFB1: 82 06 00     	brl	L10073
  4860                        L201:
  4861                        	.line	704
  4862                        ;		bRet = FALSE;
  4863                        	.line	705
  4864 05:BFB4: E2 20        	sep	#$20
  4865                        	longa	off
  4866 05:BFB6: 64 05        	stz	<L197+bRet_1
  4867 05:BFB8: C2 20        	rep	#$20
  4868                        	longa	on
  4869                        ;	}
  4870                        	.line	706
  4871                        ;
  4872                        ;	return bRet;
  4873                        L10073:
  4874                        	.line	708
  4875 05:BFBA: A5 05        	lda	<L197+bRet_1
  4876 05:BFBC: 29 FF 00     	and	#$ff
  4877                        L202:
  4878 05:BFBF: A8           	tay
  4879 05:BFC0: A5 07        	lda	<L196+2
  4880 05:BFC2: 85 0B        	sta	<L196+2+4
  4881 05:BFC4: A5 06        	lda	<L196+1
  4882 05:BFC6: 85 0A        	sta	<L196+1+4
  4883 05:BFC8: 2B           	pld
  4884 05:BFC9: 3B           	tsc
  4885 05:BFCA: 18           	clc
  4886 05:BFCB: 69 09 00     	adc	#L196+4
  4887 05:BFCE: 1B           	tcs
  4888 05:BFCF: 98           	tya
  4889 05:BFD0: 6B           	rtl
  4890                        ;}
  4891                        	.line	709
  4892                        	.endblock	709
  4893             00000005   L196	equ	5
  4894             00000005   L197	equ	5
  4895 05:BFD1:              	ends
  4896                        	efunc
  4897                        	.endfunc	709,5,5
  Mon Aug  9 2021 16:52                                                Page 90


  4898                        	.line	709
  4899                        ;
  4900                        ;VOID k_deallocate_default(LPCSTR name,LPVOID data
                    )
  4901                        ;{
  4902                        	.line	711
  4903                        	.line	712
  4904                        	NODEMAN
  4905                        	xdef	~~k_deallocate_default
  4906                        	func
  4907                        	.function	712
  4908                        ~~k_deallocate_default:
  4909                        	longa	on
  4910                        	longi	on
  4911 05:BFD1: 3B           	tsc
  4912 05:BFD2: 38           	sec
  4913 05:BFD3: E9 00 00     	sbc	#L203
  4914 05:BFD6: 1B           	tcs
  4915 05:BFD7: 0B           	phd
  4916 05:BFD8: 5B           	tcd
  4917             00000004   name_0	set	4
  4918             00000008   data_0	set	8
  4919                        	.block	712
  4920                        ;	if(data)
  4921                        	.sym	name,4,142,6,32
  4922                        	.sym	data,8,129,6,32
  4923                        	.line	713
  4924                        ;		k_mem_deallocate_heap(data);
  4925 05:BFD9: A5 08        	lda	<L203+data_0
  4926 05:BFDB: 05 0A        	ora	<L203+data_0+2
  4927 05:BFDD: D0 03        	bne	L206
  4928 05:BFDF: 82 08 00     	brl	L10074
  4929                        L206:
  4930                        	.line	714
  4931 05:BFE2: D4 0A        	pei	<L203+data_0+2
  4932 05:BFE4: D4 08        	pei	<L203+data_0
  4933 05:BFE6: 22 xx xx xx  	jsl	~~k_mem_deallocate_heap
  4934                        ;}
  4935                        L10074:
  4936                        	.line	715
  4937                        L207:
  4938 05:BFEA: A5 02        	lda	<L203+2
  4939 05:BFEC: 85 0A        	sta	<L203+2+8
  4940 05:BFEE: A5 01        	lda	<L203+1
  4941 05:BFF0: 85 09        	sta	<L203+1+8
  4942 05:BFF2: 2B           	pld
  4943 05:BFF3: 3B           	tsc
  4944 05:BFF4: 18           	clc
  4945 05:BFF5: 69 08 00     	adc	#L203+8
  4946 05:BFF8: 1B           	tcs
  4947 05:BFF9: 6B           	rtl
  4948                        	.endblock	715
  4949             00000000   L203	equ	0
  4950             00000001   L204	equ	1
  4951 05:BFFA:              	ends
  4952                        	efunc
  4953                        	.endfunc	715,1,0
  4954                        	.line	715
  Mon Aug  9 2021 16:52                                                Page 91


  4955                        ;
  4956                        ;VOID k_nodelist_deallocate_list(PFXNODELIST nodel
                    ist)
  4957                        ;{
  4958                        	.line	717
  4959                        	.line	718
  4960                        	NODEMAN
  4961                        	xdef	~~k_nodelist_deallocate_list
  4962                        	func
  4963                        	.function	718
  4964                        ~~k_nodelist_deallocate_list:
  4965                        	longa	on
  4966                        	longi	on
  4967 05:BFFA: 3B           	tsc
  4968 05:BFFB: 38           	sec
  4969 05:BFFC: E9 0C 00     	sbc	#L208
  4970 05:BFFF: 1B           	tcs
  4971 05:C000: 0B           	phd
  4972 05:C001: 5B           	tcd
  4973             00000004   nodelist_0	set	4
  4974                        	.block	718
  4975                        ;	PFXNODE ptr  = NULL;
  4976                        ;	PFXNODE ptmp = NULL;
  4977                        ;
  4978                        ;	if(nodelist)
  4979             00000000   ptr_1	set	0
  4980             00000004   ptmp_1	set	4
  4981                        	.sym	ptr,0,138,1,32,2
  4982                        	.sym	ptmp,4,138,1,32,2
  4983                        	.sym	nodelist,4,138,6,32,3
  4984 05:C002: 64 05        	stz	<L209+ptr_1
  4985 05:C004: 64 07        	stz	<L209+ptr_1+2
  4986 05:C006: 64 09        	stz	<L209+ptmp_1
  4987 05:C008: 64 0B        	stz	<L209+ptmp_1+2
  4988                        	.line	722
  4989                        ;	{
  4990 05:C00A: A5 10        	lda	<L208+nodelist_0
  4991 05:C00C: 05 12        	ora	<L208+nodelist_0+2
  4992 05:C00E: D0 03        	bne	L211
  4993 05:C010: 82 D6 00     	brl	L10075
  4994                        L211:
  4995                        	.line	723
  4996                        ;		ptr = nodelist->listhead;
  4997                        	.line	724
  4998 05:C013: A7 10        	lda	[<L208+nodelist_0]
  4999 05:C015: 85 05        	sta	<L209+ptr_1
  5000 05:C017: A0 02 00     	ldy	#$2
  5001 05:C01A: B7 10        	lda	[<L208+nodelist_0],Y
  5002 05:C01C: 85 07        	sta	<L209+ptr_1+2
  5003                        ;		while(ptr)
  5004                        	.line	725
  5005                        L10076:
  5006 05:C01E: A5 05        	lda	<L209+ptr_1
  5007 05:C020: 05 07        	ora	<L209+ptr_1+2
  5008 05:C022: D0 03        	bne	L212
  5009 05:C024: 82 BA 00     	brl	L10077
  5010                        L212:
  5011                        ;		{
  Mon Aug  9 2021 16:52                                                Page 92


  5012                        	.line	726
  5013                        ;			ptmp = ptr->next;
  5014                        	.line	727
  5015 05:C027: A0 0A 00     	ldy	#$a
  5016 05:C02A: B7 05        	lda	[<L209+ptr_1],Y
  5017 05:C02C: 85 09        	sta	<L209+ptmp_1
  5018 05:C02E: A0 0C 00     	ldy	#$c
  5019 05:C031: B7 05        	lda	[<L209+ptr_1],Y
  5020 05:C033: 85 0B        	sta	<L209+ptmp_1+2
  5021                        ;
  5022                        ;			if((ptr != nodelist->listhead) &
                    & nodelist->deallocator)
  5023                        	.line	729
  5024                        ;			{
  5025 05:C035: A5 05        	lda	<L209+ptr_1
  5026 05:C037: C7 10        	cmp	[<L208+nodelist_0]
  5027 05:C039: D0 07        	bne	L213
  5028 05:C03B: A5 07        	lda	<L209+ptr_1+2
  5029 05:C03D: A0 02 00     	ldy	#$2
  5030 05:C040: D7 10        	cmp	[<L208+nodelist_0],Y
  5031                        L213:
  5032 05:C042: D0 03        	bne	L214
  5033 05:C044: 82 40 00     	brl	L10078
  5034                        L214:
  5035 05:C047: A0 08 00     	ldy	#$8
  5036 05:C04A: B7 10        	lda	[<L208+nodelist_0],Y
  5037 05:C04C: A0 0A 00     	ldy	#$a
  5038 05:C04F: 17 10        	ora	[<L208+nodelist_0],Y
  5039 05:C051: D0 03        	bne	L215
  5040 05:C053: 82 31 00     	brl	L10078
  5041                        L215:
  5042                        	.line	730
  5043                        ;				nodelist->deallocator(pt
                    r->name,ptr->data);
  5044                        	.line	731
  5045 05:C056: A0 04 00     	ldy	#$4
  5046 05:C059: B7 05        	lda	[<L209+ptr_1],Y
  5047 05:C05B: 48           	pha
  5048 05:C05C: A0 02 00     	ldy	#$2
  5049 05:C05F: B7 05        	lda	[<L209+ptr_1],Y
  5050 05:C061: 48           	pha
  5051 05:C062: 18           	clc
  5052 05:C063: A9 0E 00     	lda	#$e
  5053 05:C066: 65 05        	adc	<L209+ptr_1
  5054 05:C068: 85 01        	sta	<R0
  5055 05:C06A: A9 00 00     	lda	#$0
  5056 05:C06D: 65 07        	adc	<L209+ptr_1+2
  5057 05:C06F: 85 03        	sta	<R0+2
  5058 05:C071: D4 03        	pei	<R0+2
  5059 05:C073: D4 01        	pei	<R0
  5060 05:C075: A0 0A 00     	ldy	#$a
  5061 05:C078: B7 10        	lda	[<L208+nodelist_0],Y
  5062 05:C07A: AA           	tax
  5063 05:C07B: A0 08 00     	ldy	#$8
  5064 05:C07E: B7 10        	lda	[<L208+nodelist_0],Y
  5065                        	xref	~~~lcal
  5066 05:C080: 22 xx xx xx  	jsl	~~~lcal
  5067                        ;			}
  Mon Aug  9 2021 16:52                                                Page 93


  5068                        	.line	732
  5069                        ;			else
  5070 05:C084: 82 00 00     	brl	L10079
  5071                        L10078:
  5072                        ;			{
  5073                        	.line	734
  5074                        ;				//if(nodelist->listhead-
                    >data)
  5075                        ;				//	k_debug_strings(
                    "k_nodelist_deallocate_list:",(LPSTR)nodelist->listhead->dat
                    a);
  5076                        ;				//k_debug_pointer("k_nod
                    elist_deallocate_list:skipping deallocation:",nodelist->list
                    head->next->data);
  5077                        ;			}
  5078                        	.line	738
  5079                        L10079:
  5080                        ;
  5081                        ;			if(ptr == nodelist->listhead)
  5082                        	.line	740
  5083                        ;			{
  5084 05:C087: A5 05        	lda	<L209+ptr_1
  5085 05:C089: C7 10        	cmp	[<L208+nodelist_0]
  5086 05:C08B: D0 07        	bne	L216
  5087 05:C08D: A5 07        	lda	<L209+ptr_1+2
  5088 05:C08F: A0 02 00     	ldy	#$2
  5089 05:C092: D7 10        	cmp	[<L208+nodelist_0],Y
  5090                        L216:
  5091 05:C094: F0 03        	beq	L217
  5092 05:C096: 82 35 00     	brl	L10080
  5093                        L217:
  5094                        	.line	741
  5095                        ;				if(nodelist->listhead->d
                    ata)
  5096                        	.line	742
  5097                        ;				{
  5098 05:C099: A7 10        	lda	[<L208+nodelist_0]
  5099 05:C09B: 85 01        	sta	<R0
  5100 05:C09D: A0 02 00     	ldy	#$2
  5101 05:C0A0: B7 10        	lda	[<L208+nodelist_0],Y
  5102 05:C0A2: 85 03        	sta	<R0+2
  5103 05:C0A4: A0 02 00     	ldy	#$2
  5104 05:C0A7: B7 01        	lda	[<R0],Y
  5105 05:C0A9: A0 04 00     	ldy	#$4
  5106 05:C0AC: 17 01        	ora	[<R0],Y
  5107 05:C0AE: D0 03        	bne	L218
  5108 05:C0B0: 82 1B 00     	brl	L10081
  5109                        L218:
  5110                        	.line	743
  5111                        ;					//k_debug_pointe
                    r("k_nodelist_deallocate_list:nodelist->listhead->data:",nod
                    elist->listhead->data);
  5112                        ;					k_mem_deallocate
                    _heap(nodelist->listhead->data);
  5113                        	.line	745
  5114 05:C0B3: A7 10        	lda	[<L208+nodelist_0]
  5115 05:C0B5: 85 01        	sta	<R0
  5116 05:C0B7: A0 02 00     	ldy	#$2
  Mon Aug  9 2021 16:52                                                Page 94


  5117 05:C0BA: B7 10        	lda	[<L208+nodelist_0],Y
  5118 05:C0BC: 85 03        	sta	<R0+2
  5119 05:C0BE: A0 04 00     	ldy	#$4
  5120 05:C0C1: B7 01        	lda	[<R0],Y
  5121 05:C0C3: 48           	pha
  5122 05:C0C4: A0 02 00     	ldy	#$2
  5123 05:C0C7: B7 01        	lda	[<R0],Y
  5124 05:C0C9: 48           	pha
  5125 05:C0CA: 22 xx xx xx  	jsl	~~k_mem_deallocate_heap
  5126                        ;				}
  5127                        	.line	746
  5128                        ;			}
  5129                        L10081:
  5130                        	.line	747
  5131                        ;
  5132                        ;
  5133                        ;			k_mem_deallocate_heap(ptr);
  5134                        L10080:
  5135                        	.line	750
  5136 05:C0CE: D4 07        	pei	<L209+ptr_1+2
  5137 05:C0D0: D4 05        	pei	<L209+ptr_1
  5138 05:C0D2: 22 xx xx xx  	jsl	~~k_mem_deallocate_heap
  5139                        ;
  5140                        ;			ptr = ptmp;
  5141                        	.line	752
  5142 05:C0D6: A5 09        	lda	<L209+ptmp_1
  5143 05:C0D8: 85 05        	sta	<L209+ptr_1
  5144 05:C0DA: A5 0B        	lda	<L209+ptmp_1+2
  5145 05:C0DC: 85 07        	sta	<L209+ptr_1+2
  5146                        ;		}
  5147                        	.line	753
  5148 05:C0DE: 82 3D FF     	brl	L10076
  5149                        L10077:
  5150                        ;		k_mem_deallocate_heap(nodelist);
  5151                        	.line	754
  5152 05:C0E1: D4 12        	pei	<L208+nodelist_0+2
  5153 05:C0E3: D4 10        	pei	<L208+nodelist_0
  5154 05:C0E5: 22 xx xx xx  	jsl	~~k_mem_deallocate_heap
  5155                        ;	}
  5156                        	.line	755
  5157                        ;}
  5158                        L10075:
  5159                        	.line	756
  5160                        L219:
  5161 05:C0E9: A5 0E        	lda	<L208+2
  5162 05:C0EB: 85 12        	sta	<L208+2+4
  5163 05:C0ED: A5 0D        	lda	<L208+1
  5164 05:C0EF: 85 11        	sta	<L208+1+4
  5165 05:C0F1: 2B           	pld
  5166 05:C0F2: 3B           	tsc
  5167 05:C0F3: 18           	clc
  5168 05:C0F4: 69 10 00     	adc	#L208+4
  5169 05:C0F7: 1B           	tcs
  5170 05:C0F8: 6B           	rtl
  5171                        	.endblock	756
  5172             0000000C   L208	equ	12
  5173             00000005   L209	equ	5
  5174 05:C0F9:              	ends
  Mon Aug  9 2021 16:52                                                Page 95


  5175                        	efunc
  5176                        	.endfunc	756,5,12
  5177                        	.line	756
  5178                        ;
  5179                        ;
  5180                        ;PFXNODELIST	k_nodelist_clear_list(PFXNODELIS
                    T nodelist)
  5181                        ;{
  5182                        	.line	759
  5183                        	.line	760
  5184                        	NODEMAN
  5185                        	xdef	~~k_nodelist_clear_list
  5186                        	func
  5187                        	.function	760
  5188                        ~~k_nodelist_clear_list:
  5189                        	longa	on
  5190                        	longi	on
  5191 05:C0F9: 3B           	tsc
  5192 05:C0FA: 38           	sec
  5193 05:C0FB: E9 0C 00     	sbc	#L220
  5194 05:C0FE: 1B           	tcs
  5195 05:C0FF: 0B           	phd
  5196 05:C100: 5B           	tcd
  5197             00000004   nodelist_0	set	4
  5198                        	.block	760
  5199                        ;	PFXNODE ptr  = NULL;
  5200                        ;	PFXNODE ptmp = NULL;
  5201                        ;
  5202                        ;	if(nodelist)
  5203             00000000   ptr_1	set	0
  5204             00000004   ptmp_1	set	4
  5205                        	.sym	ptr,0,138,1,32,2
  5206                        	.sym	ptmp,4,138,1,32,2
  5207                        	.sym	nodelist,4,138,6,32,3
  5208 05:C101: 64 05        	stz	<L221+ptr_1
  5209 05:C103: 64 07        	stz	<L221+ptr_1+2
  5210 05:C105: 64 09        	stz	<L221+ptmp_1
  5211 05:C107: 64 0B        	stz	<L221+ptmp_1+2
  5212                        	.line	764
  5213                        ;	{
  5214 05:C109: A5 10        	lda	<L220+nodelist_0
  5215 05:C10B: 05 12        	ora	<L220+nodelist_0+2
  5216 05:C10D: D0 03        	bne	L223
  5217 05:C10F: 82 C4 00     	brl	L10082
  5218                        L223:
  5219                        	.line	765
  5220                        ;		ptr = nodelist->listhead->next;
  5221                        	.line	766
  5222 05:C112: A7 10        	lda	[<L220+nodelist_0]
  5223 05:C114: 85 01        	sta	<R0
  5224 05:C116: A0 02 00     	ldy	#$2
  5225 05:C119: B7 10        	lda	[<L220+nodelist_0],Y
  5226 05:C11B: 85 03        	sta	<R0+2
  5227 05:C11D: A0 0A 00     	ldy	#$a
  5228 05:C120: B7 01        	lda	[<R0],Y
  5229 05:C122: 85 05        	sta	<L221+ptr_1
  5230 05:C124: A0 0C 00     	ldy	#$c
  5231 05:C127: B7 01        	lda	[<R0],Y
  Mon Aug  9 2021 16:52                                                Page 96


  5232 05:C129: 85 07        	sta	<L221+ptr_1+2
  5233                        ;		while(ptr)
  5234                        	.line	767
  5235                        L10083:
  5236 05:C12B: A5 05        	lda	<L221+ptr_1
  5237 05:C12D: 05 07        	ora	<L221+ptr_1+2
  5238 05:C12F: D0 03        	bne	L224
  5239 05:C131: 82 6C 00     	brl	L10084
  5240                        L224:
  5241                        ;		{
  5242                        	.line	768
  5243                        ;			ptmp = ptr->next->next;
  5244                        	.line	769
  5245 05:C134: A0 0A 00     	ldy	#$a
  5246 05:C137: B7 05        	lda	[<L221+ptr_1],Y
  5247 05:C139: 85 01        	sta	<R0
  5248 05:C13B: A0 0C 00     	ldy	#$c
  5249 05:C13E: B7 05        	lda	[<L221+ptr_1],Y
  5250 05:C140: 85 03        	sta	<R0+2
  5251 05:C142: A0 0A 00     	ldy	#$a
  5252 05:C145: B7 01        	lda	[<R0],Y
  5253 05:C147: 85 09        	sta	<L221+ptmp_1
  5254 05:C149: A0 0C 00     	ldy	#$c
  5255 05:C14C: B7 01        	lda	[<R0],Y
  5256 05:C14E: 85 0B        	sta	<L221+ptmp_1+2
  5257                        ;
  5258                        ;			if(nodelist->deallocator)
  5259                        	.line	771
  5260                        ;				nodelist->deallocator(pt
                    r->name,ptr->data);
  5261 05:C150: A0 08 00     	ldy	#$8
  5262 05:C153: B7 10        	lda	[<L220+nodelist_0],Y
  5263 05:C155: A0 0A 00     	ldy	#$a
  5264 05:C158: 17 10        	ora	[<L220+nodelist_0],Y
  5265 05:C15A: D0 03        	bne	L225
  5266 05:C15C: 82 2E 00     	brl	L10085
  5267                        L225:
  5268                        	.line	772
  5269 05:C15F: A0 04 00     	ldy	#$4
  5270 05:C162: B7 05        	lda	[<L221+ptr_1],Y
  5271 05:C164: 48           	pha
  5272 05:C165: A0 02 00     	ldy	#$2
  5273 05:C168: B7 05        	lda	[<L221+ptr_1],Y
  5274 05:C16A: 48           	pha
  5275 05:C16B: 18           	clc
  5276 05:C16C: A9 0E 00     	lda	#$e
  5277 05:C16F: 65 05        	adc	<L221+ptr_1
  5278 05:C171: 85 01        	sta	<R0
  5279 05:C173: A9 00 00     	lda	#$0
  5280 05:C176: 65 07        	adc	<L221+ptr_1+2
  5281 05:C178: 85 03        	sta	<R0+2
  5282 05:C17A: D4 03        	pei	<R0+2
  5283 05:C17C: D4 01        	pei	<R0
  5284 05:C17E: A0 0A 00     	ldy	#$a
  5285 05:C181: B7 10        	lda	[<L220+nodelist_0],Y
  5286 05:C183: AA           	tax
  5287 05:C184: A0 08 00     	ldy	#$8
  5288 05:C187: B7 10        	lda	[<L220+nodelist_0],Y
  Mon Aug  9 2021 16:52                                                Page 97


  5289                        	xref	~~~lcal
  5290 05:C189: 22 xx xx xx  	jsl	~~~lcal
  5291                        ;
  5292                        ;			k_mem_deallocate_heap(ptr);
  5293                        L10085:
  5294                        	.line	774
  5295 05:C18D: D4 07        	pei	<L221+ptr_1+2
  5296 05:C18F: D4 05        	pei	<L221+ptr_1
  5297 05:C191: 22 xx xx xx  	jsl	~~k_mem_deallocate_heap
  5298                        ;
  5299                        ;			ptr = ptmp;
  5300                        	.line	776
  5301 05:C195: A5 09        	lda	<L221+ptmp_1
  5302 05:C197: 85 05        	sta	<L221+ptr_1
  5303 05:C199: A5 0B        	lda	<L221+ptmp_1+2
  5304 05:C19B: 85 07        	sta	<L221+ptr_1+2
  5305                        ;		}
  5306                        	.line	777
  5307 05:C19D: 82 8B FF     	brl	L10083
  5308                        L10084:
  5309                        ;		nodelist->listhead->next = NULL;
  5310                        	.line	778
  5311 05:C1A0: A7 10        	lda	[<L220+nodelist_0]
  5312 05:C1A2: 85 01        	sta	<R0
  5313 05:C1A4: A0 02 00     	ldy	#$2
  5314 05:C1A7: B7 10        	lda	[<L220+nodelist_0],Y
  5315 05:C1A9: 85 03        	sta	<R0+2
  5316 05:C1AB: A9 00 00     	lda	#$0
  5317 05:C1AE: A0 0A 00     	ldy	#$a
  5318 05:C1B1: 97 01        	sta	[<R0],Y
  5319 05:C1B3: A9 00 00     	lda	#$0
  5320 05:C1B6: A0 0C 00     	ldy	#$c
  5321 05:C1B9: 97 01        	sta	[<R0],Y
  5322                        ;		nodelist->listhead->last = NULL;
  5323                        	.line	779
  5324 05:C1BB: A7 10        	lda	[<L220+nodelist_0]
  5325 05:C1BD: 85 01        	sta	<R0
  5326 05:C1BF: A0 02 00     	ldy	#$2
  5327 05:C1C2: B7 10        	lda	[<L220+nodelist_0],Y
  5328 05:C1C4: 85 03        	sta	<R0+2
  5329 05:C1C6: A9 00 00     	lda	#$0
  5330 05:C1C9: A0 06 00     	ldy	#$6
  5331 05:C1CC: 97 01        	sta	[<R0],Y
  5332 05:C1CE: A9 00 00     	lda	#$0
  5333 05:C1D1: A0 08 00     	ldy	#$8
  5334 05:C1D4: 97 01        	sta	[<R0],Y
  5335                        ;	}
  5336                        	.line	780
  5337                        ;
  5338                        ;	return nodelist;
  5339                        L10082:
  5340                        	.line	782
  5341 05:C1D6: A6 12        	ldx	<L220+nodelist_0+2
  5342 05:C1D8: A5 10        	lda	<L220+nodelist_0
  5343                        L226:
  5344 05:C1DA: A8           	tay
  5345 05:C1DB: A5 0E        	lda	<L220+2
  5346 05:C1DD: 85 12        	sta	<L220+2+4
  Mon Aug  9 2021 16:52                                                Page 98


  5347 05:C1DF: A5 0D        	lda	<L220+1
  5348 05:C1E1: 85 11        	sta	<L220+1+4
  5349 05:C1E3: 2B           	pld
  5350 05:C1E4: 3B           	tsc
  5351 05:C1E5: 18           	clc
  5352 05:C1E6: 69 10 00     	adc	#L220+4
  5353 05:C1E9: 1B           	tcs
  5354 05:C1EA: 98           	tya
  5355 05:C1EB: 6B           	rtl
  5356                        ;}
  5357                        	.line	783
  5358                        	.endblock	783
  5359             0000000C   L220	equ	12
  5360             00000005   L221	equ	5
  5361 05:C1EC:              	ends
  5362                        	efunc
  5363                        	.endfunc	783,5,12
  5364                        	.line	783
  5365                        ;
  5366                        ;PFXNODE k_nodelist_naddtolist_tohead(PFXNODELIST 
                    list,BYTE type,ULONG objId,LPVOID data)
  5367                        ;{
  5368                        	.line	785
  5369                        	.line	786
  5370                        	NODEMAN
  5371                        	xdef	~~k_nodelist_naddtolist_tohead
  5372                        	func
  5373                        	.function	786
  5374                        ~~k_nodelist_naddtolist_tohead:
  5375                        	longa	on
  5376                        	longi	on
  5377 05:C1EC: 3B           	tsc
  5378 05:C1ED: 38           	sec
  5379 05:C1EE: E9 18 00     	sbc	#L227
  5380 05:C1F1: 1B           	tcs
  5381 05:C1F2: 0B           	phd
  5382 05:C1F3: 5B           	tcd
  5383             00000004   list_0	set	4
  5384             00000008   type_0	set	8
  5385             0000000A   objId_0	set	10
  5386             0000000E   data_0	set	14
  5387                        	.block	786
  5388                        ;	UCHAR buffer[16];
  5389                        ;
  5390                        ;	return k_nodelist_addtolist_tohead(list,type,k_l
                    ongtodec(objId,buffer),data);
  5391             00000000   buffer_1	set	0
  5392                        	.sym	buffer,0,110,1,0,16
  5393                        	.sym	list,4,138,6,32,3
  5394                        	.sym	type,8,14,6,8
  5395                        	.sym	objId,10,18,6,32
  5396                        	.sym	data,14,129,6,32
  5397                        	.line	789
  5398 05:C1F4: D4 28        	pei	<L227+data_0+2
  5399 05:C1F6: D4 26        	pei	<L227+data_0
  5400 05:C1F8: F4 00 00     	pea	#0
  5401 05:C1FB: 18           	clc
  5402 05:C1FC: 7B           	tdc
  Mon Aug  9 2021 16:52                                                Page 99


  5403 05:C1FD: 69 09 00     	adc	#<L228+buffer_1
  5404 05:C200: 48           	pha
  5405 05:C201: D4 24        	pei	<L227+objId_0+2
  5406 05:C203: D4 22        	pei	<L227+objId_0
  5407 05:C205: 22 xx xx xx  	jsl	~~k_longtodec
  5408 05:C209: 85 01        	sta	<R0
  5409 05:C20B: 86 03        	stx	<R0+2
  5410 05:C20D: DA           	phx
  5411 05:C20E: 48           	pha
  5412 05:C20F: D4 20        	pei	<L227+type_0
  5413 05:C211: D4 1E        	pei	<L227+list_0+2
  5414 05:C213: D4 1C        	pei	<L227+list_0
  5415 05:C215: 22 33 C2 05  	jsl	~~k_nodelist_addtolist_tohead
  5416 05:C219: 85 05        	sta	<R1
  5417 05:C21B: 86 07        	stx	<R1+2
  5418 05:C21D: A6 07        	ldx	<R1+2
  5419 05:C21F: A5 05        	lda	<R1
  5420                        L230:
  5421 05:C221: A8           	tay
  5422 05:C222: A5 1A        	lda	<L227+2
  5423 05:C224: 85 28        	sta	<L227+2+14
  5424 05:C226: A5 19        	lda	<L227+1
  5425 05:C228: 85 27        	sta	<L227+1+14
  5426 05:C22A: 2B           	pld
  5427 05:C22B: 3B           	tsc
  5428 05:C22C: 18           	clc
  5429 05:C22D: 69 26 00     	adc	#L227+14
  5430 05:C230: 1B           	tcs
  5431 05:C231: 98           	tya
  5432 05:C232: 6B           	rtl
  5433                        ;}
  5434                        	.line	790
  5435                        	.endblock	790
  5436             00000018   L227	equ	24
  5437             00000009   L228	equ	9
  5438 05:C233:              	ends
  5439                        	efunc
  5440                        	.endfunc	790,9,24
  5441                        	.line	790
  5442                        ;
  5443                        ;PFXNODE k_nodelist_addtolist_tohead(PFXNODELIST l
                    ist,BYTE type,LPCSTR name,LPVOID data)
  5444                        ;{
  5445                        	.line	792
  5446                        	.line	793
  5447                        	NODEMAN
  5448                        	xdef	~~k_nodelist_addtolist_tohead
  5449                        	func
  5450                        	.function	793
  5451                        ~~k_nodelist_addtolist_tohead:
  5452                        	longa	on
  5453                        	longi	on
  5454 05:C233: 3B           	tsc
  5455 05:C234: 38           	sec
  5456 05:C235: E9 08 00     	sbc	#L231
  5457 05:C238: 1B           	tcs
  5458 05:C239: 0B           	phd
  5459 05:C23A: 5B           	tcd
  Mon Aug  9 2021 16:52                                                Page 100


  5460             00000004   list_0	set	4
  5461             00000008   type_0	set	8
  5462             0000000A   name_0	set	10
  5463             0000000E   data_0	set	14
  5464                        	.block	793
  5465                        ;	PFXNODE node = NULL;
  5466                        ;
  5467                        ;	/*
  5468                        ;	k_debug_pointer("k_nodelist_addtolist_tohead:ent
                    er:",list);
  5469                        ;	if(name)
  5470                        ;		k_debug_strings("k_nodelist_addtolist_to
                    head:name:",(LPSTR)name);
  5471                        ;	else
  5472                        ;		k_debug_strings("k_nodelist_addtolist_to
                    head:name:","NULL");
  5473                        ;	*/
  5474                        ;	if(list && list->listhead)
  5475             00000000   node_1	set	0
  5476                        	.sym	node,0,138,1,32,2
  5477                        	.sym	list,4,138,6,32,3
  5478                        	.sym	type,8,14,6,8
  5479                        	.sym	name,10,142,6,32
  5480                        	.sym	data,14,129,6,32
  5481 05:C23B: 64 05        	stz	<L232+node_1
  5482 05:C23D: 64 07        	stz	<L232+node_1+2
  5483                        	.line	803
  5484                        ;	{
  5485 05:C23F: A5 0C        	lda	<L231+list_0
  5486 05:C241: 05 0E        	ora	<L231+list_0+2
  5487 05:C243: D0 03        	bne	L234
  5488 05:C245: 82 B9 00     	brl	L10086
  5489                        L234:
  5490 05:C248: A7 0C        	lda	[<L231+list_0]
  5491 05:C24A: A0 02 00     	ldy	#$2
  5492 05:C24D: 17 0C        	ora	[<L231+list_0],Y
  5493 05:C24F: D0 03        	bne	L235
  5494 05:C251: 82 AD 00     	brl	L10086
  5495                        L235:
  5496                        	.line	804
  5497                        ;		if(!k_nodelist_getname_and_type(list->li
                    sthead,name,type))
  5498                        	.line	805
  5499                        ;		{
  5500 05:C254: D4 10        	pei	<L231+type_0
  5501 05:C256: D4 14        	pei	<L231+name_0+2
  5502 05:C258: D4 12        	pei	<L231+name_0
  5503 05:C25A: A0 02 00     	ldy	#$2
  5504 05:C25D: B7 0C        	lda	[<L231+list_0],Y
  5505 05:C25F: 48           	pha
  5506 05:C260: A7 0C        	lda	[<L231+list_0]
  5507 05:C262: 48           	pha
  5508 05:C263: 22 F1 B7 05  	jsl	~~k_nodelist_getname_and_type
  5509 05:C267: 85 01        	sta	<R0
  5510 05:C269: 86 03        	stx	<R0+2
  5511 05:C26B: A5 01        	lda	<R0
  5512 05:C26D: 05 03        	ora	<R0+2
  5513 05:C26F: F0 03        	beq	L236
  Mon Aug  9 2021 16:52                                                Page 101


  5514 05:C271: 82 3B 00     	brl	L10087
  5515                        L236:
  5516                        	.line	806
  5517                        ;			node = k_nodelist_create(type,na
                    me,data,NULL,NULL);
  5518                        	.line	807
  5519 05:C274: F4 00 00     	pea	#^$0
  5520 05:C277: F4 00 00     	pea	#<$0
  5521 05:C27A: F4 00 00     	pea	#^$0
  5522 05:C27D: F4 00 00     	pea	#<$0
  5523 05:C280: D4 18        	pei	<L231+data_0+2
  5524 05:C282: D4 16        	pei	<L231+data_0
  5525 05:C284: D4 14        	pei	<L231+name_0+2
  5526 05:C286: D4 12        	pei	<L231+name_0
  5527 05:C288: D4 10        	pei	<L231+type_0
  5528 05:C28A: 22 53 B3 05  	jsl	~~k_nodelist_create
  5529 05:C28E: 85 05        	sta	<L232+node_1
  5530 05:C290: 86 07        	stx	<L232+node_1+2
  5531                        ;			if(node)
  5532                        	.line	808
  5533                        ;			{
  5534 05:C292: A5 05        	lda	<L232+node_1
  5535 05:C294: 05 07        	ora	<L232+node_1+2
  5536 05:C296: D0 03        	bne	L237
  5537 05:C298: 82 11 00     	brl	L10088
  5538                        L237:
  5539                        	.line	809
  5540                        ;				k_nodelist_addtohead(lis
                    t->listhead,node);
  5541                        	.line	810
  5542 05:C29B: D4 07        	pei	<L232+node_1+2
  5543 05:C29D: D4 05        	pei	<L232+node_1
  5544 05:C29F: A0 02 00     	ldy	#$2
  5545 05:C2A2: B7 0C        	lda	[<L231+list_0],Y
  5546 05:C2A4: 48           	pha
  5547 05:C2A5: A7 0C        	lda	[<L231+list_0]
  5548 05:C2A7: 48           	pha
  5549 05:C2A8: 22 8D B6 05  	jsl	~~k_nodelist_addtohead
  5550                        ;			}
  5551                        	.line	811
  5552                        ;		}
  5553                        L10088:
  5554                        	.line	812
  5555                        ;		else
  5556 05:C2AC: 82 52 00     	brl	L10089
  5557                        L10087:
  5558                        ;		{
  5559                        	.line	814
  5560                        ;			if(name!=NULL)
  5561                        	.line	815
  5562                        ;				k_exec_throw_exception(k
                    _nodelist_addtolist_tohead,0x00020002,k_string_replace("Atte
                    mpt to add node with duplicate name: %s1","%s1",name),-1);
  5563 05:C2AF: A5 12        	lda	<L231+name_0
  5564 05:C2B1: 05 14        	ora	<L231+name_0+2
  5565 05:C2B3: D0 03        	bne	L238
  5566 05:C2B5: 82 30 00     	brl	L10090
  5567                        L238:
  Mon Aug  9 2021 16:52                                                Page 102


  5568                        	.line	816
  5569 05:C2B8: F4 FF FF     	pea	#<$ffffffff
  5570 05:C2BB: D4 14        	pei	<L231+name_0+2
  5571 05:C2BD: D4 12        	pei	<L231+name_0
  5572 05:C2BF: F4 xx xx     	pea	#^L189+45
  5573 05:C2C2: F4 xx xx     	pea	#<L189+45
  5574 05:C2C5: F4 xx xx     	pea	#^L189
  5575 05:C2C8: F4 xx xx     	pea	#<L189
  5576 05:C2CB: 22 xx xx xx  	jsl	~~k_string_replace
  5577 05:C2CF: 85 01        	sta	<R0
  5578 05:C2D1: 86 03        	stx	<R0+2
  5579 05:C2D3: DA           	phx
  5580 05:C2D4: 48           	pha
  5581 05:C2D5: F4 02 00     	pea	#^$20002
  5582 05:C2D8: F4 02 00     	pea	#<$20002
  5583 05:C2DB: F4 05 00     	pea	#^~~k_nodelist_addtolist_tohead
  5584 05:C2DE: F4 33 C2     	pea	#<~~k_nodelist_addtolist_tohead
  5585 05:C2E1: 22 xx xx xx  	jsl	~~k_exec_throw_exception
  5586                        ;			else
  5587 05:C2E5: 82 19 00     	brl	L10091
  5588                        L10090:
  5589                        ;				k_exec_throw_exception(k
                    _nodelist_addtolist_tohead,0x00020002,"Attempt to add node w
                    ith duplicate name.",-1);
  5590                        	.line	818
  5591 05:C2E8: F4 FF FF     	pea	#<$ffffffff
  5592 05:C2EB: F4 xx xx     	pea	#^L189+49
  5593 05:C2EE: F4 xx xx     	pea	#<L189+49
  5594 05:C2F1: F4 02 00     	pea	#^$20002
  5595 05:C2F4: F4 02 00     	pea	#<$20002
  5596 05:C2F7: F4 05 00     	pea	#^~~k_nodelist_addtolist_tohead
  5597 05:C2FA: F4 33 C2     	pea	#<~~k_nodelist_addtolist_tohead
  5598 05:C2FD: 22 xx xx xx  	jsl	~~k_exec_throw_exception
  5599                        L10091:
  5600                        ;		}
  5601                        	.line	819
  5602                        L10089:
  5603                        ;	}
  5604                        	.line	820
  5605                        ;	//k_debug_string("check k_nodelist_addtolist\r\n
                    ");
  5606                        ;	//k_heap_integrity_check();
  5607                        ;
  5608                        ;	//k_debug_pointer("k_nodelist_addtolist:exit:",l
                    ist);
  5609                        ;
  5610                        ;	return node;
  5611                        L10086:
  5612                        	.line	826
  5613 05:C301: A6 07        	ldx	<L232+node_1+2
  5614 05:C303: A5 05        	lda	<L232+node_1
  5615                        L239:
  5616 05:C305: A8           	tay
  5617 05:C306: A5 0A        	lda	<L231+2
  5618 05:C308: 85 18        	sta	<L231+2+14
  5619 05:C30A: A5 09        	lda	<L231+1
  5620 05:C30C: 85 17        	sta	<L231+1+14
  5621 05:C30E: 2B           	pld
  Mon Aug  9 2021 16:52                                                Page 103


  5622 05:C30F: 3B           	tsc
  5623 05:C310: 18           	clc
  5624 05:C311: 69 16 00     	adc	#L231+14
  5625 05:C314: 1B           	tcs
  5626 05:C315: 98           	tya
  5627 05:C316: 6B           	rtl
  5628                        ;}
  5629                        	.line	827
  5630                        	.endblock	827
  5631             00000008   L231	equ	8
  5632             00000005   L232	equ	5
  5633 05:C317:              	ends
  5634                        	efunc
  5635                        	.endfunc	827,5,8
  5636                        	.line	827
  5637                        	data
  5638                        L189:
  5639 00:00EF: 41 74 74 65  	db	$41,$74,$74,$65,$6D,$70,$74,$20,$74,$6F,
                    $20,$61,$64,$64,$20
       00:00F3: 6D 70 74 20 
       00:00F7: 74 6F 20 61 
       00:00FB: 64 64 20 
  5640 00:00FE: 6E 6F 64 65  	db	$6E,$6F,$64,$65,$20,$77,$69,$74,$68,$20,
                    $64,$75,$70,$6C,$69
       00:0102: 20 77 69 74 
       00:0106: 68 20 64 75 
       00:010A: 70 6C 69 
  5641 00:010D: 63 61 74 65  	db	$63,$61,$74,$65,$20,$6E,$61,$6D,$65,$3A,
                    $20,$25,$73,$31,$00
       00:0111: 20 6E 61 6D 
       00:0115: 65 3A 20 25 
       00:0119: 73 31 00 
  5642 00:011C: 25 73 31 00  	db	$25,$73,$31,$00,$41,$74,$74,$65,$6D,$70,
                    $74,$20,$74,$6F,$20
       00:0120: 41 74 74 65 
       00:0124: 6D 70 74 20 
       00:0128: 74 6F 20 
  5643 00:012B: 61 64 64 20  	db	$61,$64,$64,$20,$6E,$6F,$64,$65,$20,$77,
                    $69,$74,$68,$20,$64
       00:012F: 6E 6F 64 65 
       00:0133: 20 77 69 74 
       00:0137: 68 20 64 
  5644 00:013A: 75 70 6C 69  	db	$75,$70,$6C,$69,$63,$61,$74,$65,$20,$6E,
                    $61,$6D,$65,$2E,$00
       00:013E: 63 61 74 65 
       00:0142: 20 6E 61 6D 
       00:0146: 65 2E 00 
  5645 00:0149:              	ends
  5646                        ;
  5647                        ;PFXNODE k_nodelist_naddtolist(PFXNODELIST list,BY
                    TE type,ULONG objId,LPVOID data)
  5648                        ;{
  5649                        	.line	829
  5650                        	.line	830
  5651                        	NODEMAN
  5652                        	xdef	~~k_nodelist_naddtolist
  5653                        	func
  5654                        	.function	830
  Mon Aug  9 2021 16:52                                                Page 104


  5655                        ~~k_nodelist_naddtolist:
  5656                        	longa	on
  5657                        	longi	on
  5658 05:C317: 3B           	tsc
  5659 05:C318: 38           	sec
  5660 05:C319: E9 18 00     	sbc	#L241
  5661 05:C31C: 1B           	tcs
  5662 05:C31D: 0B           	phd
  5663 05:C31E: 5B           	tcd
  5664             00000004   list_0	set	4
  5665             00000008   type_0	set	8
  5666             0000000A   objId_0	set	10
  5667             0000000E   data_0	set	14
  5668                        	.block	830
  5669                        ;	UCHAR buffer[16];
  5670                        ;
  5671                        ;	return k_nodelist_addtolist(list,type,k_longtode
                    c(objId,buffer),data);
  5672             00000000   buffer_1	set	0
  5673                        	.sym	buffer,0,110,1,0,16
  5674                        	.sym	list,4,138,6,32,3
  5675                        	.sym	type,8,14,6,8
  5676                        	.sym	objId,10,18,6,32
  5677                        	.sym	data,14,129,6,32
  5678                        	.line	833
  5679 05:C31F: D4 28        	pei	<L241+data_0+2
  5680 05:C321: D4 26        	pei	<L241+data_0
  5681 05:C323: F4 00 00     	pea	#0
  5682 05:C326: 18           	clc
  5683 05:C327: 7B           	tdc
  5684 05:C328: 69 09 00     	adc	#<L242+buffer_1
  5685 05:C32B: 48           	pha
  5686 05:C32C: D4 24        	pei	<L241+objId_0+2
  5687 05:C32E: D4 22        	pei	<L241+objId_0
  5688 05:C330: 22 xx xx xx  	jsl	~~k_longtodec
  5689 05:C334: 85 01        	sta	<R0
  5690 05:C336: 86 03        	stx	<R0+2
  5691 05:C338: DA           	phx
  5692 05:C339: 48           	pha
  5693 05:C33A: D4 20        	pei	<L241+type_0
  5694 05:C33C: D4 1E        	pei	<L241+list_0+2
  5695 05:C33E: D4 1C        	pei	<L241+list_0
  5696 05:C340: 22 5E C3 05  	jsl	~~k_nodelist_addtolist
  5697 05:C344: 85 05        	sta	<R1
  5698 05:C346: 86 07        	stx	<R1+2
  5699 05:C348: A6 07        	ldx	<R1+2
  5700 05:C34A: A5 05        	lda	<R1
  5701                        L244:
  5702 05:C34C: A8           	tay
  5703 05:C34D: A5 1A        	lda	<L241+2
  5704 05:C34F: 85 28        	sta	<L241+2+14
  5705 05:C351: A5 19        	lda	<L241+1
  5706 05:C353: 85 27        	sta	<L241+1+14
  5707 05:C355: 2B           	pld
  5708 05:C356: 3B           	tsc
  5709 05:C357: 18           	clc
  5710 05:C358: 69 26 00     	adc	#L241+14
  5711 05:C35B: 1B           	tcs
  Mon Aug  9 2021 16:52                                                Page 105


  5712 05:C35C: 98           	tya
  5713 05:C35D: 6B           	rtl
  5714                        ;}
  5715                        	.line	834
  5716                        	.endblock	834
  5717             00000018   L241	equ	24
  5718             00000009   L242	equ	9
  5719 05:C35E:              	ends
  5720                        	efunc
  5721                        	.endfunc	834,9,24
  5722                        	.line	834
  5723                        ;
  5724                        ;PFXNODE k_nodelist_addtolist(PFXNODELIST list,BYT
                    E type,LPCSTR name,LPVOID data)
  5725                        ;{
  5726                        	.line	836
  5727                        	.line	837
  5728                        	NODEMAN
  5729                        	xdef	~~k_nodelist_addtolist
  5730                        	func
  5731                        	.function	837
  5732                        ~~k_nodelist_addtolist:
  5733                        	longa	on
  5734                        	longi	on
  5735 05:C35E: 3B           	tsc
  5736 05:C35F: 38           	sec
  5737 05:C360: E9 08 00     	sbc	#L245
  5738 05:C363: 1B           	tcs
  5739 05:C364: 0B           	phd
  5740 05:C365: 5B           	tcd
  5741             00000004   list_0	set	4
  5742             00000008   type_0	set	8
  5743             0000000A   name_0	set	10
  5744             0000000E   data_0	set	14
  5745                        	.block	837
  5746                        ;	PFXNODE node = NULL;
  5747                        ;
  5748                        ;	//k_debug_pointer("k_nodelist_addtolist:enter:",
                    list);
  5749                        ;	/*
  5750                        ;	if(name)
  5751                        ;		k_debug_strings("k_nodelist_addtolist:na
                    me:",(LPSTR)name);
  5752                        ;	else
  5753                        ;		k_debug_strings("k_nodelist_addtolist:na
                    me:","NULL");
  5754                        ;	*/
  5755                        ;	if(list && list->listhead)
  5756             00000000   node_1	set	0
  5757                        	.sym	node,0,138,1,32,2
  5758                        	.sym	list,4,138,6,32,3
  5759                        	.sym	type,8,14,6,8
  5760                        	.sym	name,10,142,6,32
  5761                        	.sym	data,14,129,6,32
  5762 05:C366: 64 05        	stz	<L246+node_1
  5763 05:C368: 64 07        	stz	<L246+node_1+2
  5764                        	.line	847
  5765                        ;	{
  Mon Aug  9 2021 16:52                                                Page 106


  5766 05:C36A: A5 0C        	lda	<L245+list_0
  5767 05:C36C: 05 0E        	ora	<L245+list_0+2
  5768 05:C36E: D0 03        	bne	L248
  5769 05:C370: 82 B5 00     	brl	L10092
  5770                        L248:
  5771 05:C373: A7 0C        	lda	[<L245+list_0]
  5772 05:C375: A0 02 00     	ldy	#$2
  5773 05:C378: 17 0C        	ora	[<L245+list_0],Y
  5774 05:C37A: D0 03        	bne	L249
  5775 05:C37C: 82 A9 00     	brl	L10092
  5776                        L249:
  5777                        	.line	848
  5778                        ;		if(!k_nodelist_getname_and_type(list->li
                    sthead,name,type))
  5779                        	.line	849
  5780                        ;		{
  5781 05:C37F: D4 10        	pei	<L245+type_0
  5782 05:C381: D4 14        	pei	<L245+name_0+2
  5783 05:C383: D4 12        	pei	<L245+name_0
  5784 05:C385: A0 02 00     	ldy	#$2
  5785 05:C388: B7 0C        	lda	[<L245+list_0],Y
  5786 05:C38A: 48           	pha
  5787 05:C38B: A7 0C        	lda	[<L245+list_0]
  5788 05:C38D: 48           	pha
  5789 05:C38E: 22 F1 B7 05  	jsl	~~k_nodelist_getname_and_type
  5790 05:C392: 85 01        	sta	<R0
  5791 05:C394: 86 03        	stx	<R0+2
  5792 05:C396: A5 01        	lda	<R0
  5793 05:C398: 05 03        	ora	<R0+2
  5794 05:C39A: F0 03        	beq	L250
  5795 05:C39C: 82 3B 00     	brl	L10093
  5796                        L250:
  5797                        	.line	850
  5798                        ;			node = k_nodelist_create(type,na
                    me,data,NULL,NULL);
  5799                        	.line	851
  5800 05:C39F: F4 00 00     	pea	#^$0
  5801 05:C3A2: F4 00 00     	pea	#<$0
  5802 05:C3A5: F4 00 00     	pea	#^$0
  5803 05:C3A8: F4 00 00     	pea	#<$0
  5804 05:C3AB: D4 18        	pei	<L245+data_0+2
  5805 05:C3AD: D4 16        	pei	<L245+data_0
  5806 05:C3AF: D4 14        	pei	<L245+name_0+2
  5807 05:C3B1: D4 12        	pei	<L245+name_0
  5808 05:C3B3: D4 10        	pei	<L245+type_0
  5809 05:C3B5: 22 53 B3 05  	jsl	~~k_nodelist_create
  5810 05:C3B9: 85 05        	sta	<L246+node_1
  5811 05:C3BB: 86 07        	stx	<L246+node_1+2
  5812                        ;			if(node)
  5813                        	.line	852
  5814                        ;			{
  5815 05:C3BD: A5 05        	lda	<L246+node_1
  5816 05:C3BF: 05 07        	ora	<L246+node_1+2
  5817 05:C3C1: D0 03        	bne	L251
  5818 05:C3C3: 82 11 00     	brl	L10094
  5819                        L251:
  5820                        	.line	853
  5821                        ;				k_nodelist_add(list->lis
  Mon Aug  9 2021 16:52                                                Page 107


                    thead,node);
  5822                        	.line	854
  5823 05:C3C6: D4 07        	pei	<L246+node_1+2
  5824 05:C3C8: D4 05        	pei	<L246+node_1
  5825 05:C3CA: A0 02 00     	ldy	#$2
  5826 05:C3CD: B7 0C        	lda	[<L245+list_0],Y
  5827 05:C3CF: 48           	pha
  5828 05:C3D0: A7 0C        	lda	[<L245+list_0]
  5829 05:C3D2: 48           	pha
  5830 05:C3D3: 22 34 B6 05  	jsl	~~k_nodelist_add
  5831                        ;			}
  5832                        	.line	855
  5833                        ;		}
  5834                        L10094:
  5835                        	.line	856
  5836                        ;		else
  5837 05:C3D7: 82 4E 00     	brl	L10095
  5838                        L10093:
  5839                        ;		{
  5840                        	.line	858
  5841                        ;			//k_exec_throw_exception(THIS_MO
                    DULE,0x00020002,k_string_replace("Attempt to add node with d
                    uplicate name: %s1","%s1",name),-1);
  5842                        ;
  5843                        ;			if(name!=NULL)
  5844                        	.line	861
  5845                        ;				k_exec_throw_exception(k
                    _nodelist_addtolist,(ULONG)list,k_string_replace("Attempt to
                     add node with duplicate name: %s1","%s1",name),-1);
  5846 05:C3DA: A5 12        	lda	<L245+name_0
  5847 05:C3DC: 05 14        	ora	<L245+name_0+2
  5848 05:C3DE: D0 03        	bne	L252
  5849 05:C3E0: 82 2E 00     	brl	L10096
  5850                        L252:
  5851                        	.line	862
  5852 05:C3E3: F4 FF FF     	pea	#<$ffffffff
  5853 05:C3E6: D4 14        	pei	<L245+name_0+2
  5854 05:C3E8: D4 12        	pei	<L245+name_0
  5855 05:C3EA: F4 xx xx     	pea	#^L240+45
  5856 05:C3ED: F4 xx xx     	pea	#<L240+45
  5857 05:C3F0: F4 xx xx     	pea	#^L240
  5858 05:C3F3: F4 xx xx     	pea	#<L240
  5859 05:C3F6: 22 xx xx xx  	jsl	~~k_string_replace
  5860 05:C3FA: 85 01        	sta	<R0
  5861 05:C3FC: 86 03        	stx	<R0+2
  5862 05:C3FE: DA           	phx
  5863 05:C3FF: 48           	pha
  5864 05:C400: D4 0E        	pei	<L245+list_0+2
  5865 05:C402: D4 0C        	pei	<L245+list_0
  5866 05:C404: F4 05 00     	pea	#^~~k_nodelist_addtolist
  5867 05:C407: F4 5E C3     	pea	#<~~k_nodelist_addtolist
  5868 05:C40A: 22 xx xx xx  	jsl	~~k_exec_throw_exception
  5869                        ;			else
  5870 05:C40E: 82 17 00     	brl	L10097
  5871                        L10096:
  5872                        ;				k_exec_throw_exception(k
                    _nodelist_addtolist,(ULONG)list,"Attempt to add node with du
                    plicate name.",-1);
  Mon Aug  9 2021 16:52                                                Page 108


  5873                        	.line	864
  5874 05:C411: F4 FF FF     	pea	#<$ffffffff
  5875 05:C414: F4 xx xx     	pea	#^L240+49
  5876 05:C417: F4 xx xx     	pea	#<L240+49
  5877 05:C41A: D4 0E        	pei	<L245+list_0+2
  5878 05:C41C: D4 0C        	pei	<L245+list_0
  5879 05:C41E: F4 05 00     	pea	#^~~k_nodelist_addtolist
  5880 05:C421: F4 5E C3     	pea	#<~~k_nodelist_addtolist
  5881 05:C424: 22 xx xx xx  	jsl	~~k_exec_throw_exception
  5882                        L10097:
  5883                        ;
  5884                        ;		}
  5885                        	.line	866
  5886                        L10095:
  5887                        ;	}
  5888                        	.line	867
  5889                        ;	//k_debug_string("check k_nodelist_addtolist\r\n
                    ");
  5890                        ;	//k_heap_integrity_check();
  5891                        ;
  5892                        ;	//k_debug_pointer("k_nodelist_addtolist:exit:",l
                    ist);
  5893                        ;
  5894                        ;	return node;
  5895                        L10092:
  5896                        	.line	873
  5897 05:C428: A6 07        	ldx	<L246+node_1+2
  5898 05:C42A: A5 05        	lda	<L246+node_1
  5899                        L253:
  5900 05:C42C: A8           	tay
  5901 05:C42D: A5 0A        	lda	<L245+2
  5902 05:C42F: 85 18        	sta	<L245+2+14
  5903 05:C431: A5 09        	lda	<L245+1
  5904 05:C433: 85 17        	sta	<L245+1+14
  5905 05:C435: 2B           	pld
  5906 05:C436: 3B           	tsc
  5907 05:C437: 18           	clc
  5908 05:C438: 69 16 00     	adc	#L245+14
  5909 05:C43B: 1B           	tcs
  5910 05:C43C: 98           	tya
  5911 05:C43D: 6B           	rtl
  5912                        ;}
  5913                        	.line	874
  5914                        	.endblock	874
  5915             00000008   L245	equ	8
  5916             00000005   L246	equ	5
  5917 05:C43E:              	ends
  5918                        	efunc
  5919                        	.endfunc	874,5,8
  5920                        	.line	874
  5921                        	data
  5922                        L240:
  5923 00:0149: 41 74 74 65  	db	$41,$74,$74,$65,$6D,$70,$74,$20,$74,$6F,
                    $20,$61,$64,$64,$20
       00:014D: 6D 70 74 20 
       00:0151: 74 6F 20 61 
       00:0155: 64 64 20 
  5924 00:0158: 6E 6F 64 65  	db	$6E,$6F,$64,$65,$20,$77,$69,$74,$68,$20,
  Mon Aug  9 2021 16:52                                                Page 109


                    $64,$75,$70,$6C,$69
       00:015C: 20 77 69 74 
       00:0160: 68 20 64 75 
       00:0164: 70 6C 69 
  5925 00:0167: 63 61 74 65  	db	$63,$61,$74,$65,$20,$6E,$61,$6D,$65,$3A,
                    $20,$25,$73,$31,$00
       00:016B: 20 6E 61 6D 
       00:016F: 65 3A 20 25 
       00:0173: 73 31 00 
  5926 00:0176: 25 73 31 00  	db	$25,$73,$31,$00,$41,$74,$74,$65,$6D,$70,
                    $74,$20,$74,$6F,$20
       00:017A: 41 74 74 65 
       00:017E: 6D 70 74 20 
       00:0182: 74 6F 20 
  5927 00:0185: 61 64 64 20  	db	$61,$64,$64,$20,$6E,$6F,$64,$65,$20,$77,
                    $69,$74,$68,$20,$64
       00:0189: 6E 6F 64 65 
       00:018D: 20 77 69 74 
       00:0191: 68 20 64 
  5928 00:0194: 75 70 6C 69  	db	$75,$70,$6C,$69,$63,$61,$74,$65,$20,$6E,
                    $61,$6D,$65,$2E,$00
       00:0198: 63 61 74 65 
       00:019C: 20 6E 61 6D 
       00:01A0: 65 2E 00 
  5929 00:01A3:              	ends
  5930                        ;
  5931                        ;PFXNODE k_nodelist_addnodetolist(PFXNODELIST list
                    ,PFXNODE new)
  5932                        ;{
  5933                        	.line	876
  5934                        	.line	877
  5935                        	NODEMAN
  5936                        	xdef	~~k_nodelist_addnodetolist
  5937                        	func
  5938                        	.function	877
  5939                        ~~k_nodelist_addnodetolist:
  5940                        	longa	on
  5941                        	longi	on
  5942 05:C43E: 3B           	tsc
  5943 05:C43F: 38           	sec
  5944 05:C440: E9 0C 00     	sbc	#L255
  5945 05:C443: 1B           	tcs
  5946 05:C444: 0B           	phd
  5947 05:C445: 5B           	tcd
  5948             00000004   list_0	set	4
  5949             00000008   new_0	set	8
  5950                        	.block	877
  5951                        ;	PFXNODE node = NULL;
  5952                        ;
  5953                        ;	if(list && list->listhead)
  5954             00000000   node_1	set	0
  5955                        	.sym	node,0,138,1,32,2
  5956                        	.sym	list,4,138,6,32,3
  5957                        	.sym	new,8,138,6,32,2
  5958 05:C446: 64 09        	stz	<L256+node_1
  5959 05:C448: 64 0B        	stz	<L256+node_1+2
  5960                        	.line	880
  5961                        ;	{
  Mon Aug  9 2021 16:52                                                Page 110


  5962 05:C44A: A5 10        	lda	<L255+list_0
  5963 05:C44C: 05 12        	ora	<L255+list_0+2
  5964 05:C44E: D0 03        	bne	L258
  5965 05:C450: 82 8C 00     	brl	L10098
  5966                        L258:
  5967 05:C453: A7 10        	lda	[<L255+list_0]
  5968 05:C455: A0 02 00     	ldy	#$2
  5969 05:C458: 17 10        	ora	[<L255+list_0],Y
  5970 05:C45A: D0 03        	bne	L259
  5971 05:C45C: 82 80 00     	brl	L10098
  5972                        L259:
  5973                        	.line	881
  5974                        ;		if(!k_nodelist_getname_and_type(list->li
                    sthead,new->name,new->type))
  5975                        	.line	882
  5976                        ;		{
  5977 05:C45F: A7 14        	lda	[<L255+new_0]
  5978 05:C461: 48           	pha
  5979 05:C462: 18           	clc
  5980 05:C463: A9 0E 00     	lda	#$e
  5981 05:C466: 65 14        	adc	<L255+new_0
  5982 05:C468: 85 01        	sta	<R0
  5983 05:C46A: A9 00 00     	lda	#$0
  5984 05:C46D: 65 16        	adc	<L255+new_0+2
  5985 05:C46F: 85 03        	sta	<R0+2
  5986 05:C471: D4 03        	pei	<R0+2
  5987 05:C473: D4 01        	pei	<R0
  5988 05:C475: A0 02 00     	ldy	#$2
  5989 05:C478: B7 10        	lda	[<L255+list_0],Y
  5990 05:C47A: 48           	pha
  5991 05:C47B: A7 10        	lda	[<L255+list_0]
  5992 05:C47D: 48           	pha
  5993 05:C47E: 22 F1 B7 05  	jsl	~~k_nodelist_getname_and_type
  5994 05:C482: 85 05        	sta	<R1
  5995 05:C484: 86 07        	stx	<R1+2
  5996 05:C486: A5 05        	lda	<R1
  5997 05:C488: 05 07        	ora	<R1+2
  5998 05:C48A: F0 03        	beq	L260
  5999 05:C48C: 82 14 00     	brl	L10099
  6000                        L260:
  6001                        	.line	883
  6002                        ;			k_nodelist_add(list->listhead,ne
                    w);
  6003                        	.line	884
  6004 05:C48F: D4 16        	pei	<L255+new_0+2
  6005 05:C491: D4 14        	pei	<L255+new_0
  6006 05:C493: A0 02 00     	ldy	#$2
  6007 05:C496: B7 10        	lda	[<L255+list_0],Y
  6008 05:C498: 48           	pha
  6009 05:C499: A7 10        	lda	[<L255+list_0]
  6010 05:C49B: 48           	pha
  6011 05:C49C: 22 34 B6 05  	jsl	~~k_nodelist_add
  6012                        ;		}
  6013                        	.line	885
  6014                        ;		else
  6015 05:C4A0: 82 3C 00     	brl	L10100
  6016                        L10099:
  6017                        ;		{
  Mon Aug  9 2021 16:52                                                Page 111


  6018                        	.line	887
  6019                        ;			k_exec_throw_exception(k_nodelis
                    t_addnodetolist,0x00020003,k_string_replace("Attempt to add 
                    node with duplicate name: %s1","%s1",new->name),-1);
  6020                        	.line	888
  6021 05:C4A3: F4 FF FF     	pea	#<$ffffffff
  6022 05:C4A6: 18           	clc
  6023 05:C4A7: A9 0E 00     	lda	#$e
  6024 05:C4AA: 65 14        	adc	<L255+new_0
  6025 05:C4AC: 85 01        	sta	<R0
  6026 05:C4AE: A9 00 00     	lda	#$0
  6027 05:C4B1: 65 16        	adc	<L255+new_0+2
  6028 05:C4B3: 85 03        	sta	<R0+2
  6029 05:C4B5: D4 03        	pei	<R0+2
  6030 05:C4B7: D4 01        	pei	<R0
  6031 05:C4B9: F4 xx xx     	pea	#^L254+45
  6032 05:C4BC: F4 xx xx     	pea	#<L254+45
  6033 05:C4BF: F4 xx xx     	pea	#^L254
  6034 05:C4C2: F4 xx xx     	pea	#<L254
  6035 05:C4C5: 22 xx xx xx  	jsl	~~k_string_replace
  6036 05:C4C9: 85 05        	sta	<R1
  6037 05:C4CB: 86 07        	stx	<R1+2
  6038 05:C4CD: DA           	phx
  6039 05:C4CE: 48           	pha
  6040 05:C4CF: F4 02 00     	pea	#^$20003
  6041 05:C4D2: F4 03 00     	pea	#<$20003
  6042 05:C4D5: F4 05 00     	pea	#^~~k_nodelist_addnodetolist
  6043 05:C4D8: F4 3E C4     	pea	#<~~k_nodelist_addnodetolist
  6044 05:C4DB: 22 xx xx xx  	jsl	~~k_exec_throw_exception
  6045                        ;		}
  6046                        	.line	889
  6047                        L10100:
  6048                        ;	}
  6049                        	.line	890
  6050                        ;	return node;
  6051                        L10098:
  6052                        	.line	891
  6053 05:C4DF: A6 0B        	ldx	<L256+node_1+2
  6054 05:C4E1: A5 09        	lda	<L256+node_1
  6055                        L261:
  6056 05:C4E3: A8           	tay
  6057 05:C4E4: A5 0E        	lda	<L255+2
  6058 05:C4E6: 85 16        	sta	<L255+2+8
  6059 05:C4E8: A5 0D        	lda	<L255+1
  6060 05:C4EA: 85 15        	sta	<L255+1+8
  6061 05:C4EC: 2B           	pld
  6062 05:C4ED: 3B           	tsc
  6063 05:C4EE: 18           	clc
  6064 05:C4EF: 69 14 00     	adc	#L255+8
  6065 05:C4F2: 1B           	tcs
  6066 05:C4F3: 98           	tya
  6067 05:C4F4: 6B           	rtl
  6068                        ;}
  6069                        	.line	892
  6070                        	.endblock	892
  6071             0000000C   L255	equ	12
  6072             00000009   L256	equ	9
  6073 05:C4F5:              	ends
  Mon Aug  9 2021 16:52                                                Page 112


  6074                        	efunc
  6075                        	.endfunc	892,9,12
  6076                        	.line	892
  6077                        	data
  6078                        L254:
  6079 00:01A3: 41 74 74 65  	db	$41,$74,$74,$65,$6D,$70,$74,$20,$74,$6F,
                    $20,$61,$64,$64,$20
       00:01A7: 6D 70 74 20 
       00:01AB: 74 6F 20 61 
       00:01AF: 64 64 20 
  6080 00:01B2: 6E 6F 64 65  	db	$6E,$6F,$64,$65,$20,$77,$69,$74,$68,$20,
                    $64,$75,$70,$6C,$69
       00:01B6: 20 77 69 74 
       00:01BA: 68 20 64 75 
       00:01BE: 70 6C 69 
  6081 00:01C1: 63 61 74 65  	db	$63,$61,$74,$65,$20,$6E,$61,$6D,$65,$3A,
                    $20,$25,$73,$31,$00
       00:01C5: 20 6E 61 6D 
       00:01C9: 65 3A 20 25 
       00:01CD: 73 31 00 
  6082 00:01D0: 25 73 31 00  	db	$25,$73,$31,$00
  6083 00:01D4:              	ends
  6084                        ;
  6085                        ;
  6086                        ;
  6087                        ;PFXNODE	k_nodelist_searchByName(PFXNODELIST list
                    ,LPCSTR name)
  6088                        ;{
  6089                        	.line	896
  6090                        	.line	897
  6091                        	NODEMAN
  6092                        	xdef	~~k_nodelist_searchByName
  6093                        	func
  6094                        	.function	897
  6095                        ~~k_nodelist_searchByName:
  6096                        	longa	on
  6097                        	longi	on
  6098 05:C4F5: 3B           	tsc
  6099 05:C4F6: 38           	sec
  6100 05:C4F7: E9 08 00     	sbc	#L263
  6101 05:C4FA: 1B           	tcs
  6102 05:C4FB: 0B           	phd
  6103 05:C4FC: 5B           	tcd
  6104             00000004   list_0	set	4
  6105             00000008   name_0	set	8
  6106                        	.block	897
  6107                        ;	PFXNODE node = NULL;
  6108                        ;
  6109                        ;	if(list && list->listhead)
  6110             00000000   node_1	set	0
  6111                        	.sym	node,0,138,1,32,2
  6112                        	.sym	list,4,138,6,32,3
  6113                        	.sym	name,8,142,6,32
  6114 05:C4FD: 64 05        	stz	<L264+node_1
  6115 05:C4FF: 64 07        	stz	<L264+node_1+2
  6116                        	.line	900
  6117                        ;		node = k_nodelist_getname(list->listhead
                    ->next,(LPCHAR)name);
  Mon Aug  9 2021 16:52                                                Page 113


  6118 05:C501: A5 0C        	lda	<L263+list_0
  6119 05:C503: 05 0E        	ora	<L263+list_0+2
  6120 05:C505: D0 03        	bne	L266
  6121 05:C507: 82 2F 00     	brl	L10101
  6122                        L266:
  6123 05:C50A: A7 0C        	lda	[<L263+list_0]
  6124 05:C50C: A0 02 00     	ldy	#$2
  6125 05:C50F: 17 0C        	ora	[<L263+list_0],Y
  6126 05:C511: D0 03        	bne	L267
  6127 05:C513: 82 23 00     	brl	L10101
  6128                        L267:
  6129                        	.line	901
  6130 05:C516: D4 12        	pei	<L263+name_0+2
  6131 05:C518: D4 10        	pei	<L263+name_0
  6132 05:C51A: A7 0C        	lda	[<L263+list_0]
  6133 05:C51C: 85 01        	sta	<R0
  6134 05:C51E: A0 02 00     	ldy	#$2
  6135 05:C521: B7 0C        	lda	[<L263+list_0],Y
  6136 05:C523: 85 03        	sta	<R0+2
  6137 05:C525: A0 0C 00     	ldy	#$c
  6138 05:C528: B7 01        	lda	[<R0],Y
  6139 05:C52A: 48           	pha
  6140 05:C52B: A0 0A 00     	ldy	#$a
  6141 05:C52E: B7 01        	lda	[<R0],Y
  6142 05:C530: 48           	pha
  6143 05:C531: 22 7C B7 05  	jsl	~~k_nodelist_getname
  6144 05:C535: 85 05        	sta	<L264+node_1
  6145 05:C537: 86 07        	stx	<L264+node_1+2
  6146                        ;
  6147                        ;	return node;
  6148                        L10101:
  6149                        	.line	903
  6150 05:C539: A6 07        	ldx	<L264+node_1+2
  6151 05:C53B: A5 05        	lda	<L264+node_1
  6152                        L268:
  6153 05:C53D: A8           	tay
  6154 05:C53E: A5 0A        	lda	<L263+2
  6155 05:C540: 85 12        	sta	<L263+2+8
  6156 05:C542: A5 09        	lda	<L263+1
  6157 05:C544: 85 11        	sta	<L263+1+8
  6158 05:C546: 2B           	pld
  6159 05:C547: 3B           	tsc
  6160 05:C548: 18           	clc
  6161 05:C549: 69 10 00     	adc	#L263+8
  6162 05:C54C: 1B           	tcs
  6163 05:C54D: 98           	tya
  6164 05:C54E: 6B           	rtl
  6165                        ;}
  6166                        	.line	904
  6167                        	.endblock	904
  6168             00000008   L263	equ	8
  6169             00000005   L264	equ	5
  6170 05:C54F:              	ends
  6171                        	efunc
  6172                        	.endfunc	904,5,8
  6173                        	.line	904
  6174                        ;
  6175                        ;
  Mon Aug  9 2021 16:52                                                Page 114


  6176                        ;PFXNODE	k_nodelist_searchById(PFXNODELIST list,U
                    LONG objId)
  6177                        ;{
  6178                        	.line	907
  6179                        	.line	908
  6180                        	NODEMAN
  6181                        	xdef	~~k_nodelist_searchById
  6182                        	func
  6183                        	.function	908
  6184                        ~~k_nodelist_searchById:
  6185                        	longa	on
  6186                        	longi	on
  6187 05:C54F: 3B           	tsc
  6188 05:C550: 38           	sec
  6189 05:C551: E9 1C 00     	sbc	#L269
  6190 05:C554: 1B           	tcs
  6191 05:C555: 0B           	phd
  6192 05:C556: 5B           	tcd
  6193             00000004   list_0	set	4
  6194             00000008   objId_0	set	8
  6195                        	.block	908
  6196                        ;	PFXNODE node = NULL;
  6197                        ;	UCHAR buffer[16];
  6198                        ;
  6199                        ;	if(list && list->listhead)
  6200             00000000   node_1	set	0
  6201             00000004   buffer_1	set	4
  6202                        	.sym	node,0,138,1,32,2
  6203                        	.sym	buffer,4,110,1,0,16
  6204                        	.sym	list,4,138,6,32,3
  6205                        	.sym	objId,8,18,6,32
  6206 05:C557: 64 09        	stz	<L270+node_1
  6207 05:C559: 64 0B        	stz	<L270+node_1+2
  6208                        	.line	912
  6209                        ;		node = k_nodelist_getname(list->listhead
                    ->next,(LPCSTR)k_longtodec(objId,buffer));
  6210 05:C55B: A5 20        	lda	<L269+list_0
  6211 05:C55D: 05 22        	ora	<L269+list_0+2
  6212 05:C55F: D0 03        	bne	L272
  6213 05:C561: 82 42 00     	brl	L10102
  6214                        L272:
  6215 05:C564: A7 20        	lda	[<L269+list_0]
  6216 05:C566: A0 02 00     	ldy	#$2
  6217 05:C569: 17 20        	ora	[<L269+list_0],Y
  6218 05:C56B: D0 03        	bne	L273
  6219 05:C56D: 82 36 00     	brl	L10102
  6220                        L273:
  6221                        	.line	913
  6222 05:C570: F4 00 00     	pea	#0
  6223 05:C573: 18           	clc
  6224 05:C574: 7B           	tdc
  6225 05:C575: 69 0D 00     	adc	#<L270+buffer_1
  6226 05:C578: 48           	pha
  6227 05:C579: D4 26        	pei	<L269+objId_0+2
  6228 05:C57B: D4 24        	pei	<L269+objId_0
  6229 05:C57D: 22 xx xx xx  	jsl	~~k_longtodec
  6230 05:C581: 85 01        	sta	<R0
  6231 05:C583: 86 03        	stx	<R0+2
  Mon Aug  9 2021 16:52                                                Page 115


  6232 05:C585: DA           	phx
  6233 05:C586: 48           	pha
  6234 05:C587: A7 20        	lda	[<L269+list_0]
  6235 05:C589: 85 05        	sta	<R1
  6236 05:C58B: A0 02 00     	ldy	#$2
  6237 05:C58E: B7 20        	lda	[<L269+list_0],Y
  6238 05:C590: 85 07        	sta	<R1+2
  6239 05:C592: A0 0C 00     	ldy	#$c
  6240 05:C595: B7 05        	lda	[<R1],Y
  6241 05:C597: 48           	pha
  6242 05:C598: A0 0A 00     	ldy	#$a
  6243 05:C59B: B7 05        	lda	[<R1],Y
  6244 05:C59D: 48           	pha
  6245 05:C59E: 22 7C B7 05  	jsl	~~k_nodelist_getname
  6246 05:C5A2: 85 09        	sta	<L270+node_1
  6247 05:C5A4: 86 0B        	stx	<L270+node_1+2
  6248                        ;
  6249                        ;	return node;
  6250                        L10102:
  6251                        	.line	915
  6252 05:C5A6: A6 0B        	ldx	<L270+node_1+2
  6253 05:C5A8: A5 09        	lda	<L270+node_1
  6254                        L274:
  6255 05:C5AA: A8           	tay
  6256 05:C5AB: A5 1E        	lda	<L269+2
  6257 05:C5AD: 85 26        	sta	<L269+2+8
  6258 05:C5AF: A5 1D        	lda	<L269+1
  6259 05:C5B1: 85 25        	sta	<L269+1+8
  6260 05:C5B3: 2B           	pld
  6261 05:C5B4: 3B           	tsc
  6262 05:C5B5: 18           	clc
  6263 05:C5B6: 69 24 00     	adc	#L269+8
  6264 05:C5B9: 1B           	tcs
  6265 05:C5BA: 98           	tya
  6266 05:C5BB: 6B           	rtl
  6267                        ;}
  6268                        	.line	916
  6269                        	.endblock	916
  6270             0000001C   L269	equ	28
  6271             00000009   L270	equ	9
  6272 05:C5BC:              	ends
  6273                        	efunc
  6274                        	.endfunc	916,9,28
  6275                        	.line	916
  6276                        ;
  6277                        ;
  6278                        ;
  6279                        ;PFXNODE	k_nodelist_searchByType(PFXNODELIST list
                    ,BYTE type)
  6280                        ;{
  6281                        	.line	920
  6282                        	.line	921
  6283                        	NODEMAN
  6284                        	xdef	~~k_nodelist_searchByType
  6285                        	func
  6286                        	.function	921
  6287                        ~~k_nodelist_searchByType:
  6288                        	longa	on
  Mon Aug  9 2021 16:52                                                Page 116


  6289                        	longi	on
  6290 05:C5BC: 3B           	tsc
  6291 05:C5BD: 38           	sec
  6292 05:C5BE: E9 08 00     	sbc	#L275
  6293 05:C5C1: 1B           	tcs
  6294 05:C5C2: 0B           	phd
  6295 05:C5C3: 5B           	tcd
  6296             00000004   list_0	set	4
  6297             00000008   type_0	set	8
  6298                        	.block	921
  6299                        ;	PFXNODE node = NULL;
  6300                        ;
  6301                        ;	if(list && list->listhead)
  6302             00000000   node_1	set	0
  6303                        	.sym	node,0,138,1,32,2
  6304                        	.sym	list,4,138,6,32,3
  6305                        	.sym	type,8,14,6,8
  6306 05:C5C4: 64 05        	stz	<L276+node_1
  6307 05:C5C6: 64 07        	stz	<L276+node_1+2
  6308                        	.line	924
  6309                        ;		node = k_nodelist_gettype(list->listhead
                    ->next,type);
  6310 05:C5C8: A5 0C        	lda	<L275+list_0
  6311 05:C5CA: 05 0E        	ora	<L275+list_0+2
  6312 05:C5CC: D0 03        	bne	L278
  6313 05:C5CE: 82 2D 00     	brl	L10103
  6314                        L278:
  6315 05:C5D1: A7 0C        	lda	[<L275+list_0]
  6316 05:C5D3: A0 02 00     	ldy	#$2
  6317 05:C5D6: 17 0C        	ora	[<L275+list_0],Y
  6318 05:C5D8: D0 03        	bne	L279
  6319 05:C5DA: 82 21 00     	brl	L10103
  6320                        L279:
  6321                        	.line	925
  6322 05:C5DD: D4 10        	pei	<L275+type_0
  6323 05:C5DF: A7 0C        	lda	[<L275+list_0]
  6324 05:C5E1: 85 01        	sta	<R0
  6325 05:C5E3: A0 02 00     	ldy	#$2
  6326 05:C5E6: B7 0C        	lda	[<L275+list_0],Y
  6327 05:C5E8: 85 03        	sta	<R0+2
  6328 05:C5EA: A0 0C 00     	ldy	#$c
  6329 05:C5ED: B7 01        	lda	[<R0],Y
  6330 05:C5EF: 48           	pha
  6331 05:C5F0: A0 0A 00     	ldy	#$a
  6332 05:C5F3: B7 01        	lda	[<R0],Y
  6333 05:C5F5: 48           	pha
  6334 05:C5F6: 22 24 B7 05  	jsl	~~k_nodelist_gettype
  6335 05:C5FA: 85 05        	sta	<L276+node_1
  6336 05:C5FC: 86 07        	stx	<L276+node_1+2
  6337                        ;
  6338                        ;	return node;
  6339                        L10103:
  6340                        	.line	927
  6341 05:C5FE: A6 07        	ldx	<L276+node_1+2
  6342 05:C600: A5 05        	lda	<L276+node_1
  6343                        L280:
  6344 05:C602: A8           	tay
  6345 05:C603: A5 0A        	lda	<L275+2
  Mon Aug  9 2021 16:52                                                Page 117


  6346 05:C605: 85 10        	sta	<L275+2+6
  6347 05:C607: A5 09        	lda	<L275+1
  6348 05:C609: 85 0F        	sta	<L275+1+6
  6349 05:C60B: 2B           	pld
  6350 05:C60C: 3B           	tsc
  6351 05:C60D: 18           	clc
  6352 05:C60E: 69 0E 00     	adc	#L275+6
  6353 05:C611: 1B           	tcs
  6354 05:C612: 98           	tya
  6355 05:C613: 6B           	rtl
  6356                        ;}
  6357                        	.line	928
  6358                        	.endblock	928
  6359             00000008   L275	equ	8
  6360             00000005   L276	equ	5
  6361 05:C614:              	ends
  6362                        	efunc
  6363                        	.endfunc	928,5,8
  6364                        	.line	928
  6365                        ;
  6366                        ;LPCSTR k_nodelist_getlistname(PFXNODELIST list)
  6367                        ;{
  6368                        	.line	930
  6369                        	.line	931
  6370                        	NODEMAN
  6371                        	xdef	~~k_nodelist_getlistname
  6372                        	func
  6373                        	.function	931
  6374                        ~~k_nodelist_getlistname:
  6375                        	longa	on
  6376                        	longi	on
  6377 05:C614: 3B           	tsc
  6378 05:C615: 38           	sec
  6379 05:C616: E9 08 00     	sbc	#L281
  6380 05:C619: 1B           	tcs
  6381 05:C61A: 0B           	phd
  6382 05:C61B: 5B           	tcd
  6383             00000004   list_0	set	4
  6384                        	.block	931
  6385                        ;	LPCSTR name = NULL;
  6386                        ;
  6387                        ;	if(list && list->listhead)
  6388             00000000   name_1	set	0
  6389                        	.sym	name,0,142,1,32
  6390                        	.sym	list,4,138,6,32,3
  6391 05:C61C: 64 05        	stz	<L282+name_1
  6392 05:C61E: 64 07        	stz	<L282+name_1+2
  6393                        	.line	934
  6394                        ;		name = (LPCSTR)list->listhead->data;
  6395 05:C620: A5 0C        	lda	<L281+list_0
  6396 05:C622: 05 0E        	ora	<L281+list_0+2
  6397 05:C624: D0 03        	bne	L284
  6398 05:C626: 82 25 00     	brl	L10104
  6399                        L284:
  6400 05:C629: A7 0C        	lda	[<L281+list_0]
  6401 05:C62B: A0 02 00     	ldy	#$2
  6402 05:C62E: 17 0C        	ora	[<L281+list_0],Y
  6403 05:C630: D0 03        	bne	L285
  Mon Aug  9 2021 16:52                                                Page 118


  6404 05:C632: 82 19 00     	brl	L10104
  6405                        L285:
  6406                        	.line	935
  6407 05:C635: A7 0C        	lda	[<L281+list_0]
  6408 05:C637: 85 01        	sta	<R0
  6409 05:C639: A0 02 00     	ldy	#$2
  6410 05:C63C: B7 0C        	lda	[<L281+list_0],Y
  6411 05:C63E: 85 03        	sta	<R0+2
  6412 05:C640: A0 02 00     	ldy	#$2
  6413 05:C643: B7 01        	lda	[<R0],Y
  6414 05:C645: 85 05        	sta	<L282+name_1
  6415 05:C647: A0 04 00     	ldy	#$4
  6416 05:C64A: B7 01        	lda	[<R0],Y
  6417 05:C64C: 85 07        	sta	<L282+name_1+2
  6418                        ;
  6419                        ;	return name;
  6420                        L10104:
  6421                        	.line	937
  6422 05:C64E: A6 07        	ldx	<L282+name_1+2
  6423 05:C650: A5 05        	lda	<L282+name_1
  6424                        L286:
  6425 05:C652: A8           	tay
  6426 05:C653: A5 0A        	lda	<L281+2
  6427 05:C655: 85 0E        	sta	<L281+2+4
  6428 05:C657: A5 09        	lda	<L281+1
  6429 05:C659: 85 0D        	sta	<L281+1+4
  6430 05:C65B: 2B           	pld
  6431 05:C65C: 3B           	tsc
  6432 05:C65D: 18           	clc
  6433 05:C65E: 69 0C 00     	adc	#L281+4
  6434 05:C661: 1B           	tcs
  6435 05:C662: 98           	tya
  6436 05:C663: 6B           	rtl
  6437                        ;}
  6438                        	.line	938
  6439                        	.endblock	938
  6440             00000008   L281	equ	8
  6441             00000005   L282	equ	5
  6442 05:C664:              	ends
  6443                        	efunc
  6444                        	.endfunc	938,5,8
  6445                        	.line	938
  6446                        ;
  6447                        ;PFXNODE k_nodelist_removefromlist(PFXNODELIST lis
                    t,PFXNODE targetNode)
  6448                        ;{
  6449                        	.line	940
  6450                        	.line	941
  6451                        	NODEMAN
  6452                        	xdef	~~k_nodelist_removefromlist
  6453                        	func
  6454                        	.function	941
  6455                        ~~k_nodelist_removefromlist:
  6456                        	longa	on
  6457                        	longi	on
  6458 05:C664: 3B           	tsc
  6459 05:C665: 38           	sec
  6460 05:C666: E9 04 00     	sbc	#L287
  Mon Aug  9 2021 16:52                                                Page 119


  6461 05:C669: 1B           	tcs
  6462 05:C66A: 0B           	phd
  6463 05:C66B: 5B           	tcd
  6464             00000004   list_0	set	4
  6465             00000008   targetNode_0	set	8
  6466                        	.block	941
  6467                        ;	return k_nodelist_remove_node(list->listhead,tar
                    getNode);
  6468                        	.sym	list,4,138,6,32,3
  6469                        	.sym	targetNode,8,138,6,32,2
  6470                        	.line	942
  6471 05:C66C: D4 0E        	pei	<L287+targetNode_0+2
  6472 05:C66E: D4 0C        	pei	<L287+targetNode_0
  6473 05:C670: A0 02 00     	ldy	#$2
  6474 05:C673: B7 08        	lda	[<L287+list_0],Y
  6475 05:C675: 48           	pha
  6476 05:C676: A7 08        	lda	[<L287+list_0]
  6477 05:C678: 48           	pha
  6478 05:C679: 22 9D B9 05  	jsl	~~k_nodelist_remove_node
  6479 05:C67D: 85 01        	sta	<R0
  6480 05:C67F: 86 03        	stx	<R0+2
  6481 05:C681: A6 03        	ldx	<R0+2
  6482 05:C683: A5 01        	lda	<R0
  6483                        L290:
  6484 05:C685: A8           	tay
  6485 05:C686: A5 06        	lda	<L287+2
  6486 05:C688: 85 0E        	sta	<L287+2+8
  6487 05:C68A: A5 05        	lda	<L287+1
  6488 05:C68C: 85 0D        	sta	<L287+1+8
  6489 05:C68E: 2B           	pld
  6490 05:C68F: 3B           	tsc
  6491 05:C690: 18           	clc
  6492 05:C691: 69 0C 00     	adc	#L287+8
  6493 05:C694: 1B           	tcs
  6494 05:C695: 98           	tya
  6495 05:C696: 6B           	rtl
  6496                        ;}
  6497                        	.line	943
  6498                        	.endblock	943
  6499             00000004   L287	equ	4
  6500             00000005   L288	equ	5
  6501 05:C697:              	ends
  6502                        	efunc
  6503                        	.endfunc	943,5,4
  6504                        	.line	943
  6505                        ;
  6506                        ;
  6507                        ;
  6508                        	.line	945
  6509                        	.file	"G:\devprojects\c256Foenix\fxos\FXOSWork
                    space\FXOS-Beta\src\fxnode.c",940
  6510                        	xref	~~k_exec_throw_exception
  6511                        	xref	~~k_debug_integer
  6512                        	xref	~~k_debug_pointer
  6513                        	xref	~~k_debug_string
  6514                        	xref	~~k_unlock_irq
  6515                        	xref	~~k_lock_irq
  6516                        	xref	~~k_mem_deallocate_heap
  Mon Aug  9 2021 16:52                                                Page 120


  6517                        	xref	~~k_mem_allocate_heap
  6518                        	xref	~~k_string_copy_string
  6519                        	xref	~~k_string_replace
  6520                        	xref	~~k_longtodec
  6521                        	xref	~~strncpy
  6522                        	xref	~~strlen
  6523                        	xref	~~strcpy
  6524                        	xref	~~strcmp
  6525                        	xref	~~memset
  6526                        	.sym	~~k_nodelist_data,~~k_nodelist_data,1089
                    ,2,32
  6527                        	.sym	~~bExceptionStatus,~~bExceptionStatus,14
                    ,3,8
  6528                        	.sym	~~THIS_MODULE,~~THIS_MODULE,18,3,32
  6529                        	.sym	~~k_exec_throw_exception,~~k_exec_throw_
                    exception,65,18,0
  6530                        	.sym	PIRQCHAIN,0,138,14,32,89
  6531                        	.sym	IRQCHAIN,0,10,14,128,89
  6532                        	.sym	DEVICEDRIVER_COMMAND,0,654,14,32
  6533                        	.sym	DEVICEDRIVER_UNLOAD,0,654,14,32
  6534                        	.sym	DEVICEDRIVER_WRITE,0,654,14,32
  6535                        	.sym	DEVICEDRIVER_READ,0,654,14,32
  6536                        	.sym	DEVICEDRIVER_LOAD,0,654,14,32
  6537                        	.sym	DEVICEDRIVER_IRQ,0,641,14,32
  6538                        	.sym	PFX_BLOCK_DEVICE_DRIVER,0,138,14,32,88
  6539                        	.sym	FX_BLOCK_DEVICE_DRIVER,0,10,14,808,88
  6540                        	.sym	GETDRIVERDEF,0,8842,14,32,87
  6541                        	.sym	PFX_DEVICE_DRIVER,0,138,14,32,87
  6542                        	.sym	FX_DEVICE_DRIVER,0,10,14,776,87
  6543                        	.sym	~~k_debug_integer,~~k_debug_integer,65,1
                    8,0
  6544                        	.sym	~~k_debug_pointer,~~k_debug_pointer,65,1
                    8,0
  6545                        	.sym	~~k_debug_string,~~k_debug_string,65,18,
                    0
  6546                        	.sym	~~k_unlock_irq,~~k_unlock_irq,80,18,0
  6547                        	.sym	~~k_lock_irq,~~k_lock_irq,80,18,0
  6548                        	.sym	PSEGMENTHEADER,0,138,14,32,86
  6549                        	.sym	SEGMENTHEADER,0,10,14,160,86
  6550                        	.sym	PDEBUGBYTEBITS,0,138,14,32,85
  6551                        	.sym	DEBUGBYTEBITS,0,10,14,8,85
  6552                        	.sym	PFXENVIRONMENT,0,138,14,32,84
  6553                        	.sym	FXENVIRONMENT,0,10,14,96,84
  6554                        	.sym	PFXZEROPAGE,0,138,14,32,83
  6555                        	.sym	FXZEROPAGE,0,10,14,720,83
  6556                        	.sym	IRQBUFFER,0,10,14,32,82
  6557                        	.sym	KERNELTRAPCALL,0,641,14,32
  6558                        	.sym	PFXKERNEL_API_CALLTABLE,0,138,14,32,81
  6559                        	.sym	FXKERNEL_API_CALLTABLE,0,10,14,8192,81
  6560                        	.sym	FRESULT,0,5,14,16
  6561                        	.sym	MKFS_PARM,0,10,14,80,80
  6562                        	.sym	FILINFO,0,10,14,2224,79
  6563                        	.sym	DIR,0,10,14,416,78
  6564                        	.sym	FIL,0,10,14,4400,77
  6565                        	.sym	FFOBJID,0,10,14,128,76
  6566                        	.sym	FATFS,0,10,14,4504,75
  6567                        	.sym	LBA_t,0,18,14,32
  6568                        	.sym	FSIZE_t,0,18,14,32
  Mon Aug  9 2021 16:52                                                Page 121


  6569                        	.sym	TCHAR,0,14,14,8
  6570                        	.sym	PCOMMANDARGS,0,138,14,32,74
  6571                        	.sym	COMMANDARGS,0,10,14,64,74
  6572                        	.sym	PTOKENIZESTATE,0,133,14,32
  6573                        	.sym	TOKENIZESTATE,0,5,14,16
  6574                        	.sym	PTOKEN,0,138,14,32,73
  6575                        	.sym	TOKEN,0,10,14,64,73
  6576                        	.sym	PTOKENTYPE,0,133,14,32
  6577                        	.sym	TOKENTYPE,0,5,14,16
  6578                        	.sym	FXCommandHandler,0,656,14,32
  6579                        	.sym	PCONSOLECTX,0,138,14,32,72
  6580                        	.sym	CONSOLECTX,0,10,14,1144,72
  6581                        	.sym	PSPINNERCTX,0,138,14,32,71
  6582                        	.sym	SPINNERCTX,0,10,14,48,71
  6583                        	.sym	HCLIP,0,138,14,32,70
  6584                        	.sym	PCLIPBOARD_DATA,0,138,14,32,70
  6585                        	.sym	CLIPBOARD_DATA,0,10,14,168,70
  6586                        	.sym	PEVENTMANAGER,0,138,14,32,69
  6587                        	.sym	EVENTMANAGER,0,10,14,192,69
  6588                        	.sym	EV_RUN,0,656,14,32
  6589                        	.sym	EV_QUERY_METRIC,0,656,14,32
  6590                        	.sym	EV_CONFIGURE,0,656,14,32
  6591                        	.sym	EV_UNINIT,0,641,14,32
  6592                        	.sym	EV_INIT,0,8833,14,32
  6593                        	.sym	PMOUSE_MSG_STATE,0,138,14,32,68
  6594                        	.sym	MOUSE_MSG_STATE,0,10,14,184,68
  6595                        	.sym	PFXEVENTPROCESS,0,138,14,32,67
  6596                        	.sym	FXEVENTPROCESS,0,10,14,64,67
  6597                        	.sym	FXASYNCPROCESS,0,641,14,32
  6598                        	.sym	PMARSHALDATA,0,139,14,32,66
  6599                        	.sym	MARSHALDATA,0,11,14,32,66
  6600                        	.sym	FXIDLEPROCESS,0,641,14,32
  6601                        	.sym	FXEventProc,0,641,14,32
  6602                        	.sym	PMOUSEMSGDATA,0,138,14,32,65
  6603                        	.sym	MOUSEMSGDATA,0,10,14,64,65
  6604                        	.sym	MSGIRQ,0,5,14,16
  6605                        	.sym	MAINLOOPARGS,0,10,14,16,64
  6606                        	.sym	PEACHCHILD_MSG,0,138,14,32,63
  6607                        	.sym	EACHCHILD_MSG,0,10,14,64,63
  6608                        	.sym	PMSGBOX_DATA,0,138,14,32,62
  6609                        	.sym	MSGBOX_DATA,0,10,14,96,62
  6610                        	.sym	PDESKTOP_DATA,0,138,14,32,61
  6611                        	.sym	DESKTOP_DATA,0,10,14,64,61
  6612                        	.sym	PWINDOWMANAGER,0,138,14,32,60
  6613                        	.sym	WINDOWMANAGER,0,10,14,160,60
  6614                        	.sym	WM_DOPROCS,0,641,14,32
  6615                        	.sym	WM_QUERY_METRIC,0,656,14,32
  6616                        	.sym	WM_CONFIGURE,0,656,14,32
  6617                        	.sym	WM_HANDLE_EVENT,0,8833,14,32
  6618                        	.sym	WM_EVENTS,0,641,14,32
  6619                        	.sym	PCUR_PALETTE_MAP,0,138,14,32,59
  6620                        	.sym	CUR_PALETTE_MAP,0,10,14,400,59
  6621                        	.sym	PCLICKDETECTED,0,138,14,32,58
  6622                        	.sym	CLICKDETECTED,0,10,14,64,58
  6623                        	.sym	OBJECTCLICKED,0,641,14,32
  6624                        	.sym	PALLOCATIONHEADER,0,138,14,32,57
  6625                        	.sym	ALLOCATIONHEADER,0,10,14,80,57
  6626                        	.sym	PIPCPORT,0,138,14,32,56
  Mon Aug  9 2021 16:52                                                Page 122


  6627                        	.sym	IPCPORT,0,10,14,144,56
  6628                        	.sym	~~k_mem_deallocate_heap,~~k_mem_dealloca
                    te_heap,65,18,0
  6629                        	.sym	~~k_mem_allocate_heap,~~k_mem_allocate_h
                    eap,1089,18,32
  6630                        	.sym	MemoryCallback,0,641,14,32
  6631                        	.sym	PFXMEMORYMAP,0,138,14,32,55
  6632                        	.sym	FXMEMORYMAP,0,10,14,2072,55
  6633                        	.sym	UMM_HEAP_INFO,0,10,14,256,54
  6634                        	.sym	PEXECUTIVE,0,138,14,32,53
  6635                        	.sym	EXECUTIVE,0,10,14,128,53
  6636                        	.sym	EX_QUERY_METRIC,0,656,14,32
  6637                        	.sym	EX_CONFIGURE,0,656,14,32
  6638                        	.sym	EX_UNINIT,0,641,14,32
  6639                        	.sym	EX_INIT,0,8833,14,32
  6640                        	.sym	~~k_string_copy_string,~~k_string_copy_s
                    tring,1102,18,32
  6641                        	.sym	~~k_string_replace,~~k_string_replace,11
                    02,18,32
  6642                        	.sym	~~k_longtodec,~~k_longtodec,1102,18,32
  6643                        	.sym	PFXSTRING,0,138,14,32,52
  6644                        	.sym	FXSTRING,0,10,14,64,52
  6645                        	.sym	~~strncpy,~~strncpy,1102,18,32
  6646                        	.sym	~~strlen,~~strlen,80,18,0
  6647                        	.sym	~~strcpy,~~strcpy,1102,18,32
  6648                        	.sym	~~strcmp,~~strcmp,69,18,0
  6649                        	.sym	~~memset,~~memset,1089,18,32
  6650                        	.sym	Boolean_T,0,5,14,16
  6651                        	.sym	ldiv_t,0,10,14,64,50
  6652                        	.sym	div_t,0,10,14,32,49
  6653                        	.sym	wctype_t,0,16,14,16
  6654                        	.sym	wint_t,0,16,14,16
  6655                        	.sym	wchar_t,0,14,14,8
  6656                        	.sym	ptrdiff_t,0,7,14,32
  6657                        	.sym	size_t,0,16,14,16
  6658                        	.sym	~~k_nodelist_foreach_listdata_remove,~~k
                    _nodelist_foreach_listdata_remove,65,2,0
  6659                        	.sym	~~k_nodelist_foreach_until_listdata,~~k_
                    nodelist_foreach_until_listdata,1098,2,32,2
  6660                        	.sym	~~k_nodelist_foreach_listdata,~~k_nodeli
                    st_foreach_listdata,65,2,0
  6661                        	.sym	~~k_nodelist_foreach_type,~~k_nodelist_f
                    oreach_type,65,2,0
  6662                        	.sym	~~k_nodelist_foreach_until_data,~~k_node
                    list_foreach_until_data,1098,2,32,2
  6663                        	.sym	~~k_nodelist_foreach_data,~~k_nodelist_f
                    oreach_data,65,2,0
  6664                        	.sym	FOREACHNODEUNTIL,0,654,14,32
  6665                        	.sym	FOREACHNODE,0,641,14,32
  6666                        	.sym	~~k_nodelist_removefromlist,~~k_nodelist
                    _removefromlist,1098,2,32,2
  6667                        	.sym	~~k_nodelist_empty,~~k_nodelist_empty,78
                    ,2,0
  6668                        	.sym	~~k_nodelist_getfirstnode,~~k_nodelist_g
                    etfirstnode,1098,2,32,2
  6669                        	.sym	~~k_nodelist_getlistname,~~k_nodelist_ge
                    tlistname,1102,2,32
  6670                        	.sym	~~k_nodelist_searchByType,~~k_nodelist_s
  Mon Aug  9 2021 16:52                                                Page 123


                    earchByType,1098,2,32,2
  6671                        	.sym	~~k_nodelist_searchById,~~k_nodelist_sea
                    rchById,1098,2,32,2
  6672                        	.sym	~~k_nodelist_searchByName,~~k_nodelist_s
                    earchByName,1098,2,32,2
  6673                        	.sym	~~k_nodelist_clear_list,~~k_nodelist_cle
                    ar_list,1098,2,32,3
  6674                        	.sym	~~k_nodelist_addnodetolist,~~k_nodelist_
                    addnodetolist,1098,2,32,2
  6675                        	.sym	~~k_nodelist_naddtolist,~~k_nodelist_nad
                    dtolist,1098,2,32,2
  6676                        	.sym	~~k_nodelist_addtolist_tohead,~~k_nodeli
                    st_addtolist_tohead,1098,2,32,2
  6677                        	.sym	~~k_nodelist_naddtolist_tohead,~~k_nodel
                    ist_naddtolist_tohead,1098,2,32,2
  6678                        	.sym	~~k_nodelist_addtolist,~~k_nodelist_addt
                    olist,1098,2,32,2
  6679                        	.sym	~~k_nodelist_deallocate_list,~~k_nodelis
                    t_deallocate_list,65,2,0
  6680                        	.sym	~~k_nodelist_allocate_list,~~k_nodelist_
                    allocate_list,1098,2,32,3
  6681                        	.sym	~~k_deallocate_default,~~k_deallocate_de
                    fault,65,2,0
  6682                        	.sym	~~k_nodelist_last,~~k_nodelist_last,1098
                    ,2,32,2
  6683                        	.sym	~~k_nodelist_remove_obj,~~k_nodelist_rem
                    ove_obj,1098,2,32,2
  6684                        	.sym	~~k_nodelist_remove_node,~~k_nodelist_re
                    move_node,1098,2,32,2
  6685                        	.sym	~~k_nodelist_remove,~~k_nodelist_remove,
                    1098,2,32,2
  6686                        	.sym	~~k_nodelist_getname_and_type,~~k_nodeli
                    st_getname_and_type,1098,2,32,2
  6687                        	.sym	~~k_nodelist_getname,~~k_nodelist_getnam
                    e,1098,2,32,2
  6688                        	.sym	~~k_nodelist_get,~~k_nodelist_get,1098,2
                    ,32,2
  6689                        	.sym	~~k_nodelist_gettype,~~k_nodelist_gettyp
                    e,1098,2,32,2
  6690                        	.sym	~~k_nodelist_addtohead,~~k_nodelist_addt
                    ohead,65,2,0
  6691                        	.sym	~~k_nodelist_add,~~k_nodelist_add,65,2,0
  6692                        	.sym	~~k_nodelist_copy,~~k_nodelist_copy,1098
                    ,2,32,2
  6693                        	.sym	~~k_nodelist_ncreate,~~k_nodelist_ncreat
                    e,1098,2,32,2
  6694                        	.sym	~~k_nodelist_create,~~k_nodelist_create,
                    1098,2,32,2
  6695                        	.sym	~~k_nodelist_init,~~k_nodelist_init,1098
                    ,2,32,2
  6696                        	.sym	~~k_debug_queue,~~k_debug_queue,65,2,0
  6697                        	.sym	~~k_dequeue_with_lock,~~k_dequeue_with_l
                    ock,1089,2,32
  6698                        	.sym	~~k_enqueue_with_lock,~~k_enqueue_with_l
                    ock,65,2,0
  6699                        	.sym	~~k_dequeue,~~k_dequeue,1089,2,32
  6700                        	.sym	~~k_enqueue,~~k_enqueue,78,2,0
  6701                        	.sym	~~k_isempty,~~k_isempty,69,2,0
  Mon Aug  9 2021 16:52                                                Page 124


  6702                        	.sym	~~k_initialize,~~k_initialize,65,2,0
  6703                        	.sym	PFXRFHEADER_STRING_ENTRY,0,138,14,32,48
  6704                        	.sym	FXRFHEADER_STRING_ENTRY,0,10,14,40,48
  6705                        	.sym	PFXRFHEADER_STRING,0,138,14,32,47
  6706                        	.sym	FXRFHEADER_STRING,0,10,14,32,47
  6707                        	.sym	PFXRFHEADER_FONT,0,138,14,32,46
  6708                        	.sym	FXRFHEADER_FONT,0,10,14,144,46
  6709                        	.sym	PFXRFHEADER,0,138,14,32,45
  6710                        	.sym	FXRFHEADER,0,10,14,72,45
  6711                        	.sym	PFXCOMBUFFER,0,138,14,32,44
  6712                        	.sym	FXCOMBUFFER,0,10,14,2080,44
  6713                        	.sym	PSUBMENULIST,0,138,14,32,43
  6714                        	.sym	SUBMENULIST,0,10,14,40,43
  6715                        	.sym	HSUBMENU,0,7,14,32
  6716                        	.sym	PSUBMENU,0,138,14,32,42
  6717                        	.sym	SUBMENU,0,10,14,64,42
  6718                        	.sym	MenuAction,0,641,14,32
  6719                        	.sym	PMENUANCHOR,0,138,14,32,41
  6720                        	.sym	MENUANCHOR,0,10,14,272,41
  6721                        	.sym	PMSGBOX,0,138,14,32,40
  6722                        	.sym	MSGBOX,0,10,14,144,40
  6723                        	.sym	PTEXTBOX,0,138,14,32,39
  6724                        	.sym	TEXTBOX,0,10,14,144,39
  6725                        	.sym	PLISTBOX,0,138,14,32,38
  6726                        	.sym	LISTBOX,0,10,14,240,38
  6727                        	.sym	PSCROLLBAR,0,138,14,32,37
  6728                        	.sym	SCROLLBAR,0,10,14,240,37
  6729                        	.sym	PBUTTON,0,138,14,32,36
  6730                        	.sym	BUTTON,0,10,14,96,36
  6731                        	.sym	PMENUDROPDOWNDATA,0,138,14,32,35
  6732                        	.sym	MENUDROPDOWNDATA,0,10,14,5152,35
  6733                        	.sym	PMENUTAG,0,138,14,32,34
  6734                        	.sym	MENUTAG,0,10,14,160,34
  6735                        	.sym	PMENU,0,138,14,32,33
  6736                        	.sym	MENU,0,10,14,280,33
  6737                        	.sym	HMENURESOURCE,0,129,14,32
  6738                        	.sym	FONTMETRIC,0,10,14,32,32
  6739                        	.sym	TITLE,0,142,14,32
  6740                        	.sym	PHANDLE,0,1153,14,32
  6741                        	.sym	HANDLE,0,129,14,32
  6742                        	.sym	PWINDOWEX,0,138,14,32,31
  6743                        	.sym	WINDOWEX,0,10,14,3880,31
  6744                        	.sym	PWINDOW,0,138,14,32,30
  6745                        	.sym	WINDOW,0,10,14,3904,30
  6746                        	.sym	PDRAGDATA,0,138,14,32,29
  6747                        	.sym	DRAGDATA,0,10,14,216,29
  6748                        	.sym	PNCCLICKABLE,0,138,14,32,28
  6749                        	.sym	NCCLICKABLE,0,10,14,136,28
  6750                        	.sym	HCLICKABLE,0,7,14,32
  6751                        	.sym	PCLICKABLE,0,138,14,32,27
  6752                        	.sym	CLICKABLE,0,10,14,152,27
  6753                        	.sym	PWNDCLASS,0,138,14,32,26
  6754                        	.sym	WNDCLASS,0,10,14,272,26
  6755                        	.sym	HBRUSH,0,129,14,32
  6756                        	.sym	HCURSOR,0,129,14,32
  6757                        	.sym	HICON,0,129,14,32
  6758                        	.sym	HINSTANCE,0,129,14,32
  6759                        	.sym	FXWndProc,0,654,14,32
  Mon Aug  9 2021 16:52                                                Page 125


  6760                        	.sym	PDRECT,0,138,14,32,25
  6761                        	.sym	DRECT,0,10,14,112,25
  6762                        	.sym	PRECTP,0,138,14,32,24
  6763                        	.sym	RECTP,0,10,14,96,24
  6764                        	.sym	PRECT,0,138,14,32,23
  6765                        	.sym	RECT,0,10,14,112,23
  6766                        	.sym	PPOINT,0,138,14,32,22
  6767                        	.sym	POINT,0,10,14,32,22
  6768                        	.sym	PFXPROPERTY,0,138,14,32,20
  6769                        	.sym	FXPROPERTY,0,10,14,384,20
  6770                        	.sym	PKEYSTATE,0,138,14,32,19
  6771                        	.sym	KEYSTATE,0,10,14,112,19
  6772                        	.sym	SCANCODE,0,14,14,8
  6773                        	.sym	KEYCODE,0,16,14,16
  6774                        	.sym	PFXPROCESSMESSAGE,0,138,14,32,18
  6775                        	.sym	FXPROCESSMESSAGE,0,10,14,112,18
  6776                        	.sym	PFXPROCESS,0,138,14,32,17
  6777                        	.sym	FXPROCESS,0,10,14,800,17
  6778                        	.sym	PDESKTOP_CONTROL,0,138,14,32,16
  6779                        	.sym	DESKTOP_CONTROL,0,10,14,392,16
  6780                        	.sym	PCONSOLE_CONTROL,0,138,14,32,15
  6781                        	.sym	CONSOLE_CONTROL,0,10,14,448,15
  6782                        	.sym	FXProcessProc,0,641,14,32
  6783                        	.sym	PFXCMDMESSAGE,0,138,14,32,14
  6784                        	.sym	FXCMDMESSAGE,0,10,14,312,14
  6785                        	.sym	PFXOSMESSAGE,0,138,14,32,13
  6786                        	.sym	FXOSMESSAGE,0,10,14,312,13
  6787                        	.sym	PINT_REGS,0,138,14,32,12
  6788                        	.sym	INT_REGS,0,10,14,104,12
  6789                        	.sym	TASK_STACK,0,10,14,32,11
  6790                        	.sym	TASK,0,10,14,48,10
  6791                        	.sym	PIRQDATA,0,138,14,32,9
  6792                        	.sym	IRQDATA,0,10,14,48,9
  6793                        	.sym	HMENU,0,129,14,32
  6794                        	.sym	HWND,0,129,14,32
  6795                        	.sym	MSGDATA,0,14,14,8
  6796                        	.sym	MSGDEST,0,18,14,32
  6797                        	.sym	MSGSRC,0,18,14,32
  6798                        	.sym	MSGTYPE,0,16,14,16
  6799                        	.sym	PROCESS_RESOURCE_LIST,0,138,14,32,3
  6800                        	.sym	PROCESS_TLS_LIST,0,138,14,32,3
  6801                        	.sym	SEMAPHORE_LIST,0,138,14,32,3
  6802                        	.sym	FILE_BLOCK_LIST,0,138,14,32,3
  6803                        	.sym	FILE_PATH_LIST,0,138,14,32,3
  6804                        	.sym	PROCEDURE_LIST,0,138,14,32,3
  6805                        	.sym	FILE_HANDLE,0,138,14,32,8
  6806                        	.sym	FILE_BLOCK,0,10,14,552,8
  6807                        	.sym	SEMAPHORE,0,10,14,16,7
  6808                        	.sym	PPROCESS_SIGNAL,0,138,14,32,6
  6809                        	.sym	PROCESS_SIGNAL,0,10,14,16,6
  6810                        	.sym	KRESULT,0,18,14,32
  6811                        	.sym	PKERNEL_ERROR,0,138,14,32,5
  6812                        	.sym	KERNEL_ERROR,0,10,14,32,5
  6813                        	.sym	PROCESS_STATUS,0,16,14,16
  6814                        	.sym	FILE_PATH_NAME,0,142,14,32
  6815                        	.sym	PROCESS_RESOURCE,0,129,14,32
  6816                        	.sym	PROCESS_TLS,0,129,14,32
  6817                        	.sym	PROCESS_CTX,0,129,14,32
  Mon Aug  9 2021 16:52                                                Page 126


  6818                        	.sym	USERID,0,16,14,16
  6819                        	.sym	PROCESS_ID,0,18,14,32
  6820                        	.sym	PROCESS_BANK,0,14,14,8
  6821                        	.sym	PFXQUEUE,0,138,14,32,4
  6822                        	.sym	FXQUEUE,0,10,14,80,4
  6823                        	.sym	PFXNODELIST,0,138,14,32,3
  6824                        	.sym	FXNODELIST,0,10,14,96,3
  6825                        	.sym	NodeListDeallocator,0,641,14,32
  6826                        	.sym	PFXNODE,0,138,14,32,2
  6827                        	.sym	FXNODE,0,10,14,384,2
  6828                        	.sym	PBYTEBITS,0,138,14,32,1
  6829                        	.sym	BYTEBITS,0,10,14,8,1
  6830                        	.sym	HRESULT,0,18,14,32
  6831                        	.sym	LPWCHAR,0,144,14,32
  6832                        	.sym	WCHAR,0,16,14,16
  6833                        	.sym	HSTRINGTABLE,0,129,14,32
  6834                        	.sym	HCOLOR,0,129,14,32
  6835                        	.sym	HFONT,0,129,14,32
  6836                        	.sym	HDC,0,129,14,32
  6837                        	.sym	HPOINTER,0,129,14,32
  6838                        	.sym	uint32_t,0,18,14,32
  6839                        	.sym	uint8_t,0,14,14,8
  6840                        	.sym	LPBOOL,0,142,14,32
  6841                        	.sym	BOOL,0,14,14,8
  6842                        	.sym	DWORD,0,18,14,32
  6843                        	.sym	ULONG,0,18,14,32
  6844                        	.sym	LPLONG,0,135,14,32
  6845                        	.sym	LONG,0,7,14,32
  6846                        	.sym	PUINT,0,144,14,32
  6847                        	.sym	USHORT,0,16,14,16
  6848                        	.sym	UINT,0,16,14,16
  6849                        	.sym	INT,0,5,14,16
  6850                        	.sym	WORD,0,5,14,16
  6851                        	.sym	PBYTE,0,142,14,32
  6852                        	.sym	BYTE,0,14,14,8
  6853                        	.sym	IOPORT,0,142,14,32
  6854                        	.sym	PUCHAR,0,142,14,32
  6855                        	.sym	UCHAR,0,14,14,8
  6856                        	.sym	LPWCSTR,0,142,14,32
  6857                        	.sym	LPCSTR,0,142,14,32
  6858                        	.sym	LPSTR,0,142,14,32
  6859                        	.sym	LPCHAR,0,142,14,32
  6860                        	.sym	CHAR,0,14,14,8
  6861                        	.sym	PUINT_32,0,146,14,32
  6862                        	.sym	UINT_32,0,18,14,32
  6863                        	.sym	PUINT_16,0,144,14,32
  6864                        	.sym	UINT_16,0,16,14,16
  6865                        	.sym	PUINT_8,0,142,14,32
  6866                        	.sym	UINT_8,0,14,14,8
  6867                        	.sym	LPVOID,0,129,14,32
  6868                        	.sym	VOID,0,1,14,32
  6869                        	end


      Lines assembled: 6869
      Errors: 0
