  Mon Sep 27 2021  9:39                                                Page 1


                     ***************************************
                     **      WDC 65C816 Macro Assembler   **
                     **                                   **
                     **     Version 1.00- Aug 10 2021    **
                     ***************************************

     1                        ;:ts=8
     2             00000001   R0	equ	1
     3             00000005   R1	equ	5
     4             00000009   R2	equ	9
     5             0000000D   R3	equ	13
     6                        	.file	"G:\devprojects\c256Foenix\fxos\FXOSWork
                    space\FXOS-Beta\src\fxos_desktop_proc.c",0
     7                        ;
     8                        ;#include "fxos_desktop_proc.h"
     9                        	.file	"G:\devprojects\c256Foenix\fxos\FXOSWork
                    space\FXOS-Beta\src\fxos_desktop_proc.h",0
    10                        	.file	"G:\devprojects\c256Foenix\fxos\FXOSWork
                    space\FXOS-Beta\src\fxtypes.h",0
    11                        	.stag	_fx_bytebits,8,1
    12                        	.member	b7,0,14,17,1
    13                        	.member	b6,1,14,17,1
    14                        	.member	b5,2,14,17,1
    15                        	.member	b4,3,14,17,1
    16                        	.member	b3,4,14,17,1
    17                        	.member	b2,5,14,17,1
    18                        	.member	b1,6,14,17,1
    19                        	.member	b0,7,14,17,1
    20                        	.eos
    21                        	.stag	_fx_node,384,2
    22                        	.member	type,0,14,8,8
    23                        	.member	Reserved0,8,14,8,8
    24                        	.member	data,16,129,8,32
    25                        	.member	last,48,138,8,32,2
    26                        	.member	next,80,138,8,32,2
    27                        	.member	name,112,110,8,0,32
    28                        	.member	Reserved1,368,16,8,16
    29                        	.eos
    30                        	.stag	_fx_nodelist,96,3
    31                        	.member	listhead,0,138,8,32,2
    32                        	.member	listData,32,129,8,32
    33                        	.member	deallocator,64,641,8,32
    34                        	.eos
    35                        	.stag	_fx_queue,80,4
    36                        	.member	count,0,5,8,16
    37                        	.member	front,16,138,8,32,2
    38                        	.member	rear,48,138,8,32,2
    39                        	.eos
    40                        	.stag	fake5_,32,5
    41                        	.member	subsystem,0,14,8,8
    42                        	.member	level,8,14,8,8
    43                        	.member	error,16,16,8,16
    44                        	.eos
    45                        	.stag	_fx_process_signal,16,6
    46                        	.member	cbSize,0,16,8,16
    47                        	.eos
    48                        	.stag	_fx_semaphore,16,7
    49                        	.member	reserved,0,5,8,16
  Mon Sep 27 2021  9:39                                                Page 2


    50                        	.eos
    51                        	.stag	_fx_fileBlock,552,8
    52                        	.member	openCount,0,16,8,16
    53                        	.member	lockCount,16,16,8,16
    54                        	.member	dirty,32,14,8,8
    55                        	.member	fileBuffer,40,110,8,0,64
    56                        	.eos
    57                        	.stag	_fx_irq_data,48,9
    58                        	.member	line,0,5,8,16
    59                        	.member	keycode,16,142,8,32
    60                        	.eos
    61                        	.stag	_task,48,10
    62                        	.member	SPL,0,14,8,8
    63                        	.member	SPH,8,14,8,8
    64                        	.member	pstack,16,142,8,32
    65                        	.eos
    66                        	.stag	_task_stack,32,11
    67                        	.member	SS,0,142,8,32
    68                        	.eos
    69                        	.stag	int_regs,104,12
    70                        	.member	PB,0,14,8,8
    71                        	.member	PH,8,14,8,8
    72                        	.member	PL,16,14,8,8
    73                        	.member	PP,24,14,8,8
    74                        	.member	DB,32,14,8,8
    75                        	.member	DH,40,14,8,8
    76                        	.member	DL,48,14,8,8
    77                        	.member	AH,56,14,8,8
    78                        	.member	AL,64,14,8,8
    79                        	.member	XH,72,14,8,8
    80                        	.member	XL,80,14,8,8
    81                        	.member	YH,88,14,8,8
    82                        	.member	YL,96,14,8,8
    83                        	.eos
    84                        	.stag	_fx_eventMessage,312,13
    85                        	.member	src,0,18,8,32
    86                        	.member	dest,32,18,8,32
    87                        	.member	type,64,16,8,16
    88                        	.member	hwnd,80,129,8,32
    89                        	.member	pheap,112,129,8,32
    90                        	.member	msgTime,144,18,8,32
    91                        	.member	data,176,110,8,0,16
    92                        	.member	attr,304,14,8,8
    93                        	.eos
    94                        	.stag	_fx_cmdMessage,312,14
    95                        	.member	src,0,18,8,32
    96                        	.member	dest,32,18,8,32
    97                        	.member	type,64,16,8,16
    98                        	.member	hwnd,80,129,8,32
    99                        	.member	pheap,112,129,8,32
   100                        	.member	msgTime,144,18,8,32
   101                        	.member	cmdCId,176,16,8,16
   102                        	.member	cmdMId,192,16,8,16
   103                        	.member	parameter1,208,18,8,32
   104                        	.member	parameter2,240,18,8,32
   105                        	.member	parameter3,272,18,8,32
   106                        	.member	attr,304,14,8,8
   107                        	.eos
  Mon Sep 27 2021  9:39                                                Page 3


   108                        	.stag	_fx_console_ctl,448,15
   109                        	.member	maxCols,0,5,8,16
   110                        	.member	maxRows,16,5,8,16
   111                        	.member	curX,32,5,8,16
   112                        	.member	curY,48,5,8,16
   113                        	.member	fgColor,64,5,8,16
   114                        	.member	bgColor,80,5,8,16
   115                        	.member	mode,96,14,8,8
   116                        	.member	kbBuffer,104,101,8,0,16
   117                        	.member	screenBuffer,360,142,8,32
   118                        	.member	desktopMode,392,14,8,8
   119                        	.member	lastMouseButton,400,5,8,16
   120                        	.member	lastMouseX,416,5,8,16
   121                        	.member	lastMouseY,432,5,8,16
   122                        	.eos
   123                        	.stag	_fx_desktop_ctl,392,16
   124                        	.member	desktopMode,0,14,8,8
   125                        	.member	cursorCtl,8,5,8,16
   126                        	.member	cursorState,24,5,8,16
   127                        	.member	backgroundColor,40,5,8,16
   128                        	.member	foregroundColor,56,5,8,16
   129                        	.member	menuMode,72,5,8,16
   130                        	.member	lastMouseButton,88,5,8,16
   131                        	.member	lastMouseX,104,5,8,16
   132                        	.member	lastMouseY,120,5,8,16
   133                        	.member	currentDiskName,136,142,8,32
   134                        	.member	diskNodes,168,129,8,32
   135                        	.member	titleNodes,200,129,8,32
   136                        	.member	menuNodes,232,129,8,32
   137                        	.member	iconNodes,264,129,8,32
   138                        	.member	windowNodes,296,129,8,32
   139                        	.member	fontNodes,328,129,8,32
   140                        	.member	wndProc,360,138,8,32,3
   141                        	.eos
   142                        	.stag	_fx_process,800,17
   143                        	.member	cbSize,0,5,8,16
   144                        	.member	procId,16,18,8,32
   145                        	.member	parentId,48,18,8,32
   146                        	.member	ctx,80,129,8,32
   147                        	.member	userId,112,16,8,16
   148                        	.member	status,128,16,8,16
   149                        	.member	foregroundActive,144,14,8,8
   150                        	.member	tls,152,1121,8,32,8
   151                        	.member	commandLine,408,142,8,32
   152                        	.member	semaphores,440,138,8,32,3
   153                        	.member	fileHandles,472,138,8,32,3
   154                        	.member	pathList,504,138,8,32,3
   155                        	.member	resources,536,138,8,32,3
   156                        	.member	timerAware,568,14,8,8
   157                        	.member	timerTicks,576,112,8,0,2
   158                        	.member	timerTickCount,608,112,8,0,2
   159                        	.member	kernelError,640,10,8,32,5
   160                        	.member	consoleCtl,672,138,8,32,15
   161                        	.member	desktopCtl,704,138,8,32,16
   162                        	.member	execProc,736,641,8,32
   163                        	.member	startupArgs,768,129,8,32
   164                        	.eos
   165                        	.stag	_fxProcessMessage,112,18
  Mon Sep 27 2021  9:39                                                Page 4


   166                        	.member	src,0,18,8,32
   167                        	.member	dest,32,18,8,32
   168                        	.member	type,64,16,8,16
   169                        	.member	processInfo,80,138,8,32,17
   170                        	.eos
   171                        	.stag	_k_key_state,112,19
   172                        	.member	scanCode,0,14,8,8
   173                        	.member	isShifted,8,14,8,8
   174                        	.member	isAlt,16,14,8,8
   175                        	.member	isExtended,24,14,8,8
   176                        	.member	isCapsLock,32,14,8,8
   177                        	.member	isNumLock,40,14,8,8
   178                        	.member	isScrollLock,48,14,8,8
   179                        	.member	keyChar,56,16,8,16
   180                        	.member	scanTime,72,18,8,32
   181                        	.member	ledStatus,104,14,8,8
   182                        	.eos
   183                        	.stag	_fx_property,384,20
   184                        	.member	name,0,110,8,0,16
   185                        	.member	value,128,110,8,0,32
   186                        	.eos
   187                        	.utag	_24bitPointer,32,21
   188                        	.member	address,0,142,11,32
   189                        	.member	bytes,0,110,11,0,4
   190                        	.eos
   191                        	.stag	_PointStruct,32,22
   192                        	.member	x,0,5,8,16
   193                        	.member	y,16,5,8,16
   194                        	.eos
   195                        	.stag	_RectStruct,112,23
   196                        	.member	x,0,5,8,16
   197                        	.member	y,16,5,8,16
   198                        	.member	z,32,18,8,32
   199                        	.member	width,64,5,8,16
   200                        	.member	height,80,5,8,16
   201                        	.member	attr,96,5,8,16
   202                        	.eos
   203                        	.stag	fake24_,96,24
   204                        	.member	name,0,142,8,32
   205                        	.member	topLeft,32,10,8,32,22
   206                        	.member	bottomRight,64,10,8,32,22
   207                        	.eos
   208                        	.stag	fake25_,112,25
   209                        	.member	x,0,5,8,16
   210                        	.member	y,16,5,8,16
   211                        	.member	z,32,5,8,16
   212                        	.member	width,48,5,8,16
   213                        	.member	height,64,5,8,16
   214                        	.member	data,80,18,8,32
   215                        	.eos
   216                        	.stag	_k_WindowClass,272,26
   217                        	.member	cbSize,0,16,8,16
   218                        	.member	style,16,16,8,16
   219                        	.member	styleEx,32,16,8,16
   220                        	.member	pWndProc,48,654,8,32
   221                        	.member	hInstance,80,129,8,32
   222                        	.member	hIcon,112,129,8,32
   223                        	.member	hCursor,144,129,8,32
  Mon Sep 27 2021  9:39                                                Page 5


   224                        	.member	hbrBackground,176,129,8,32
   225                        	.member	lpszMenuName,208,142,8,32
   226                        	.member	lpszClassName,240,142,8,32
   227                        	.eos
   228                        	.stag	_ClickableRect,152,27
   229                        	.member	area,0,10,8,112,23
   230                        	.member	z,112,18,8,32
   231                        	.member	enabled,144,14,8,8
   232                        	.eos
   233                        	.stag	_NCClickableRect,136,28
   234                        	.member	area,0,10,8,112,23
   235                        	.member	msgType,112,16,8,16
   236                        	.member	enabled,128,14,8,8
   237                        	.eos
   238                        	.stag	_DragData,216,29
   239                        	.member	area,0,10,8,112,23
   240                        	.member	xoffset,112,5,8,16
   241                        	.member	yoffset,128,5,8,16
   242                        	.member	msgType,144,16,8,16
   243                        	.member	ncAction,160,16,8,16
   244                        	.member	isDrag,176,14,8,8
   245                        	.member	isResize,184,14,8,8
   246                        	.member	canDrag,192,14,8,8
   247                        	.member	canDrop,200,14,8,8
   248                        	.member	didDrag,208,14,8,8
   249                        	.eos
   250                        	.stag	_k_WindowStruct,3904,30
   251                        	.member	cbSize,0,16,8,16
   252                        	.member	style,16,18,8,32
   253                        	.member	styleEx,48,18,8,32
   254                        	.member	win_id,80,5,8,16
   255                        	.member	win_x,96,5,8,16
   256                        	.member	win_y,112,5,8,16
   257                        	.member	win_width,128,5,8,16
   258                        	.member	win_height,144,5,8,16
   259                        	.member	win_xoffset,160,5,8,16
   260                        	.member	win_yoffset,176,5,8,16
   261                        	.member	win_cxoffset,192,5,8,16
   262                        	.member	win_cyoffset,208,5,8,16
   263                        	.member	wndRect,224,10,8,112,23
   264                        	.member	clientRect,336,10,8,112,23
   265                        	.member	nonclientGadgets,448,106,8,0,28,16
   266                        	.member	clickable,2624,129,8,32
   267                        	.member	win_title,2656,110,8,0,32
   268                        	.member	Reserved0,2912,16,8,16
   269                        	.member	win_class,2928,110,8,0,16
   270                        	.member	win_class_name,3056,110,8,0,32
   271                        	.member	nBitmapLayer,3312,16,8,16
   272                        	.member	bgRegion,3328,129,8,32
   273                        	.member	procid,3360,18,8,32
   274                        	.member	pWndClass,3392,138,8,32,26
   275                        	.member	pParentWindow,3424,129,8,32
   276                        	.member	hMenu,3456,129,8,32
   277                        	.member	hPointer,3488,129,8,32
   278                        	.member	hBackground,3520,129,8,32
   279                        	.member	pChildWindows,3552,138,8,32,3
   280                        	.member	pChildHitList,3584,138,8,32,3
   281                        	.member	isVisible,3616,14,8,8
  Mon Sep 27 2021  9:39                                                Page 6


   282                        	.member	windowData,3624,129,8,32
   283                        	.member	clientData,3656,1121,8,32,6
   284                        	.member	isClosed,3848,14,8,8
   285                        	.member	isClosing,3856,14,8,8
   286                        	.member	isDesktop,3864,14,8,8
   287                        	.member	clickableNode,3872,138,8,32,2
   288                        	.eos
   289                        	.stag	_k_WindowStructEx,3880,31
   290                        	.member	cbSize,0,16,8,16
   291                        	.member	style,16,18,8,32
   292                        	.member	styleEx,48,18,8,32
   293                        	.member	win_id,80,5,8,16
   294                        	.member	win_x,96,5,8,16
   295                        	.member	win_y,112,5,8,16
   296                        	.member	win_width,128,5,8,16
   297                        	.member	win_height,144,5,8,16
   298                        	.member	win_xoffset,160,5,8,16
   299                        	.member	win_yoffset,176,5,8,16
   300                        	.member	win_cxoffset,192,5,8,16
   301                        	.member	win_cyoffset,208,5,8,16
   302                        	.member	wndRect,224,10,8,112,23
   303                        	.member	clientRect,336,10,8,112,23
   304                        	.member	nonclientGadgets,448,106,8,0,28,16
   305                        	.member	clickable,2624,129,8,32
   306                        	.member	win_title,2656,110,8,0,32
   307                        	.member	Reserved0,2912,16,8,16
   308                        	.member	win_class,2928,110,8,0,16
   309                        	.member	nBitmapLayer,3056,16,8,16
   310                        	.member	procid,3072,18,8,32
   311                        	.member	pWndClass,3104,138,8,32,26
   312                        	.member	pParentWindow,3136,129,8,32
   313                        	.member	hMenu,3168,129,8,32
   314                        	.member	hPointer,3200,129,8,32
   315                        	.member	hBackground,3232,129,8,32
   316                        	.member	pChildWindows,3264,138,8,32,3
   317                        	.member	pChildHitList,3296,138,8,32,3
   318                        	.member	isVisible,3328,14,8,8
   319                        	.member	windowData,3336,129,8,32
   320                        	.member	clientData,3368,1121,8,32,4
   321                        	.member	isClosed,3496,14,8,8
   322                        	.member	hWnd,3504,129,8,32
   323                        	.member	localRect,3536,10,8,112,23
   324                        	.member	globalRect,3648,10,8,112,23
   325                        	.member	clientOffsetRect,3760,10,8,112,23
   326                        	.member	isDesktop,3872,14,8,8
   327                        	.eos
   328                        	.stag	_FontMetric,32,32
   329                        	.member	width,0,5,8,16
   330                        	.member	height,16,5,8,16
   331                        	.eos
   332                        	.stag	_MenuStruct,280,33
   333                        	.member	cx,0,5,8,16
   334                        	.member	cy,16,5,8,16
   335                        	.member	width,32,5,8,16
   336                        	.member	height,48,5,8,16
   337                        	.member	fcolor,64,14,8,8
   338                        	.member	bcolor,72,14,8,8
   339                        	.member	chromeLeft,80,14,8,8
  Mon Sep 27 2021  9:39                                                Page 7


   340                        	.member	chromeRight1,88,14,8,8
   341                        	.member	chromeRight2,96,14,8,8
   342                        	.member	hFont,104,129,8,32
   343                        	.member	itemId,136,16,8,16
   344                        	.member	pCaption,152,142,8,32
   345                        	.member	subMenus,184,138,8,32,3
   346                        	.member	pBackground,216,129,8,32
   347                        	.member	hWndOwner,248,129,8,32
   348                        	.eos
   349                        	.stag	fake34_,160,34
   350                        	.member	menuId,0,16,8,16
   351                        	.member	caption,16,142,8,32
   352                        	.member	rect,48,10,8,112,23
   353                        	.eos
   354                        	.stag	fake35_,5152,35
   355                        	.member	pParent,0,138,8,32,30
   356                        	.member	rect,32,10,8,112,23
   357                        	.member	captions,144,1134,8,32,24
   358                        	.member	chrome,912,110,8,0,24
   359                        	.member	ids,1104,112,8,0,24
   360                        	.member	clickable,1488,106,8,0,27,24
   361                        	.member	selected,5136,16,8,16
   362                        	.eos
   363                        	.stag	_fx_button_t,96,36
   364                        	.member	pCaption,0,142,8,32
   365                        	.member	cCaption,32,16,8,16
   366                        	.member	data,48,129,8,32
   367                        	.member	captionPixelWidth,80,16,8,16
   368                        	.eos
   369                        	.stag	_fx_scrollbar_t,240,37
   370                        	.member	min,0,16,8,16
   371                        	.member	max,16,16,8,16
   372                        	.member	increment,32,16,8,16
   373                        	.member	stopsize,48,16,8,16
   374                        	.member	location,64,5,8,16
   375                        	.member	state,80,5,8,16
   376                        	.member	rectThumb,96,10,8,112,23
   377                        	.member	data,208,129,8,32
   378                        	.eos
   379                        	.stag	_fx_listbox_t,240,38
   380                        	.member	pos,0,5,8,16
   381                        	.member	selected,16,16,8,16
   382                        	.member	offsetX,32,5,8,16
   383                        	.member	offsetY,48,5,8,16
   384                        	.member	inc,64,5,8,16
   385                        	.member	direction,80,5,8,16
   386                        	.member	top,96,5,8,16
   387                        	.member	bottom,112,5,8,16
   388                        	.member	indexTop,128,5,8,16
   389                        	.member	indexBottom,144,5,8,16
   390                        	.member	maxItems,160,16,8,16
   391                        	.member	fontSet,176,142,8,32
   392                        	.member	data,208,129,8,32
   393                        	.eos
   394                        	.stag	_fx_textbox_t,144,39
   395                        	.member	pos,0,5,8,16
   396                        	.member	selected,16,16,8,16
   397                        	.member	offsetX,32,5,8,16
  Mon Sep 27 2021  9:39                                                Page 8


   398                        	.member	offsetY,48,5,8,16
   399                        	.member	isShifted,64,14,8,8
   400                        	.member	cursorState,72,14,8,8
   401                        	.member	fontSet,80,142,8,32
   402                        	.member	data,112,129,8,32
   403                        	.eos
   404                        	.stag	_fx_msgbox_t,144,40
   405                        	.member	pos,0,5,8,16
   406                        	.member	selected,16,16,8,16
   407                        	.member	offsetX,32,5,8,16
   408                        	.member	offsetY,48,5,8,16
   409                        	.member	isShifted,64,14,8,8
   410                        	.member	cursorState,72,14,8,8
   411                        	.member	fontSet,80,142,8,32
   412                        	.member	data,112,129,8,32
   413                        	.eos
   414                        	.stag	_fx_menuAnchor_t,272,41
   415                        	.member	pCaption,0,142,8,32
   416                        	.member	renderLayoutX,32,16,8,16
   417                        	.member	renderLayoutY,48,16,8,16
   418                        	.member	captionPixelWidth,64,16,8,16
   419                        	.member	data,80,129,8,32
   420                        	.member	droppedWindow,112,138,8,32,30
   421                        	.member	bytes,144,110,8,0,16
   422                        	.eos
   423                        	.stag	_SubMenuStruct,64,42
   424                        	.member	caption,0,142,8,32
   425                        	.member	action,32,641,8,32
   426                        	.eos
   427                        	.stag	_SubMenuListStruct,40,43
   428                        	.member	cMenus,0,14,8,8
   429                        	.member	psubmenus,8,9354,8,32,42
   430                        	.eos
   431                        	.stag	_fx_ComBuffer,2080,44
   432                        	.member	cbSize,0,16,8,16
   433                        	.member	cbBuffer,16,16,8,16
   434                        	.member	buffer,32,110,8,0,256
   435                        	.eos
   436                        	.stag	_fx_resource_header,72,45
   437                        	.member	magic,0,110,8,0,4
   438                        	.member	major,32,14,8,8
   439                        	.member	minor,40,14,8,8
   440                        	.member	type,48,14,8,8
   441                        	.member	reserved,56,14,8,8
   442                        	.member	resheaderSize,64,14,8,8
   443                        	.eos
   444                        	.stag	_fx_resource_header_font,144,46
   445                        	.member	title,0,110,8,0,16
   446                        	.member	height,128,14,8,8
   447                        	.member	width,136,14,8,8
   448                        	.eos
   449                        	.stag	_fx_resource_string,32,47
   450                        	.member	locale,0,110,8,0,2
   451                        	.member	entries,16,16,8,16
   452                        	.eos
   453                        	.stag	_fx_resource_string_entry,40,48
   454                        	.member	index,0,16,8,16
   455                        	.member	length,16,16,8,16
  Mon Sep 27 2021  9:39                                                Page 9


   456                        	.member	data,32,14,8,8
   457                        	.eos
   458                        	.line	1064
   459                        	.file	"G:\devprojects\c256Foenix\fxos\FXOSWork
                    space\FXOS-Beta\src\fxos_desktop_proc.h",5
   460                        	.file	"G:\devprojects\c256Foenix\fxos\FXOSWork
                    space\FXOS-Beta\src\fxc256u.h",0
   461                        	.file	"G:\devprojects\c256Foenix\fxos\FXOSWork
                    space\FXOS-Beta\src\fxtypes.h",0
   462                        	.line	1064
   463                        	.file	"G:\devprojects\c256Foenix\fxos\FXOSWork
                    space\FXOS-Beta\src\fxc256u.h",5
   464                        	.file	"G:\devprojects\c256Foenix\fxos\FXOSWork
                    space\FXOS-Beta\src\fmx_vicky.h",0
   465                        	.file	"G:\devprojects\c256Foenix\fxos\FXOSWork
                    space\FXOS-Beta\src\fxtypes.h",0
   466                        	.line	1064
   467                        	.file	"G:\devprojects\c256Foenix\fxos\FXOSWork
                    space\FXOS-Beta\src\fmx_vicky.h",11
   468                        	.line	72
   469                        	.file	"G:\devprojects\c256Foenix\fxos\FXOSWork
                    space\FXOS-Beta\src\fxc256u.h",6
   470                        	.line	1963
   471                        	.file	"G:\devprojects\c256Foenix\fxos\FXOSWork
                    space\FXOS-Beta\src\fxos_desktop_proc.h",10
   472                        	.file	"G:\devprojects\c256Foenix\fxos\FXOSWork
                    space\FXOS-Beta\src\fxstring.h",0
   473                        	.file	"G:\devtools\WDCTools\wdc\Tools\include\
                    stdlib.h",0
   474                        	.file	"G:\devtools\WDCTools\wdc\Tools\include\
                    stddef.h",0
   475                        	.line	88
   476                        	.file	"G:\devtools\WDCTools\wdc\Tools\include\
                    stdlib.h",43
   477                        	.stag	fake49_,32,49
   478                        	.member	quot,0,5,8,16
   479                        	.member	rem,16,5,8,16
   480                        	.eos
   481                        	.stag	fake50_,64,50
   482                        	.member	quot,0,7,8,32
   483                        	.member	rem,32,7,8,32
   484                        	.eos
   485                        	.stag	int_sqrt,32,51
   486                        	.member	sqrt,0,16,8,16
   487                        	.member	frac,16,16,8,16
   488                        	.eos
   489                        	.line	205
   490                        	.file	"G:\devprojects\c256Foenix\fxos\FXOSWork
                    space\FXOS-Beta\src\fxstring.h",5
   491                        	.file	"G:\devtools\WDCTools\wdc\Tools\include\
                    string.h",0
   492                        	.line	134
   493                        	.file	"G:\devprojects\c256Foenix\fxos\FXOSWork
                    space\FXOS-Beta\src\fxstring.h",6
   494                        	.file	"G:\devprojects\c256Foenix\fxos\FXOSWork
                    space\FXOS-Beta\src\fxtypes.h",0
   495                        	.line	1064
   496                        	.file	"G:\devprojects\c256Foenix\fxos\FXOSWork
  Mon Sep 27 2021  9:39                                                Page 10


                    space\FXOS-Beta\src\fxstring.h",7
   497                        	.stag	_fx_string,64,52
   498                        	.member	size,0,16,8,16
   499                        	.member	pos,16,5,8,16
   500                        	.member	buffer,32,142,8,32
   501                        	.eos
   502                        	.line	141
   503                        	.file	"G:\devprojects\c256Foenix\fxos\FXOSWork
                    space\FXOS-Beta\src\fxos_desktop_proc.h",15
   504                        	.file	"G:\devprojects\c256Foenix\fxos\FXOSWork
                    space\FXOS-Beta\src\fxeventmanager.h",0
   505                        	.file	"G:\devprojects\c256Foenix\fxos\FXOSWork
                    space\FXOS-Beta\src\fxos.h",0
   506                        	.file	"G:\devtools\WDCTools\wdc\Tools\include\
                    stdlib.h",0
   507                        	.line	205
   508                        	.file	"G:\devprojects\c256Foenix\fxos\FXOSWork
                    space\FXOS-Beta\src\fxos.h",4
   509                        	.file	"G:\devtools\WDCTools\wdc\Tools\include\
                    string.h",0
   510                        	.line	134
   511                        	.file	"G:\devprojects\c256Foenix\fxos\FXOSWork
                    space\FXOS-Beta\src\fxos.h",5
   512                        	.file	"G:\devtools\WDCTools\wdc\Tools\include\
                    ctype.h",0
   513                        	.line	103
   514                        	.file	"G:\devprojects\c256Foenix\fxos\FXOSWork
                    space\FXOS-Beta\src\fxos.h",6
   515                        	.file	"G:\devprojects\c256Foenix\fxos\FXOSWork
                    space\FXOS-Beta\src\fxtypes.h",0
   516                        	.line	1064
   517                        	.file	"G:\devprojects\c256Foenix\fxos\FXOSWork
                    space\FXOS-Beta\src\fxos.h",8
   518                        	.file	"G:\devprojects\c256Foenix\fxos\FXOSWork
                    space\FXOS-Beta\src\fxstringtable.h",0
   519                        	.line	90
   520                        	.file	"G:\devprojects\c256Foenix\fxos\FXOSWork
                    space\FXOS-Beta\src\fxos.h",9
   521                        	.file	"G:\devprojects\c256Foenix\fxos\FXOSWork
                    space\FXOS-Beta\src\fxc256u.h",0
   522                        	.line	1963
   523                        	.file	"G:\devprojects\c256Foenix\fxos\FXOSWork
                    space\FXOS-Beta\src\fxos.h",16
   524                        	.file	"G:\devprojects\c256Foenix\fxos\FXOSWork
                    space\FXOS-Beta\src\fxkernel.h",0
   525                        	.file	"G:\devprojects\c256Foenix\fxos\FXOSWork
                    space\FXOS-Beta\src\fxos.h",0
   526                        	.line	30
   527                        	.file	"G:\devprojects\c256Foenix\fxos\FXOSWork
                    space\FXOS-Beta\src\fxkernel.h",5
   528                        	.file	"G:\devprojects\c256Foenix\fxos\FXOSWork
                    space\FXOS-Beta\src\fxnode.h",0
   529                        	.file	"G:\devprojects\c256Foenix\fxos\FXOSWork
                    space\FXOS-Beta\src\fxtypes.h",0
   530                        	.line	1064
   531                        	.file	"G:\devprojects\c256Foenix\fxos\FXOSWork
                    space\FXOS-Beta\src\fxnode.h",11
   532                        	.line	118
  Mon Sep 27 2021  9:39                                                Page 11


   533                        	.file	"G:\devprojects\c256Foenix\fxos\FXOSWork
                    space\FXOS-Beta\src\fxkernel.h",6
   534                        	.stag	_fx_api_call_table,8192,53
   535                        	.member	call_table,0,1121,8,32,256
   536                        	.eos
   537                        	.stag	_fx_zero_page_irq_data,32,54
   538                        	.member	data,0,110,8,0,4
   539                        	.eos
   540                        	.stag	_fx_zero_page,720,55
   541                        	.member	fxos_mouse_byte_0,0,14,8,8
   542                        	.member	fxos_mouse_byte_1,8,14,8,8
   543                        	.member	fxos_mouse_byte_2,16,14,8,8
   544                        	.member	fxos_mouse_byte_t,24,14,8,8
   545                        	.member	fxos_mouse_byte_x_l,32,14,8,8
   546                        	.member	fxos_mouse_byte_x_h,40,14,8,8
   547                        	.member	fxos_mouse_byte_y_l,48,14,8,8
   548                        	.member	fxos_mouse_byte_y_h,56,14,8,8
   549                        	.member	fxos_key_byte_0,64,14,8,8
   550                        	.member	fxos_key_byte_1,72,14,8,8
   551                        	.member	fxos_key_byte_2,80,14,8,8
   552                        	.member	fxos_mouse_ctl,88,14,8,8
   553                        	.member	fxos_mouse_index,96,14,8,8
   554                        	.member	fxos_mouse_status,104,14,8,8
   555                        	.member	Endianness,112,16,8,16
   556                        	.member	VersionMajor,128,16,8,16
   557                        	.member	VersionMinor,144,16,8,16
   558                        	.member	VersionRelease,160,16,8,16
   559                        	.member	topMemory,176,18,8,32
   560                        	.member	bottomMemory,208,18,8,32
   561                        	.member	availableMemory,240,18,8,32
   562                        	.member	availableMemoryK,272,18,8,32
   563                        	.member	availableHeapMemory,304,18,8,32
   564                        	.member	availableHeapMemoryK,336,18,8,32
   565                        	.member	fxos_console_row,368,16,8,16
   566                        	.member	fxos_console_col,384,16,8,16
   567                        	.member	executive,400,129,8,32
   568                        	.member	eventmanager,432,129,8,32
   569                        	.member	devicemanager,464,129,8,32
   570                        	.member	windowmanager,496,129,8,32
   571                        	.member	fxos_kernel_api,528,138,8,32,53
   572                        	.member	fxos_dos_api,560,138,8,32,53
   573                        	.member	fxos_gfx_api,592,138,8,32,53
   574                        	.member	fxos_gui_api,624,138,8,32,53
   575                        	.member	fxos_con_api,656,138,8,32,53
   576                        	.member	fxos_reserved_2_api,688,138,8,32,53
   577                        	.eos
   578                        	.stag	_fx_environment,96,56
   579                        	.member	variables,0,142,8,32
   580                        	.member	reserved1,32,5,8,16
   581                        	.member	reserved2,48,5,8,16
   582                        	.member	reserved3,64,5,8,16
   583                        	.member	reserved4,80,5,8,16
   584                        	.eos
   585                        	.stag	_debug_byte_bits,8,57
   586                        	.member	bit7,0,14,17,1
   587                        	.member	bit6,1,14,17,1
   588                        	.member	bit5,2,14,17,1
   589                        	.member	bit4,3,14,17,1
  Mon Sep 27 2021  9:39                                                Page 12


   590                        	.member	bit3,4,14,17,1
   591                        	.member	bit2,5,14,17,1
   592                        	.member	bit1,6,14,17,1
   593                        	.member	bit0,7,14,17,1
   594                        	.eos
   595                        	.stag	_k_segmentheader,160,58
   596                        	.member	version_major,0,14,8,8
   597                        	.member	version_minor,8,14,8,8
   598                        	.member	length,16,5,8,16
   599                        	.member	segment_start_addr,32,7,8,32
   600                        	.member	segment_end_addr,64,7,8,32
   601                        	.member	segment_size,96,7,8,32
   602                        	.member	main_entry_addr,128,7,8,32
   603                        	.eos
   604                        	.stag	_fx_device_driver,776,59
   605                        	.member	name,0,110,8,0,32
   606                        	.member	version,256,110,8,0,16
   607                        	.member	hmajor,384,110,8,0,8
   608                        	.member	hminor,448,110,8,0,8
   609                        	.member	type,512,14,8,8
   610                        	.member	designation,520,110,8,0,6
   611                        	.member	irq_ctl,568,16,8,16
   612                        	.member	f_driver_irq,584,129,8,32
   613                        	.member	driver_context,616,129,8,32
   614                        	.member	f_driver_load,648,129,8,32
   615                        	.member	f_driver_read,680,129,8,32
   616                        	.member	f_driver_write,712,129,8,32
   617                        	.member	f_driver_unload,744,129,8,32
   618                        	.eos
   619                        	.stag	_fx_block_device_driver,808,60
   620                        	.member	name,0,110,8,0,32
   621                        	.member	version,256,110,8,0,16
   622                        	.member	hmajor,384,110,8,0,8
   623                        	.member	hminor,448,110,8,0,8
   624                        	.member	type,512,14,8,8
   625                        	.member	designation,520,110,8,0,6
   626                        	.member	irq_ctl,568,16,8,16
   627                        	.member	f_driver_irq,584,129,8,32
   628                        	.member	driver_context,616,129,8,32
   629                        	.member	f_driver_load,648,129,8,32
   630                        	.member	f_driver_read,680,129,8,32
   631                        	.member	f_driver_write,712,129,8,32
   632                        	.member	f_driver_unload,744,129,8,32
   633                        	.member	f_driver_command,776,129,8,32
   634                        	.eos
   635                        	.stag	_k_irq_chain,128,61
   636                        	.member	handlers,0,5217,8,32,4
   637                        	.eos
   638                        	.line	475
   639                        	.file	"G:\devprojects\c256Foenix\fxos\FXOSWork
                    space\FXOS-Beta\src\fxos.h",22
   640                        	.file	"G:\devprojects\c256Foenix\fxos\FXOSWork
                    space\FXOS-Beta\src\fxconsole.h",0
   641                        	.file	"G:\devtools\WDCTools\wdc\Tools\include\
                    string.h",0
   642                        	.line	134
   643                        	.file	"G:\devprojects\c256Foenix\fxos\FXOSWork
                    space\FXOS-Beta\src\fxconsole.h",5
  Mon Sep 27 2021  9:39                                                Page 13


   644                        	.file	"G:\devtools\WDCTools\wdc\Tools\include\
                    stdlib.h",0
   645                        	.line	205
   646                        	.file	"G:\devprojects\c256Foenix\fxos\FXOSWork
                    space\FXOS-Beta\src\fxconsole.h",6
   647                        	.file	"G:\devprojects\c256Foenix\fxos\FXOSWork
                    space\FXOS-Beta\src\fxtypes.h",0
   648                        	.line	1064
   649                        	.file	"G:\devprojects\c256Foenix\fxos\FXOSWork
                    space\FXOS-Beta\src\fxconsole.h",7
   650                        	.file	"G:\devprojects\c256Foenix\fxos\FXOSWork
                    space\FXOS-Beta\src\fxc256u.h",0
   651                        	.line	1963
   652                        	.file	"G:\devprojects\c256Foenix\fxos\FXOSWork
                    space\FXOS-Beta\src\fxconsole.h",12
   653                        	.file	"G:\devprojects\c256Foenix\fxos\FXOSWork
                    space\FXOS-Beta\src\fxstring.h",0
   654                        	.line	141
   655                        	.file	"G:\devprojects\c256Foenix\fxos\FXOSWork
                    space\FXOS-Beta\src\fxconsole.h",17
   656                        	.file	"G:\devprojects\c256Foenix\fxos\FXOSWork
                    space\FXOS-Beta\src\fxeventmanager.h",0
   657                        	.line	572
   658                        	.file	"G:\devprojects\c256Foenix\fxos\FXOSWork
                    space\FXOS-Beta\src\fxconsole.h",18
   659                        	.stag	_fx_spinner_ctx,48,62
   660                        	.member	index,0,5,8,16
   661                        	.member	spinner,16,142,8,32
   662                        	.eos
   663                        	.stag	_fx_console_ctx,1144,63
   664                        	.member	lineBufferIndex,0,5,8,16
   665                        	.member	lineBuffer,16,110,8,0,128
   666                        	.member	isShifted,1040,14,8,8
   667                        	.member	userData,1048,129,8,32
   668                        	.member	screenBuffer,1080,129,8,32
   669                        	.member	Reserved1,1112,129,8,32
   670                        	.eos
   671                        	.stag	_token,64,64
   672                        	.member	type,0,5,8,16
   673                        	.member	depth,16,16,8,16
   674                        	.member	text,32,142,8,32
   675                        	.eos
   676                        	.stag	_command_args,64,65
   677                        	.member	proc,0,656,8,32
   678                        	.member	tokens,32,138,8,32,2
   679                        	.eos
   680                        	.line	208
   681                        	.file	"G:\devprojects\c256Foenix\fxos\FXOSWork
                    space\FXOS-Beta\src\fxos.h",23
   682                        	.file	"G:\devprojects\c256Foenix\fxos\FXOSWork
                    space\FXOS-Beta\src\fxstring.h",0
   683                        	.line	141
   684                        	.file	"G:\devprojects\c256Foenix\fxos\FXOSWork
                    space\FXOS-Beta\src\fxos.h",24
   685                        	.file	"G:\devprojects\c256Foenix\fxos\FXOSWork
                    space\FXOS-Beta\src\fxnode.h",0
   686                        	.line	118
   687                        	.file	"G:\devprojects\c256Foenix\fxos\FXOSWork
  Mon Sep 27 2021  9:39                                                Page 14


                    space\FXOS-Beta\src\fxos.h",25
   688                        	.file	"G:\devprojects\c256Foenix\fxos\FXOSWork
                    space\FXOS-Beta\src\ff/ff.h",0
   689                        	.file	"G:\devprojects\c256Foenix\fxos\FXOSWork
                    space\FXOS-Beta\src\ff/ffconf.h",0
   690                        	.line	298
   691                        	.file	"G:\devprojects\c256Foenix\fxos\FXOSWork
                    space\FXOS-Beta\src\ff/ff.h",29
   692                        	.file	"G:\devprojects\c256Foenix\fxos\FXOSWork
                    space\FXOS-Beta\src\fxtypes.h",0
   693                        	.line	1064
   694                        	.file	"G:\devprojects\c256Foenix\fxos\FXOSWork
                    space\FXOS-Beta\src\ff/ff.h",30
   695                        	.stag	fake66_,4504,66
   696                        	.member	fs_type,0,14,8,8
   697                        	.member	pdrv,8,14,8,8
   698                        	.member	n_fats,16,14,8,8
   699                        	.member	wflag,24,14,8,8
   700                        	.member	fsi_flag,32,14,8,8
   701                        	.member	id,40,5,8,16
   702                        	.member	n_rootdir,56,5,8,16
   703                        	.member	csize,72,5,8,16
   704                        	.member	lfnbuf,88,144,8,32
   705                        	.member	last_clst,120,18,8,32
   706                        	.member	free_clst,152,18,8,32
   707                        	.member	n_fatent,184,18,8,32
   708                        	.member	fsize,216,18,8,32
   709                        	.member	volbase,248,18,8,32
   710                        	.member	fatbase,280,18,8,32
   711                        	.member	dirbase,312,18,8,32
   712                        	.member	database,344,18,8,32
   713                        	.member	winsect,376,18,8,32
   714                        	.member	win,408,110,8,0,512
   715                        	.eos
   716                        	.stag	fake67_,128,67
   717                        	.member	fs,0,138,8,32,66
   718                        	.member	id,32,5,8,16
   719                        	.member	attr,48,14,8,8
   720                        	.member	stat,56,14,8,8
   721                        	.member	sclust,64,18,8,32
   722                        	.member	objsize,96,18,8,32
   723                        	.eos
   724                        	.stag	fake68_,4400,68
   725                        	.member	obj,0,10,8,128,67
   726                        	.member	flag,128,14,8,8
   727                        	.member	err,136,14,8,8
   728                        	.member	fptr,144,18,8,32
   729                        	.member	clust,176,18,8,32
   730                        	.member	sect,208,18,8,32
   731                        	.member	dir_sect,240,18,8,32
   732                        	.member	dir_ptr,272,142,8,32
   733                        	.member	buf,304,110,8,0,512
   734                        	.eos
   735                        	.stag	fake69_,416,69
   736                        	.member	obj,0,10,8,128,67
   737                        	.member	dptr,128,18,8,32
   738                        	.member	clust,160,18,8,32
   739                        	.member	sect,192,18,8,32
  Mon Sep 27 2021  9:39                                                Page 15


   740                        	.member	dir,224,142,8,32
   741                        	.member	fn,256,110,8,0,12
   742                        	.member	blk_ofs,352,18,8,32
   743                        	.member	pat,384,142,8,32
   744                        	.eos
   745                        	.stag	fake70_,2224,70
   746                        	.member	fsize,0,18,8,32
   747                        	.member	fdate,32,5,8,16
   748                        	.member	ftime,48,5,8,16
   749                        	.member	fattrib,64,14,8,8
   750                        	.member	altname,72,110,8,0,13
   751                        	.member	fname,176,110,8,0,256
   752                        	.eos
   753                        	.stag	fake71_,80,71
   754                        	.member	fmt,0,14,8,8
   755                        	.member	n_fat,8,14,8,8
   756                        	.member	align,16,16,8,16
   757                        	.member	n_root,32,16,8,16
   758                        	.member	au_size,48,18,8,32
   759                        	.eos
   760                        	.line	429
   761                        	.file	"G:\devprojects\c256Foenix\fxos\FXOSWork
                    space\FXOS-Beta\src\fxos.h",26
   762                        	.line	30
   763                        	.file	"G:\devprojects\c256Foenix\fxos\FXOSWork
                    space\FXOS-Beta\src\fxeventmanager.h",5
   764                        	.file	"G:\devprojects\c256Foenix\fxos\FXOSWork
                    space\FXOS-Beta\src\fxexec.h",0
   765                        	.file	"G:\devprojects\c256Foenix\fxos\FXOSWork
                    space\FXOS-Beta\src\fxtypes.h",0
   766                        	.line	1064
   767                        	.file	"G:\devprojects\c256Foenix\fxos\FXOSWork
                    space\FXOS-Beta\src\fxexec.h",5
   768                        	.stag	_fxos_executive_vtable,128,72
   769                        	.member	Init,0,8833,8,32
   770                        	.member	Configure,32,656,8,32
   771                        	.member	Query,64,656,8,32
   772                        	.member	Uninit,96,641,8,32
   773                        	.eos
   774                        	.line	86
   775                        	.file	"G:\devprojects\c256Foenix\fxos\FXOSWork
                    space\FXOS-Beta\src\fxeventmanager.h",6
   776                        	.file	"G:\devprojects\c256Foenix\fxos\FXOSWork
                    space\FXOS-Beta\src\fxnode.h",0
   777                        	.line	118
   778                        	.file	"G:\devprojects\c256Foenix\fxos\FXOSWork
                    space\FXOS-Beta\src\fxeventmanager.h",7
   779                        	.file	"G:\devprojects\c256Foenix\fxos\FXOSWork
                    space\FXOS-Beta\src\fxconsole.h",0
   780                        	.line	208
   781                        	.file	"G:\devprojects\c256Foenix\fxos\FXOSWork
                    space\FXOS-Beta\src\fxeventmanager.h",8
   782                        	.file	"G:\devprojects\c256Foenix\fxos\FXOSWork
                    space\FXOS-Beta\src\fxwindowmanager.h",0
   783                        	.file	"G:\devprojects\c256Foenix\fxos\FXOSWork
                    space\FXOS-Beta\src\fxos.h",0
   784                        	.line	30
   785                        	.file	"G:\devprojects\c256Foenix\fxos\FXOSWork
  Mon Sep 27 2021  9:39                                                Page 16


                    space\FXOS-Beta\src\fxwindowmanager.h",5
   786                        	.file	"G:\devprojects\c256Foenix\fxos\FXOSWork
                    space\FXOS-Beta\src\fxmemorymanager.h",0
   787                        	.file	"G:\devprojects\c256Foenix\fxos\FXOSWork
                    space\FXOS-Beta\src\fxos.h",0
   788                        	.line	30
   789                        	.file	"G:\devprojects\c256Foenix\fxos\FXOSWork
                    space\FXOS-Beta\src\fxmemorymanager.h",5
   790                        	.file	"G:\devprojects\c256Foenix\fxos\FXOSWork
                    space\FXOS-Beta\src\umm_malloc_cfg.h",0
   791                        	.file	"G:\devprojects\c256Foenix\fxos\FXOSWork
                    space\FXOS-Beta\src\fxos_build_parameters.h",0
   792                        	.line	35
   793                        	.file	"G:\devprojects\c256Foenix\fxos\FXOSWork
                    space\FXOS-Beta\src\umm_malloc_cfg.h",8
   794                        	.stag	UMM_HEAP_INFO_t,256,73
   795                        	.member	totalEntries,0,18,8,32
   796                        	.member	usedEntries,32,18,8,32
   797                        	.member	freeEntries,64,18,8,32
   798                        	.member	totalBlocks,96,18,8,32
   799                        	.member	usedBlocks,128,18,8,32
   800                        	.member	freeBlocks,160,18,8,32
   801                        	.member	maxFreeContiguousBlocks,192,18,8,32
   802                        	.member	blockSize,224,18,8,32
   803                        	.eos
   804                        	.line	199
   805                        	.file	"G:\devprojects\c256Foenix\fxos\FXOSWork
                    space\FXOS-Beta\src\fxmemorymanager.h",6
   806                        	.file	"G:\devprojects\c256Foenix\fxos\FXOSWork
                    space\FXOS-Beta\src\umm_malloc.h",0
   807                        	.file	"G:\devprojects\c256Foenix\fxos\FXOSWork
                    space\FXOS-Beta\src\fxtypes.h",0
   808                        	.line	1064
   809                        	.file	"G:\devprojects\c256Foenix\fxos\FXOSWork
                    space\FXOS-Beta\src\umm_malloc.h",11
   810                        	.line	24
   811                        	.file	"G:\devprojects\c256Foenix\fxos\FXOSWork
                    space\FXOS-Beta\src\fxmemorymanager.h",7
   812                        	.stag	_fx_memory_map,2072,74
   813                        	.member	availableMemory,0,18,8,32
   814                        	.member	valid_segments,32,110,8,0,255
   815                        	.eos
   816                        	.stag	_fx_ipc_port,144,75
   817                        	.member	id,0,18,8,32
   818                        	.member	type,32,14,8,8
   819                        	.member	name,40,138,8,32,52
   820                        	.member	time,72,18,8,32
   821                        	.member	queue,104,138,8,32,4
   822                        	.member	reserved_1,136,14,8,8
   823                        	.eos
   824                        	.stag	_k_mem_alloc_header,80,76
   825                        	.member	user,0,14,8,8
   826                        	.member	attr,8,14,8,8
   827                        	.member	size,16,18,8,32
   828                        	.member	virtual,48,129,8,32
   829                        	.eos
   830                        	.line	129
   831                        	.file	"G:\devprojects\c256Foenix\fxos\FXOSWork
  Mon Sep 27 2021  9:39                                                Page 17


                    space\FXOS-Beta\src\fxwindowmanager.h",6
   832                        	.file	"G:\devprojects\c256Foenix\fxos\FXOSWork
                    space\FXOS-Beta\src\fxeventmanager.h",0
   833                        	.line	572
   834                        	.file	"G:\devprojects\c256Foenix\fxos\FXOSWork
                    space\FXOS-Beta\src\fxwindowmanager.h",7
   835                        	.file	"G:\devprojects\c256Foenix\fxos\FXOSWork
                    space\FXOS-Beta\src\fxgfx.h",0
   836                        	.file	"G:\devprojects\c256Foenix\fxos\FXOSWork
                    space\FXOS-Beta\src\fxfont.h",0
   837                        	.file	"G:\devprojects\c256Foenix\fxos\FXOSWork
                    space\FXOS-Beta\src\fxtypes.h",0
   838                        	.line	1064
   839                        	.file	"G:\devprojects\c256Foenix\fxos\FXOSWork
                    space\FXOS-Beta\src\fxfont.h",6
   840                        	.line	74
   841                        	.file	"G:\devprojects\c256Foenix\fxos\FXOSWork
                    space\FXOS-Beta\src\fxgfx.h",5
   842                        	.stag	_click_detected,64,77
   843                        	.member	window,0,138,8,32,30
   844                        	.member	handler,32,641,8,32
   845                        	.eos
   846                        	.stag	_current_palette_map,400,78
   847                        	.member	CUR_DESKTOP,0,5,8,16
   848                        	.member	CUR_BACKGROUND,16,5,8,16
   849                        	.member	CUR_FONT,32,5,8,16
   850                        	.member	CUR_SELECTED_FONT,48,5,8,16
   851                        	.member	CUR_HIGHLIGHT_COLOR,64,5,8,16
   852                        	.member	CUR_WINDOWFRAME,80,5,8,16
   853                        	.member	CUR_WINDOWBORDER,96,5,8,16
   854                        	.member	CUR_WINDOWSHADOW,112,5,8,16
   855                        	.member	CUR_MENU,128,5,8,16
   856                        	.member	CUR_GADGET,144,5,8,16
   857                        	.member	CUR_COLOR,160,101,8,0,15
   858                        	.eos
   859                        	.line	370
   860                        	.file	"G:\devprojects\c256Foenix\fxos\FXOSWork
                    space\FXOS-Beta\src\fxwindowmanager.h",8
   861                        	.stag	_fxos_winman_vtable,160,79
   862                        	.member	Events,0,641,8,32
   863                        	.member	ConfigureWindowManager,32,656,8,32
   864                        	.member	ProcessWindowEvent,64,8833,8,32
   865                        	.member	QueryWindowManager,96,656,8,32
   866                        	.member	DoWndProcs,128,641,8,32
   867                        	.eos
   868                        	.stag	fake80_,64,80
   869                        	.member	type,0,16,8,16
   870                        	.member	size,16,16,8,16
   871                        	.member	desktopAction,32,129,8,32
   872                        	.eos
   873                        	.stag	fake81_,96,81
   874                        	.member	type,0,16,8,16
   875                        	.member	caption,16,138,8,32,52
   876                        	.member	buttonType,48,16,8,16
   877                        	.member	x,64,5,8,16
   878                        	.member	y,80,5,8,16
   879                        	.eos
   880                        	.stag	_childMessage_t,64,82
  Mon Sep 27 2021  9:39                                                Page 18


   881                        	.member	msgType,0,16,8,16
   882                        	.member	msgData,16,129,8,32
   883                        	.member	dataSize,48,16,8,16
   884                        	.eos
   885                        	.line	594
   886                        	.file	"G:\devprojects\c256Foenix\fxos\FXOSWork
                    space\FXOS-Beta\src\fxeventmanager.h",9
   887                        	.stag	_fx_main_loopvars,16,83
   888                        	.member	dummy,0,5,8,16
   889                        	.eos
   890                        	.stag	_fxMouseMessageData,64,84
   891                        	.member	button1,0,14,8,8
   892                        	.member	button2,8,14,8,8
   893                        	.member	button3,16,14,8,8
   894                        	.member	button4,24,14,8,8
   895                        	.member	x,32,16,8,16
   896                        	.member	y,48,16,8,16
   897                        	.eos
   898                        	.utag	marshalled_data,32,85
   899                        	.member	byteValue,0,14,11,8
   900                        	.member	verbValue,0,110,11,0,2
   901                        	.member	intValue,0,16,11,16
   902                        	.member	longValue,0,18,11,32
   903                        	.member	pointerValue,0,129,11,32
   904                        	.eos
   905                        	.stag	_fx_eventProcess,64,86
   906                        	.member	process,0,138,8,32,17
   907                        	.member	eventProc,32,641,8,32
   908                        	.eos
   909                        	.stag	_mouse_msg_state,184,87
   910                        	.member	lastEvent,0,18,8,32
   911                        	.member	buttonLeftDown,32,14,8,8
   912                        	.member	lastLeftDown,40,18,8,32
   913                        	.member	buttonRightDown,72,14,8,8
   914                        	.member	lastRightDown,80,18,8,32
   915                        	.member	buttonMiddleDown,112,14,8,8
   916                        	.member	lastMiddleDown,120,18,8,32
   917                        	.member	lastX,152,16,8,16
   918                        	.member	lastY,168,16,8,16
   919                        	.eos
   920                        	.stag	_fxos_eventmanager_vtable,192,88
   921                        	.member	EventQueue,0,138,8,32,4
   922                        	.member	Init,32,8833,8,32
   923                        	.member	Run,64,656,8,32
   924                        	.member	Configure,96,656,8,32
   925                        	.member	Query,128,656,8,32
   926                        	.member	Uninit,160,641,8,32
   927                        	.eos
   928                        	.stag	_k_clipboard_data,168,89
   929                        	.member	type,0,14,8,8
   930                        	.member	readable,8,110,8,0,16
   931                        	.member	data,136,129,8,32
   932                        	.eos
   933                        	.line	572
   934                        	.file	"G:\devprojects\c256Foenix\fxos\FXOSWork
                    space\FXOS-Beta\src\fxos_desktop_proc.h",16
   935                        	.file	"G:\devprojects\c256Foenix\fxos\FXOSWork
                    space\FXOS-Beta\src\fxgfx.h",0
  Mon Sep 27 2021  9:39                                                Page 19


   936                        	.line	370
   937                        	.file	"G:\devprojects\c256Foenix\fxos\FXOSWork
                    space\FXOS-Beta\src\fxos_desktop_proc.h",17
   938                        	.file	"G:\devprojects\c256Foenix\fxos\FXOSWork
                    space\FXOS-Beta\src\fxwindowmanager.h",0
   939                        	.line	594
   940                        	.file	"G:\devprojects\c256Foenix\fxos\FXOSWork
                    space\FXOS-Beta\src\fxos_desktop_proc.h",18
   941                        	.stag	fake90_,32,90
   942                        	.member	contents,0,138,8,32,52
   943                        	.eos
   944                        	.line	92
   945                        	.file	"G:\devprojects\c256Foenix\fxos\FXOSWork
                    space\FXOS-Beta\src\fxos_desktop_proc.c",2
   946                        ;#include "fxdos.h"
   947                        	.file	"G:\devprojects\c256Foenix\fxos\FXOSWork
                    space\FXOS-Beta\src\fxdos.h",0
   948                        	.file	"G:\devprojects\c256Foenix\fxos\FXOSWork
                    space\FXOS-Beta\src\fxtypes.h",0
   949                        	.line	1064
   950                        	.file	"G:\devprojects\c256Foenix\fxos\FXOSWork
                    space\FXOS-Beta\src\fxdos.h",5
   951                        	.file	"G:\devprojects\c256Foenix\fxos\FXOSWork
                    space\FXOS-Beta\src\ff/ff.h",0
   952                        	.line	429
   953                        	.file	"G:\devprojects\c256Foenix\fxos\FXOSWork
                    space\FXOS-Beta\src\fxdos.h",6
   954                        	.file	"G:\devprojects\c256Foenix\fxos\FXOSWork
                    space\FXOS-Beta\src\diskio.h",0
   955                        	.line	85
   956                        	.file	"G:\devprojects\c256Foenix\fxos\FXOSWork
                    space\FXOS-Beta\src\fxdos.h",7
   957                        	.stag	_fx_sd_direntry,256,91
   958                        	.member	filename,0,110,8,0,11
   959                        	.member	type,88,14,8,8
   960                        	.member	attrs,96,110,8,0,20
   961                        	.eos
   962                        	.stag	_fx_info,416,92
   963                        	.member	stgName,0,110,8,0,32
   964                        	.member	Reserved1,256,14,8,8
   965                        	.member	stgType,264,16,8,16
   966                        	.member	Reserved2,280,14,8,8
   967                        	.member	stgReserved,288,110,8,0,16
   968                        	.eos
   969                        	.stag	_fx_fileinfo,136,93
   970                        	.member	type,0,14,8,8
   971                        	.member	pFilename,8,142,8,32
   972                        	.member	lSize,40,18,8,32
   973                        	.member	lcreateDate,72,18,8,32
   974                        	.member	lchangeDate,104,18,8,32
   975                        	.eos
   976                        	.stag	_FX_FAT_DIR_INFO,256,94
   977                        	.member	DIR_Name,0,110,8,0,11
   978                        	.member	DIR_Attr,88,14,8,8
   979                        	.member	DIR_NTRes,96,14,8,8
   980                        	.member	DIR_CrtTimeTenth,104,14,8,8
   981                        	.member	DIR_CrtTime,112,16,8,16
   982                        	.member	DIR_CrtDate,128,16,8,16
  Mon Sep 27 2021  9:39                                                Page 20


   983                        	.member	DIR_LstAccDate,144,16,8,16
   984                        	.member	DIR_FstClusHI,160,16,8,16
   985                        	.member	DIR_WrtTime,176,16,8,16
   986                        	.member	DIR_WrtDate,192,16,8,16
   987                        	.member	DIR_FstClusLO,208,16,8,16
   988                        	.member	DIR_FileSize,224,18,8,32
   989                        	.eos
   990                        	.stag	fat_extBS_32,416,95
   991                        	.member	table_size_32,0,18,8,32
   992                        	.member	extended_flags,32,16,8,16
   993                        	.member	fat_version,48,16,8,16
   994                        	.member	root_cluster,64,18,8,32
   995                        	.member	fat_info,96,16,8,16
   996                        	.member	backup_BS_sector,112,16,8,16
   997                        	.member	reserved_0,128,110,8,0,12
   998                        	.member	drive_number,224,14,8,8
   999                        	.member	reserved_1,232,14,8,8
  1000                        	.member	boot_signature,240,14,8,8
  1001                        	.member	volume_id,248,16,8,16
  1002                        	.member	volume_label,264,110,8,0,11
  1003                        	.member	fat_type_label,352,110,8,0,8
  1004                        	.eos
  1005                        	.stag	fat_extBS_16,192,96
  1006                        	.member	bios_drive_num,0,14,8,8
  1007                        	.member	reserved1,8,14,8,8
  1008                        	.member	boot_signature,16,14,8,8
  1009                        	.member	volume_id,24,16,8,16
  1010                        	.member	volume_label,40,110,8,0,11
  1011                        	.member	fat_type_label,128,110,8,0,8
  1012                        	.eos
  1013                        	.stag	fat_BS,688,97
  1014                        	.member	bootjmp,0,110,8,0,3
  1015                        	.member	oem_name,24,110,8,0,8
  1016                        	.member	bytes_per_sector,88,16,8,16
  1017                        	.member	sectors_per_cluster,104,14,8,8
  1018                        	.member	reserved_sector_count,112,16,8,16
  1019                        	.member	table_count,128,14,8,8
  1020                        	.member	root_entry_count,136,16,8,16
  1021                        	.member	total_sectors_16,152,16,8,16
  1022                        	.member	media_type,168,14,8,8
  1023                        	.member	table_size_16,176,16,8,16
  1024                        	.member	sectors_per_track,192,16,8,16
  1025                        	.member	head_side_count,208,16,8,16
  1026                        	.member	hidden_sector_count,224,16,8,16
  1027                        	.member	total_sectors_32,240,16,8,16
  1028                        	.member	extended_section,256,110,8,0,54
  1029                        	.eos
  1030                        	.stag	__FATBootSector,928,98
  1031                        	.member	bootjmp,0,110,8,0,3
  1032                        	.member	oem_name,24,110,8,0,8
  1033                        	.member	bytes_per_sector,88,16,8,16
  1034                        	.member	sectors_per_cluster,104,14,8,8
  1035                        	.member	reserved_sector_count,112,16,8,16
  1036                        	.member	fat_table_count,128,14,8,8
  1037                        	.member	root_entry_count,136,16,8,16
  1038                        	.member	total_sectors_16,152,16,8,16
  1039                        	.member	media_type,168,14,8,8
  1040                        	.member	sectors_per_fat,176,16,8,16
  Mon Sep 27 2021  9:39                                                Page 21


  1041                        	.member	sectors_per_track,192,16,8,16
  1042                        	.member	head_side_count,208,16,8,16
  1043                        	.member	hidden_sector_count,224,18,8,32
  1044                        	.member	total_sectors_32,256,18,8,32
  1045                        	.member	drive_number,288,14,8,8
  1046                        	.member	reserved1,296,14,8,8
  1047                        	.member	boot_sig,304,14,8,8
  1048                        	.member	vol_id,312,18,8,32
  1049                        	.member	vol_name,344,110,8,0,11
  1050                        	.member	file_system_type,432,110,8,0,8
  1051                        	.member	extended_section,496,110,8,0,54
  1052                        	.eos
  1053                        	.stag	__PARTITIONTABLE,128,99
  1054                        	.member	first_byte,0,14,8,8
  1055                        	.member	start_chs,8,110,8,0,3
  1056                        	.member	partition_type,32,14,8,8
  1057                        	.member	end_chs,40,110,8,0,3
  1058                        	.member	start_sector,64,18,8,32
  1059                        	.member	length_sectors,96,18,8,32
  1060                        	.eos
  1061                        	.stag	fake100_,4096,100
  1062                        	.member	jmp,0,110,8,0,3
  1063                        	.member	oem,24,110,8,0,8
  1064                        	.member	sector_size,88,15,8,16
  1065                        	.member	sectors_per_cluster,104,14,8,8
  1066                        	.member	reserved_sectors,112,15,8,16
  1067                        	.member	number_ok_dos_fats,128,14,8,8
  1068                        	.member	root_dir_entries,136,15,8,16
  1069                        	.member	total_sectors_short,152,15,8,16
  1070                        	.member	media_descriptor,168,14,8,8
  1071                        	.member	fat_size_sectors,176,15,8,16
  1072                        	.member	sectors_per_track,192,15,8,16
  1073                        	.member	number_ok_dos_heads,208,15,8,16
  1074                        	.member	hidden_sectors,224,18,8,32
  1075                        	.member	total_sectors_long,256,18,8,32
  1076                        	.member	drive_number,288,14,8,8
  1077                        	.member	current_head,296,14,8,8
  1078                        	.member	boot_signature,304,14,8,8
  1079                        	.member	volume_id,312,18,8,32
  1080                        	.member	volume_label,344,110,8,0,11
  1081                        	.member	fs_type,432,110,8,0,8
  1082                        	.member	boot_code,496,110,8,0,448
  1083                        	.member	boot_sector_signature,4080,15,8,16
  1084                        	.eos
  1085                        	.stag	__FAT16ENTRY,256,101
  1086                        	.member	filename,0,110,8,0,8
  1087                        	.member	ext,64,110,8,0,3
  1088                        	.member	attributes,88,14,8,8
  1089                        	.member	reserved,96,110,8,0,10
  1090                        	.member	modify_time,176,16,8,16
  1091                        	.member	modify_date,192,16,8,16
  1092                        	.member	starting_cluster,208,16,8,16
  1093                        	.member	file_size,224,18,8,32
  1094                        	.eos
  1095                        	.stag	__FAT16ENTRYLONG,288,102
  1096                        	.member	filename,0,110,8,0,8
  1097                        	.member	ext,64,110,8,0,3
  1098                        	.member	attributes,88,14,8,8
  Mon Sep 27 2021  9:39                                                Page 22


  1099                        	.member	reserved,96,110,8,0,10
  1100                        	.member	modify_time,176,16,8,16
  1101                        	.member	modify_date,192,16,8,16
  1102                        	.member	starting_cluster,208,16,8,16
  1103                        	.member	file_size,224,18,8,32
  1104                        	.member	plongfileName,256,142,8,32
  1105                        	.eos
  1106                        	.stag	_LongFileName,256,103
  1107                        	.member	sequenceNo,0,14,8,8
  1108                        	.member	fileName_Part1,8,110,8,0,10
  1109                        	.member	fileattribute,88,14,8,8
  1110                        	.member	type,96,14,8,8
  1111                        	.member	checksum,104,14,8,8
  1112                        	.member	fileName_Part2,112,110,8,0,12
  1113                        	.member	fstclusLO,208,5,8,16
  1114                        	.member	fileName_Part3,224,110,8,0,4
  1115                        	.eos
  1116                        	.stag	_IDSECTOR,2048,104
  1117                        	.member	wGenConfig,0,16,8,16
  1118                        	.member	wNumCyls,16,16,8,16
  1119                        	.member	wReserved,32,16,8,16
  1120                        	.member	wNumHeads,48,16,8,16
  1121                        	.member	wBytesPerTrack,64,16,8,16
  1122                        	.member	wBytesPerSector,80,16,8,16
  1123                        	.member	wSectorsPerTrack,96,16,8,16
  1124                        	.member	wVendorUnique,112,112,8,0,3
  1125                        	.member	sSerialNumber,160,110,8,0,20
  1126                        	.member	wBufferType,320,16,8,16
  1127                        	.member	wBufferSize,336,16,8,16
  1128                        	.member	wECCSize,352,16,8,16
  1129                        	.member	sFirmwareRev,368,110,8,0,8
  1130                        	.member	sModelNumber,432,110,8,0,40
  1131                        	.member	wMoreVendorUnique,752,16,8,16
  1132                        	.member	wDoubleWordIO,768,16,8,16
  1133                        	.member	wCapabilities,784,16,8,16
  1134                        	.member	wReserved1,800,16,8,16
  1135                        	.member	wPIOTiming,816,16,8,16
  1136                        	.member	wDMATiming,832,16,8,16
  1137                        	.member	wBS,848,16,8,16
  1138                        	.member	wNumCurrentCyls,864,16,8,16
  1139                        	.member	wNumCurrentHeads,880,16,8,16
  1140                        	.member	wNumCurrentSectorsPerTrack,896,16,8,16
  1141                        	.member	ulCurrentSectorCapacity,912,18,8,32
  1142                        	.member	wMultSectorStuff,944,16,8,16
  1143                        	.member	ulTotalAddressableSectors,960,18,8,32
  1144                        	.member	wSingleWordDMA,992,16,8,16
  1145                        	.member	wMultiWordDMA,1008,16,8,16
  1146                        	.member	bReserved,1024,110,8,0,128
  1147                        	.eos
  1148                        	.stag	fake105_,16,105
  1149                        	.member	Reserved1,0,16,17,1
  1150                        	.member	Retired3,1,16,17,1
  1151                        	.member	ResponseIncomplete,2,16,17,1
  1152                        	.member	Retired2,3,16,17,3
  1153                        	.member	FixedDevice,6,16,17,1
  1154                        	.member	RemovableMedia,7,16,17,1
  1155                        	.member	Retired1,8,16,17,7
  1156                        	.member	DeviceType,15,16,17,1
  Mon Sep 27 2021  9:39                                                Page 23


  1157                        	.eos
  1158                        	.stag	fake106_,16,106
  1159                        	.member	FeatureSupported,0,16,17,1
  1160                        	.member	Reserved,1,16,17,15
  1161                        	.eos
  1162                        	.stag	fake107_,32,107
  1163                        	.member	CurrentLongPhysicalSectorAlignment,0,14,
                    17,2
  1164                        	.member	ReservedByte49,2,14,17,6
  1165                        	.member	DmaSupported,8,14,17,1
  1166                        	.member	LbaSupported,9,14,17,1
  1167                        	.member	IordyDisable,10,14,17,1
  1168                        	.member	IordySupported,11,14,17,1
  1169                        	.member	Reserved1,12,14,17,1
  1170                        	.member	StandybyTimerSupport,13,14,17,1
  1171                        	.member	Reserved2,14,14,17,2
  1172                        	.member	ReservedWord50,16,16,8,16
  1173                        	.eos
  1174                        	.stag	fake108_,16,108
  1175                        	.member	ZonedCapabilities,0,16,17,2
  1176                        	.member	NonVolatileWriteCache,2,16,17,1
  1177                        	.member	ExtendedUserAddressableSectorsSupported,
                    3,16,17,1
  1178                        	.member	DeviceEncryptsAllUserData,4,16,17,1
  1179                        	.member	ReadZeroAfterTrimSupported,5,16,17,1
  1180                        	.member	Optional28BitCommandsSupported,6,16,17,1
  1181                        	.member	IEEE1667,7,16,17,1
  1182                        	.member	DownloadMicrocodeDmaSupported,8,16,17,1
  1183                        	.member	SetMaxSetPasswordUnlockDmaSupported,9,16
                    ,17,1
  1184                        	.member	WriteBufferDmaSupported,10,16,17,1
  1185                        	.member	ReadBufferDmaSupported,11,16,17,1
  1186                        	.member	DeviceConfigIdentifySetDmaSupported,12,1
                    6,17,1
  1187                        	.member	LPSAERCSupported,13,16,17,1
  1188                        	.member	DeterministicReadAfterTrimSupported,14,1
                    6,17,1
  1189                        	.member	CFastSpecSupported,15,16,17,1
  1190                        	.eos
  1191                        	.stag	fake109_,32,109
  1192                        	.member	Reserved0,0,16,17,1
  1193                        	.member	SataGen1,1,16,17,1
  1194                        	.member	SataGen2,2,16,17,1
  1195                        	.member	SataGen3,3,16,17,1
  1196                        	.member	Reserved1,4,16,17,4
  1197                        	.member	NCQ,8,16,17,1
  1198                        	.member	HIPM,9,16,17,1
  1199                        	.member	PhyEvents,10,16,17,1
  1200                        	.member	NcqUnload,11,16,17,1
  1201                        	.member	NcqPriority,12,16,17,1
  1202                        	.member	HostAutoPS,13,16,17,1
  1203                        	.member	DeviceAutoPS,14,16,17,1
  1204                        	.member	ReadLogDMA,15,16,17,1
  1205                        	.member	Reserved2,16,16,17,1
  1206                        	.member	CurrentSpeed,17,16,17,3
  1207                        	.member	NcqStreaming,20,16,17,1
  1208                        	.member	NcqQueueMgmt,21,16,17,1
  1209                        	.member	NcqReceiveSend,22,16,17,1
  Mon Sep 27 2021  9:39                                                Page 24


  1210                        	.member	DEVSLPtoReducedPwrState,23,16,17,1
  1211                        	.member	Reserved3,24,16,17,8
  1212                        	.eos
  1213                        	.stag	fake110_,16,110
  1214                        	.member	Reserved0,0,16,17,1
  1215                        	.member	NonZeroOffsets,1,16,17,1
  1216                        	.member	DmaSetupAutoActivate,2,16,17,1
  1217                        	.member	DIPM,3,16,17,1
  1218                        	.member	InOrderData,4,16,17,1
  1219                        	.member	HardwareFeatureControl,5,16,17,1
  1220                        	.member	SoftwareSettingsPreservation,6,16,17,1
  1221                        	.member	NCQAutosense,7,16,17,1
  1222                        	.member	DEVSLP,8,16,17,1
  1223                        	.member	HybridInformation,9,16,17,1
  1224                        	.member	Reserved1,10,16,17,6
  1225                        	.eos
  1226                        	.stag	fake111_,16,111
  1227                        	.member	Reserved0,0,16,17,1
  1228                        	.member	NonZeroOffsets,1,16,17,1
  1229                        	.member	DmaSetupAutoActivate,2,16,17,1
  1230                        	.member	DIPM,3,16,17,1
  1231                        	.member	InOrderData,4,16,17,1
  1232                        	.member	HardwareFeatureControl,5,16,17,1
  1233                        	.member	SoftwareSettingsPreservation,6,16,17,1
  1234                        	.member	DeviceAutoPS,7,16,17,1
  1235                        	.member	DEVSLP,8,16,17,1
  1236                        	.member	HybridInformation,9,16,17,1
  1237                        	.member	Reserved1,10,16,17,6
  1238                        	.eos
  1239                        	.stag	fake112_,48,112
  1240                        	.member	SmartCommands,0,16,17,1
  1241                        	.member	SecurityMode,1,16,17,1
  1242                        	.member	RemovableMediaFeature,2,16,17,1
  1243                        	.member	PowerManagement,3,16,17,1
  1244                        	.member	Reserved1,4,16,17,1
  1245                        	.member	WriteCache,5,16,17,1
  1246                        	.member	LookAhead,6,16,17,1
  1247                        	.member	ReleaseInterrupt,7,16,17,1
  1248                        	.member	ServiceInterrupt,8,16,17,1
  1249                        	.member	DeviceReset,9,16,17,1
  1250                        	.member	HostProtectedArea,10,16,17,1
  1251                        	.member	Obsolete1,11,16,17,1
  1252                        	.member	WriteBuffer,12,16,17,1
  1253                        	.member	ReadBuffer,13,16,17,1
  1254                        	.member	Nop,14,16,17,1
  1255                        	.member	Obsolete2,15,16,17,1
  1256                        	.member	DownloadMicrocode,16,16,17,1
  1257                        	.member	DmaQueued,17,16,17,1
  1258                        	.member	Cfa,18,16,17,1
  1259                        	.member	AdvancedPm,19,16,17,1
  1260                        	.member	Msn,20,16,17,1
  1261                        	.member	PowerUpInStandby,21,16,17,1
  1262                        	.member	ManualPowerUp,22,16,17,1
  1263                        	.member	Reserved2,23,16,17,1
  1264                        	.member	SetMax,24,16,17,1
  1265                        	.member	Acoustics,25,16,17,1
  1266                        	.member	BigLba,26,16,17,1
  1267                        	.member	DeviceConfigOverlay,27,16,17,1
  Mon Sep 27 2021  9:39                                                Page 25


  1268                        	.member	FlushCache,28,16,17,1
  1269                        	.member	FlushCacheExt,29,16,17,1
  1270                        	.member	WordValid83,30,16,17,2
  1271                        	.member	SmartErrorLog,32,16,17,1
  1272                        	.member	SmartSelfTest,33,16,17,1
  1273                        	.member	MediaSerialNumber,34,16,17,1
  1274                        	.member	MediaCardPassThrough,35,16,17,1
  1275                        	.member	StreamingFeature,36,16,17,1
  1276                        	.member	GpLogging,37,16,17,1
  1277                        	.member	WriteFua,38,16,17,1
  1278                        	.member	WriteQueuedFua,39,16,17,1
  1279                        	.member	WWN64Bit,40,16,17,1
  1280                        	.member	URGReadStream,41,16,17,1
  1281                        	.member	URGWriteStream,42,16,17,1
  1282                        	.member	ReservedForTechReport,43,16,17,2
  1283                        	.member	IdleWithUnloadFeature,45,16,17,1
  1284                        	.member	WordValid,46,16,17,2
  1285                        	.eos
  1286                        	.stag	fake113_,48,113
  1287                        	.member	SmartCommands,0,16,17,1
  1288                        	.member	SecurityMode,1,16,17,1
  1289                        	.member	RemovableMediaFeature,2,16,17,1
  1290                        	.member	PowerManagement,3,16,17,1
  1291                        	.member	Reserved1,4,16,17,1
  1292                        	.member	WriteCache,5,16,17,1
  1293                        	.member	LookAhead,6,16,17,1
  1294                        	.member	ReleaseInterrupt,7,16,17,1
  1295                        	.member	ServiceInterrupt,8,16,17,1
  1296                        	.member	DeviceReset,9,16,17,1
  1297                        	.member	HostProtectedArea,10,16,17,1
  1298                        	.member	Obsolete1,11,16,17,1
  1299                        	.member	WriteBuffer,12,16,17,1
  1300                        	.member	ReadBuffer,13,16,17,1
  1301                        	.member	Nop,14,16,17,1
  1302                        	.member	Obsolete2,15,16,17,1
  1303                        	.member	DownloadMicrocode,16,16,17,1
  1304                        	.member	DmaQueued,17,16,17,1
  1305                        	.member	Cfa,18,16,17,1
  1306                        	.member	AdvancedPm,19,16,17,1
  1307                        	.member	Msn,20,16,17,1
  1308                        	.member	PowerUpInStandby,21,16,17,1
  1309                        	.member	ManualPowerUp,22,16,17,1
  1310                        	.member	Reserved2,23,16,17,1
  1311                        	.member	SetMax,24,16,17,1
  1312                        	.member	Acoustics,25,16,17,1
  1313                        	.member	BigLba,26,16,17,1
  1314                        	.member	DeviceConfigOverlay,27,16,17,1
  1315                        	.member	FlushCache,28,16,17,1
  1316                        	.member	FlushCacheExt,29,16,17,1
  1317                        	.member	Resrved3,30,16,17,1
  1318                        	.member	Words119_120Valid,31,16,17,1
  1319                        	.member	SmartErrorLog,32,16,17,1
  1320                        	.member	SmartSelfTest,33,16,17,1
  1321                        	.member	MediaSerialNumber,34,16,17,1
  1322                        	.member	MediaCardPassThrough,35,16,17,1
  1323                        	.member	StreamingFeature,36,16,17,1
  1324                        	.member	GpLogging,37,16,17,1
  1325                        	.member	WriteFua,38,16,17,1
  Mon Sep 27 2021  9:39                                                Page 26


  1326                        	.member	WriteQueuedFua,39,16,17,1
  1327                        	.member	WWN64Bit,40,16,17,1
  1328                        	.member	URGReadStream,41,16,17,1
  1329                        	.member	URGWriteStream,42,16,17,1
  1330                        	.member	ReservedForTechReport,43,16,17,2
  1331                        	.member	IdleWithUnloadFeature,45,16,17,1
  1332                        	.member	Reserved4,46,16,17,2
  1333                        	.eos
  1334                        	.stag	fake114_,16,114
  1335                        	.member	TimeRequired,0,16,17,15
  1336                        	.member	ExtendedTimeReported,15,16,17,1
  1337                        	.eos
  1338                        	.stag	fake115_,16,115
  1339                        	.member	TimeRequired,0,16,17,15
  1340                        	.member	ExtendedTimeReported,15,16,17,1
  1341                        	.eos
  1342                        	.stag	fake116_,16,116
  1343                        	.member	LogicalSectorsPerPhysicalSector,0,16,17,
                    4
  1344                        	.member	Reserved0,4,16,17,8
  1345                        	.member	LogicalSectorLongerThan256Words,12,16,17
                    ,1
  1346                        	.member	MultipleLogicalSectorsPerPhysicalSector,
                    13,16,17,1
  1347                        	.member	Reserved1,14,16,17,2
  1348                        	.eos
  1349                        	.stag	fake117_,16,117
  1350                        	.member	ReservedForDrqTechnicalReport,0,16,17,1
  1351                        	.member	WriteReadVerify,1,16,17,1
  1352                        	.member	WriteUncorrectableExt,2,16,17,1
  1353                        	.member	ReadWriteLogDmaExt,3,16,17,1
  1354                        	.member	DownloadMicrocodeMode3,4,16,17,1
  1355                        	.member	FreefallControl,5,16,17,1
  1356                        	.member	SenseDataReporting,6,16,17,1
  1357                        	.member	ExtendedPowerConditions,7,16,17,1
  1358                        	.member	Reserved0,8,16,17,6
  1359                        	.member	WordValid,14,16,17,2
  1360                        	.eos
  1361                        	.stag	fake118_,16,118
  1362                        	.member	ReservedForDrqTechnicalReport,0,16,17,1
  1363                        	.member	WriteReadVerify,1,16,17,1
  1364                        	.member	WriteUncorrectableExt,2,16,17,1
  1365                        	.member	ReadWriteLogDmaExt,3,16,17,1
  1366                        	.member	DownloadMicrocodeMode3,4,16,17,1
  1367                        	.member	FreefallControl,5,16,17,1
  1368                        	.member	SenseDataReporting,6,16,17,1
  1369                        	.member	ExtendedPowerConditions,7,16,17,1
  1370                        	.member	Reserved0,8,16,17,6
  1371                        	.member	Reserved1,14,16,17,2
  1372                        	.eos
  1373                        	.stag	fake119_,16,119
  1374                        	.member	SecuritySupported,0,16,17,1
  1375                        	.member	SecurityEnabled,1,16,17,1
  1376                        	.member	SecurityLocked,2,16,17,1
  1377                        	.member	SecurityFrozen,3,16,17,1
  1378                        	.member	SecurityCountExpired,4,16,17,1
  1379                        	.member	EnhancedSecurityEraseSupported,5,16,17,1
  1380                        	.member	Reserved0,6,16,17,2
  Mon Sep 27 2021  9:39                                                Page 27


  1381                        	.member	SecurityLevel,8,16,17,1
  1382                        	.member	Reserved1,9,16,17,7
  1383                        	.eos
  1384                        	.stag	fake120_,16,120
  1385                        	.member	MaximumCurrentInMA,0,16,17,12
  1386                        	.member	CfaPowerMode1Disabled,12,16,17,1
  1387                        	.member	CfaPowerMode1Required,13,16,17,1
  1388                        	.member	Reserved0,14,16,17,1
  1389                        	.member	Word160Supported,15,16,17,1
  1390                        	.eos
  1391                        	.stag	fake121_,16,121
  1392                        	.member	SupportsTrim,0,16,17,1
  1393                        	.member	Reserved0,1,16,17,15
  1394                        	.eos
  1395                        	.stag	fake122_,16,122
  1396                        	.member	Supported,0,16,17,1
  1397                        	.member	Reserved0,1,16,17,1
  1398                        	.member	WriteSameSuported,2,16,17,1
  1399                        	.member	ErrorRecoveryControlSupported,3,16,17,1
  1400                        	.member	FeatureControlSuported,4,16,17,1
  1401                        	.member	DataTablesSuported,5,16,17,1
  1402                        	.member	Reserved1,6,16,17,6
  1403                        	.member	VendorSpecific,12,16,17,4
  1404                        	.eos
  1405                        	.stag	fake123_,16,123
  1406                        	.member	AlignmentOfLogicalWithinPhysical,0,16,17
                    ,14
  1407                        	.member	Word209Supported,14,16,17,1
  1408                        	.member	Reserved0,15,16,17,1
  1409                        	.eos
  1410                        	.stag	fake124_,16,124
  1411                        	.member	NVCachePowerModeEnabled,0,16,17,1
  1412                        	.member	Reserved0,1,16,17,3
  1413                        	.member	NVCacheFeatureSetEnabled,4,16,17,1
  1414                        	.member	Reserved1,5,16,17,3
  1415                        	.member	NVCachePowerModeVersion,8,16,17,4
  1416                        	.member	NVCacheFeatureSetVersion,12,16,17,4
  1417                        	.eos
  1418                        	.stag	fake125_,16,125
  1419                        	.member	NVCacheEstimatedTimeToSpinUpInSeconds,0,
                    14,8,8
  1420                        	.member	Reserved,8,14,8,8
  1421                        	.eos
  1422                        	.stag	fake126_,16,126
  1423                        	.member	MajorVersion,0,16,17,12
  1424                        	.member	TransportType,12,16,17,4
  1425                        	.eos
  1426                        	.stag	_IDENTIFY_DEVICE_DATA,4096,127
  1427                        	.member	GeneralConfiguration,0,10,8,16,105
  1428                        	.member	NumCylinders,16,16,8,16
  1429                        	.member	SpecificConfiguration,32,16,8,16
  1430                        	.member	NumHeads,48,16,8,16
  1431                        	.member	Retired1Bytes,64,110,8,0,4
  1432                        	.member	NumSectorsPerTrack,96,16,8,16
  1433                        	.member	VendorUnique1Bytes,112,110,8,0,6
  1434                        	.member	SerialNumber,160,110,8,0,20
  1435                        	.member	Retired2,320,112,8,0,2
  1436                        	.member	Obsolete1,352,16,8,16
  Mon Sep 27 2021  9:39                                                Page 28


  1437                        	.member	FirmwareRevision,368,110,8,0,8
  1438                        	.member	ModelNumber,432,110,8,0,40
  1439                        	.member	MaximumBlockTransfer,752,14,8,8
  1440                        	.member	VendorUnique2,760,14,8,8
  1441                        	.member	TrustedComputing,768,10,8,16,106
  1442                        	.member	Capabilities,784,10,8,32,107
  1443                        	.member	ObsoleteWords51,816,112,8,0,2
  1444                        	.member	TranslationFieldsValid,848,16,17,3
  1445                        	.member	Reserved3,851,16,17,5
  1446                        	.member	FreeFallControlSensitivity,856,16,17,8
  1447                        	.member	NumberOfCurrentCylinders,864,16,8,16
  1448                        	.member	NumberOfCurrentHeads,880,16,8,16
  1449                        	.member	CurrentSectorsPerTrack,896,16,8,16
  1450                        	.member	CurrentSectorCapacity,912,18,8,32
  1451                        	.member	CurrentMultiSectorSetting,944,14,8,8
  1452                        	.member	MultiSectorSettingValid,952,14,17,1
  1453                        	.member	ReservedByte59,953,14,17,3
  1454                        	.member	SanitizeFeatureSupported,956,14,17,1
  1455                        	.member	CryptoScrambleExtCommandSupported,957,14
                    ,17,1
  1456                        	.member	OverwriteExtCommandSupported,958,14,17,1
  1457                        	.member	BlockEraseExtCommandSupported,959,14,17,
                    1
  1458                        	.member	UserAddressableSectors,960,18,8,32
  1459                        	.member	ObsoleteWord62,992,16,8,16
  1460                        	.member	MultiWordDMASupport,1008,16,17,8
  1461                        	.member	MultiWordDMAActive,1016,16,17,8
  1462                        	.member	AdvancedPIOModes,1024,16,17,8
  1463                        	.member	ReservedByte64,1032,16,17,8
  1464                        	.member	MinimumMWXferCycleTime,1040,16,8,16
  1465                        	.member	RecommendedMWXferCycleTime,1056,16,8,16
  1466                        	.member	MinimumPIOCycleTime,1072,16,8,16
  1467                        	.member	MinimumPIOCycleTimeIORDY,1088,16,8,16
  1468                        	.member	AdditionalSupported,1104,10,8,16,108
  1469                        	.member	ReservedWords70,1120,112,8,0,5
  1470                        	.member	QueueDepth,1200,16,17,5
  1471                        	.member	ReservedWord75,1205,16,17,11
  1472                        	.member	SerialAtaCapabilities,1216,10,8,32,109
  1473                        	.member	SerialAtaFeaturesSupported,1248,10,8,16,
                    110
  1474                        	.member	SerialAtaFeaturesEnabled,1264,10,8,16,11
                    1
  1475                        	.member	MajorRevision,1280,16,8,16
  1476                        	.member	MinorRevision,1296,16,8,16
  1477                        	.member	CommandSetSupport,1312,10,8,48,112
  1478                        	.member	CommandSetActive,1360,10,8,48,113
  1479                        	.member	UltraDMASupport,1408,16,17,8
  1480                        	.member	UltraDMAActive,1416,16,17,8
  1481                        	.member	NormalSecurityEraseUnit,1424,10,8,16,114
  1482                        	.member	EnhancedSecurityEraseUnit,1440,10,8,16,1
                    15
  1483                        	.member	CurrentAPMLevel,1456,16,17,8
  1484                        	.member	ReservedWord91,1464,16,17,8
  1485                        	.member	MasterPasswordID,1472,16,8,16
  1486                        	.member	HardwareResetResult,1488,16,8,16
  1487                        	.member	CurrentAcousticValue,1504,16,17,8
  1488                        	.member	RecommendedAcousticValue,1512,16,17,8
  1489                        	.member	StreamMinRequestSize,1520,16,8,16
  Mon Sep 27 2021  9:39                                                Page 29


  1490                        	.member	StreamingTransferTimeDMA,1536,16,8,16
  1491                        	.member	StreamingAccessLatencyDMAPIO,1552,16,8,1
                    6
  1492                        	.member	StreamingPerfGranularity,1568,18,8,32
  1493                        	.member	Max48BitLBA,1600,114,8,0,2
  1494                        	.member	StreamingTransferTime,1664,16,8,16
  1495                        	.member	DsmCap,1680,16,8,16
  1496                        	.member	PhysicalLogicalSectorSize,1696,10,8,16,1
                    16
  1497                        	.member	InterSeekDelay,1712,16,8,16
  1498                        	.member	WorldWideName,1728,112,8,0,4
  1499                        	.member	ReservedForWorldWideName128,1792,112,8,0
                    ,4
  1500                        	.member	ReservedForTlcTechnicalReport,1856,16,8,
                    16
  1501                        	.member	WordsPerLogicalSector,1872,112,8,0,2
  1502                        	.member	CommandSetSupportExt,1904,10,8,16,117
  1503                        	.member	CommandSetActiveExt,1920,10,8,16,118
  1504                        	.member	ReservedForExpandedSupportandActive,1936
                    ,112,8,0,6
  1505                        	.member	MsnSupport,2032,16,17,2
  1506                        	.member	ReservedWord127,2034,16,17,14
  1507                        	.member	SecurityStatus,2048,10,8,16,119
  1508                        	.member	ReservedWord129,2064,112,8,0,31
  1509                        	.member	CfaPowerMode1,2560,10,8,16,120
  1510                        	.member	ReservedForCfaWord161,2576,112,8,0,7
  1511                        	.member	NominalFormFactor,2688,16,17,4
  1512                        	.member	ReservedWord168,2692,16,17,12
  1513                        	.member	DataSetManagementFeature,2704,10,8,16,12
                    1
  1514                        	.member	AdditionalProductID,2720,112,8,0,4
  1515                        	.member	ReservedForCfaWord174,2784,112,8,0,2
  1516                        	.member	CurrentMediaSerialNumber,2816,112,8,0,30
  1517                        	.member	SCTCommandTransport,3296,10,8,16,122
  1518                        	.member	ReservedWord207,3312,112,8,0,2
  1519                        	.member	BlockAlignment,3344,10,8,16,123
  1520                        	.member	WriteReadVerifySectorCountMode3Only,3360
                    ,112,8,0,2
  1521                        	.member	WriteReadVerifySectorCountMode2Only,3392
                    ,112,8,0,2
  1522                        	.member	NVCacheCapabilities,3424,10,8,16,124
  1523                        	.member	NVCacheSizeLSW,3440,16,8,16
  1524                        	.member	NVCacheSizeMSW,3456,16,8,16
  1525                        	.member	NominalMediaRotationRate,3472,16,8,16
  1526                        	.member	ReservedWord218,3488,16,8,16
  1527                        	.member	NVCacheOptions,3504,10,8,16,125
  1528                        	.member	WriteReadVerifySectorCountMode,3520,16,1
                    7,8
  1529                        	.member	ReservedWord220,3528,16,17,8
  1530                        	.member	ReservedWord221,3536,16,8,16
  1531                        	.member	TransportMajorVersion,3552,10,8,16,126
  1532                        	.member	TransportMinorVersion,3568,16,8,16
  1533                        	.member	ReservedWord224,3584,112,8,0,6
  1534                        	.member	ExtendedNumberOfUserAddressableSectors,3
                    680,114,8,0,2
  1535                        	.member	MinBlocksPerDownloadMicrocodeMode03,3744
                    ,16,8,16
  1536                        	.member	MaxBlocksPerDownloadMicrocodeMode03,3760
  Mon Sep 27 2021  9:39                                                Page 30


                    ,16,8,16
  1537                        	.member	ReservedWord236,3776,112,8,0,19
  1538                        	.member	Signature,4080,16,17,8
  1539                        	.member	CheckSum,4088,16,17,8
  1540                        	.eos
  1541                        	.stag	_FXDosDevice,5744,128
  1542                        	.member	type,0,14,8,8
  1543                        	.member	initialized,8,14,8,8
  1544                        	.member	devdata,16,129,8,32
  1545                        	.member	devstatus,48,14,8,8
  1546                        	.member	bootSector,56,10,8,928,98
  1547                        	.member	partitionTable,984,10,8,128,99
  1548                        	.member	fileAllocationTable,1112,110,8,0,512
  1549                        	.member	bsOffset,5208,18,8,32
  1550                        	.member	rootDirSectors,5240,18,8,32
  1551                        	.member	root_entry_count,5272,5,8,16
  1552                        	.member	rootEntriesPerPage,5288,5,8,16
  1553                        	.member	sectors_per_cluster,5304,5,8,16
  1554                        	.member	firstDataSector,5320,18,8,32
  1555                        	.member	fatTableOffset,5352,18,8,32
  1556                        	.member	volume_name,5384,110,8,0,12
  1557                        	.member	root_volume_name,5480,110,8,0,12
  1558                        	.member	errorCode,5576,14,8,8
  1559                        	.member	pfInit,5584,641,8,32
  1560                        	.member	pfReset,5616,641,8,32
  1561                        	.member	pfUninit,5648,641,8,32
  1562                        	.member	pfReader,5680,654,8,32
  1563                        	.member	pfWriter,5712,654,8,32
  1564                        	.eos
  1565                        	.utag	item,32,129
  1566                        	.member	dir,0,138,11,32,69
  1567                        	.member	file,0,138,11,32,68
  1568                        	.member	fileInfo,0,138,11,32,70
  1569                        	.eos
  1570                        	.stag	_dos_handle,80,130
  1571                        	.member	fs,0,138,8,32,66
  1572                        	.member	fr,32,5,8,16
  1573                        	.member	path,48,142,8,32
  1574                        	.eos
  1575                        	.stag	fx_file,112,131
  1576                        	.member	fs,0,138,8,32,66
  1577                        	.member	fileInfo,32,138,8,32,70
  1578                        	.member	f,64,138,8,32,68
  1579                        	.member	fr,96,5,8,16
  1580                        	.eos
  1581                        	.line	812
  1582                        	.file	"G:\devprojects\c256Foenix\fxos\FXOSWork
                    space\FXOS-Beta\src\fxos_desktop_proc.c",3
  1583                        ;#include "fxnode.h"
  1584                        	.file	"G:\devprojects\c256Foenix\fxos\FXOSWork
                    space\FXOS-Beta\src\fxnode.h",0
  1585                        	.line	118
  1586                        	.file	"G:\devprojects\c256Foenix\fxos\FXOSWork
                    space\FXOS-Beta\src\fxos_desktop_proc.c",4
  1587                        ;#include "fxmemorymanager.h"
  1588                        	.file	"G:\devprojects\c256Foenix\fxos\FXOSWork
                    space\FXOS-Beta\src\fxmemorymanager.h",0
  1589                        	.line	129
  Mon Sep 27 2021  9:39                                                Page 31


  1590                        	.file	"G:\devprojects\c256Foenix\fxos\FXOSWork
                    space\FXOS-Beta\src\fxos_desktop_proc.c",5
  1591                        ;#include "fxgfx.h"
  1592                        	.file	"G:\devprojects\c256Foenix\fxos\FXOSWork
                    space\FXOS-Beta\src\fxgfx.h",0
  1593                        	.line	370
  1594                        	.file	"G:\devprojects\c256Foenix\fxos\FXOSWork
                    space\FXOS-Beta\src\fxos_desktop_proc.c",6
  1595                        ;#include "fxmenumanager.h"
  1596                        	.file	"G:\devprojects\c256Foenix\fxos\FXOSWork
                    space\FXOS-Beta\src\fxmenumanager.h",0
  1597                        	.line	26
  1598                        	.file	"G:\devprojects\c256Foenix\fxos\FXOSWork
                    space\FXOS-Beta\src\fxos_desktop_proc.c",7
  1599                        ;
  1600                        ;
  1601                        ;#define MENU_STATE_MOUSE (0)
  1602                        ;#define MENU_STATE_KBD   (1)
  1603                        ;
  1604                        ;typedef struct  _k_dt_menu_state
  1605                        ;{
  1606                        ;	BOOL  	visible;
  1607                        ;	BYTE    openType;
  1608                        ;	HMENU	hMainMenu;
  1609                        ;	HMENU   hMenu;
  1610                        ;	PWINDOW pMenu;
  1611                        ;	INT 	selectedIndex;
  1612                        ;}
  1613                        	.stag	_k_dt_menu_state,128,132
  1614                        	.member	visible,0,14,8,8
  1615                        	.member	openType,8,14,8,8
  1616                        	.member	hMainMenu,16,129,8,32
  1617                        	.member	hMenu,48,129,8,32
  1618                        	.member	pMenu,80,138,8,32,30
  1619                        	.member	selectedIndex,112,5,8,16
  1620                        	.eos
  1621                        ;DESKTOP_MENU_STATE;
  1622                        ;typedef DESKTOP_MENU_STATE FAR *PDESKTOP_MENU_STA
                    TE;
  1623                        ;static DESKTOP_MENU_STATE _k_desktopMenuState = {
                    0,0,NULL,NULL,NULL,-1};
  1624                        	data
  1625                        ~~_k_desktopMenuState:
  1626 00:0000: 00 00        	db	$0,$0
  1627 00:0002: 00 00 00 00  	dl	$0,$0,$0
       00:0006: 00 00 00 00 
       00:000A: 00 00 00 00 
  1628 00:000E: FF FF        	dw	$FFFF
  1629 00:0010:              	ends
  1630                        ;
  1631                        ;
  1632                        ;#define DEBUG_MOUSE_ENABLE 		0
  1633                        ;#define DEBUG_MOUSE_CX 	   		1
  1634                        ;#define DEBUG_MOUSE_CY 	   		2
  1635                        ;#define DEBUG_MOUSE_BOXING 		3
  1636                        ;#define DEBUG_MOUSE_BOX_TOP 	4
  1637                        ;#define DEBUG_MOUSE_BOX_LEFT 	5
  1638                        ;#define DEBUG_MOUSE_BOX_ENABLE 	6
  Mon Sep 27 2021  9:39                                                Page 32


  1639                        ;
  1640                        ;#pragma section CODE=DTOP,offset $09:0000
  1641                        DTOP	section	offset $09:0000
  1642 09:0000:              	ends
  1643                        ;
  1644                        ;static UINT cIndexDebugWindow = 0;
  1645                        	data
  1646                        ~~cIndexDebugWindow:
  1647 00:0010: 00 00        	dw	$0
  1648 00:0012:              	ends
  1649                        ;
  1650                        ;
  1651                        ;//BOOL PaletteWindowProc(PFXOSMESSAGE pMsg);
  1652                        ;BOOL AboutPaletteWindowProc(PFXOSMESSAGE pMsg);
  1653                        ;
  1654                        ;
  1655                        ;VOID testRelabel(VOID)
  1656                        ;{
  1657                        	.line	44
  1658                        	.line	45
  1659                        	DTOP
  1660                        	xdef	~~testRelabel
  1661                        	func
  1662                        	.function	45
  1663                        ~~testRelabel:
  1664                        	longa	on
  1665                        	longi	on
  1666 09:0000: 3B           	tsc
  1667 09:0001: 38           	sec
  1668 09:0002: E9 0E 00     	sbc	#L2
  1669 09:0005: 1B           	tcs
  1670 09:0006: 0B           	phd
  1671 09:0007: 5B           	tcd
  1672                        	.block	45
  1673                        ;	FATFS *fs = NULL;
  1674                        ;	FRESULT fr = 0;
  1675                        ;	DWORD serial;
  1676                        ;	LPSTR name;
  1677                        ;	k_debug_string("testRelabel\r\n");
  1678             00000000   fs_1	set	0
  1679             00000004   fr_1	set	4
  1680             00000006   serial_1	set	6
  1681             0000000A   name_1	set	10
  1682                        	.sym	fs,0,138,1,32,66
  1683                        	.sym	fr,4,5,1,16
  1684                        	.sym	serial,6,18,1,32
  1685                        	.sym	name,10,142,1,32
  1686 09:0008: 64 01        	stz	<L3+fs_1
  1687 09:000A: 64 03        	stz	<L3+fs_1+2
  1688 09:000C: 64 05        	stz	<L3+fr_1
  1689                        	.line	50
  1690 09:000E: F4 xx xx     	pea	#^L1
  1691 09:0011: F4 xx xx     	pea	#<L1
  1692 09:0014: 22 xx xx xx  	jsl	~~k_debug_string
  1693                        ;
  1694                        ;	fs = k_mem_allocate_heap(sizeof(FATFS));
  1695                        	.line	52
  1696 09:0018: F4 00 00     	pea	#^$233
  Mon Sep 27 2021  9:39                                                Page 33


  1697 09:001B: F4 33 02     	pea	#<$233
  1698 09:001E: 22 xx xx xx  	jsl	~~k_mem_allocate_heap
  1699 09:0022: 85 01        	sta	<L3+fs_1
  1700 09:0024: 86 03        	stx	<L3+fs_1+2
  1701                        ;	name = k_mem_allocate_heap(256);
  1702                        	.line	53
  1703 09:0026: F4 00 00     	pea	#^$100
  1704 09:0029: F4 00 01     	pea	#<$100
  1705 09:002C: 22 xx xx xx  	jsl	~~k_mem_allocate_heap
  1706 09:0030: 85 0B        	sta	<L3+name_1
  1707 09:0032: 86 0D        	stx	<L3+name_1+2
  1708                        ;
  1709                        ;	fr = f_mount(NULL, "SD:",1);
  1710                        	.line	55
  1711 09:0034: F4 01 00     	pea	#<$1
  1712 09:0037: F4 xx xx     	pea	#^L1+14
  1713 09:003A: F4 xx xx     	pea	#<L1+14
  1714 09:003D: F4 00 00     	pea	#^$0
  1715 09:0040: F4 00 00     	pea	#<$0
  1716 09:0043: 22 xx xx xx  	jsl	~~f_mount
  1717 09:0047: 85 05        	sta	<L3+fr_1
  1718                        ;	fr = f_mount(fs, "SD:",1);
  1719                        	.line	56
  1720 09:0049: F4 01 00     	pea	#<$1
  1721 09:004C: F4 xx xx     	pea	#^L1+18
  1722 09:004F: F4 xx xx     	pea	#<L1+18
  1723 09:0052: D4 03        	pei	<L3+fs_1+2
  1724 09:0054: D4 01        	pei	<L3+fs_1
  1725 09:0056: 22 xx xx xx  	jsl	~~f_mount
  1726 09:005A: 85 05        	sta	<L3+fr_1
  1727                        ;	k_debug_integer("testRelabel::f_mount:",fr);
  1728                        	.line	57
  1729 09:005C: D4 05        	pei	<L3+fr_1
  1730 09:005E: F4 xx xx     	pea	#^L1+22
  1731 09:0061: F4 xx xx     	pea	#<L1+22
  1732 09:0064: 22 xx xx xx  	jsl	~~k_debug_integer
  1733                        ;
  1734                        ;	fr = f_getlabel("SD:",name,&serial);
  1735                        	.line	59
  1736 09:0068: F4 00 00     	pea	#0
  1737 09:006B: 18           	clc
  1738 09:006C: 7B           	tdc
  1739 09:006D: 69 07 00     	adc	#<L3+serial_1
  1740 09:0070: 48           	pha
  1741 09:0071: D4 0D        	pei	<L3+name_1+2
  1742 09:0073: D4 0B        	pei	<L3+name_1
  1743 09:0075: F4 xx xx     	pea	#^L1+44
  1744 09:0078: F4 xx xx     	pea	#<L1+44
  1745 09:007B: 22 xx xx xx  	jsl	~~f_getlabel
  1746 09:007F: 85 05        	sta	<L3+fr_1
  1747                        ;
  1748                        ;	k_debug_integer("testRelabel::f_getlabel:",fr);
  1749                        	.line	61
  1750 09:0081: D4 05        	pei	<L3+fr_1
  1751 09:0083: F4 xx xx     	pea	#^L1+48
  1752 09:0086: F4 xx xx     	pea	#<L1+48
  1753 09:0089: 22 xx xx xx  	jsl	~~k_debug_integer
  1754                        ;
  Mon Sep 27 2021  9:39                                                Page 34


  1755                        ;	if(fr == FR_OK)
  1756                        	.line	63
  1757                        ;	{
  1758 09:008D: A5 05        	lda	<L3+fr_1
  1759 09:008F: F0 03        	beq	L5
  1760 09:0091: 82 1C 00     	brl	L10001
  1761                        L5:
  1762                        	.line	64
  1763                        ;		k_debug_strings("testRelabel::name:",nam
                    e);
  1764                        	.line	65
  1765 09:0094: D4 0D        	pei	<L3+name_1+2
  1766 09:0096: D4 0B        	pei	<L3+name_1
  1767 09:0098: F4 xx xx     	pea	#^L1+73
  1768 09:009B: F4 xx xx     	pea	#<L1+73
  1769 09:009E: 22 xx xx xx  	jsl	~~k_debug_strings
  1770                        ;		k_debug_long("testRelabel::serial:",seri
                    al);
  1771                        	.line	66
  1772 09:00A2: D4 09        	pei	<L3+serial_1+2
  1773 09:00A4: D4 07        	pei	<L3+serial_1
  1774 09:00A6: F4 xx xx     	pea	#^L1+92
  1775 09:00A9: F4 xx xx     	pea	#<L1+92
  1776 09:00AC: 22 xx xx xx  	jsl	~~k_debug_long
  1777                        ;	}
  1778                        	.line	67
  1779                        ;
  1780                        ;	k_mem_deallocate_heap(name);
  1781                        L10001:
  1782                        	.line	69
  1783 09:00B0: D4 0D        	pei	<L3+name_1+2
  1784 09:00B2: D4 0B        	pei	<L3+name_1
  1785 09:00B4: 22 xx xx xx  	jsl	~~k_mem_deallocate_heap
  1786                        ;	k_mem_deallocate_heap(fs);
  1787                        	.line	70
  1788 09:00B8: D4 03        	pei	<L3+fs_1+2
  1789 09:00BA: D4 01        	pei	<L3+fs_1
  1790 09:00BC: 22 xx xx xx  	jsl	~~k_mem_deallocate_heap
  1791                        ;
  1792                        ;}
  1793                        	.line	72
  1794                        L6:
  1795 09:00C0: 2B           	pld
  1796 09:00C1: 3B           	tsc
  1797 09:00C2: 18           	clc
  1798 09:00C3: 69 0E 00     	adc	#L2
  1799 09:00C6: 1B           	tcs
  1800 09:00C7: 6B           	rtl
  1801                        	.endblock	72
  1802             0000000E   L2	equ	14
  1803             00000001   L3	equ	1
  1804 09:00C8:              	ends
  1805                        	efunc
  1806                        	.endfunc	72,1,14
  1807                        	.line	72
  1808                        	data
  1809                        L1:
  1810 00:0012: 74 65 73 74  	db	$74,$65,$73,$74,$52,$65,$6C,$61,$62,$65,
  Mon Sep 27 2021  9:39                                                Page 35


                    $6C,$0D,$0A,$00,$53
       00:0016: 52 65 6C 61 
       00:001A: 62 65 6C 0D 
       00:001E: 0A 00 53 
  1811 00:0021: 44 3A 00 53  	db	$44,$3A,$00,$53,$44,$3A,$00,$74,$65,$73,
                    $74,$52,$65,$6C,$61
       00:0025: 44 3A 00 74 
       00:0029: 65 73 74 52 
       00:002D: 65 6C 61 
  1812 00:0030: 62 65 6C 3A  	db	$62,$65,$6C,$3A,$3A,$66,$5F,$6D,$6F,$75,
                    $6E,$74,$3A,$00,$53
       00:0034: 3A 66 5F 6D 
       00:0038: 6F 75 6E 74 
       00:003C: 3A 00 53 
  1813 00:003F: 44 3A 00 74  	db	$44,$3A,$00,$74,$65,$73,$74,$52,$65,$6C,
                    $61,$62,$65,$6C,$3A
       00:0043: 65 73 74 52 
       00:0047: 65 6C 61 62 
       00:004B: 65 6C 3A 
  1814 00:004E: 3A 66 5F 67  	db	$3A,$66,$5F,$67,$65,$74,$6C,$61,$62,$65,
                    $6C,$3A,$00,$74,$65
       00:0052: 65 74 6C 61 
       00:0056: 62 65 6C 3A 
       00:005A: 00 74 65 
  1815 00:005D: 73 74 52 65  	db	$73,$74,$52,$65,$6C,$61,$62,$65,$6C,$3A,
                    $3A,$6E,$61,$6D,$65
       00:0061: 6C 61 62 65 
       00:0065: 6C 3A 3A 6E 
       00:0069: 61 6D 65 
  1816 00:006C: 3A 00 74 65  	db	$3A,$00,$74,$65,$73,$74,$52,$65,$6C,$61,
                    $62,$65,$6C,$3A,$3A
       00:0070: 73 74 52 65 
       00:0074: 6C 61 62 65 
       00:0078: 6C 3A 3A 
  1817 00:007B: 73 65 72 69  	db	$73,$65,$72,$69,$61,$6C,$3A,$00
       00:007F: 61 6C 3A 00 
  1818 00:0083:              	ends
  1819                        ;
  1820                        ;VOID testRename(VOID)
  1821                        ;{
  1822                        	.line	74
  1823                        	.line	75
  1824                        	DTOP
  1825                        	xdef	~~testRename
  1826                        	func
  1827                        	.function	75
  1828                        ~~testRename:
  1829                        	longa	on
  1830                        	longi	on
  1831 09:00C8: 3B           	tsc
  1832 09:00C9: 38           	sec
  1833 09:00CA: E9 06 00     	sbc	#L8
  1834 09:00CD: 1B           	tcs
  1835 09:00CE: 0B           	phd
  1836 09:00CF: 5B           	tcd
  1837                        	.block	75
  1838                        ;	FATFS *fs = NULL;
  1839                        ;	FRESULT fr = 0;
  Mon Sep 27 2021  9:39                                                Page 36


  1840                        ;
  1841                        ;	k_debug_strings("testRename:","SD:\\FXOS.PRF");
  1842             00000000   fs_1	set	0
  1843             00000004   fr_1	set	4
  1844                        	.sym	fs,0,138,1,32,66
  1845                        	.sym	fr,4,5,1,16
  1846 09:00D0: 64 01        	stz	<L9+fs_1
  1847 09:00D2: 64 03        	stz	<L9+fs_1+2
  1848 09:00D4: 64 05        	stz	<L9+fr_1
  1849                        	.line	79
  1850 09:00D6: F4 xx xx     	pea	#^L7+12
  1851 09:00D9: F4 xx xx     	pea	#<L7+12
  1852 09:00DC: F4 xx xx     	pea	#^L7
  1853 09:00DF: F4 xx xx     	pea	#<L7
  1854 09:00E2: 22 xx xx xx  	jsl	~~k_debug_strings
  1855                        ;
  1856                        ;	fs = k_mem_allocate_heap(sizeof(FATFS));
  1857                        	.line	81
  1858 09:00E6: F4 00 00     	pea	#^$233
  1859 09:00E9: F4 33 02     	pea	#<$233
  1860 09:00EC: 22 xx xx xx  	jsl	~~k_mem_allocate_heap
  1861 09:00F0: 85 01        	sta	<L9+fs_1
  1862 09:00F2: 86 03        	stx	<L9+fs_1+2
  1863                        ;
  1864                        ;	fr = f_mount(NULL, "SD:",1);
  1865                        	.line	83
  1866 09:00F4: F4 01 00     	pea	#<$1
  1867 09:00F7: F4 xx xx     	pea	#^L7+25
  1868 09:00FA: F4 xx xx     	pea	#<L7+25
  1869 09:00FD: F4 00 00     	pea	#^$0
  1870 09:0100: F4 00 00     	pea	#<$0
  1871 09:0103: 22 xx xx xx  	jsl	~~f_mount
  1872 09:0107: 85 05        	sta	<L9+fr_1
  1873                        ;	fr = f_mount(fs, "SD:",1);
  1874                        	.line	84
  1875 09:0109: F4 01 00     	pea	#<$1
  1876 09:010C: F4 xx xx     	pea	#^L7+29
  1877 09:010F: F4 xx xx     	pea	#<L7+29
  1878 09:0112: D4 03        	pei	<L9+fs_1+2
  1879 09:0114: D4 01        	pei	<L9+fs_1
  1880 09:0116: 22 xx xx xx  	jsl	~~f_mount
  1881 09:011A: 85 05        	sta	<L9+fr_1
  1882                        ;	k_debug_integer("testRename::f_mount:",fr);
  1883                        	.line	85
  1884 09:011C: D4 05        	pei	<L9+fr_1
  1885 09:011E: F4 xx xx     	pea	#^L7+33
  1886 09:0121: F4 xx xx     	pea	#<L7+33
  1887 09:0124: 22 xx xx xx  	jsl	~~k_debug_integer
  1888                        ;
  1889                        ;	fr = f_rename("SD:\\FXOS.PRF","SD:\\BOB.PRF");
  1890                        	.line	87
  1891 09:0128: F4 xx xx     	pea	#^L7+67
  1892 09:012B: F4 xx xx     	pea	#<L7+67
  1893 09:012E: F4 xx xx     	pea	#^L7+54
  1894 09:0131: F4 xx xx     	pea	#<L7+54
  1895 09:0134: 22 xx xx xx  	jsl	~~f_rename
  1896 09:0138: 85 05        	sta	<L9+fr_1
  1897                        ;
  Mon Sep 27 2021  9:39                                                Page 37


  1898                        ;	k_debug_integer("testRename::f_rename:",fr);
  1899                        	.line	89
  1900 09:013A: D4 05        	pei	<L9+fr_1
  1901 09:013C: F4 xx xx     	pea	#^L7+79
  1902 09:013F: F4 xx xx     	pea	#<L7+79
  1903 09:0142: 22 xx xx xx  	jsl	~~k_debug_integer
  1904                        ;
  1905                        ;	k_mem_deallocate_heap(fs);
  1906                        	.line	91
  1907 09:0146: D4 03        	pei	<L9+fs_1+2
  1908 09:0148: D4 01        	pei	<L9+fs_1
  1909 09:014A: 22 xx xx xx  	jsl	~~k_mem_deallocate_heap
  1910                        ;}
  1911                        	.line	92
  1912                        L11:
  1913 09:014E: 2B           	pld
  1914 09:014F: 3B           	tsc
  1915 09:0150: 18           	clc
  1916 09:0151: 69 06 00     	adc	#L8
  1917 09:0154: 1B           	tcs
  1918 09:0155: 6B           	rtl
  1919                        	.endblock	92
  1920             00000006   L8	equ	6
  1921             00000001   L9	equ	1
  1922 09:0156:              	ends
  1923                        	efunc
  1924                        	.endfunc	92,1,6
  1925                        	.line	92
  1926                        	data
  1927                        L7:
  1928 00:0083: 74 65 73 74  	db	$74,$65,$73,$74,$52,$65,$6E,$61,$6D,$65,
                    $3A,$00,$53,$44,$3A
       00:0087: 52 65 6E 61 
       00:008B: 6D 65 3A 00 
       00:008F: 53 44 3A 
  1929 00:0092: 5C 46 58 4F  	db	$5C,$46,$58,$4F,$53,$2E,$50,$52,$46,$00,
                    $53,$44,$3A,$00,$53
       00:0096: 53 2E 50 52 
       00:009A: 46 00 53 44 
       00:009E: 3A 00 53 
  1930 00:00A1: 44 3A 00 74  	db	$44,$3A,$00,$74,$65,$73,$74,$52,$65,$6E,
                    $61,$6D,$65,$3A,$3A
       00:00A5: 65 73 74 52 
       00:00A9: 65 6E 61 6D 
       00:00AD: 65 3A 3A 
  1931 00:00B0: 66 5F 6D 6F  	db	$66,$5F,$6D,$6F,$75,$6E,$74,$3A,$00,$53,
                    $44,$3A,$5C,$46,$58
       00:00B4: 75 6E 74 3A 
       00:00B8: 00 53 44 3A 
       00:00BC: 5C 46 58 
  1932 00:00BF: 4F 53 2E 50  	db	$4F,$53,$2E,$50,$52,$46,$00,$53,$44,$3A,
                    $5C,$42,$4F,$42,$2E
       00:00C3: 52 46 00 53 
       00:00C7: 44 3A 5C 42 
       00:00CB: 4F 42 2E 
  1933 00:00CE: 50 52 46 00  	db	$50,$52,$46,$00,$74,$65,$73,$74,$52,$65,
                    $6E,$61,$6D,$65,$3A
       00:00D2: 74 65 73 74 
  Mon Sep 27 2021  9:39                                                Page 38


       00:00D6: 52 65 6E 61 
       00:00DA: 6D 65 3A 
  1934 00:00DD: 3A 66 5F 72  	db	$3A,$66,$5F,$72,$65,$6E,$61,$6D,$65,$3A,
                    $00
       00:00E1: 65 6E 61 6D 
       00:00E5: 65 3A 00 
  1935 00:00E8:              	ends
  1936                        ;
  1937                        ;
  1938                        ;VOID testNewFolder(VOID)
  1939                        ;{
  1940                        	.line	95
  1941                        	.line	96
  1942                        	DTOP
  1943                        	xdef	~~testNewFolder
  1944                        	func
  1945                        	.function	96
  1946                        ~~testNewFolder:
  1947                        	longa	on
  1948                        	longi	on
  1949 09:0156: 3B           	tsc
  1950 09:0157: 38           	sec
  1951 09:0158: E9 0A 00     	sbc	#L13
  1952 09:015B: 1B           	tcs
  1953 09:015C: 0B           	phd
  1954 09:015D: 5B           	tcd
  1955                        	.block	96
  1956                        ;	//DIR dir;
  1957                        ;	FATFS *fs = NULL;
  1958                        ;	FIL *f = NULL;
  1959                        ;	//FILINFO * fileInfo;
  1960                        ;	FRESULT fr = 0;
  1961                        ;
  1962                        ;	k_debug_strings("testNewFolder:","SD:\\NEWFLDR")
                    ;
  1963             00000000   fs_1	set	0
  1964             00000004   f_1	set	4
  1965             00000008   fr_1	set	8
  1966                        	.sym	fs,0,138,1,32,66
  1967                        	.sym	f,4,138,1,32,68
  1968                        	.sym	fr,8,5,1,16
  1969 09:015E: 64 01        	stz	<L14+fs_1
  1970 09:0160: 64 03        	stz	<L14+fs_1+2
  1971 09:0162: 64 05        	stz	<L14+f_1
  1972 09:0164: 64 07        	stz	<L14+f_1+2
  1973 09:0166: 64 09        	stz	<L14+fr_1
  1974                        	.line	103
  1975 09:0168: F4 xx xx     	pea	#^L12+15
  1976 09:016B: F4 xx xx     	pea	#<L12+15
  1977 09:016E: F4 xx xx     	pea	#^L12
  1978 09:0171: F4 xx xx     	pea	#<L12
  1979 09:0174: 22 xx xx xx  	jsl	~~k_debug_strings
  1980                        ;
  1981                        ;	fs = k_mem_allocate_heap(sizeof(FATFS));
  1982                        	.line	105
  1983 09:0178: F4 00 00     	pea	#^$233
  1984 09:017B: F4 33 02     	pea	#<$233
  1985 09:017E: 22 xx xx xx  	jsl	~~k_mem_allocate_heap
  Mon Sep 27 2021  9:39                                                Page 39


  1986 09:0182: 85 01        	sta	<L14+fs_1
  1987 09:0184: 86 03        	stx	<L14+fs_1+2
  1988                        ;
  1989                        ;	fr = f_mount(fs, "SD:",1);
  1990                        	.line	107
  1991 09:0186: F4 01 00     	pea	#<$1
  1992 09:0189: F4 xx xx     	pea	#^L12+27
  1993 09:018C: F4 xx xx     	pea	#<L12+27
  1994 09:018F: D4 03        	pei	<L14+fs_1+2
  1995 09:0191: D4 01        	pei	<L14+fs_1
  1996 09:0193: 22 xx xx xx  	jsl	~~f_mount
  1997 09:0197: 85 09        	sta	<L14+fr_1
  1998                        ;	k_debug_integer("testNewFolder::f_mount:",fr);
  1999                        	.line	108
  2000 09:0199: D4 09        	pei	<L14+fr_1
  2001 09:019B: F4 xx xx     	pea	#^L12+31
  2002 09:019E: F4 xx xx     	pea	#<L12+31
  2003 09:01A1: 22 xx xx xx  	jsl	~~k_debug_integer
  2004                        ;
  2005                        ;	fr = f_mkdir("SD:\\NEWFLDR");
  2006                        	.line	110
  2007 09:01A5: F4 xx xx     	pea	#^L12+55
  2008 09:01A8: F4 xx xx     	pea	#<L12+55
  2009 09:01AB: 22 xx xx xx  	jsl	~~f_mkdir
  2010 09:01AF: 85 09        	sta	<L14+fr_1
  2011                        ;	k_debug_integer("testNewFolder::f_mkdir:",fr);
  2012                        	.line	111
  2013 09:01B1: D4 09        	pei	<L14+fr_1
  2014 09:01B3: F4 xx xx     	pea	#^L12+67
  2015 09:01B6: F4 xx xx     	pea	#<L12+67
  2016 09:01B9: 22 xx xx xx  	jsl	~~k_debug_integer
  2017                        ;
  2018                        ;	k_mem_deallocate_heap(fs);
  2019                        	.line	113
  2020 09:01BD: D4 03        	pei	<L14+fs_1+2
  2021 09:01BF: D4 01        	pei	<L14+fs_1
  2022 09:01C1: 22 xx xx xx  	jsl	~~k_mem_deallocate_heap
  2023                        ;}
  2024                        	.line	114
  2025                        L16:
  2026 09:01C5: 2B           	pld
  2027 09:01C6: 3B           	tsc
  2028 09:01C7: 18           	clc
  2029 09:01C8: 69 0A 00     	adc	#L13
  2030 09:01CB: 1B           	tcs
  2031 09:01CC: 6B           	rtl
  2032                        	.endblock	114
  2033             0000000A   L13	equ	10
  2034             00000001   L14	equ	1
  2035 09:01CD:              	ends
  2036                        	efunc
  2037                        	.endfunc	114,1,10
  2038                        	.line	114
  2039                        	data
  2040                        L12:
  2041 00:00E8: 74 65 73 74  	db	$74,$65,$73,$74,$4E,$65,$77,$46,$6F,$6C,
                    $64,$65,$72,$3A,$00
       00:00EC: 4E 65 77 46 
  Mon Sep 27 2021  9:39                                                Page 40


       00:00F0: 6F 6C 64 65 
       00:00F4: 72 3A 00 
  2042 00:00F7: 53 44 3A 5C  	db	$53,$44,$3A,$5C,$4E,$45,$57,$46,$4C,$44,
                    $52,$00,$53,$44,$3A
       00:00FB: 4E 45 57 46 
       00:00FF: 4C 44 52 00 
       00:0103: 53 44 3A 
  2043 00:0106: 00 74 65 73  	db	$00,$74,$65,$73,$74,$4E,$65,$77,$46,$6F,
                    $6C,$64,$65,$72,$3A
       00:010A: 74 4E 65 77 
       00:010E: 46 6F 6C 64 
       00:0112: 65 72 3A 
  2044 00:0115: 3A 66 5F 6D  	db	$3A,$66,$5F,$6D,$6F,$75,$6E,$74,$3A,$00,
                    $53,$44,$3A,$5C,$4E
       00:0119: 6F 75 6E 74 
       00:011D: 3A 00 53 44 
       00:0121: 3A 5C 4E 
  2045 00:0124: 45 57 46 4C  	db	$45,$57,$46,$4C,$44,$52,$00,$74,$65,$73,
                    $74,$4E,$65,$77,$46
       00:0128: 44 52 00 74 
       00:012C: 65 73 74 4E 
       00:0130: 65 77 46 
  2046 00:0133: 6F 6C 64 65  	db	$6F,$6C,$64,$65,$72,$3A,$3A,$66,$5F,$6D,
                    $6B,$64,$69,$72,$3A
       00:0137: 72 3A 3A 66 
       00:013B: 5F 6D 6B 64 
       00:013F: 69 72 3A 
  2047 00:0142: 00           	db	$00
  2048 00:0143:              	ends
  2049                        ;
  2050                        ;VOID testFileSystems(VOID)
  2051                        ;{
  2052                        	.line	116
  2053                        	.line	117
  2054                        	DTOP
  2055                        	xdef	~~testFileSystems
  2056                        	func
  2057                        	.function	117
  2058                        ~~testFileSystems:
  2059                        	longa	on
  2060                        	longi	on
  2061 09:01CD: 3B           	tsc
  2062 09:01CE: 38           	sec
  2063 09:01CF: E9 1E 00     	sbc	#L18
  2064 09:01D2: 1B           	tcs
  2065 09:01D3: 0B           	phd
  2066 09:01D4: 5B           	tcd
  2067                        	.block	117
  2068                        ;	DIR *dir;
  2069                        ;	FATFS *fs = NULL;
  2070                        ;	FIL *f = NULL;
  2071                        ;	FILINFO *fileInfo;
  2072                        ;	FRESULT fr = 0;
  2073                        ;
  2074                        ;	//LPSTR drive = "HD:";
  2075                        ;	//LPSTR path  = "HD:\\";
  2076                        ;	LPSTR drive = "SD:";
  2077                        ;	LPSTR path  = "SD:\\";
  Mon Sep 27 2021  9:39                                                Page 41


  2078                        ;
  2079                        ;	dir = k_mem_allocate_heap(sizeof(DIR));
  2080             00000000   dir_1	set	0
  2081             00000004   fs_1	set	4
  2082             00000008   f_1	set	8
  2083             0000000C   fileInfo_1	set	12
  2084             00000010   fr_1	set	16
  2085             00000012   drive_1	set	18
  2086             00000016   path_1	set	22
  2087                        	.sym	dir,0,138,1,32,69
  2088                        	.sym	fs,4,138,1,32,66
  2089                        	.sym	f,8,138,1,32,68
  2090                        	.sym	fileInfo,12,138,1,32,70
  2091                        	.sym	fr,16,5,1,16
  2092                        	.sym	drive,18,142,1,32
  2093                        	.sym	path,22,142,1,32
  2094 09:01D5: 64 09        	stz	<L19+fs_1
  2095 09:01D7: 64 0B        	stz	<L19+fs_1+2
  2096 09:01D9: 64 0D        	stz	<L19+f_1
  2097 09:01DB: 64 0F        	stz	<L19+f_1+2
  2098 09:01DD: 64 15        	stz	<L19+fr_1
  2099 09:01DF: A9 xx xx     	lda	#<L17
  2100 09:01E2: 85 17        	sta	<L19+drive_1
  2101 09:01E4: A9 xx xx     	lda	#^L17
  2102 09:01E7: 85 19        	sta	<L19+drive_1+2
  2103 09:01E9: A9 xx xx     	lda	#<L17+4
  2104 09:01EC: 85 1B        	sta	<L19+path_1
  2105 09:01EE: A9 xx xx     	lda	#^L17+4
  2106 09:01F1: 85 1D        	sta	<L19+path_1+2
  2107                        	.line	129
  2108 09:01F3: F4 00 00     	pea	#^$34
  2109 09:01F6: F4 34 00     	pea	#<$34
  2110 09:01F9: 22 xx xx xx  	jsl	~~k_mem_allocate_heap
  2111 09:01FD: 85 05        	sta	<L19+dir_1
  2112 09:01FF: 86 07        	stx	<L19+dir_1+2
  2113                        ;	fs = k_mem_allocate_heap(sizeof(FATFS));
  2114                        	.line	130
  2115 09:0201: F4 00 00     	pea	#^$233
  2116 09:0204: F4 33 02     	pea	#<$233
  2117 09:0207: 22 xx xx xx  	jsl	~~k_mem_allocate_heap
  2118 09:020B: 85 09        	sta	<L19+fs_1
  2119 09:020D: 86 0B        	stx	<L19+fs_1+2
  2120                        ;	fileInfo = k_mem_allocate_heap(sizeof(FILINFO));
  2121                        	.line	131
  2122 09:020F: F4 00 00     	pea	#^$116
  2123 09:0212: F4 16 01     	pea	#<$116
  2124 09:0215: 22 xx xx xx  	jsl	~~k_mem_allocate_heap
  2125 09:0219: 85 11        	sta	<L19+fileInfo_1
  2126 09:021B: 86 13        	stx	<L19+fileInfo_1+2
  2127                        ;
  2128                        ;	fr = f_mount(NULL, drive,1);
  2129                        	.line	133
  2130 09:021D: F4 01 00     	pea	#<$1
  2131 09:0220: D4 19        	pei	<L19+drive_1+2
  2132 09:0222: D4 17        	pei	<L19+drive_1
  2133 09:0224: F4 00 00     	pea	#^$0
  2134 09:0227: F4 00 00     	pea	#<$0
  2135 09:022A: 22 xx xx xx  	jsl	~~f_mount
  Mon Sep 27 2021  9:39                                                Page 42


  2136 09:022E: 85 15        	sta	<L19+fr_1
  2137                        ;	f_mount(fs, drive,1);
  2138                        	.line	134
  2139 09:0230: F4 01 00     	pea	#<$1
  2140 09:0233: D4 19        	pei	<L19+drive_1+2
  2141 09:0235: D4 17        	pei	<L19+drive_1
  2142 09:0237: D4 0B        	pei	<L19+fs_1+2
  2143 09:0239: D4 09        	pei	<L19+fs_1
  2144 09:023B: 22 xx xx xx  	jsl	~~f_mount
  2145                        ;
  2146                        ;	fr = f_opendir (dir,path);
  2147                        	.line	136
  2148 09:023F: D4 1D        	pei	<L19+path_1+2
  2149 09:0241: D4 1B        	pei	<L19+path_1
  2150 09:0243: D4 07        	pei	<L19+dir_1+2
  2151 09:0245: D4 05        	pei	<L19+dir_1
  2152 09:0247: 22 xx xx xx  	jsl	~~f_opendir
  2153 09:024B: 85 15        	sta	<L19+fr_1
  2154                        ;
  2155                        ;	k_debug_integer("f_opendir:",fr);
  2156                        	.line	138
  2157 09:024D: D4 15        	pei	<L19+fr_1
  2158 09:024F: F4 xx xx     	pea	#^L17+9
  2159 09:0252: F4 xx xx     	pea	#<L17+9
  2160 09:0255: 22 xx xx xx  	jsl	~~k_debug_integer
  2161                        ;	k_debug_long("f_opendir::sector:",dir->sect);
  2162                        	.line	139
  2163 09:0259: A0 1A 00     	ldy	#$1a
  2164 09:025C: B7 05        	lda	[<L19+dir_1],Y
  2165 09:025E: 48           	pha
  2166 09:025F: A0 18 00     	ldy	#$18
  2167 09:0262: B7 05        	lda	[<L19+dir_1],Y
  2168 09:0264: 48           	pha
  2169 09:0265: F4 xx xx     	pea	#^L17+20
  2170 09:0268: F4 xx xx     	pea	#<L17+20
  2171 09:026B: 22 xx xx xx  	jsl	~~k_debug_long
  2172                        ;
  2173                        ;	if(fr == FR_OK)
  2174                        	.line	141
  2175                        ;	{
  2176 09:026F: A5 15        	lda	<L19+fr_1
  2177 09:0271: F0 03        	beq	L21
  2178 09:0273: 82 04 01     	brl	L10002
  2179                        L21:
  2180                        	.line	142
  2181                        ;		fr = f_readdir(dir,fileInfo);
  2182                        	.line	143
  2183 09:0276: D4 13        	pei	<L19+fileInfo_1+2
  2184 09:0278: D4 11        	pei	<L19+fileInfo_1
  2185 09:027A: D4 07        	pei	<L19+dir_1+2
  2186 09:027C: D4 05        	pei	<L19+dir_1
  2187 09:027E: 22 xx xx xx  	jsl	~~f_readdir
  2188 09:0282: 85 15        	sta	<L19+fr_1
  2189                        ;		k_debug_integer("f_readdir:",fr);
  2190                        	.line	144
  2191 09:0284: D4 15        	pei	<L19+fr_1
  2192 09:0286: F4 xx xx     	pea	#^L17+39
  2193 09:0289: F4 xx xx     	pea	#<L17+39
  Mon Sep 27 2021  9:39                                                Page 43


  2194 09:028C: 22 xx xx xx  	jsl	~~k_debug_integer
  2195                        ;		if(fr == FR_OK)
  2196                        	.line	145
  2197                        ;		{
  2198 09:0290: A5 15        	lda	<L19+fr_1
  2199 09:0292: F0 03        	beq	L22
  2200 09:0294: 82 1D 00     	brl	L10003
  2201                        L22:
  2202                        	.line	146
  2203                        ;			k_debug_strings("f_readdir::name
                    :",(LPSTR)fileInfo->fname);
  2204                        	.line	147
  2205 09:0297: 18           	clc
  2206 09:0298: A9 16 00     	lda	#$16
  2207 09:029B: 65 11        	adc	<L19+fileInfo_1
  2208 09:029D: 85 01        	sta	<R0
  2209 09:029F: A9 00 00     	lda	#$0
  2210 09:02A2: 65 13        	adc	<L19+fileInfo_1+2
  2211 09:02A4: 85 03        	sta	<R0+2
  2212 09:02A6: D4 03        	pei	<R0+2
  2213 09:02A8: D4 01        	pei	<R0
  2214 09:02AA: F4 xx xx     	pea	#^L17+50
  2215 09:02AD: F4 xx xx     	pea	#<L17+50
  2216 09:02B0: 22 xx xx xx  	jsl	~~k_debug_strings
  2217                        ;		}
  2218                        	.line	148
  2219                        ;
  2220                        ;		fr = f_findfirst(dir,fileInfo,"SD:\\", "
                    *");
  2221                        L10003:
  2222                        	.line	150
  2223 09:02B4: F4 xx xx     	pea	#^L17+72
  2224 09:02B7: F4 xx xx     	pea	#<L17+72
  2225 09:02BA: F4 xx xx     	pea	#^L17+67
  2226 09:02BD: F4 xx xx     	pea	#<L17+67
  2227 09:02C0: D4 13        	pei	<L19+fileInfo_1+2
  2228 09:02C2: D4 11        	pei	<L19+fileInfo_1
  2229 09:02C4: D4 07        	pei	<L19+dir_1+2
  2230 09:02C6: D4 05        	pei	<L19+dir_1
  2231 09:02C8: 22 xx xx xx  	jsl	~~f_findfirst
  2232 09:02CC: 85 15        	sta	<L19+fr_1
  2233                        ;		k_debug_integer("f_findfirst:",fr);
  2234                        	.line	151
  2235 09:02CE: D4 15        	pei	<L19+fr_1
  2236 09:02D0: F4 xx xx     	pea	#^L17+74
  2237 09:02D3: F4 xx xx     	pea	#<L17+74
  2238 09:02D6: 22 xx xx xx  	jsl	~~k_debug_integer
  2239                        ;		if(fr == FR_OK)
  2240                        	.line	152
  2241                        ;		{
  2242 09:02DA: A5 15        	lda	<L19+fr_1
  2243 09:02DC: F0 03        	beq	L23
  2244 09:02DE: 82 91 00     	brl	L10004
  2245                        L23:
  2246                        	.line	153
  2247                        ;			k_debug_strings("f_findfirst:nam
                    e:",(LPSTR)fileInfo->fname);
  2248                        	.line	154
  Mon Sep 27 2021  9:39                                                Page 44


  2249 09:02E1: 18           	clc
  2250 09:02E2: A9 16 00     	lda	#$16
  2251 09:02E5: 65 11        	adc	<L19+fileInfo_1
  2252 09:02E7: 85 01        	sta	<R0
  2253 09:02E9: A9 00 00     	lda	#$0
  2254 09:02EC: 65 13        	adc	<L19+fileInfo_1+2
  2255 09:02EE: 85 03        	sta	<R0+2
  2256 09:02F0: D4 03        	pei	<R0+2
  2257 09:02F2: D4 01        	pei	<R0
  2258 09:02F4: F4 xx xx     	pea	#^L17+87
  2259 09:02F7: F4 xx xx     	pea	#<L17+87
  2260 09:02FA: 22 xx xx xx  	jsl	~~k_debug_strings
  2261                        ;			k_debug_long("f_findfirst:size:"
                    ,fileInfo->fsize);
  2262                        	.line	155
  2263 09:02FE: A0 02 00     	ldy	#$2
  2264 09:0301: B7 11        	lda	[<L19+fileInfo_1],Y
  2265 09:0303: 48           	pha
  2266 09:0304: A7 11        	lda	[<L19+fileInfo_1]
  2267 09:0306: 48           	pha
  2268 09:0307: F4 xx xx     	pea	#^L17+105
  2269 09:030A: F4 xx xx     	pea	#<L17+105
  2270 09:030D: 22 xx xx xx  	jsl	~~k_debug_long
  2271                        ;
  2272                        ;			while((fr = f_findnext(dir,fileI
                    nfo)) == FR_OK && fileInfo->fname[0])
  2273                        	.line	157
  2274                        L10005:
  2275 09:0311: D4 13        	pei	<L19+fileInfo_1+2
  2276 09:0313: D4 11        	pei	<L19+fileInfo_1
  2277 09:0315: D4 07        	pei	<L19+dir_1+2
  2278 09:0317: D4 05        	pei	<L19+dir_1
  2279 09:0319: 22 xx xx xx  	jsl	~~f_findnext
  2280 09:031D: 85 15        	sta	<L19+fr_1
  2281 09:031F: A5 15        	lda	<L19+fr_1
  2282 09:0321: F0 03        	beq	L24
  2283 09:0323: 82 4C 00     	brl	L10006
  2284                        L24:
  2285 09:0326: A0 16 00     	ldy	#$16
  2286 09:0329: B7 11        	lda	[<L19+fileInfo_1],Y
  2287 09:032B: 29 FF 00     	and	#$ff
  2288 09:032E: D0 03        	bne	L25
  2289 09:0330: 82 3F 00     	brl	L10006
  2290                        L25:
  2291                        ;			{
  2292                        	.line	158
  2293                        ;				k_debug_integer("f_findn
                    ext:fr:",fr);
  2294                        	.line	159
  2295 09:0333: D4 15        	pei	<L19+fr_1
  2296 09:0335: F4 xx xx     	pea	#^L17+123
  2297 09:0338: F4 xx xx     	pea	#<L17+123
  2298 09:033B: 22 xx xx xx  	jsl	~~k_debug_integer
  2299                        ;				k_debug_strings("f_findn
                    ext:name:",(LPSTR)fileInfo->fname);
  2300                        	.line	160
  2301 09:033F: 18           	clc
  2302 09:0340: A9 16 00     	lda	#$16
  Mon Sep 27 2021  9:39                                                Page 45


  2303 09:0343: 65 11        	adc	<L19+fileInfo_1
  2304 09:0345: 85 01        	sta	<R0
  2305 09:0347: A9 00 00     	lda	#$0
  2306 09:034A: 65 13        	adc	<L19+fileInfo_1+2
  2307 09:034C: 85 03        	sta	<R0+2
  2308 09:034E: D4 03        	pei	<R0+2
  2309 09:0350: D4 01        	pei	<R0
  2310 09:0352: F4 xx xx     	pea	#^L17+138
  2311 09:0355: F4 xx xx     	pea	#<L17+138
  2312 09:0358: 22 xx xx xx  	jsl	~~k_debug_strings
  2313                        ;				k_debug_long("f_findnext
                    :size:",fileInfo->fsize);
  2314                        	.line	161
  2315 09:035C: A0 02 00     	ldy	#$2
  2316 09:035F: B7 11        	lda	[<L19+fileInfo_1],Y
  2317 09:0361: 48           	pha
  2318 09:0362: A7 11        	lda	[<L19+fileInfo_1]
  2319 09:0364: 48           	pha
  2320 09:0365: F4 xx xx     	pea	#^L17+155
  2321 09:0368: F4 xx xx     	pea	#<L17+155
  2322 09:036B: 22 xx xx xx  	jsl	~~k_debug_long
  2323                        ;			}
  2324                        	.line	162
  2325 09:036F: 82 9F FF     	brl	L10005
  2326                        L10006:
  2327                        ;		}
  2328                        	.line	163
  2329                        ;
  2330                        ;		f_closedir(dir);
  2331                        L10004:
  2332                        	.line	165
  2333 09:0372: D4 07        	pei	<L19+dir_1+2
  2334 09:0374: D4 05        	pei	<L19+dir_1
  2335 09:0376: 22 xx xx xx  	jsl	~~f_closedir
  2336                        ;	}
  2337                        	.line	166
  2338                        ;
  2339                        ;	k_mem_deallocate_heap(fileInfo);
  2340                        L10002:
  2341                        	.line	168
  2342 09:037A: D4 13        	pei	<L19+fileInfo_1+2
  2343 09:037C: D4 11        	pei	<L19+fileInfo_1
  2344 09:037E: 22 xx xx xx  	jsl	~~k_mem_deallocate_heap
  2345                        ;	k_mem_deallocate_heap(fs);
  2346                        	.line	169
  2347 09:0382: D4 0B        	pei	<L19+fs_1+2
  2348 09:0384: D4 09        	pei	<L19+fs_1
  2349 09:0386: 22 xx xx xx  	jsl	~~k_mem_deallocate_heap
  2350                        ;	k_mem_deallocate_heap(dir);
  2351                        	.line	170
  2352 09:038A: D4 07        	pei	<L19+dir_1+2
  2353 09:038C: D4 05        	pei	<L19+dir_1
  2354 09:038E: 22 xx xx xx  	jsl	~~k_mem_deallocate_heap
  2355                        ;
  2356                        ;
  2357                        ;}
  2358                        	.line	173
  2359                        L26:
  Mon Sep 27 2021  9:39                                                Page 46


  2360 09:0392: 2B           	pld
  2361 09:0393: 3B           	tsc
  2362 09:0394: 18           	clc
  2363 09:0395: 69 1E 00     	adc	#L18
  2364 09:0398: 1B           	tcs
  2365 09:0399: 6B           	rtl
  2366                        	.endblock	173
  2367             0000001E   L18	equ	30
  2368             00000005   L19	equ	5
  2369 09:039A:              	ends
  2370                        	efunc
  2371                        	.endfunc	173,5,30
  2372                        	.line	173
  2373                        	data
  2374                        L17:
  2375 00:0143: 53 44 3A 00  	db	$53,$44,$3A,$00,$53,$44,$3A,$5C,$00,$66,
                    $5F,$6F,$70,$65,$6E
       00:0147: 53 44 3A 5C 
       00:014B: 00 66 5F 6F 
       00:014F: 70 65 6E 
  2376 00:0152: 64 69 72 3A  	db	$64,$69,$72,$3A,$00,$66,$5F,$6F,$70,$65,
                    $6E,$64,$69,$72,$3A
       00:0156: 00 66 5F 6F 
       00:015A: 70 65 6E 64 
       00:015E: 69 72 3A 
  2377 00:0161: 3A 73 65 63  	db	$3A,$73,$65,$63,$74,$6F,$72,$3A,$00,$66,
                    $5F,$72,$65,$61,$64
       00:0165: 74 6F 72 3A 
       00:0169: 00 66 5F 72 
       00:016D: 65 61 64 
  2378 00:0170: 64 69 72 3A  	db	$64,$69,$72,$3A,$00,$66,$5F,$72,$65,$61,
                    $64,$64,$69,$72,$3A
       00:0174: 00 66 5F 72 
       00:0178: 65 61 64 64 
       00:017C: 69 72 3A 
  2379 00:017F: 3A 6E 61 6D  	db	$3A,$6E,$61,$6D,$65,$3A,$00,$53,$44,$3A,
                    $5C,$00,$2A,$00,$66
       00:0183: 65 3A 00 53 
       00:0187: 44 3A 5C 00 
       00:018B: 2A 00 66 
  2380 00:018E: 5F 66 69 6E  	db	$5F,$66,$69,$6E,$64,$66,$69,$72,$73,$74,
                    $3A,$00,$66,$5F,$66
       00:0192: 64 66 69 72 
       00:0196: 73 74 3A 00 
       00:019A: 66 5F 66 
  2381 00:019D: 69 6E 64 66  	db	$69,$6E,$64,$66,$69,$72,$73,$74,$3A,$6E,
                    $61,$6D,$65,$3A,$00
       00:01A1: 69 72 73 74 
       00:01A5: 3A 6E 61 6D 
       00:01A9: 65 3A 00 
  2382 00:01AC: 66 5F 66 69  	db	$66,$5F,$66,$69,$6E,$64,$66,$69,$72,$73,
                    $74,$3A,$73,$69,$7A
       00:01B0: 6E 64 66 69 
       00:01B4: 72 73 74 3A 
       00:01B8: 73 69 7A 
  2383 00:01BB: 65 3A 00 66  	db	$65,$3A,$00,$66,$5F,$66,$69,$6E,$64,$6E,
                    $65,$78,$74,$3A,$66
       00:01BF: 5F 66 69 6E 
  Mon Sep 27 2021  9:39                                                Page 47


       00:01C3: 64 6E 65 78 
       00:01C7: 74 3A 66 
  2384 00:01CA: 72 3A 00 66  	db	$72,$3A,$00,$66,$5F,$66,$69,$6E,$64,$6E,
                    $65,$78,$74,$3A,$6E
       00:01CE: 5F 66 69 6E 
       00:01D2: 64 6E 65 78 
       00:01D6: 74 3A 6E 
  2385 00:01D9: 61 6D 65 3A  	db	$61,$6D,$65,$3A,$00,$66,$5F,$66,$69,$6E,
                    $64,$6E,$65,$78,$74
       00:01DD: 00 66 5F 66 
       00:01E1: 69 6E 64 6E 
       00:01E5: 65 78 74 
  2386 00:01E8: 3A 73 69 7A  	db	$3A,$73,$69,$7A,$65,$3A,$00
       00:01EC: 65 3A 00 
  2387 00:01EF:              	ends
  2388                        ;
  2389                        ;
  2390                        ;VOID DesktopEnvironmentProc(PFXOSMESSAGE pMsg)
  2391                        ;{
  2392                        	.line	176
  2393                        	.line	177
  2394                        	DTOP
  2395                        	xdef	~~DesktopEnvironmentProc
  2396                        	func
  2397                        	.function	177
  2398                        ~~DesktopEnvironmentProc:
  2399                        	longa	on
  2400                        	longi	on
  2401 09:039A: 3B           	tsc
  2402 09:039B: 38           	sec
  2403 09:039C: E9 08 00     	sbc	#L28
  2404 09:039F: 1B           	tcs
  2405 09:03A0: 0B           	phd
  2406 09:03A1: 5B           	tcd
  2407             00000004   pMsg_0	set	4
  2408                        	.block	177
  2409                        ;	PFXPROCESS p = NULL;
  2410                        ;
  2411                        ;	//k_debug_string("DesktopEnvironmentProc enter\r
                    \n");
  2412                        ;	//k_debug_char_com1('(');
  2413                        ;	if(pMsg!=NULL)
  2414             00000000   p_1	set	0
  2415                        	.sym	p,0,138,1,32,17
  2416                        	.sym	pMsg,4,138,6,32,13
  2417 09:03A2: 64 05        	stz	<L29+p_1
  2418 09:03A4: 64 07        	stz	<L29+p_1+2
  2419                        	.line	182
  2420                        ;	{
  2421 09:03A6: A5 0C        	lda	<L28+pMsg_0
  2422 09:03A8: 05 0E        	ora	<L28+pMsg_0+2
  2423 09:03AA: D0 03        	bne	L31
  2424 09:03AC: 82 01 01     	brl	L10007
  2425                        L31:
  2426                        	.line	183
  2427                        ;		p = k_exec_get_current_process();
  2428                        	.line	184
  2429 09:03AF: 22 xx xx xx  	jsl	~~k_exec_get_current_process
  Mon Sep 27 2021  9:39                                                Page 48


  2430 09:03B3: 85 05        	sta	<L29+p_1
  2431 09:03B5: 86 07        	stx	<L29+p_1+2
  2432                        ;
  2433                        ;		switch(pMsg->type)
  2434                        	.line	186
  2435 09:03B7: A0 08 00     	ldy	#$8
  2436 09:03BA: B7 0C        	lda	[<L28+pMsg_0],Y
  2437 09:03BC: 82 E1 00     	brl	L10008
  2438                        ;		{
  2439                        	.line	187
  2440                        ;		case FX_INIT_MESSAGE:
  2441                        	.line	188
  2442                        L10010:
  2443                        ;			if(p!=NULL)
  2444                        	.line	189
  2445                        ;			{
  2446 09:03BF: A5 05        	lda	<L29+p_1
  2447 09:03C1: 05 07        	ora	<L29+p_1+2
  2448 09:03C3: D0 03        	bne	L32
  2449 09:03C5: 82 CF 00     	brl	L10011
  2450                        L32:
  2451                        	.line	190
  2452                        ;				k_debug_long("DesktopEnv
                    ironmentProc::ProcessId:",p->procId);
  2453                        	.line	191
  2454 09:03C8: A0 04 00     	ldy	#$4
  2455 09:03CB: B7 05        	lda	[<L29+p_1],Y
  2456 09:03CD: 48           	pha
  2457 09:03CE: A0 02 00     	ldy	#$2
  2458 09:03D1: B7 05        	lda	[<L29+p_1],Y
  2459 09:03D3: 48           	pha
  2460 09:03D4: F4 xx xx     	pea	#^L27
  2461 09:03D7: F4 xx xx     	pea	#<L27
  2462 09:03DA: 22 xx xx xx  	jsl	~~k_debug_long
  2463                        ;
  2464                        ;
  2465                        ;				k_exec_enable_process_ti
                    mer(PROCESS_TIMER_0,20);
  2466                        	.line	194
  2467 09:03DE: F4 14 00     	pea	#<$14
  2468 09:03E1: F4 00 00     	pea	#<$0
  2469 09:03E4: 22 xx xx xx  	jsl	~~k_exec_enable_process_timer
  2470                        ;
  2471                        ;
  2472                        ;				p->desktopCtl = k_mem_al
                    locate_heap(sizeof(DESKTOP_CONTROL));
  2473                        	.line	197
  2474 09:03E8: F4 00 00     	pea	#^$31
  2475 09:03EB: F4 31 00     	pea	#<$31
  2476 09:03EE: 22 xx xx xx  	jsl	~~k_mem_allocate_heap
  2477 09:03F2: 85 01        	sta	<R0
  2478 09:03F4: 86 03        	stx	<R0+2
  2479 09:03F6: A5 01        	lda	<R0
  2480 09:03F8: A0 58 00     	ldy	#$58
  2481 09:03FB: 97 05        	sta	[<L29+p_1],Y
  2482 09:03FD: A5 03        	lda	<R0+2
  2483 09:03FF: A0 5A 00     	ldy	#$5a
  2484 09:0402: 97 05        	sta	[<L29+p_1],Y
  Mon Sep 27 2021  9:39                                                Page 49


  2485                        ;				if(p->desktopCtl)
  2486                        	.line	198
  2487                        ;				{
  2488 09:0404: A0 58 00     	ldy	#$58
  2489 09:0407: B7 05        	lda	[<L29+p_1],Y
  2490 09:0409: A0 5A 00     	ldy	#$5a
  2491 09:040C: 17 05        	ora	[<L29+p_1],Y
  2492 09:040E: D0 03        	bne	L33
  2493 09:0410: 82 16 00     	brl	L10012
  2494                        L33:
  2495                        	.line	199
  2496                        ;					memset(p->deskto
                    pCtl,0,sizeof(DESKTOP_CONTROL));
  2497                        	.line	200
  2498 09:0413: F4 31 00     	pea	#<$31
  2499 09:0416: F4 00 00     	pea	#<$0
  2500 09:0419: A0 5A 00     	ldy	#$5a
  2501 09:041C: B7 05        	lda	[<L29+p_1],Y
  2502 09:041E: 48           	pha
  2503 09:041F: A0 58 00     	ldy	#$58
  2504 09:0422: B7 05        	lda	[<L29+p_1],Y
  2505 09:0424: 48           	pha
  2506 09:0425: 22 xx xx xx  	jsl	~~memset
  2507                        ;				}
  2508                        	.line	201
  2509                        ;
  2510                        ;				//k_init_keyboard();
  2511                        ;				k_gui_init_mousepointer(
                    TRUE);
  2512                        L10012:
  2513                        	.line	204
  2514 09:0429: F4 01 00     	pea	#<$1
  2515 09:042C: 22 xx xx xx  	jsl	~~k_gui_init_mousepointer
  2516                        ;				k_init_desktop(p);
  2517                        	.line	205
  2518 09:0430: D4 07        	pei	<L29+p_1+2
  2519 09:0432: D4 05        	pei	<L29+p_1
  2520 09:0434: 22 xx xx xx  	jsl	~~k_init_desktop
  2521                        ;
  2522                        ;				k_user_CreateWindowClass
                    ("desktopWindowClass",NULL,0,NULL,NULL,NULL,DesktopWindowPro
                    c);
  2523                        	.line	207
  2524 09:0438: F4 09 00     	pea	#^~~DesktopWindowProc
  2525 09:043B: F4 6F 05     	pea	#<~~DesktopWindowProc
  2526 09:043E: F4 00 00     	pea	#^$0
  2527 09:0441: F4 00 00     	pea	#<$0
  2528 09:0444: F4 00 00     	pea	#^$0
  2529 09:0447: F4 00 00     	pea	#<$0
  2530 09:044A: F4 00 00     	pea	#^$0
  2531 09:044D: F4 00 00     	pea	#<$0
  2532 09:0450: F4 00 00     	pea	#<$0
  2533 09:0453: F4 00 00     	pea	#^$0
  2534 09:0456: F4 00 00     	pea	#<$0
  2535 09:0459: F4 xx xx     	pea	#^L27+35
  2536 09:045C: F4 xx xx     	pea	#<L27+35
  2537 09:045F: 22 xx xx xx  	jsl	~~k_user_CreateWindowClass
  2538                        ;				k_user_CreateWindow(FXWS
  Mon Sep 27 2021  9:39                                                Page 50


                    _VISIBLE,
  2539                        	.line	208
  2540                        ;							
                    		"desktopWindowClass",
  2541                        ;							
                    		"DesktopWindow",
  2542                        ;							
                    		0,0,
  2543                        ;							
                    		640,480,
  2544                        ;							
                    		NULL,
  2545                        ;							
                    		NULL,
  2546                        ;							
                    		NULL);
  2547 09:0463: F4 00 00     	pea	#^$0
  2548 09:0466: F4 00 00     	pea	#<$0
  2549 09:0469: F4 00 00     	pea	#^$0
  2550 09:046C: F4 00 00     	pea	#<$0
  2551 09:046F: F4 00 00     	pea	#^$0
  2552 09:0472: F4 00 00     	pea	#<$0
  2553 09:0475: F4 E0 01     	pea	#<$1e0
  2554 09:0478: F4 80 02     	pea	#<$280
  2555 09:047B: F4 00 00     	pea	#<$0
  2556 09:047E: F4 00 00     	pea	#<$0
  2557 09:0481: F4 xx xx     	pea	#^L27+73
  2558 09:0484: F4 xx xx     	pea	#<L27+73
  2559 09:0487: F4 xx xx     	pea	#^L27+54
  2560 09:048A: F4 xx xx     	pea	#<L27+54
  2561 09:048D: F4 00 00     	pea	#^$1
  2562 09:0490: F4 01 00     	pea	#<$1
  2563 09:0493: 22 xx xx xx  	jsl	~~k_user_CreateWindow
  2564                        ;
  2565                        ;
  2566                        ;
  2567                        ;			}
  2568                        	.line	219
  2569                        ;			break;
  2570                        L10011:
  2571                        	.line	220
  2572 09:0497: 82 16 00     	brl	L10009
  2573                        ;		case FX_PROCESS:
  2574                        	.line	221
  2575                        L10013:
  2576                        ;			/*
  2577                        ;			//k_debug_string("DesktopWindowP
                    roc::FX_PROCESS\r\n");
  2578                        ;
  2579                        ;			for(i=0;i<1000;i++)
  2580                        ;			{
  2581                        ;				asm NOP;
  2582                        ;			}
  2583                        ;
  2584                        ;			*/
  2585                        ;			break;
  2586                        	.line	231
  2587 09:049A: 82 13 00     	brl	L10009
  Mon Sep 27 2021  9:39                                                Page 51


  2588                        ;		default:
  2589                        	.line	232
  2590                        L10014:
  2591                        ;			break;
  2592                        	.line	233
  2593 09:049D: 82 10 00     	brl	L10009
  2594                        ;		}
  2595                        	.line	234
  2596                        L10008:
  2597                        	xref	~~~swt
  2598 09:04A0: 22 xx xx xx  	jsl	~~~swt
  2599 09:04A4: 02 00        	dw	2
  2600 09:04A6: 00 FF        	dw	65280
  2601 09:04A8: 99 04        	dw	L10013-1
  2602 09:04AA: 01 FF        	dw	65281
  2603 09:04AC: BE 03        	dw	L10010-1
  2604 09:04AE: 9C 04        	dw	L10014-1
  2605                        L10009:
  2606                        ;	}
  2607                        	.line	235
  2608                        ;	//k_debug_char_com1(')');
  2609                        ;	return;
  2610                        L10007:
  2611                        	.line	237
  2612                        L34:
  2613 09:04B0: A5 0A        	lda	<L28+2
  2614 09:04B2: 85 0E        	sta	<L28+2+4
  2615 09:04B4: A5 09        	lda	<L28+1
  2616 09:04B6: 85 0D        	sta	<L28+1+4
  2617 09:04B8: 2B           	pld
  2618 09:04B9: 3B           	tsc
  2619 09:04BA: 18           	clc
  2620 09:04BB: 69 0C 00     	adc	#L28+4
  2621 09:04BE: 1B           	tcs
  2622 09:04BF: 6B           	rtl
  2623                        ;}
  2624                        	.line	238
  2625                        	.endblock	238
  2626             00000008   L28	equ	8
  2627             00000005   L29	equ	5
  2628 09:04C0:              	ends
  2629                        	efunc
  2630                        	.endfunc	238,5,8
  2631                        	.line	238
  2632                        	data
  2633                        L27:
  2634 00:01EF: 44 65 73 6B  	db	$44,$65,$73,$6B,$74,$6F,$70,$45,$6E,$76,
                    $69,$72,$6F,$6E,$6D
       00:01F3: 74 6F 70 45 
       00:01F7: 6E 76 69 72 
       00:01FB: 6F 6E 6D 
  2635 00:01FE: 65 6E 74 50  	db	$65,$6E,$74,$50,$72,$6F,$63,$3A,$3A,$50,
                    $72,$6F,$63,$65,$73
       00:0202: 72 6F 63 3A 
       00:0206: 3A 50 72 6F 
       00:020A: 63 65 73 
  2636 00:020D: 73 49 64 3A  	db	$73,$49,$64,$3A,$00,$64,$65,$73,$6B,$74,
                    $6F,$70,$57,$69,$6E
  Mon Sep 27 2021  9:39                                                Page 52


       00:0211: 00 64 65 73 
       00:0215: 6B 74 6F 70 
       00:0219: 57 69 6E 
  2637 00:021C: 64 6F 77 43  	db	$64,$6F,$77,$43,$6C,$61,$73,$73,$00,$64,
                    $65,$73,$6B,$74,$6F
       00:0220: 6C 61 73 73 
       00:0224: 00 64 65 73 
       00:0228: 6B 74 6F 
  2638 00:022B: 70 57 69 6E  	db	$70,$57,$69,$6E,$64,$6F,$77,$43,$6C,$61,
                    $73,$73,$00,$44,$65
       00:022F: 64 6F 77 43 
       00:0233: 6C 61 73 73 
       00:0237: 00 44 65 
  2639 00:023A: 73 6B 74 6F  	db	$73,$6B,$74,$6F,$70,$57,$69,$6E,$64,$6F,
                    $77,$00
       00:023E: 70 57 69 6E 
       00:0242: 64 6F 77 00 
  2640 00:0246:              	ends
  2641                        ;
  2642                        ;VOID k_createNewFile(LPCSTR fileName)
  2643                        ;{
  2644                        	.line	240
  2645                        	.line	241
  2646                        	DTOP
  2647                        	xdef	~~k_createNewFile
  2648                        	func
  2649                        	.function	241
  2650                        ~~k_createNewFile:
  2651                        	longa	on
  2652                        	longi	on
  2653 09:04C0: 3B           	tsc
  2654 09:04C1: 38           	sec
  2655 09:04C2: E9 0A 00     	sbc	#L36
  2656 09:04C5: 1B           	tcs
  2657 09:04C6: 0B           	phd
  2658 09:04C7: 5B           	tcd
  2659             00000004   fileName_0	set	4
  2660                        	.block	241
  2661                        ;	FATFS * fs = NULL;
  2662                        ;	FIL * f = NULL;
  2663                        ;	FRESULT fr = 0;
  2664                        ;
  2665                        ;	k_debug_strings("createNewFile:",(LPSTR)fileName
                    );
  2666             00000000   fs_1	set	0
  2667             00000004   f_1	set	4
  2668             00000008   fr_1	set	8
  2669                        	.sym	fs,0,138,1,32,66
  2670                        	.sym	f,4,138,1,32,68
  2671                        	.sym	fr,8,5,1,16
  2672                        	.sym	fileName,4,142,6,32
  2673 09:04C8: 64 01        	stz	<L37+fs_1
  2674 09:04CA: 64 03        	stz	<L37+fs_1+2
  2675 09:04CC: 64 05        	stz	<L37+f_1
  2676 09:04CE: 64 07        	stz	<L37+f_1+2
  2677 09:04D0: 64 09        	stz	<L37+fr_1
  2678                        	.line	246
  2679 09:04D2: D4 10        	pei	<L36+fileName_0+2
  Mon Sep 27 2021  9:39                                                Page 53


  2680 09:04D4: D4 0E        	pei	<L36+fileName_0
  2681 09:04D6: F4 xx xx     	pea	#^L35
  2682 09:04D9: F4 xx xx     	pea	#<L35
  2683 09:04DC: 22 xx xx xx  	jsl	~~k_debug_strings
  2684                        ;
  2685                        ;	fs = (FATFS*)k_mem_allocate_heap(sizeof(FATFS));
  2686                        	.line	248
  2687 09:04E0: F4 00 00     	pea	#^$233
  2688 09:04E3: F4 33 02     	pea	#<$233
  2689 09:04E6: 22 xx xx xx  	jsl	~~k_mem_allocate_heap
  2690 09:04EA: 85 01        	sta	<L37+fs_1
  2691 09:04EC: 86 03        	stx	<L37+fs_1+2
  2692                        ;	fs->fs_type = 0;
  2693                        	.line	249
  2694 09:04EE: E2 20        	sep	#$20
  2695                        	longa	off
  2696 09:04F0: A9 00        	lda	#$0
  2697 09:04F2: 87 01        	sta	[<L37+fs_1]
  2698 09:04F4: C2 20        	rep	#$20
  2699                        	longa	on
  2700                        ;
  2701                        ;	fr = f_mount(fs, "SD:",1);
  2702                        	.line	251
  2703 09:04F6: F4 01 00     	pea	#<$1
  2704 09:04F9: F4 xx xx     	pea	#^L35+15
  2705 09:04FC: F4 xx xx     	pea	#<L35+15
  2706 09:04FF: D4 03        	pei	<L37+fs_1+2
  2707 09:0501: D4 01        	pei	<L37+fs_1
  2708 09:0503: 22 xx xx xx  	jsl	~~f_mount
  2709 09:0507: 85 09        	sta	<L37+fr_1
  2710                        ;	k_debug_integer("mount file:",fr);
  2711                        	.line	252
  2712 09:0509: D4 09        	pei	<L37+fr_1
  2713 09:050B: F4 xx xx     	pea	#^L35+19
  2714 09:050E: F4 xx xx     	pea	#<L35+19
  2715 09:0511: 22 xx xx xx  	jsl	~~k_debug_integer
  2716                        ;
  2717                        ;	f = k_mem_allocate_heap(sizeof(FIL));
  2718                        	.line	254
  2719 09:0515: F4 00 00     	pea	#^$226
  2720 09:0518: F4 26 02     	pea	#<$226
  2721 09:051B: 22 xx xx xx  	jsl	~~k_mem_allocate_heap
  2722 09:051F: 85 05        	sta	<L37+f_1
  2723 09:0521: 86 07        	stx	<L37+f_1+2
  2724                        ;
  2725                        ;	fr = f_open(f,fileName, FA_CREATE_ALWAYS | FA_OP
                    EN_ALWAYS | FA_CREATE_NEW );
  2726                        	.line	256
  2727 09:0523: F4 1C 00     	pea	#<$1c
  2728 09:0526: D4 10        	pei	<L36+fileName_0+2
  2729 09:0528: D4 0E        	pei	<L36+fileName_0
  2730 09:052A: D4 07        	pei	<L37+f_1+2
  2731 09:052C: D4 05        	pei	<L37+f_1
  2732 09:052E: 22 xx xx xx  	jsl	~~f_open
  2733 09:0532: 85 09        	sta	<L37+fr_1
  2734                        ;	k_debug_integer("open file:",fr);
  2735                        	.line	257
  2736 09:0534: D4 09        	pei	<L37+fr_1
  Mon Sep 27 2021  9:39                                                Page 54


  2737 09:0536: F4 xx xx     	pea	#^L35+31
  2738 09:0539: F4 xx xx     	pea	#<L35+31
  2739 09:053C: 22 xx xx xx  	jsl	~~k_debug_integer
  2740                        ;	if(fr == FR_OK)
  2741                        	.line	258
  2742                        ;	{
  2743 09:0540: A5 09        	lda	<L37+fr_1
  2744 09:0542: F0 03        	beq	L39
  2745 09:0544: 82 08 00     	brl	L10015
  2746                        L39:
  2747                        	.line	259
  2748                        ;
  2749                        ;		//fr = f_puts("TEST1=TESTVALUE\n",f);
  2750                        ;		//k_debug_integer("f_write:",fr);
  2751                        ;		//k_debug_integer("f_write:written:",wri
                    tten);
  2752                        ;
  2753                        ;		f_close(f);
  2754                        	.line	265
  2755 09:0547: D4 07        	pei	<L37+f_1+2
  2756 09:0549: D4 05        	pei	<L37+f_1
  2757 09:054B: 22 xx xx xx  	jsl	~~f_close
  2758                        ;	}
  2759                        	.line	266
  2760                        ;
  2761                        ;	k_mem_deallocate_heap(f);
  2762                        L10015:
  2763                        	.line	268
  2764 09:054F: D4 07        	pei	<L37+f_1+2
  2765 09:0551: D4 05        	pei	<L37+f_1
  2766 09:0553: 22 xx xx xx  	jsl	~~k_mem_deallocate_heap
  2767                        ;	k_mem_deallocate_heap(fs);
  2768                        	.line	269
  2769 09:0557: D4 03        	pei	<L37+fs_1+2
  2770 09:0559: D4 01        	pei	<L37+fs_1
  2771 09:055B: 22 xx xx xx  	jsl	~~k_mem_deallocate_heap
  2772                        ;}
  2773                        	.line	270
  2774                        L40:
  2775 09:055F: A5 0C        	lda	<L36+2
  2776 09:0561: 85 10        	sta	<L36+2+4
  2777 09:0563: A5 0B        	lda	<L36+1
  2778 09:0565: 85 0F        	sta	<L36+1+4
  2779 09:0567: 2B           	pld
  2780 09:0568: 3B           	tsc
  2781 09:0569: 18           	clc
  2782 09:056A: 69 0E 00     	adc	#L36+4
  2783 09:056D: 1B           	tcs
  2784 09:056E: 6B           	rtl
  2785                        	.endblock	270
  2786             0000000A   L36	equ	10
  2787             00000001   L37	equ	1
  2788 09:056F:              	ends
  2789                        	efunc
  2790                        	.endfunc	270,1,10
  2791                        	.line	270
  2792                        	data
  2793                        L35:
  Mon Sep 27 2021  9:39                                                Page 55


  2794 00:0246: 63 72 65 61  	db	$63,$72,$65,$61,$74,$65,$4E,$65,$77,$46,
                    $69,$6C,$65,$3A,$00
       00:024A: 74 65 4E 65 
       00:024E: 77 46 69 6C 
       00:0252: 65 3A 00 
  2795 00:0255: 53 44 3A 00  	db	$53,$44,$3A,$00,$6D,$6F,$75,$6E,$74,$20,
                    $66,$69,$6C,$65,$3A
       00:0259: 6D 6F 75 6E 
       00:025D: 74 20 66 69 
       00:0261: 6C 65 3A 
  2796 00:0264: 00 6F 70 65  	db	$00,$6F,$70,$65,$6E,$20,$66,$69,$6C,$65,
                    $3A,$00
       00:0268: 6E 20 66 69 
       00:026C: 6C 65 3A 00 
  2797 00:0270:              	ends
  2798                        ;
  2799                        ;BOOL DesktopWindowProc(PFXOSMESSAGE pMsg)
  2800                        ;{
  2801                        	.line	272
  2802                        	.line	273
  2803                        	DTOP
  2804                        	xdef	~~DesktopWindowProc
  2805                        	func
  2806                        	.function	273
  2807                        ~~DesktopWindowProc:
  2808                        	longa	on
  2809                        	longi	on
  2810 09:056F: 3B           	tsc
  2811 09:0570: 38           	sec
  2812 09:0571: E9 4E 00     	sbc	#L42
  2813 09:0574: 1B           	tcs
  2814 09:0575: 0B           	phd
  2815 09:0576: 5B           	tcd
  2816             00000004   pMsg_0	set	4
  2817                        	.block	273
  2818                        ;	LPCHAR ptr = NULL;
  2819                        ;	PWINDOW pWin = NULL;
  2820                        ;	PWINDOW dlgWnd = NULL;
  2821                        ;	PFXPROCESS p = NULL;
  2822                        ;	PCONSOLECTX pctx = NULL;
  2823                        ;	BYTE decodedKey = 0;
  2824                        ;	int i = 0;
  2825                        ;	int temp1;
  2826                        ;	int temp2;
  2827                        ;	int cx,cy,px,py;
  2828                        ;	UINT temp3;
  2829                        ;	BYTE serial;
  2830                        ;	PCLICKDETECTED pcd;
  2831                        ;	LPVOID pixelLocation = NULL;
  2832                        ;
  2833                        ;	PFXNODE  clickNode = NULL;
  2834                        ;	//PFXZEROPAGE pzero = NULL;
  2835                        ;	HMENU desktopMenu = NULL;
  2836                        ;	HMENU subMenu     = NULL;
  2837                        ;
  2838                        ;	PDESKTOP_DATA pdtd = NULL;
  2839                        ;	//LPCHAR	digits[] = {"0","1","2","3","4",
                    "5","6","7","8","9"};
  Mon Sep 27 2021  9:39                                                Page 56


  2840                        ;
  2841                        ;	PFXPROCESS pprocess;
  2842                        ;
  2843                        ;	//k_debug_string("DesktopWindowProc enter\r\n");
  2844                        ;	if(pMsg!=NULL)
  2845             00000000   ptr_1	set	0
  2846             00000004   pWin_1	set	4
  2847             00000008   dlgWnd_1	set	8
  2848             0000000C   p_1	set	12
  2849             00000010   pctx_1	set	16
  2850             00000014   decodedKey_1	set	20
  2851             00000015   i_1	set	21
  2852             00000017   temp1_1	set	23
  2853             00000019   temp2_1	set	25
  2854             0000001B   cx_1	set	27
  2855             0000001D   cy_1	set	29
  2856             0000001F   px_1	set	31
  2857             00000021   py_1	set	33
  2858             00000023   temp3_1	set	35
  2859             00000025   serial_1	set	37
  2860             00000026   pcd_1	set	38
  2861             0000002A   pixelLocation_1	set	42
  2862             0000002E   clickNode_1	set	46
  2863             00000032   desktopMenu_1	set	50
  2864             00000036   subMenu_1	set	54
  2865             0000003A   pdtd_1	set	58
  2866             0000003E   pprocess_1	set	62
  2867                        	.sym	ptr,0,142,1,32
  2868                        	.sym	pWin,4,138,1,32,30
  2869                        	.sym	dlgWnd,8,138,1,32,30
  2870                        	.sym	p,12,138,1,32,17
  2871                        	.sym	pctx,16,138,1,32,63
  2872                        	.sym	decodedKey,20,14,1,8
  2873                        	.sym	i,21,5,1,16
  2874                        	.sym	temp1,23,5,1,16
  2875                        	.sym	temp2,25,5,1,16
  2876                        	.sym	cx,27,5,1,16
  2877                        	.sym	cy,29,5,1,16
  2878                        	.sym	px,31,5,1,16
  2879                        	.sym	py,33,5,1,16
  2880                        	.sym	temp3,35,16,1,16
  2881                        	.sym	serial,37,14,1,8
  2882                        	.sym	pcd,38,138,1,32,77
  2883                        	.sym	pixelLocation,42,129,1,32
  2884                        	.sym	clickNode,46,138,1,32,2
  2885                        	.sym	desktopMenu,50,129,1,32
  2886                        	.sym	subMenu,54,129,1,32
  2887                        	.sym	pdtd,58,138,1,32,80
  2888                        	.sym	pprocess,62,138,1,32,17
  2889                        	.sym	pMsg,4,138,6,32,13
  2890 09:0577: 64 0D        	stz	<L43+ptr_1
  2891 09:0579: 64 0F        	stz	<L43+ptr_1+2
  2892 09:057B: 64 11        	stz	<L43+pWin_1
  2893 09:057D: 64 13        	stz	<L43+pWin_1+2
  2894 09:057F: 64 15        	stz	<L43+dlgWnd_1
  2895 09:0581: 64 17        	stz	<L43+dlgWnd_1+2
  2896 09:0583: 64 19        	stz	<L43+p_1
  2897 09:0585: 64 1B        	stz	<L43+p_1+2
  Mon Sep 27 2021  9:39                                                Page 57


  2898 09:0587: 64 1D        	stz	<L43+pctx_1
  2899 09:0589: 64 1F        	stz	<L43+pctx_1+2
  2900 09:058B: E2 20        	sep	#$20
  2901                        	longa	off
  2902 09:058D: 64 21        	stz	<L43+decodedKey_1
  2903 09:058F: C2 20        	rep	#$20
  2904                        	longa	on
  2905 09:0591: 64 22        	stz	<L43+i_1
  2906 09:0593: 64 37        	stz	<L43+pixelLocation_1
  2907 09:0595: 64 39        	stz	<L43+pixelLocation_1+2
  2908 09:0597: 64 3B        	stz	<L43+clickNode_1
  2909 09:0599: 64 3D        	stz	<L43+clickNode_1+2
  2910 09:059B: 64 3F        	stz	<L43+desktopMenu_1
  2911 09:059D: 64 41        	stz	<L43+desktopMenu_1+2
  2912 09:059F: 64 43        	stz	<L43+subMenu_1
  2913 09:05A1: 64 45        	stz	<L43+subMenu_1+2
  2914 09:05A3: 64 47        	stz	<L43+pdtd_1
  2915 09:05A5: 64 49        	stz	<L43+pdtd_1+2
  2916                        	.line	300
  2917                        ;	{
  2918 09:05A7: A5 52        	lda	<L42+pMsg_0
  2919 09:05A9: 05 54        	ora	<L42+pMsg_0+2
  2920 09:05AB: D0 03        	bne	L45
  2921 09:05AD: 82 37 1B     	brl	L10016
  2922                        L45:
  2923                        	.line	301
  2924                        ;		p = k_exec_get_current_process();
  2925                        	.line	302
  2926 09:05B0: 22 xx xx xx  	jsl	~~k_exec_get_current_process
  2927 09:05B4: 85 19        	sta	<L43+p_1
  2928 09:05B6: 86 1B        	stx	<L43+p_1+2
  2929                        ;
  2930                        ;		if(p)
  2931                        	.line	304
  2932                        ;		{
  2933 09:05B8: A5 19        	lda	<L43+p_1
  2934 09:05BA: 05 1B        	ora	<L43+p_1+2
  2935 09:05BC: D0 03        	bne	L46
  2936 09:05BE: 82 0E 00     	brl	L10017
  2937                        L46:
  2938                        	.line	305
  2939                        ;			pctx = (PCONSOLECTX)p->ctx;
  2940                        	.line	306
  2941 09:05C1: A0 0A 00     	ldy	#$a
  2942 09:05C4: B7 19        	lda	[<L43+p_1],Y
  2943 09:05C6: 85 1D        	sta	<L43+pctx_1
  2944 09:05C8: A0 0C 00     	ldy	#$c
  2945 09:05CB: B7 19        	lda	[<L43+p_1],Y
  2946 09:05CD: 85 1F        	sta	<L43+pctx_1+2
  2947                        ;			//k_debug_pointer("DesktopWindow
                    Proc::pctx:",pctx);
  2948                        ;			//k_debug_pointer("DesktopWindow
                    Proc::pctx->userData:",pctx->userData);
  2949                        ;		}
  2950                        	.line	309
  2951                        ;
  2952                        ;		switch(pMsg->type)
  2953                        L10017:
  Mon Sep 27 2021  9:39                                                Page 58


  2954                        	.line	311
  2955 09:05CF: A0 08 00     	ldy	#$8
  2956 09:05D2: B7 52        	lda	[<L42+pMsg_0],Y
  2957 09:05D4: 82 A4 1A     	brl	L10018
  2958                        ;		{
  2959                        	.line	312
  2960                        ;		case FX_CREATE_WINDOW:
  2961                        	.line	313
  2962                        L10020:
  2963                        ;			k_debug_string("DesktopWindowPro
                    c::FX_CREATE_WINDOW\r\n");
  2964                        	.line	314
  2965 09:05D7: F4 xx xx     	pea	#^L41
  2966 09:05DA: F4 xx xx     	pea	#<L41
  2967 09:05DD: 22 xx xx xx  	jsl	~~k_debug_string
  2968                        ;
  2969                        ;			((PWINDOW)pMsg->hwnd)->styleEx|=
                    FXWSX_DESKTOP_FLAG;
  2970                        	.line	316
  2971 09:05E1: 18           	clc
  2972 09:05E2: A9 06 00     	lda	#$6
  2973 09:05E5: A0 0A 00     	ldy	#$a
  2974 09:05E8: 77 52        	adc	[<L42+pMsg_0],Y
  2975 09:05EA: 85 01        	sta	<R0
  2976 09:05EC: A9 00 00     	lda	#$0
  2977 09:05EF: A0 0C 00     	ldy	#$c
  2978 09:05F2: 77 52        	adc	[<L42+pMsg_0],Y
  2979 09:05F4: 85 03        	sta	<R0+2
  2980 09:05F6: A7 01        	lda	[<R0]
  2981 09:05F8: 09 04 00     	ora	#<$4
  2982 09:05FB: 87 01        	sta	[<R0]
  2983                        ;
  2984                        ;			p->ctx = k_mem_allocate_heap(siz
                    eof(CONSOLECTX));
  2985                        	.line	318
  2986 09:05FD: F4 00 00     	pea	#^$8f
  2987 09:0600: F4 8F 00     	pea	#<$8f
  2988 09:0603: 22 xx xx xx  	jsl	~~k_mem_allocate_heap
  2989 09:0607: 85 01        	sta	<R0
  2990 09:0609: 86 03        	stx	<R0+2
  2991 09:060B: A5 01        	lda	<R0
  2992 09:060D: A0 0A 00     	ldy	#$a
  2993 09:0610: 97 19        	sta	[<L43+p_1],Y
  2994 09:0612: A5 03        	lda	<R0+2
  2995 09:0614: A0 0C 00     	ldy	#$c
  2996 09:0617: 97 19        	sta	[<L43+p_1],Y
  2997                        ;			if(p->ctx)
  2998                        	.line	319
  2999                        ;			{
  3000 09:0619: A0 0A 00     	ldy	#$a
  3001 09:061C: B7 19        	lda	[<L43+p_1],Y
  3002 09:061E: A0 0C 00     	ldy	#$c
  3003 09:0621: 17 19        	ora	[<L43+p_1],Y
  3004 09:0623: D0 03        	bne	L47
  3005 09:0625: 82 E5 00     	brl	L10021
  3006                        L47:
  3007                        	.line	320
  3008                        ;				pctx = (PCONSOLECTX)p->c
  Mon Sep 27 2021  9:39                                                Page 59


                    tx;
  3009                        	.line	321
  3010 09:0628: A0 0A 00     	ldy	#$a
  3011 09:062B: B7 19        	lda	[<L43+p_1],Y
  3012 09:062D: 85 1D        	sta	<L43+pctx_1
  3013 09:062F: A0 0C 00     	ldy	#$c
  3014 09:0632: B7 19        	lda	[<L43+p_1],Y
  3015 09:0634: 85 1F        	sta	<L43+pctx_1+2
  3016                        ;				k_debug_pointer("Desktop
                    WindowProc::pctx:",pctx);
  3017                        	.line	322
  3018 09:0636: D4 1F        	pei	<L43+pctx_1+2
  3019 09:0638: D4 1D        	pei	<L43+pctx_1
  3020 09:063A: F4 xx xx     	pea	#^L41+38
  3021 09:063D: F4 xx xx     	pea	#<L41+38
  3022 09:0640: 22 xx xx xx  	jsl	~~k_debug_pointer
  3023                        ;				pctx->userData  = (LPVOI
                    D)k_mem_allocate_heap(8*sizeof(UINT));
  3024                        	.line	323
  3025 09:0644: F4 00 00     	pea	#^$10
  3026 09:0647: F4 10 00     	pea	#<$10
  3027 09:064A: 22 xx xx xx  	jsl	~~k_mem_allocate_heap
  3028 09:064E: 85 01        	sta	<R0
  3029 09:0650: 86 03        	stx	<R0+2
  3030 09:0652: A5 01        	lda	<R0
  3031 09:0654: A0 83 00     	ldy	#$83
  3032 09:0657: 97 1D        	sta	[<L43+pctx_1],Y
  3033 09:0659: A5 03        	lda	<R0+2
  3034 09:065B: A0 85 00     	ldy	#$85
  3035 09:065E: 97 1D        	sta	[<L43+pctx_1],Y
  3036                        ;
  3037                        ;				k_debug_pointer("Desktop
                    WindowProc::pctx->userData:",pctx->userData);
  3038                        	.line	325
  3039 09:0660: A0 85 00     	ldy	#$85
  3040 09:0663: B7 1D        	lda	[<L43+pctx_1],Y
  3041 09:0665: 48           	pha
  3042 09:0666: A0 83 00     	ldy	#$83
  3043 09:0669: B7 1D        	lda	[<L43+pctx_1],Y
  3044 09:066B: 48           	pha
  3045 09:066C: F4 xx xx     	pea	#^L41+63
  3046 09:066F: F4 xx xx     	pea	#<L41+63
  3047 09:0672: 22 xx xx xx  	jsl	~~k_debug_pointer
  3048                        ;
  3049                        ;
  3050                        ;				((INT*)pctx->userData)[D
                    EBUG_MOUSE_ENABLE] 	= FALSE;
  3051                        	.line	328
  3052 09:0676: A0 83 00     	ldy	#$83
  3053 09:0679: B7 1D        	lda	[<L43+pctx_1],Y
  3054 09:067B: 85 01        	sta	<R0
  3055 09:067D: A0 85 00     	ldy	#$85
  3056 09:0680: B7 1D        	lda	[<L43+pctx_1],Y
  3057 09:0682: 85 03        	sta	<R0+2
  3058 09:0684: A9 00 00     	lda	#$0
  3059 09:0687: 87 01        	sta	[<R0]
  3060                        ;				((INT*)pctx->userData)[D
                    EBUG_MOUSE_CX] 		= -1;
  Mon Sep 27 2021  9:39                                                Page 60


  3061                        	.line	329
  3062 09:0689: A0 83 00     	ldy	#$83
  3063 09:068C: B7 1D        	lda	[<L43+pctx_1],Y
  3064 09:068E: 85 01        	sta	<R0
  3065 09:0690: A0 85 00     	ldy	#$85
  3066 09:0693: B7 1D        	lda	[<L43+pctx_1],Y
  3067 09:0695: 85 03        	sta	<R0+2
  3068 09:0697: A9 FF FF     	lda	#$ffff
  3069 09:069A: A0 02 00     	ldy	#$2
  3070 09:069D: 97 01        	sta	[<R0],Y
  3071                        ;				((INT*)pctx->userData)[D
                    EBUG_MOUSE_CY] 		= -1;
  3072                        	.line	330
  3073 09:069F: A0 83 00     	ldy	#$83
  3074 09:06A2: B7 1D        	lda	[<L43+pctx_1],Y
  3075 09:06A4: 85 01        	sta	<R0
  3076 09:06A6: A0 85 00     	ldy	#$85
  3077 09:06A9: B7 1D        	lda	[<L43+pctx_1],Y
  3078 09:06AB: 85 03        	sta	<R0+2
  3079 09:06AD: A9 FF FF     	lda	#$ffff
  3080 09:06B0: A0 04 00     	ldy	#$4
  3081 09:06B3: 97 01        	sta	[<R0],Y
  3082                        ;				((INT*)pctx->userData)[D
                    EBUG_MOUSE_BOXING] 	= FALSE;
  3083                        	.line	331
  3084 09:06B5: A0 83 00     	ldy	#$83
  3085 09:06B8: B7 1D        	lda	[<L43+pctx_1],Y
  3086 09:06BA: 85 01        	sta	<R0
  3087 09:06BC: A0 85 00     	ldy	#$85
  3088 09:06BF: B7 1D        	lda	[<L43+pctx_1],Y
  3089 09:06C1: 85 03        	sta	<R0+2
  3090 09:06C3: A9 00 00     	lda	#$0
  3091 09:06C6: A0 06 00     	ldy	#$6
  3092 09:06C9: 97 01        	sta	[<R0],Y
  3093                        ;				((INT*)pctx->userData)[D
                    EBUG_MOUSE_BOX_TOP] = -1;
  3094                        	.line	332
  3095 09:06CB: A0 83 00     	ldy	#$83
  3096 09:06CE: B7 1D        	lda	[<L43+pctx_1],Y
  3097 09:06D0: 85 01        	sta	<R0
  3098 09:06D2: A0 85 00     	ldy	#$85
  3099 09:06D5: B7 1D        	lda	[<L43+pctx_1],Y
  3100 09:06D7: 85 03        	sta	<R0+2
  3101 09:06D9: A9 FF FF     	lda	#$ffff
  3102 09:06DC: A0 08 00     	ldy	#$8
  3103 09:06DF: 97 01        	sta	[<R0],Y
  3104                        ;				((INT*)pctx->userData)[D
                    EBUG_MOUSE_BOX_LEFT]= -1;
  3105                        	.line	333
  3106 09:06E1: A0 83 00     	ldy	#$83
  3107 09:06E4: B7 1D        	lda	[<L43+pctx_1],Y
  3108 09:06E6: 85 01        	sta	<R0
  3109 09:06E8: A0 85 00     	ldy	#$85
  3110 09:06EB: B7 1D        	lda	[<L43+pctx_1],Y
  3111 09:06ED: 85 03        	sta	<R0+2
  3112 09:06EF: A9 FF FF     	lda	#$ffff
  3113 09:06F2: A0 0A 00     	ldy	#$a
  3114 09:06F5: 97 01        	sta	[<R0],Y
  Mon Sep 27 2021  9:39                                                Page 61


  3115                        ;				((INT*)pctx->userData)[D
                    EBUG_MOUSE_BOX_ENABLE]= FALSE;
  3116                        	.line	334
  3117 09:06F7: A0 83 00     	ldy	#$83
  3118 09:06FA: B7 1D        	lda	[<L43+pctx_1],Y
  3119 09:06FC: 85 01        	sta	<R0
  3120 09:06FE: A0 85 00     	ldy	#$85
  3121 09:0701: B7 1D        	lda	[<L43+pctx_1],Y
  3122 09:0703: 85 03        	sta	<R0+2
  3123 09:0705: A9 00 00     	lda	#$0
  3124 09:0708: A0 0C 00     	ldy	#$c
  3125 09:070B: 97 01        	sta	[<R0],Y
  3126                        ;
  3127                        ;			}
  3128                        	.line	336
  3129                        ;			//k_initializeMenuManager();
  3130                        ;
  3131                        ;			k_vdma_fill_rect_ex(0,0,640,480,
                    k_getUIBackgroundColor(),BITMAP_BACK);
  3132                        L10021:
  3133                        	.line	339
  3134 09:070D: F4 08 00     	pea	#<$8
  3135 09:0710: 22 xx xx xx  	jsl	~~k_getUIBackgroundColor
  3136 09:0714: 48           	pha
  3137 09:0715: F4 E0 01     	pea	#<$1e0
  3138 09:0718: F4 80 02     	pea	#<$280
  3139 09:071B: F4 00 00     	pea	#^$0
  3140 09:071E: F4 00 00     	pea	#<$0
  3141 09:0721: F4 00 00     	pea	#^$0
  3142 09:0724: F4 00 00     	pea	#<$0
  3143 09:0727: 22 xx xx xx  	jsl	~~k_vdma_fill_rect_ex
  3144                        ;			//k_shadow_fill_rect_address(BIT
                    MAP_BANK_0,100, 151, 100, 50, 15);
  3145                        ;			/*
  3146                        ;			k_scratch_save_bitblt(100,100, 1
                    00,50, 0,0);
  3147                        ;			k_scratch_restore_bitblt(0,0, 10
                    0,50, 100,151);
  3148                        ;
  3149                        ;			//k_shadow_fill_rect_address(BIT
                    MAP_BANK_0,201, 100, 100, 50, 15);
  3150                        ;			k_shadow_fill_rect_address(SHADO
                    W_BANK_0,201, 100, 100, 50, 15);
  3151                        ;			k_scratch_save_bitblt(201,100, 1
                    00,50, 0,0);
  3152                        ;			k_scratch_restore_bitblt(0,0, 10
                    0,50, 201,151);
  3153                        ;			*/
  3154                        ;
  3155                        ;			k_user_CreateWindowClassEx("desk
                    topVolsWindowClass",NULL,0,FXWSX_ALWAYS_BACKPLANE|FXWSX_CACH
                    E_TITLE,NULL,NULL,NULL,desktopVolsWindowProc);
  3156                        	.line	351
  3157 09:072B: F4 09 00     	pea	#^~~desktopVolsWindowProc
  3158 09:072E: F4 8C 2F     	pea	#<~~desktopVolsWindowProc
  3159 09:0731: F4 00 00     	pea	#^$0
  3160 09:0734: F4 00 00     	pea	#<$0
  3161 09:0737: F4 00 00     	pea	#^$0
  Mon Sep 27 2021  9:39                                                Page 62


  3162 09:073A: F4 00 00     	pea	#<$0
  3163 09:073D: F4 00 00     	pea	#^$0
  3164 09:0740: F4 00 00     	pea	#<$0
  3165 09:0743: F4 02 00     	pea	#<$2
  3166 09:0746: F4 00 00     	pea	#<$0
  3167 09:0749: F4 00 00     	pea	#^$0
  3168 09:074C: F4 00 00     	pea	#<$0
  3169 09:074F: F4 xx xx     	pea	#^L41+98
  3170 09:0752: F4 xx xx     	pea	#<L41+98
  3171 09:0755: 22 xx xx xx  	jsl	~~k_user_CreateWindowClassEx
  3172                        ;
  3173                        ;
  3174                        ;
  3175                        ;			k_user_CreateWindowClass("prefer
                    encesWindowClass",NULL,0,NULL,NULL,NULL,preferencesWindowPro
                    c);
  3176                        	.line	355
  3177 09:0759: F4 09 00     	pea	#^~~preferencesWindowProc
  3178 09:075C: F4 3E 28     	pea	#<~~preferencesWindowProc
  3179 09:075F: F4 00 00     	pea	#^$0
  3180 09:0762: F4 00 00     	pea	#<$0
  3181 09:0765: F4 00 00     	pea	#^$0
  3182 09:0768: F4 00 00     	pea	#<$0
  3183 09:076B: F4 00 00     	pea	#^$0
  3184 09:076E: F4 00 00     	pea	#<$0
  3185 09:0771: F4 00 00     	pea	#<$0
  3186 09:0774: F4 00 00     	pea	#^$0
  3187 09:0777: F4 00 00     	pea	#<$0
  3188 09:077A: F4 xx xx     	pea	#^L41+121
  3189 09:077D: F4 xx xx     	pea	#<L41+121
  3190 09:0780: 22 xx xx xx  	jsl	~~k_user_CreateWindowClass
  3191                        ;			k_user_CreateWindowClassEx("text
                    WindowClass",NULL,0,FXWSX_ALWAYS_BACKPLANE|FXWSX_CACHE_TITLE
                    ,NULL,NULL,NULL,TextWindowProc);
  3192                        	.line	356
  3193 09:0784: F4 09 00     	pea	#^~~TextWindowProc
  3194 09:0787: F4 9D 24     	pea	#<~~TextWindowProc
  3195 09:078A: F4 00 00     	pea	#^$0
  3196 09:078D: F4 00 00     	pea	#<$0
  3197 09:0790: F4 00 00     	pea	#^$0
  3198 09:0793: F4 00 00     	pea	#<$0
  3199 09:0796: F4 00 00     	pea	#^$0
  3200 09:0799: F4 00 00     	pea	#<$0
  3201 09:079C: F4 02 00     	pea	#<$2
  3202 09:079F: F4 00 00     	pea	#<$0
  3203 09:07A2: F4 00 00     	pea	#^$0
  3204 09:07A5: F4 00 00     	pea	#<$0
  3205 09:07A8: F4 xx xx     	pea	#^L41+144
  3206 09:07AB: F4 xx xx     	pea	#<L41+144
  3207 09:07AE: 22 xx xx xx  	jsl	~~k_user_CreateWindowClassEx
  3208                        ;			k_user_CreateWindowClass("listbo
                    xWindowClass",NULL,0,NULL,NULL,NULL,listboxWindowProc);
  3209                        	.line	357
  3210 09:07B2: F4 xx xx     	pea	#^~~listboxWindowProc
  3211 09:07B5: F4 xx xx     	pea	#<~~listboxWindowProc
  3212 09:07B8: F4 00 00     	pea	#^$0
  3213 09:07BB: F4 00 00     	pea	#<$0
  3214 09:07BE: F4 00 00     	pea	#^$0
  Mon Sep 27 2021  9:39                                                Page 63


  3215 09:07C1: F4 00 00     	pea	#<$0
  3216 09:07C4: F4 00 00     	pea	#^$0
  3217 09:07C7: F4 00 00     	pea	#<$0
  3218 09:07CA: F4 00 00     	pea	#<$0
  3219 09:07CD: F4 00 00     	pea	#^$0
  3220 09:07D0: F4 00 00     	pea	#<$0
  3221 09:07D3: F4 xx xx     	pea	#^L41+160
  3222 09:07D6: F4 xx xx     	pea	#<L41+160
  3223 09:07D9: 22 xx xx xx  	jsl	~~k_user_CreateWindowClass
  3224                        ;			//k_user_CreateWindowClass("text
                    boxWindowClass",NULL,0,NULL,NULL,NULL,textboxWindowProc);
  3225                        ;
  3226                        ;
  3227                        ;
  3228                        ;
  3229                        ;//			k_user_CreateWindow(FXWS
                    _OVERLAPPED | FXWS_CAPTION | FXWS_SYSMENU | FXWS_THICKFRAME 
                    | FXWS_MINIMIZEBOX | FXWS_MAXIMIZEBOX | FXWS_VISIBLE,
  3230                        ;
  3231                        ;
  3232                        ;			//k_shadow_fill_rect_address(BIT
                    MAP_BANK_0,100, 151, 100, 50, 15);
  3233                        ;			//k_shadow_fill_rect_address(BIT
                    MAP_BANK_0,201, 151, 100, 50, 15);
  3234                        ;
  3235                        ;
  3236                        ;
  3237                        ;
  3238                        ;			desktopMenu = k_user_CreateMenuR
                    esource();
  3239                        	.line	372
  3240 09:07DD: 22 xx xx xx  	jsl	~~k_user_CreateMenuResource
  3241 09:07E1: 85 3F        	sta	<L43+desktopMenu_1
  3242 09:07E3: 86 41        	stx	<L43+desktopMenu_1+2
  3243                        ;			if(desktopMenu)
  3244                        	.line	373
  3245                        ;			{
  3246 09:07E5: A5 3F        	lda	<L43+desktopMenu_1
  3247 09:07E7: 05 41        	ora	<L43+desktopMenu_1+2
  3248 09:07E9: D0 03        	bne	L48
  3249 09:07EB: 82 21 02     	brl	L10022
  3250                        L48:
  3251                        	.line	374
  3252                        ;				_k_desktopMenuState.open
                    Type = 0;
  3253                        	.line	375
  3254 09:07EE: E2 20        	sep	#$20
  3255                        	longa	off
  3256 09:07F0: 9C xx xx     	stz	|~~_k_desktopMenuState+1
  3257 09:07F3: C2 20        	rep	#$20
  3258                        	longa	on
  3259                        ;				_k_desktopMenuState.visi
                    ble = FALSE;
  3260                        	.line	376
  3261 09:07F5: E2 20        	sep	#$20
  3262                        	longa	off
  3263 09:07F7: 9C xx xx     	stz	|~~_k_desktopMenuState
  3264 09:07FA: C2 20        	rep	#$20
  Mon Sep 27 2021  9:39                                                Page 64


  3265                        	longa	on
  3266                        ;				_k_desktopMenuState.hMai
                    nMenu = desktopMenu;
  3267                        	.line	377
  3268 09:07FC: A5 3F        	lda	<L43+desktopMenu_1
  3269 09:07FE: 8D xx xx     	sta	|~~_k_desktopMenuState+2
  3270 09:0801: A5 41        	lda	<L43+desktopMenu_1+2
  3271 09:0803: 8D xx xx     	sta	|~~_k_desktopMenuState+2+2
  3272                        ;				_k_desktopMenuState.sele
                    ctedIndex = -1;
  3273                        	.line	378
  3274 09:0806: A9 FF FF     	lda	#$ffff
  3275 09:0809: 8D xx xx     	sta	|~~_k_desktopMenuState+14
  3276                        ;
  3277                        ;
  3278                        ;				subMenu = k_user_AddMenu
                    Item(desktopMenu,"\x80\x81",1);
  3279                        	.line	381
  3280 09:080C: F4 01 00     	pea	#<$1
  3281 09:080F: F4 xx xx     	pea	#^L41+179
  3282 09:0812: F4 xx xx     	pea	#<L41+179
  3283 09:0815: D4 41        	pei	<L43+desktopMenu_1+2
  3284 09:0817: D4 3F        	pei	<L43+desktopMenu_1
  3285 09:0819: 22 xx xx xx  	jsl	~~k_user_AddMenuItem
  3286 09:081D: 85 43        	sta	<L43+subMenu_1
  3287 09:081F: 86 45        	stx	<L43+subMenu_1+2
  3288                        ;							
                    k_user_SetMenuItemAttribute(subMenu,k_user_getFontClass("AMI
                    GO8x8"));
  3289                        	.line	382
  3290 09:0821: F4 xx xx     	pea	#^L41+182
  3291 09:0824: F4 xx xx     	pea	#<L41+182
  3292 09:0827: 22 xx xx xx  	jsl	~~k_user_getFontClass
  3293 09:082B: 85 01        	sta	<R0
  3294 09:082D: 86 03        	stx	<R0+2
  3295 09:082F: DA           	phx
  3296 09:0830: 48           	pha
  3297 09:0831: D4 45        	pei	<L43+subMenu_1+2
  3298 09:0833: D4 43        	pei	<L43+subMenu_1
  3299 09:0835: 22 xx xx xx  	jsl	~~k_user_SetMenuItemAttribute
  3300                        ;							
                    //k_user_AddMenuItem(subMenu,MENU_BLANK_CAPTION,0);
  3301                        ;						  	
                    k_user_AddMenuItem(subMenu,"Palette Tool",DESK_MENU_C_PALETT
                    E);
  3302                        	.line	384
  3303 09:0839: F4 0A 00     	pea	#<$a
  3304 09:083C: F4 xx xx     	pea	#^L41+191
  3305 09:083F: F4 xx xx     	pea	#<L41+191
  3306 09:0842: D4 45        	pei	<L43+subMenu_1+2
  3307 09:0844: D4 43        	pei	<L43+subMenu_1
  3308 09:0846: 22 xx xx xx  	jsl	~~k_user_AddMenuItem
  3309                        ;						  	
                    k_user_AddMenuItem(subMenu,"Calculator",DESK_MENU_ACCESS_CAL
                    C);
  3310                        	.line	385
  3311 09:084A: F4 47 00     	pea	#<$47
  3312 09:084D: F4 xx xx     	pea	#^L41+204
  Mon Sep 27 2021  9:39                                                Page 65


  3313 09:0850: F4 xx xx     	pea	#<L41+204
  3314 09:0853: D4 45        	pei	<L43+subMenu_1+2
  3315 09:0855: D4 43        	pei	<L43+subMenu_1
  3316 09:0857: 22 xx xx xx  	jsl	~~k_user_AddMenuItem
  3317                        ;							
                    k_user_AddMenuItem(subMenu,"______________",0);
  3318                        	.line	386
  3319 09:085B: F4 00 00     	pea	#<$0
  3320 09:085E: F4 xx xx     	pea	#^L41+215
  3321 09:0861: F4 xx xx     	pea	#<L41+215
  3322 09:0864: D4 45        	pei	<L43+subMenu_1+2
  3323 09:0866: D4 43        	pei	<L43+subMenu_1
  3324 09:0868: 22 xx xx xx  	jsl	~~k_user_AddMenuItem
  3325                        ;							
                    k_user_AddMenuItem(subMenu,"Preferences",34);
  3326                        	.line	387
  3327 09:086C: F4 22 00     	pea	#<$22
  3328 09:086F: F4 xx xx     	pea	#^L41+230
  3329 09:0872: F4 xx xx     	pea	#<L41+230
  3330 09:0875: D4 45        	pei	<L43+subMenu_1+2
  3331 09:0877: D4 43        	pei	<L43+subMenu_1
  3332 09:0879: 22 xx xx xx  	jsl	~~k_user_AddMenuItem
  3333                        ;
  3334                        ;
  3335                        ;				subMenu = k_user_AddMenu
                    Item(desktopMenu,"File" ,20);
  3336                        	.line	390
  3337 09:087D: F4 14 00     	pea	#<$14
  3338 09:0880: F4 xx xx     	pea	#^L41+242
  3339 09:0883: F4 xx xx     	pea	#<L41+242
  3340 09:0886: D4 41        	pei	<L43+desktopMenu_1+2
  3341 09:0888: D4 3F        	pei	<L43+desktopMenu_1
  3342 09:088A: 22 xx xx xx  	jsl	~~k_user_AddMenuItem
  3343 09:088E: 85 43        	sta	<L43+subMenu_1
  3344 09:0890: 86 45        	stx	<L43+subMenu_1+2
  3345                        ;							
                    k_user_AddMenuItem(subMenu,"Volume Info",DESK_MENU_VOLINFO);
  3346                        	.line	391
  3347 09:0892: F4 15 00     	pea	#<$15
  3348 09:0895: F4 xx xx     	pea	#^L41+247
  3349 09:0898: F4 xx xx     	pea	#<L41+247
  3350 09:089B: D4 45        	pei	<L43+subMenu_1+2
  3351 09:089D: D4 43        	pei	<L43+subMenu_1
  3352 09:089F: 22 xx xx xx  	jsl	~~k_user_AddMenuItem
  3353                        ;							
                    k_user_AddMenuItem(subMenu,"Change Label",DESK_MENU_RELABEL)
                    ;
  3354                        	.line	392
  3355 09:08A3: F4 C9 00     	pea	#<$c9
  3356 09:08A6: F4 xx xx     	pea	#^L41+259
  3357 09:08A9: F4 xx xx     	pea	#<L41+259
  3358 09:08AC: D4 45        	pei	<L43+subMenu_1+2
  3359 09:08AE: D4 43        	pei	<L43+subMenu_1
  3360 09:08B0: 22 xx xx xx  	jsl	~~k_user_AddMenuItem
  3361                        ;							
                    k_user_AddMenuItem(subMenu,"Rename",DESK_MENU_RENAME);
  3362                        	.line	393
  3363 09:08B4: F4 16 00     	pea	#<$16
  Mon Sep 27 2021  9:39                                                Page 66


  3364 09:08B7: F4 xx xx     	pea	#^L41+272
  3365 09:08BA: F4 xx xx     	pea	#<L41+272
  3366 09:08BD: D4 45        	pei	<L43+subMenu_1+2
  3367 09:08BF: D4 43        	pei	<L43+subMenu_1
  3368 09:08C1: 22 xx xx xx  	jsl	~~k_user_AddMenuItem
  3369                        ;							
                    k_user_AddMenuItem(subMenu,"Copy",DESK_MENU_DISKCOPY);
  3370                        	.line	394
  3371 09:08C5: F4 17 00     	pea	#<$17
  3372 09:08C8: F4 xx xx     	pea	#^L41+279
  3373 09:08CB: F4 xx xx     	pea	#<L41+279
  3374 09:08CE: D4 45        	pei	<L43+subMenu_1+2
  3375 09:08D0: D4 43        	pei	<L43+subMenu_1
  3376 09:08D2: 22 xx xx xx  	jsl	~~k_user_AddMenuItem
  3377                        ;							
                    k_user_AddMenuItem(subMenu,"Mount",DESK_MENU_MOUNT);
  3378                        	.line	395
  3379 09:08D6: F4 18 00     	pea	#<$18
  3380 09:08D9: F4 xx xx     	pea	#^L41+284
  3381 09:08DC: F4 xx xx     	pea	#<L41+284
  3382 09:08DF: D4 45        	pei	<L43+subMenu_1+2
  3383 09:08E1: D4 43        	pei	<L43+subMenu_1
  3384 09:08E3: 22 xx xx xx  	jsl	~~k_user_AddMenuItem
  3385                        ;							
                    k_user_AddMenuItem(subMenu,"Eject",DESK_MENU_EJECT);
  3386                        	.line	396
  3387 09:08E7: F4 19 00     	pea	#<$19
  3388 09:08EA: F4 xx xx     	pea	#^L41+290
  3389 09:08ED: F4 xx xx     	pea	#<L41+290
  3390 09:08F0: D4 45        	pei	<L43+subMenu_1+2
  3391 09:08F2: D4 43        	pei	<L43+subMenu_1
  3392 09:08F4: 22 xx xx xx  	jsl	~~k_user_AddMenuItem
  3393                        ;							
                    k_user_AddMenuItem(subMenu,"New Folder",DESK_MENU_NEWFOLDER)
                    ;
  3394                        	.line	397
  3395 09:08F8: F4 1A 00     	pea	#<$1a
  3396 09:08FB: F4 xx xx     	pea	#^L41+296
  3397 09:08FE: F4 xx xx     	pea	#<L41+296
  3398 09:0901: D4 45        	pei	<L43+subMenu_1+2
  3399 09:0903: D4 43        	pei	<L43+subMenu_1
  3400 09:0905: 22 xx xx xx  	jsl	~~k_user_AddMenuItem
  3401                        ;							
                    k_user_AddMenuItem(subMenu,"__________________",0);
  3402                        	.line	398
  3403 09:0909: F4 00 00     	pea	#<$0
  3404 09:090C: F4 xx xx     	pea	#^L41+307
  3405 09:090F: F4 xx xx     	pea	#<L41+307
  3406 09:0912: D4 45        	pei	<L43+subMenu_1+2
  3407 09:0914: D4 43        	pei	<L43+subMenu_1
  3408 09:0916: 22 xx xx xx  	jsl	~~k_user_AddMenuItem
  3409                        ;							
                    k_user_AddMenuItem(subMenu,"Processes",27);
  3410                        	.line	399
  3411 09:091A: F4 1B 00     	pea	#<$1b
  3412 09:091D: F4 xx xx     	pea	#^L41+326
  3413 09:0920: F4 xx xx     	pea	#<L41+326
  3414 09:0923: D4 45        	pei	<L43+subMenu_1+2
  Mon Sep 27 2021  9:39                                                Page 67


  3415 09:0925: D4 43        	pei	<L43+subMenu_1
  3416 09:0927: 22 xx xx xx  	jsl	~~k_user_AddMenuItem
  3417                        ;							
                    k_user_AddMenuItem(subMenu,"Refresh Desktop",28);
  3418                        	.line	400
  3419 09:092B: F4 1C 00     	pea	#<$1c
  3420 09:092E: F4 xx xx     	pea	#^L41+336
  3421 09:0931: F4 xx xx     	pea	#<L41+336
  3422 09:0934: D4 45        	pei	<L43+subMenu_1+2
  3423 09:0936: D4 43        	pei	<L43+subMenu_1
  3424 09:0938: 22 xx xx xx  	jsl	~~k_user_AddMenuItem
  3425                        ;							
                    k_user_AddMenuItem(subMenu,"Run...",29);
  3426                        	.line	401
  3427 09:093C: F4 1D 00     	pea	#<$1d
  3428 09:093F: F4 xx xx     	pea	#^L41+352
  3429 09:0942: F4 xx xx     	pea	#<L41+352
  3430 09:0945: D4 45        	pei	<L43+subMenu_1+2
  3431 09:0947: D4 43        	pei	<L43+subMenu_1
  3432 09:0949: 22 xx xx xx  	jsl	~~k_user_AddMenuItem
  3433                        ;
  3434                        ;				subMenu = k_user_AddMenu
                    Item(desktopMenu,"Edit" ,30);
  3435                        	.line	403
  3436 09:094D: F4 1E 00     	pea	#<$1e
  3437 09:0950: F4 xx xx     	pea	#^L41+359
  3438 09:0953: F4 xx xx     	pea	#<L41+359
  3439 09:0956: D4 41        	pei	<L43+desktopMenu_1+2
  3440 09:0958: D4 3F        	pei	<L43+desktopMenu_1
  3441 09:095A: 22 xx xx xx  	jsl	~~k_user_AddMenuItem
  3442 09:095E: 85 43        	sta	<L43+subMenu_1
  3443 09:0960: 86 45        	stx	<L43+subMenu_1+2
  3444                        ;							
                    k_user_AddMenuItem(subMenu,"Copy",31);
  3445                        	.line	404
  3446 09:0962: F4 1F 00     	pea	#<$1f
  3447 09:0965: F4 xx xx     	pea	#^L41+364
  3448 09:0968: F4 xx xx     	pea	#<L41+364
  3449 09:096B: D4 45        	pei	<L43+subMenu_1+2
  3450 09:096D: D4 43        	pei	<L43+subMenu_1
  3451 09:096F: 22 xx xx xx  	jsl	~~k_user_AddMenuItem
  3452                        ;							
                    k_user_AddMenuItem(subMenu,"Cut",32);
  3453                        	.line	405
  3454 09:0973: F4 20 00     	pea	#<$20
  3455 09:0976: F4 xx xx     	pea	#^L41+369
  3456 09:0979: F4 xx xx     	pea	#<L41+369
  3457 09:097C: D4 45        	pei	<L43+subMenu_1+2
  3458 09:097E: D4 43        	pei	<L43+subMenu_1
  3459 09:0980: 22 xx xx xx  	jsl	~~k_user_AddMenuItem
  3460                        ;							
                    k_user_AddMenuItem(subMenu,"Paste",33);
  3461                        	.line	406
  3462 09:0984: F4 21 00     	pea	#<$21
  3463 09:0987: F4 xx xx     	pea	#^L41+373
  3464 09:098A: F4 xx xx     	pea	#<L41+373
  3465 09:098D: D4 45        	pei	<L43+subMenu_1+2
  3466 09:098F: D4 43        	pei	<L43+subMenu_1
  Mon Sep 27 2021  9:39                                                Page 68


  3467 09:0991: 22 xx xx xx  	jsl	~~k_user_AddMenuItem
  3468                        ;							
                    //k_user_AddMenuItem(subMenu,"______________",0);
  3469                        ;							
                    //k_user_AddMenuItem(subMenu,"Preferences",34);
  3470                        ;
  3471                        ;				/*
  3472                        ;				subMenu = k_user_AddMenu
                    Item(desktopMenu,"Sample" ,70);
  3473                        ;							
                    k_user_AddMenuItem(subMenu,"FX/Calculator",DESK_MENU_ACCESS_
                    CALC);
  3474                        ;
  3475                        ;
  3476                        ;				subMenu = k_user_AddMenu
                    Item(desktopMenu,"Debug",50);
  3477                        ;							
                     k_user_AddMenuItem(subMenu,"OS Debugging",51);
  3478                        ;				             k_user_AddM
                    enuItem(subMenu,"Debug Window",52);
  3479                        ;				             k_user_AddM
                    enuItem(subMenu,"Debug Selection",53);
  3480                        ;							
                     k_user_AddMenuItem(subMenu,"Debug Drag",54);
  3481                        ;							
                     k_user_AddMenuItem(subMenu,"Debug Rubberband",55);
  3482                        ;
  3483                        ;							
                     k_user_AddMenuItem(subMenu,"Debug Pointer Hourglass",56);
  3484                        ;							
                     k_user_AddMenuItem(subMenu,"Debug Pointer Help",57);
  3485                        ;							
                     k_user_AddMenuItem(subMenu,"Debug Pointer Arrow",58);
  3486                        ;							
                     k_user_AddMenuItem(subMenu,"Debug Pointer Resize",DESK_MENU
                    _DBG_RESIZE);
  3487                        ;
  3488                        ;
  3489                        ;				subMenu = k_user_AddMenu
                    Item(desktopMenu,"Windows",60);
  3490                        ;							
                     k_user_AddMenuItem(subMenu,"Redraw All",61);
  3491                        ;							
                     k_user_AddMenuItem(subMenu,"Warn MessageBox",DESK_MENU_WIND
                    OWS_MSG6);
  3492                        ;							
                     k_user_AddMenuItem(subMenu,"Stop MessageBox",DESK_MENU_WIND
                    OWS_MSG7);
  3493                        ;
  3494                        ;							
                     k_user_AddMenuItem(subMenu,"Palette #1",DESK_MENU_WINDOWS_B
                    0);
  3495                        ;							
                     k_user_AddMenuItem(subMenu,"Palette #2",DESK_MENU_WINDOWS_C
                    0);
  3496                        ;				*/
  3497                        ;
  3498                        ;
  Mon Sep 27 2021  9:39                                                Page 69


  3499                        ;
  3500                        ;
  3501                        ;				subMenu = k_user_AddMenu
                    Item(desktopMenu,"About",DESK_MENU_ABOUT);
  3502                        	.line	440
  3503 09:0995: F4 28 00     	pea	#<$28
  3504 09:0998: F4 xx xx     	pea	#^L41+379
  3505 09:099B: F4 xx xx     	pea	#<L41+379
  3506 09:099E: D4 41        	pei	<L43+desktopMenu_1+2
  3507 09:09A0: D4 3F        	pei	<L43+desktopMenu_1
  3508 09:09A2: 22 xx xx xx  	jsl	~~k_user_AddMenuItem
  3509 09:09A6: 85 43        	sta	<L43+subMenu_1
  3510 09:09A8: 86 45        	stx	<L43+subMenu_1+2
  3511                        ;						  	
                     k_user_AddMenuItem(subMenu,"About FX/OS...",DESK_MENU_ABT_F
                    XOS);
  3512                        	.line	441
  3513 09:09AA: F4 29 00     	pea	#<$29
  3514 09:09AD: F4 xx xx     	pea	#^L41+385
  3515 09:09B0: F4 xx xx     	pea	#<L41+385
  3516 09:09B3: D4 45        	pei	<L43+subMenu_1+2
  3517 09:09B5: D4 43        	pei	<L43+subMenu_1
  3518 09:09B7: 22 xx xx xx  	jsl	~~k_user_AddMenuItem
  3519                        ; 						
                    	 k_user_AddMenuItem(subMenu,"_________________",0);
  3520                        	.line	442
  3521 09:09BB: F4 00 00     	pea	#<$0
  3522 09:09BE: F4 xx xx     	pea	#^L41+400
  3523 09:09C1: F4 xx xx     	pea	#<L41+400
  3524 09:09C4: D4 45        	pei	<L43+subMenu_1+2
  3525 09:09C6: D4 43        	pei	<L43+subMenu_1
  3526 09:09C8: 22 xx xx xx  	jsl	~~k_user_AddMenuItem
  3527                        ;						  	
                     //k_user_AddMenuItem(subMenu,"Developer Options",42);
  3528                        ; 						
                    	 //k_user_AddMenuItem(subMenu,"Debug Kernel",43);
  3529                        ;						  	
                     k_user_AddMenuItem(subMenu,"Textbox Test",DESK_MENU_ABT_1);
  3530                        	.line	445
  3531 09:09CC: F4 2A 00     	pea	#<$2a
  3532 09:09CF: F4 xx xx     	pea	#^L41+418
  3533 09:09D2: F4 xx xx     	pea	#<L41+418
  3534 09:09D5: D4 45        	pei	<L43+subMenu_1+2
  3535 09:09D7: D4 43        	pei	<L43+subMenu_1
  3536 09:09D9: 22 xx xx xx  	jsl	~~k_user_AddMenuItem
  3537                        ; 						
                    	 k_user_AddMenuItem(subMenu,"Listbox Test",DESK_MENU_ABT
                    _2);
  3538                        	.line	446
  3539 09:09DD: F4 2B 00     	pea	#<$2b
  3540 09:09E0: F4 xx xx     	pea	#^L41+431
  3541 09:09E3: F4 xx xx     	pea	#<L41+431
  3542 09:09E6: D4 45        	pei	<L43+subMenu_1+2
  3543 09:09E8: D4 43        	pei	<L43+subMenu_1
  3544 09:09EA: 22 xx xx xx  	jsl	~~k_user_AddMenuItem
  3545                        ; 						
                    	 //k_user_AddMenuItem(subMenu,"Debug Menu",DESK_MENU_ABT
                    _DEBUG);
  Mon Sep 27 2021  9:39                                                Page 70


  3546                        ; 						
                    	 k_user_SetMenuState(k_user_AddMenuItem(subMenu,"Debug M
                    enu",DESK_MENU_ABT_DEBUG),
  3547                        	.line	448
  3548                        ; 						
                    			             DESK_MENU_ABT_DEBUG,1);
  3549 09:09EE: F4 01 00     	pea	#<$1
  3550 09:09F1: F4 2C 00     	pea	#<$2c
  3551 09:09F4: F4 2C 00     	pea	#<$2c
  3552 09:09F7: F4 xx xx     	pea	#^L41+444
  3553 09:09FA: F4 xx xx     	pea	#<L41+444
  3554 09:09FD: D4 45        	pei	<L43+subMenu_1+2
  3555 09:09FF: D4 43        	pei	<L43+subMenu_1
  3556 09:0A01: 22 xx xx xx  	jsl	~~k_user_AddMenuItem
  3557 09:0A05: 85 01        	sta	<R0
  3558 09:0A07: 86 03        	stx	<R0+2
  3559 09:0A09: DA           	phx
  3560 09:0A0A: 48           	pha
  3561 09:0A0B: 22 xx xx xx  	jsl	~~k_user_SetMenuState
  3562                        ;
  3563                        ;			}
  3564                        	.line	451
  3565                        ;			k_user_CreateMenu(pMsg->hwnd,des
                    ktopMenu,NULL);
  3566                        L10022:
  3567                        	.line	452
  3568 09:0A0F: F4 00 00     	pea	#^$0
  3569 09:0A12: F4 00 00     	pea	#<$0
  3570 09:0A15: D4 41        	pei	<L43+desktopMenu_1+2
  3571 09:0A17: D4 3F        	pei	<L43+desktopMenu_1
  3572 09:0A19: A0 0C 00     	ldy	#$c
  3573 09:0A1C: B7 52        	lda	[<L42+pMsg_0],Y
  3574 09:0A1E: 48           	pha
  3575 09:0A1F: A0 0A 00     	ldy	#$a
  3576 09:0A22: B7 52        	lda	[<L42+pMsg_0],Y
  3577 09:0A24: 48           	pha
  3578 09:0A25: 22 xx xx xx  	jsl	~~k_user_CreateMenu
  3579                        ;
  3580                        ;
  3581                        ;			break;
  3582                        	.line	455
  3583 09:0A29: 82 BB 16     	brl	L10019
  3584                        ;		case FX_PROCESS_TIMER:
  3585                        	.line	456
  3586                        L10023:
  3587                        ;			//k_debug_string("DesktopWindowP
                    roc::FX_PROCESS_TIMER\r\n");
  3588                        ;			break;
  3589                        	.line	458
  3590 09:0A2C: 82 B8 16     	brl	L10019
  3591                        ;		case FX_DRAW_WINDOW:
  3592                        	.line	459
  3593                        L10024:
  3594                        ;			k_debug_string("DesktopWindowPro
                    c::FX_DRAW_WINDOW\r\n");
  3595                        	.line	460
  3596 09:0A2F: F4 xx xx     	pea	#^L41+455
  3597 09:0A32: F4 xx xx     	pea	#<L41+455
  Mon Sep 27 2021  9:39                                                Page 71


  3598 09:0A35: 22 xx xx xx  	jsl	~~k_debug_string
  3599                        ;
  3600                        ;
  3601                        ;
  3602                        ;			/*
  3603                        ;			k_user_CreateButton(pMsg->hwnd,"
                    Ok",0x8801,100,250,-1,-1);
  3604                        ;
  3605                        ;			k_user_CreateButton(pMsg->hwnd,"
                    Cancel",0x8802,150,250,-1,-1);
  3606                        ;
  3607                        ;			for(i=0;i<10;i++)
  3608                        ;				k_user_CreateButton(pMsg
                    ->hwnd,digits[i],0x080+i,10 + (32 * i),400,-1,-1);
  3609                        ;
  3610                        ;			*/
  3611                        ;
  3612                        ;
  3613                        ;			break;
  3614                        	.line	475
  3615 09:0A39: 82 AB 16     	brl	L10019
  3616                        ;		case FX_CONTROL_COMMAND:
  3617                        	.line	476
  3618                        L10025:
  3619                        ;			k_debug_integer("DesktopWindowPr
                    oc::FX_CONTROL_COMMAND:", ((PFXCMDMESSAGE)pMsg)->cmdCId );
  3620                        	.line	477
  3621 09:0A3C: A0 16 00     	ldy	#$16
  3622 09:0A3F: B7 52        	lda	[<L42+pMsg_0],Y
  3623 09:0A41: 48           	pha
  3624 09:0A42: F4 xx xx     	pea	#^L41+491
  3625 09:0A45: F4 xx xx     	pea	#<L41+491
  3626 09:0A48: 22 xx xx xx  	jsl	~~k_debug_integer
  3627                        ;
  3628                        ;			break;
  3629                        	.line	479
  3630 09:0A4C: 82 98 16     	brl	L10019
  3631                        ;
  3632                        ;		case FX_SCROLLBAR_COMMAND:
  3633                        	.line	481
  3634                        L10026:
  3635                        ;			k_debug_integer("DesktopWindowPr
                    oc::FX_SCROLLBAR_COMMAND:", ((PFXCMDMESSAGE)pMsg)->cmdCId );
  3636                        	.line	482
  3637 09:0A4F: A0 16 00     	ldy	#$16
  3638 09:0A52: B7 52        	lda	[<L42+pMsg_0],Y
  3639 09:0A54: 48           	pha
  3640 09:0A55: F4 xx xx     	pea	#^L41+530
  3641 09:0A58: F4 xx xx     	pea	#<L41+530
  3642 09:0A5B: 22 xx xx xx  	jsl	~~k_debug_integer
  3643                        ;			if(((PFXCMDMESSAGE)pMsg)->cmdCId
                     == CTL_HORZ_SCROLL )
  3644                        	.line	483
  3645                        ;			{
  3646 09:0A5F: A0 16 00     	ldy	#$16
  3647 09:0A62: B7 52        	lda	[<L42+pMsg_0],Y
  3648 09:0A64: C9 02 00     	cmp	#<$2
  3649 09:0A67: F0 03        	beq	L49
  Mon Sep 27 2021  9:39                                                Page 72


  3650 09:0A69: 82 20 00     	brl	L10027
  3651                        L49:
  3652                        	.line	484
  3653                        ;				k_debug_integer("Desktop
                    WindowProc::FX_SCROLLBAR_COMMAND:LOCATION:", ((PFXCMDMESSAGE
                    )pMsg)->cmdMId );
  3654                        	.line	485
  3655 09:0A6C: A0 18 00     	ldy	#$18
  3656 09:0A6F: B7 52        	lda	[<L42+pMsg_0],Y
  3657 09:0A71: 48           	pha
  3658 09:0A72: F4 xx xx     	pea	#^L41+571
  3659 09:0A75: F4 xx xx     	pea	#<L41+571
  3660 09:0A78: 22 xx xx xx  	jsl	~~k_debug_integer
  3661                        ;				k_debug_integer("Desktop
                    WindowProc::FX_SCROLLBAR_COMMAND:VALUE:", ((PFXCMDMESSAGE)pM
                    sg)->parameter1);
  3662                        	.line	486
  3663 09:0A7C: A0 1A 00     	ldy	#$1a
  3664 09:0A7F: B7 52        	lda	[<L42+pMsg_0],Y
  3665 09:0A81: 48           	pha
  3666 09:0A82: F4 xx xx     	pea	#^L41+621
  3667 09:0A85: F4 xx xx     	pea	#<L41+621
  3668 09:0A88: 22 xx xx xx  	jsl	~~k_debug_integer
  3669                        ;			}
  3670                        	.line	487
  3671                        ;			break;
  3672                        L10027:
  3673                        	.line	488
  3674 09:0A8C: 82 58 16     	brl	L10019
  3675                        ;		case FX_MENU_COMMAND:
  3676                        	.line	489
  3677                        L10028:
  3678                        ;			//k_debug_integer("DesktopWindow
                    Proc::FX_MENU_COMMAND:", ((PFXCMDMESSAGE)pMsg)->cmdCId );
  3679                        ;			//k_debug_integer("DesktopWindow
                    Proc::MENUCTL:", ((PFXCMDMESSAGE)pMsg)->cmdMId );
  3680                        ;			//k_debug_long("DesktopWindowPro
                    c::FX_MENU_COMMAND:DATA:", ((PFXCMDMESSAGE)pMsg)->parameter1
                     );
  3681                        ;
  3682                        ;			if(((PFXCMDMESSAGE)pMsg)->cmdCId
                     == CTL_MENU_SELECTED )
  3683                        	.line	494
  3684                        ;			{
  3685 09:0A8F: A0 16 00     	ldy	#$16
  3686 09:0A92: B7 52        	lda	[<L42+pMsg_0],Y
  3687 09:0A94: C9 01 00     	cmp	#<$1
  3688 09:0A97: F0 03        	beq	L50
  3689 09:0A99: 82 DE 07     	brl	L10029
  3690                        L50:
  3691                        	.line	495
  3692                        ;				switch(((PFXCMDMESSAGE)p
                    Msg)->cmdMId)
  3693                        	.line	496
  3694 09:0A9C: A0 18 00     	ldy	#$18
  3695 09:0A9F: B7 52        	lda	[<L42+pMsg_0],Y
  3696 09:0AA1: 82 5E 07     	brl	L10030
  3697                        ;				{
  Mon Sep 27 2021  9:39                                                Page 73


  3698                        	.line	497
  3699                        ;				case DESK_MENU_VOLINFO:
  3700                        	.line	498
  3701                        L10032:
  3702                        ;					k_user_DisplayVo
                    lWindow(pMsg->hwnd);
  3703                        	.line	499
  3704 09:0AA4: A0 0C 00     	ldy	#$c
  3705 09:0AA7: B7 52        	lda	[<L42+pMsg_0],Y
  3706 09:0AA9: 48           	pha
  3707 09:0AAA: A0 0A 00     	ldy	#$a
  3708 09:0AAD: B7 52        	lda	[<L42+pMsg_0],Y
  3709 09:0AAF: 48           	pha
  3710 09:0AB0: 22 9E 2A 09  	jsl	~~k_user_DisplayVolWindow
  3711                        ;					break;
  3712                        	.line	500
  3713 09:0AB4: 82 C3 07     	brl	L10031
  3714                        ;				case DESK_MENU_RELABEL:
  3715                        	.line	501
  3716                        L10033:
  3717                        ;
  3718                        ;					testRelabel();
  3719                        	.line	503
  3720 09:0AB7: 22 00 00 09  	jsl	~~testRelabel
  3721                        ;
  3722                        ;					break;
  3723                        	.line	505
  3724 09:0ABB: 82 BC 07     	brl	L10031
  3725                        ;				case DESK_MENU_RENAME:
  3726                        	.line	506
  3727                        L10034:
  3728                        ;
  3729                        ;					testRename();
  3730                        	.line	508
  3731 09:0ABE: 22 C8 00 09  	jsl	~~testRename
  3732                        ;
  3733                        ;					break;
  3734                        	.line	510
  3735 09:0AC2: 82 B5 07     	brl	L10031
  3736                        ;				case DESK_MENU_EJECT:
  3737                        	.line	511
  3738                        L10035:
  3739                        ;
  3740                        ;
  3741                        ;					k_close_dos_devi
                    ce(0x05);
  3742                        	.line	514
  3743 09:0AC5: F4 05 00     	pea	#<$5
  3744 09:0AC8: 22 xx xx xx  	jsl	~~k_close_dos_device
  3745                        ;
  3746                        ;
  3747                        ;					break;
  3748                        	.line	517
  3749 09:0ACC: 82 AB 07     	brl	L10031
  3750                        ;				case DESK_MENU_MOUNT:
  3751                        	.line	518
  3752                        L10036:
  3753                        ;
  Mon Sep 27 2021  9:39                                                Page 74


  3754                        ;					testFileSystems(
                    );
  3755                        	.line	520
  3756 09:0ACF: 22 CD 01 09  	jsl	~~testFileSystems
  3757                        ;
  3758                        ;					break;
  3759                        	.line	522
  3760 09:0AD3: 82 A4 07     	brl	L10031
  3761                        ;				case DESK_MENU_NEWFOLDER
                    :
  3762                        	.line	523
  3763                        L10037:
  3764                        ;
  3765                        ;					testNewFolder();
  3766                        	.line	525
  3767 09:0AD6: 22 56 01 09  	jsl	~~testNewFolder
  3768                        ;
  3769                        ;					break;
  3770                        	.line	527
  3771 09:0ADA: 82 9D 07     	brl	L10031
  3772                        ;				case DESK_MENU_PROCESSES
                    :
  3773                        	.line	528
  3774                        L10038:
  3775                        ;
  3776                        ;					pprocess = k_use
                    r_CreateProcess("@/procman");
  3777                        	.line	530
  3778 09:0ADD: F4 xx xx     	pea	#^L41+668
  3779 09:0AE0: F4 xx xx     	pea	#<L41+668
  3780 09:0AE3: 22 xx xx xx  	jsl	~~k_user_CreateProcess
  3781 09:0AE7: 85 4B        	sta	<L43+pprocess_1
  3782 09:0AE9: 86 4D        	stx	<L43+pprocess_1+2
  3783                        ;
  3784                        ;					break;
  3785                        	.line	532
  3786 09:0AEB: 82 8C 07     	brl	L10031
  3787                        ;				case DESK_MENU_C_PALETTE
                    :
  3788                        	.line	533
  3789                        L10039:
  3790                        ;
  3791                        ;					pprocess = k_use
                    r_CreateProcess("@/palette");
  3792                        	.line	535
  3793 09:0AEE: F4 xx xx     	pea	#^L41+678
  3794 09:0AF1: F4 xx xx     	pea	#<L41+678
  3795 09:0AF4: 22 xx xx xx  	jsl	~~k_user_CreateProcess
  3796 09:0AF8: 85 4B        	sta	<L43+pprocess_1
  3797 09:0AFA: 86 4D        	stx	<L43+pprocess_1+2
  3798                        ;
  3799                        ;					break;
  3800                        	.line	537
  3801 09:0AFC: 82 7B 07     	brl	L10031
  3802                        ;				case DESK_MENU_ACCESS_CA
                    LC:
  3803                        	.line	538
  3804                        L10040:
  Mon Sep 27 2021  9:39                                                Page 75


  3805                        ;
  3806                        ;					pprocess = k_exe
                    c_launchProcess("@/calculator");
  3807                        	.line	540
  3808 09:0AFF: F4 xx xx     	pea	#^L41+688
  3809 09:0B02: F4 xx xx     	pea	#<L41+688
  3810 09:0B05: 22 xx xx xx  	jsl	~~k_exec_launchProcess
  3811 09:0B09: 85 4B        	sta	<L43+pprocess_1
  3812 09:0B0B: 86 4D        	stx	<L43+pprocess_1+2
  3813                        ;					if(pprocess!=NUL
                    L)
  3814                        	.line	541
  3815                        ;					{
  3816 09:0B0D: A5 4B        	lda	<L43+pprocess_1
  3817 09:0B0F: 05 4D        	ora	<L43+pprocess_1+2
  3818 09:0B11: D0 03        	bne	L51
  3819 09:0B13: 82 1F 00     	brl	L10041
  3820                        L51:
  3821                        	.line	542
  3822                        ;						k_attach
                    _process_events(pprocess->execProc,pprocess);
  3823                        	.line	543
  3824 09:0B16: D4 4D        	pei	<L43+pprocess_1+2
  3825 09:0B18: D4 4B        	pei	<L43+pprocess_1
  3826 09:0B1A: A0 5E 00     	ldy	#$5e
  3827 09:0B1D: B7 4B        	lda	[<L43+pprocess_1],Y
  3828 09:0B1F: 48           	pha
  3829 09:0B20: A0 5C 00     	ldy	#$5c
  3830 09:0B23: B7 4B        	lda	[<L43+pprocess_1],Y
  3831 09:0B25: 48           	pha
  3832 09:0B26: 22 xx xx xx  	jsl	~~k_attach_process_events
  3833                        ;						k_exec_s
                    et_process_foreground(pprocess,TRUE);
  3834                        	.line	544
  3835 09:0B2A: F4 01 00     	pea	#<$1
  3836 09:0B2D: D4 4D        	pei	<L43+pprocess_1+2
  3837 09:0B2F: D4 4B        	pei	<L43+pprocess_1
  3838 09:0B31: 22 xx xx xx  	jsl	~~k_exec_set_process_foreground
  3839                        ;					}
  3840                        	.line	545
  3841                        ;
  3842                        ;					break;
  3843                        L10041:
  3844                        	.line	547
  3845 09:0B35: 82 42 07     	brl	L10031
  3846                        ;				case DESK_MENU_ABT_1:
  3847                        	.line	548
  3848                        L10042:
  3849                        ;					dlgWnd = k_getWi
                    ndowFromHandle(k_user_findWindow("TEXTBOX1"));
  3850                        	.line	549
  3851 09:0B38: F4 xx xx     	pea	#^L41+701
  3852 09:0B3B: F4 xx xx     	pea	#<L41+701
  3853 09:0B3E: 22 xx xx xx  	jsl	~~k_user_findWindow
  3854 09:0B42: 85 01        	sta	<R0
  3855 09:0B44: 86 03        	stx	<R0+2
  3856 09:0B46: DA           	phx
  3857 09:0B47: 48           	pha
  Mon Sep 27 2021  9:39                                                Page 76


  3858 09:0B48: 22 xx xx xx  	jsl	~~k_getWindowFromHandle
  3859 09:0B4C: 85 15        	sta	<L43+dlgWnd_1
  3860 09:0B4E: 86 17        	stx	<L43+dlgWnd_1+2
  3861                        ;					if(!dlgWnd || (d
                    lgWnd && dlgWnd->isClosed))
  3862                        	.line	550
  3863                        ;					{
  3864 09:0B50: A5 15        	lda	<L43+dlgWnd_1
  3865 09:0B52: 05 17        	ora	<L43+dlgWnd_1+2
  3866 09:0B54: D0 03        	bne	L53
  3867 09:0B56: 82 16 00     	brl	L52
  3868                        L53:
  3869 09:0B59: A5 15        	lda	<L43+dlgWnd_1
  3870 09:0B5B: 05 17        	ora	<L43+dlgWnd_1+2
  3871 09:0B5D: D0 03        	bne	L54
  3872 09:0B5F: 82 3C 00     	brl	L10043
  3873                        L54:
  3874 09:0B62: A0 E1 01     	ldy	#$1e1
  3875 09:0B65: B7 15        	lda	[<L43+dlgWnd_1],Y
  3876 09:0B67: 29 FF 00     	and	#$ff
  3877 09:0B6A: D0 03        	bne	L55
  3878 09:0B6C: 82 2F 00     	brl	L10043
  3879                        L55:
  3880                        L52:
  3881                        	.line	551
  3882                        ;						dlgWnd =
                     k_user_CreateTextBox(pMsg->hwnd,
  3883                        	.line	552
  3884                        ;							
                    				"TEXTBOX1",
  3885                        ;							
                    				CTL_TEXTBOX_SINGLE,
  3886                        ;							
                    				0x8801,
  3887                        ;							
                    				400,20,
  3888                        ;							
                    				200,
  3889                        ;							
                    				-1);
  3890 09:0B6F: F4 FF FF     	pea	#<$ffffffff
  3891 09:0B72: F4 C8 00     	pea	#<$c8
  3892 09:0B75: F4 14 00     	pea	#<$14
  3893 09:0B78: F4 90 01     	pea	#<$190
  3894 09:0B7B: F4 01 88     	pea	#<$8801
  3895 09:0B7E: F4 00 00     	pea	#<$0
  3896 09:0B81: F4 xx xx     	pea	#^L41+710
  3897 09:0B84: F4 xx xx     	pea	#<L41+710
  3898 09:0B87: A0 0C 00     	ldy	#$c
  3899 09:0B8A: B7 52        	lda	[<L42+pMsg_0],Y
  3900 09:0B8C: 48           	pha
  3901 09:0B8D: A0 0A 00     	ldy	#$a
  3902 09:0B90: B7 52        	lda	[<L42+pMsg_0],Y
  3903 09:0B92: 48           	pha
  3904 09:0B93: 22 xx xx xx  	jsl	~~k_user_CreateTextBox
  3905 09:0B97: 85 15        	sta	<L43+dlgWnd_1
  3906 09:0B99: 86 17        	stx	<L43+dlgWnd_1+2
  3907                        ;
  Mon Sep 27 2021  9:39                                                Page 77


  3908                        ;					}
  3909                        	.line	560
  3910                        ;					else
  3911 09:0B9B: 82 0A 00     	brl	L10044
  3912                        L10043:
  3913                        ;					{
  3914                        	.line	562
  3915                        ;						k_debug_
                    string("TEXTBOX1 Already Open\r\n");
  3916                        	.line	563
  3917 09:0B9E: F4 xx xx     	pea	#^L41+719
  3918 09:0BA1: F4 xx xx     	pea	#<L41+719
  3919 09:0BA4: 22 xx xx xx  	jsl	~~k_debug_string
  3920                        ;					}
  3921                        	.line	564
  3922                        L10044:
  3923                        ;
  3924                        ;					dlgWnd = k_getWi
                    ndowFromHandle(k_user_findWindow("TEXTBOX2"));
  3925                        	.line	566
  3926 09:0BA8: F4 xx xx     	pea	#^L41+743
  3927 09:0BAB: F4 xx xx     	pea	#<L41+743
  3928 09:0BAE: 22 xx xx xx  	jsl	~~k_user_findWindow
  3929 09:0BB2: 85 01        	sta	<R0
  3930 09:0BB4: 86 03        	stx	<R0+2
  3931 09:0BB6: DA           	phx
  3932 09:0BB7: 48           	pha
  3933 09:0BB8: 22 xx xx xx  	jsl	~~k_getWindowFromHandle
  3934 09:0BBC: 85 15        	sta	<L43+dlgWnd_1
  3935 09:0BBE: 86 17        	stx	<L43+dlgWnd_1+2
  3936                        ;					if(!dlgWnd || (d
                    lgWnd && dlgWnd->isClosed))
  3937                        	.line	567
  3938                        ;					{
  3939 09:0BC0: A5 15        	lda	<L43+dlgWnd_1
  3940 09:0BC2: 05 17        	ora	<L43+dlgWnd_1+2
  3941 09:0BC4: D0 03        	bne	L57
  3942 09:0BC6: 82 16 00     	brl	L56
  3943                        L57:
  3944 09:0BC9: A5 15        	lda	<L43+dlgWnd_1
  3945 09:0BCB: 05 17        	ora	<L43+dlgWnd_1+2
  3946 09:0BCD: D0 03        	bne	L58
  3947 09:0BCF: 82 3C 00     	brl	L10045
  3948                        L58:
  3949 09:0BD2: A0 E1 01     	ldy	#$1e1
  3950 09:0BD5: B7 15        	lda	[<L43+dlgWnd_1],Y
  3951 09:0BD7: 29 FF 00     	and	#$ff
  3952 09:0BDA: D0 03        	bne	L59
  3953 09:0BDC: 82 2F 00     	brl	L10045
  3954                        L59:
  3955                        L56:
  3956                        	.line	568
  3957                        ;						dlgWnd =
                     k_user_CreateTextBox(pMsg->hwnd,
  3958                        	.line	569
  3959                        ;							
                    						  "TEXTBOX2",
  3960                        ;							
  Mon Sep 27 2021  9:39                                                Page 78


                    						  CTL_TEXTBOX_SI
                    NGLE,
  3961                        ;							
                    						  0x8802,
  3962                        ;							
                    						  400,50,
  3963                        ;							
                    						  200,-1);
  3964 09:0BDF: F4 FF FF     	pea	#<$ffffffff
  3965 09:0BE2: F4 C8 00     	pea	#<$c8
  3966 09:0BE5: F4 32 00     	pea	#<$32
  3967 09:0BE8: F4 90 01     	pea	#<$190
  3968 09:0BEB: F4 02 88     	pea	#<$8802
  3969 09:0BEE: F4 00 00     	pea	#<$0
  3970 09:0BF1: F4 xx xx     	pea	#^L41+752
  3971 09:0BF4: F4 xx xx     	pea	#<L41+752
  3972 09:0BF7: A0 0C 00     	ldy	#$c
  3973 09:0BFA: B7 52        	lda	[<L42+pMsg_0],Y
  3974 09:0BFC: 48           	pha
  3975 09:0BFD: A0 0A 00     	ldy	#$a
  3976 09:0C00: B7 52        	lda	[<L42+pMsg_0],Y
  3977 09:0C02: 48           	pha
  3978 09:0C03: 22 xx xx xx  	jsl	~~k_user_CreateTextBox
  3979 09:0C07: 85 15        	sta	<L43+dlgWnd_1
  3980 09:0C09: 86 17        	stx	<L43+dlgWnd_1+2
  3981                        ;
  3982                        ;					}
  3983                        	.line	576
  3984                        ;					else
  3985 09:0C0B: 82 0A 00     	brl	L10046
  3986                        L10045:
  3987                        ;					{
  3988                        	.line	578
  3989                        ;						k_debug_
                    string("TEXTBOX2 Already Open\r\n");
  3990                        	.line	579
  3991 09:0C0E: F4 xx xx     	pea	#^L41+761
  3992 09:0C11: F4 xx xx     	pea	#<L41+761
  3993 09:0C14: 22 xx xx xx  	jsl	~~k_debug_string
  3994                        ;					}
  3995                        	.line	580
  3996                        L10046:
  3997                        ;
  3998                        ;
  3999                        ;					break;
  4000                        	.line	583
  4001 09:0C18: 82 5F 06     	brl	L10031
  4002                        ;				case DESK_MENU_DEBUG:
  4003                        	.line	584
  4004                        L10047:
  4005                        ;
  4006                        ;					dlgWnd = k_getWi
                    ndowFromHandle(k_user_findWindow("LISTBOX"));
  4007                        	.line	586
  4008 09:0C1B: F4 xx xx     	pea	#^L41+785
  4009 09:0C1E: F4 xx xx     	pea	#<L41+785
  4010 09:0C21: 22 xx xx xx  	jsl	~~k_user_findWindow
  4011 09:0C25: 85 01        	sta	<R0
  Mon Sep 27 2021  9:39                                                Page 79


  4012 09:0C27: 86 03        	stx	<R0+2
  4013 09:0C29: DA           	phx
  4014 09:0C2A: 48           	pha
  4015 09:0C2B: 22 xx xx xx  	jsl	~~k_getWindowFromHandle
  4016 09:0C2F: 85 15        	sta	<L43+dlgWnd_1
  4017 09:0C31: 86 17        	stx	<L43+dlgWnd_1+2
  4018                        ;					if(!dlgWnd || (d
                    lgWnd && dlgWnd->isClosed))
  4019                        	.line	587
  4020                        ;					{
  4021 09:0C33: A5 15        	lda	<L43+dlgWnd_1
  4022 09:0C35: 05 17        	ora	<L43+dlgWnd_1+2
  4023 09:0C37: D0 03        	bne	L61
  4024 09:0C39: 82 16 00     	brl	L60
  4025                        L61:
  4026 09:0C3C: A5 15        	lda	<L43+dlgWnd_1
  4027 09:0C3E: 05 17        	ora	<L43+dlgWnd_1+2
  4028 09:0C40: D0 03        	bne	L62
  4029 09:0C42: 82 4E 00     	brl	L10048
  4030                        L62:
  4031 09:0C45: A0 E1 01     	ldy	#$1e1
  4032 09:0C48: B7 15        	lda	[<L43+dlgWnd_1],Y
  4033 09:0C4A: 29 FF 00     	and	#$ff
  4034 09:0C4D: D0 03        	bne	L63
  4035 09:0C4F: 82 41 00     	brl	L10048
  4036                        L63:
  4037                        L60:
  4038                        	.line	588
  4039                        ;						dlgWnd =
                     k_user_CreateWindow(FXWS_BORDER | FXWS_VISIBLE,
  4040                        	.line	589
  4041                        ;							
                    				"listboxWindowClass",
  4042                        ;							
                    				"LISTBOX",
  4043                        ;							
                    				20,20,
  4044                        ;							
                    				200,200,
  4045                        ;							
                    				pMsg->hwnd,
  4046                        ;							
                    				NULL,
  4047                        ;							
                    				NULL);
  4048 09:0C52: F4 00 00     	pea	#^$0
  4049 09:0C55: F4 00 00     	pea	#<$0
  4050 09:0C58: F4 00 00     	pea	#^$0
  4051 09:0C5B: F4 00 00     	pea	#<$0
  4052 09:0C5E: A0 0C 00     	ldy	#$c
  4053 09:0C61: B7 52        	lda	[<L42+pMsg_0],Y
  4054 09:0C63: 48           	pha
  4055 09:0C64: A0 0A 00     	ldy	#$a
  4056 09:0C67: B7 52        	lda	[<L42+pMsg_0],Y
  4057 09:0C69: 48           	pha
  4058 09:0C6A: F4 C8 00     	pea	#<$c8
  4059 09:0C6D: F4 C8 00     	pea	#<$c8
  4060 09:0C70: F4 14 00     	pea	#<$14
  Mon Sep 27 2021  9:39                                                Page 80


  4061 09:0C73: F4 14 00     	pea	#<$14
  4062 09:0C76: F4 xx xx     	pea	#^L41+812
  4063 09:0C79: F4 xx xx     	pea	#<L41+812
  4064 09:0C7C: F4 xx xx     	pea	#^L41+793
  4065 09:0C7F: F4 xx xx     	pea	#<L41+793
  4066 09:0C82: F4 01 00     	pea	#^$10001
  4067 09:0C85: F4 01 00     	pea	#<$10001
  4068 09:0C88: 22 xx xx xx  	jsl	~~k_user_CreateWindow
  4069 09:0C8C: 85 15        	sta	<L43+dlgWnd_1
  4070 09:0C8E: 86 17        	stx	<L43+dlgWnd_1+2
  4071                        ;
  4072                        ;					}
  4073                        	.line	598
  4074                        ;					else
  4075 09:0C90: 82 0A 00     	brl	L10049
  4076                        L10048:
  4077                        ;					{
  4078                        	.line	600
  4079                        ;						k_debug_
                    string("Listbox Already Open\r\n");
  4080                        	.line	601
  4081 09:0C93: F4 xx xx     	pea	#^L41+820
  4082 09:0C96: F4 xx xx     	pea	#<L41+820
  4083 09:0C99: 22 xx xx xx  	jsl	~~k_debug_string
  4084                        ;					}
  4085                        	.line	602
  4086                        L10049:
  4087                        ;					break;
  4088                        	.line	603
  4089 09:0C9D: 82 DA 05     	brl	L10031
  4090                        ;				case DESK_MENU_ABT_FXOS:
  4091                        	.line	604
  4092                        L10050:
  4093                        ;					dlgWnd = k_getWi
                    ndowFromHandle(k_user_findWindow("About FX/OS"));
  4094                        	.line	605
  4095 09:0CA0: F4 xx xx     	pea	#^L41+843
  4096 09:0CA3: F4 xx xx     	pea	#<L41+843
  4097 09:0CA6: 22 xx xx xx  	jsl	~~k_user_findWindow
  4098 09:0CAA: 85 01        	sta	<R0
  4099 09:0CAC: 86 03        	stx	<R0+2
  4100 09:0CAE: DA           	phx
  4101 09:0CAF: 48           	pha
  4102 09:0CB0: 22 xx xx xx  	jsl	~~k_getWindowFromHandle
  4103 09:0CB4: 85 15        	sta	<L43+dlgWnd_1
  4104 09:0CB6: 86 17        	stx	<L43+dlgWnd_1+2
  4105                        ;					if(!dlgWnd || (d
                    lgWnd && dlgWnd->isClosed))
  4106                        	.line	606
  4107                        ;					{
  4108 09:0CB8: A5 15        	lda	<L43+dlgWnd_1
  4109 09:0CBA: 05 17        	ora	<L43+dlgWnd_1+2
  4110 09:0CBC: D0 03        	bne	L65
  4111 09:0CBE: 82 16 00     	brl	L64
  4112                        L65:
  4113 09:0CC1: A5 15        	lda	<L43+dlgWnd_1
  4114 09:0CC3: 05 17        	ora	<L43+dlgWnd_1+2
  4115 09:0CC5: D0 03        	bne	L66
  Mon Sep 27 2021  9:39                                                Page 81


  4116 09:0CC7: 82 AA 00     	brl	L10051
  4117                        L66:
  4118 09:0CCA: A0 E1 01     	ldy	#$1e1
  4119 09:0CCD: B7 15        	lda	[<L43+dlgWnd_1],Y
  4120 09:0CCF: 29 FF 00     	and	#$ff
  4121 09:0CD2: D0 03        	bne	L67
  4122 09:0CD4: 82 9D 00     	brl	L10051
  4123                        L67:
  4124                        L64:
  4125                        	.line	607
  4126                        ;
  4127                        ;						k_user_C
                    reateWindowClassEx("fxPaletteAboutClass",NULL,0,FXWSX_ALWAYS
                    _BACKPLANE,NULL,NULL,NULL,AboutPaletteWindowProc);
  4128                        	.line	609
  4129 09:0CD7: F4 xx xx     	pea	#^~~AboutPaletteWindowProc
  4130 09:0CDA: F4 xx xx     	pea	#<~~AboutPaletteWindowProc
  4131 09:0CDD: F4 00 00     	pea	#^$0
  4132 09:0CE0: F4 00 00     	pea	#<$0
  4133 09:0CE3: F4 00 00     	pea	#^$0
  4134 09:0CE6: F4 00 00     	pea	#<$0
  4135 09:0CE9: F4 00 00     	pea	#^$0
  4136 09:0CEC: F4 00 00     	pea	#<$0
  4137 09:0CEF: F4 00 00     	pea	#<$0
  4138 09:0CF2: F4 00 00     	pea	#<$0
  4139 09:0CF5: F4 00 00     	pea	#^$0
  4140 09:0CF8: F4 00 00     	pea	#<$0
  4141 09:0CFB: F4 xx xx     	pea	#^L41+855
  4142 09:0CFE: F4 xx xx     	pea	#<L41+855
  4143 09:0D01: 22 xx xx xx  	jsl	~~k_user_CreateWindowClassEx
  4144                        ;						//dlgWnd
                     = k_user_CreateWindow(FXWS_THICKFRAME | FXWS_CAPTION | FXWS
                    _VISIBLE | FXWS_SYSMENU | FXWS_POPUP,
  4145                        ;
  4146                        ;						dlgWnd =
                     k_user_CreateWindow(FXWS_THICKFRAME | FXWS_VISIBLE | FXWS_P
                    OPUP,
  4147                        	.line	612
  4148                        ;							
                    								
                    "fxPaletteAboutClass",
  4149                        ;							
                    								
                    "About FX/OS",
  4150                        ;							
                    								
                    k_user_getSystemMetric(SM_CXFULLSCREEN)/2 - 155,
  4151                        ;							
                    								
                    k_user_getSystemMetric(SM_CYFULLSCREEN)/2 - 150,
  4152                        ;							
                    								
                    310,//326   + (2 * k_user_getSystemMetric(SM_CXBORDER)),
  4153                        ;							
                    								
                    300,//16*16 + k_user_getSystemMetric(SM_CYBORDER) +  (2 *+ k
                    _user_getSystemMetric(SM_CYFRAME_DEFAULT)),
  4154                        ;							
  Mon Sep 27 2021  9:39                                                Page 82


                    								
                    k_user_getDesktopWindow(),
  4155                        ;							
                    								
                    NULL,
  4156                        ;							
                    								
                    NULL);
  4157 09:0D05: F4 00 00     	pea	#^$0
  4158 09:0D08: F4 00 00     	pea	#<$0
  4159 09:0D0B: F4 00 00     	pea	#^$0
  4160 09:0D0E: F4 00 00     	pea	#<$0
  4161 09:0D11: 22 xx xx xx  	jsl	~~k_user_getDesktopWindow
  4162 09:0D15: 85 01        	sta	<R0
  4163 09:0D17: 86 03        	stx	<R0+2
  4164 09:0D19: DA           	phx
  4165 09:0D1A: 48           	pha
  4166 09:0D1B: F4 2C 01     	pea	#<$12c
  4167 09:0D1E: F4 36 01     	pea	#<$136
  4168 09:0D21: F4 11 00     	pea	#<$11
  4169 09:0D24: 22 xx xx xx  	jsl	~~k_user_getSystemMetric
  4170 09:0D28: 85 05        	sta	<R1
  4171 09:0D2A: A5 05        	lda	<R1
  4172 09:0D2C: A2 02 00     	ldx	#<$2
  4173                        	xref	~~~div
  4174 09:0D2F: 22 xx xx xx  	jsl	~~~div
  4175 09:0D33: 85 05        	sta	<R1
  4176 09:0D35: 18           	clc
  4177 09:0D36: A9 6A FF     	lda	#$ff6a
  4178 09:0D39: 65 05        	adc	<R1
  4179 09:0D3B: 48           	pha
  4180 09:0D3C: F4 10 00     	pea	#<$10
  4181 09:0D3F: 22 xx xx xx  	jsl	~~k_user_getSystemMetric
  4182 09:0D43: 85 05        	sta	<R1
  4183 09:0D45: A5 05        	lda	<R1
  4184 09:0D47: A2 02 00     	ldx	#<$2
  4185                        	xref	~~~div
  4186 09:0D4A: 22 xx xx xx  	jsl	~~~div
  4187 09:0D4E: 85 05        	sta	<R1
  4188 09:0D50: 18           	clc
  4189 09:0D51: A9 65 FF     	lda	#$ff65
  4190 09:0D54: 65 05        	adc	<R1
  4191 09:0D56: 48           	pha
  4192 09:0D57: F4 xx xx     	pea	#^L41+895
  4193 09:0D5A: F4 xx xx     	pea	#<L41+895
  4194 09:0D5D: F4 xx xx     	pea	#^L41+875
  4195 09:0D60: F4 xx xx     	pea	#<L41+875
  4196 09:0D63: F4 22 00     	pea	#^$220001
  4197 09:0D66: F4 01 00     	pea	#<$220001
  4198 09:0D69: 22 xx xx xx  	jsl	~~k_user_CreateWindow
  4199 09:0D6D: 85 15        	sta	<L43+dlgWnd_1
  4200 09:0D6F: 86 17        	stx	<L43+dlgWnd_1+2
  4201                        ;
  4202                        ;						/*
  4203                        ;
  4204                        ;						dlgWnd =
                     k_user_CreateWindow(FXWS_THICKFRAME | FXWS_CAPTION | FXWS_V
                    ISIBLE | FXWS_SYSMENU | FXWS_POPUP,
  Mon Sep 27 2021  9:39                                                Page 83


  4205                        ;							
                    						 "aboutDialogWin
                    dowClass",
  4206                        ;							
                    						 "About FX/OS",
  4207                        ;							
                    						 150,150,
  4208                        ;							
                    						 300,225,
  4209                        ;							
                    						 pMsg->hwnd,
  4210                        ;							
                    						 NULL,
  4211                        ;							
                    						 NULL);
  4212                        ;							
                    						 */
  4213                        ;
  4214                        ;						/*
  4215                        ;						dlgWnd =
                     k_user_CreateWindow(FXWS_DLGFRAME | FXWS_VISIBLE,
  4216                        ;							
                    				"aboutDialogWindowClass",
  4217                        ;							
                    				"About FX/OS",
  4218                        ;							
                    				150,150,
  4219                        ;							
                    				300,150,
  4220                        ;							
                    				pMsg->hwnd,
  4221                        ;							
                    				NULL,
  4222                        ;							
                    				NULL);
  4223                        ;							
                    				*/
  4224                        ;
  4225                        ;					}
  4226                        	.line	646
  4227                        ;					else
  4228 09:0D71: 82 0A 00     	brl	L10052
  4229                        L10051:
  4230                        ;					{
  4231                        	.line	648
  4232                        ;						k_debug_
                    string("Dialog Already Open\r\n");
  4233                        	.line	649
  4234 09:0D74: F4 xx xx     	pea	#^L41+907
  4235 09:0D77: F4 xx xx     	pea	#<L41+907
  4236 09:0D7A: 22 xx xx xx  	jsl	~~k_debug_string
  4237                        ;					}
  4238                        	.line	650
  4239                        L10052:
  4240                        ;					break;
  4241                        	.line	651
  4242 09:0D7E: 82 F9 04     	brl	L10031
  4243                        ;
  Mon Sep 27 2021  9:39                                                Page 84


  4244                        ;				case DESK_MENU_PREFS:
  4245                        	.line	653
  4246                        L10053:
  4247                        ;
  4248                        ;					dlgWnd = k_getWi
                    ndowFromHandle(k_user_findWindow("Preferences"));
  4249                        	.line	655
  4250 09:0D81: F4 xx xx     	pea	#^L41+929
  4251 09:0D84: F4 xx xx     	pea	#<L41+929
  4252 09:0D87: 22 xx xx xx  	jsl	~~k_user_findWindow
  4253 09:0D8B: 85 01        	sta	<R0
  4254 09:0D8D: 86 03        	stx	<R0+2
  4255 09:0D8F: DA           	phx
  4256 09:0D90: 48           	pha
  4257 09:0D91: 22 xx xx xx  	jsl	~~k_getWindowFromHandle
  4258 09:0D95: 85 15        	sta	<L43+dlgWnd_1
  4259 09:0D97: 86 17        	stx	<L43+dlgWnd_1+2
  4260                        ;					if(!dlgWnd || (d
                    lgWnd && dlgWnd->isClosed))
  4261                        	.line	656
  4262                        ;					{
  4263 09:0D99: A5 15        	lda	<L43+dlgWnd_1
  4264 09:0D9B: 05 17        	ora	<L43+dlgWnd_1+2
  4265 09:0D9D: D0 03        	bne	L69
  4266 09:0D9F: 82 16 00     	brl	L68
  4267                        L69:
  4268 09:0DA2: A5 15        	lda	<L43+dlgWnd_1
  4269 09:0DA4: 05 17        	ora	<L43+dlgWnd_1+2
  4270 09:0DA6: D0 03        	bne	L70
  4271 09:0DA8: 82 CE 00     	brl	L10054
  4272                        L70:
  4273 09:0DAB: A0 E1 01     	ldy	#$1e1
  4274 09:0DAE: B7 15        	lda	[<L43+dlgWnd_1],Y
  4275 09:0DB0: 29 FF 00     	and	#$ff
  4276 09:0DB3: D0 03        	bne	L71
  4277 09:0DB5: 82 C1 00     	brl	L10054
  4278                        L71:
  4279                        L68:
  4280                        	.line	657
  4281                        ;						dlgWnd =
                     k_user_CreateWindow(FXWS_THICKFRAME | FXWS_CAPTION | FXWS_V
                    ISIBLE | FXWS_SYSMENU,
  4282                        	.line	658
  4283                        ;							
                    				"preferencesWindowClass",
  4284                        ;							
                    				"Preferences",
  4285                        ;							
                    				150,150,
  4286                        ;							
                    				350,250,
  4287                        ;							
                    				pMsg->hwnd,
  4288                        ;							
                    				NULL,
  4289                        ;							
                    				NULL);
  4290 09:0DB8: F4 00 00     	pea	#^$0
  Mon Sep 27 2021  9:39                                                Page 85


  4291 09:0DBB: F4 00 00     	pea	#<$0
  4292 09:0DBE: F4 00 00     	pea	#^$0
  4293 09:0DC1: F4 00 00     	pea	#<$0
  4294 09:0DC4: A0 0C 00     	ldy	#$c
  4295 09:0DC7: B7 52        	lda	[<L42+pMsg_0],Y
  4296 09:0DC9: 48           	pha
  4297 09:0DCA: A0 0A 00     	ldy	#$a
  4298 09:0DCD: B7 52        	lda	[<L42+pMsg_0],Y
  4299 09:0DCF: 48           	pha
  4300 09:0DD0: F4 FA 00     	pea	#<$fa
  4301 09:0DD3: F4 5E 01     	pea	#<$15e
  4302 09:0DD6: F4 96 00     	pea	#<$96
  4303 09:0DD9: F4 96 00     	pea	#<$96
  4304 09:0DDC: F4 xx xx     	pea	#^L41+964
  4305 09:0DDF: F4 xx xx     	pea	#<L41+964
  4306 09:0DE2: F4 xx xx     	pea	#^L41+941
  4307 09:0DE5: F4 xx xx     	pea	#<L41+941
  4308 09:0DE8: F4 02 00     	pea	#^$2000d
  4309 09:0DEB: F4 0D 00     	pea	#<$2000d
  4310 09:0DEE: 22 xx xx xx  	jsl	~~k_user_CreateWindow
  4311 09:0DF2: 85 15        	sta	<L43+dlgWnd_1
  4312 09:0DF4: 86 17        	stx	<L43+dlgWnd_1+2
  4313                        ;
  4314                        ;						dlgWnd =
                     k_user_CreateWindow(FXWS_THICKFRAME | FXWS_CAPTION | FXWS_V
                    ISIBLE | FXWS_SYSMENU,
  4315                        	.line	667
  4316                        ;							
                    				"preferencesWindowClass",
  4317                        ;							
                    				"Child1",
  4318                        ;							
                    				20,20,
  4319                        ;							
                    				150,120,
  4320                        ;							
                    				k_getHandleFromWindow(dlgWnd),
  4321                        ;							
                    				NULL,
  4322                        ;							
                    				NULL);
  4323 09:0DF6: F4 00 00     	pea	#^$0
  4324 09:0DF9: F4 00 00     	pea	#<$0
  4325 09:0DFC: F4 00 00     	pea	#^$0
  4326 09:0DFF: F4 00 00     	pea	#<$0
  4327 09:0E02: D4 17        	pei	<L43+dlgWnd_1+2
  4328 09:0E04: D4 15        	pei	<L43+dlgWnd_1
  4329 09:0E06: 22 xx xx xx  	jsl	~~k_getHandleFromWindow
  4330 09:0E0A: 85 01        	sta	<R0
  4331 09:0E0C: 86 03        	stx	<R0+2
  4332 09:0E0E: DA           	phx
  4333 09:0E0F: 48           	pha
  4334 09:0E10: F4 78 00     	pea	#<$78
  4335 09:0E13: F4 96 00     	pea	#<$96
  4336 09:0E16: F4 14 00     	pea	#<$14
  4337 09:0E19: F4 14 00     	pea	#<$14
  4338 09:0E1C: F4 xx xx     	pea	#^L41+999
  4339 09:0E1F: F4 xx xx     	pea	#<L41+999
  Mon Sep 27 2021  9:39                                                Page 86


  4340 09:0E22: F4 xx xx     	pea	#^L41+976
  4341 09:0E25: F4 xx xx     	pea	#<L41+976
  4342 09:0E28: F4 02 00     	pea	#^$2000d
  4343 09:0E2B: F4 0D 00     	pea	#<$2000d
  4344 09:0E2E: 22 xx xx xx  	jsl	~~k_user_CreateWindow
  4345 09:0E32: 85 15        	sta	<L43+dlgWnd_1
  4346 09:0E34: 86 17        	stx	<L43+dlgWnd_1+2
  4347                        ;
  4348                        ;						dlgWnd =
                     k_user_CreateWindow(FXWS_THICKFRAME | FXWS_CAPTION | FXWS_V
                    ISIBLE | FXWS_SYSMENU,
  4349                        	.line	676
  4350                        ;							
                    				"preferencesWindowClass",
  4351                        ;							
                    				"C2",
  4352                        ;							
                    				20,20,
  4353                        ;							
                    				100,75,
  4354                        ;							
                    				k_getHandleFromWindow(dlgWnd),
  4355                        ;							
                    				NULL,
  4356                        ;							
                    				NULL);
  4357 09:0E36: F4 00 00     	pea	#^$0
  4358 09:0E39: F4 00 00     	pea	#<$0
  4359 09:0E3C: F4 00 00     	pea	#^$0
  4360 09:0E3F: F4 00 00     	pea	#<$0
  4361 09:0E42: D4 17        	pei	<L43+dlgWnd_1+2
  4362 09:0E44: D4 15        	pei	<L43+dlgWnd_1
  4363 09:0E46: 22 xx xx xx  	jsl	~~k_getHandleFromWindow
  4364 09:0E4A: 85 01        	sta	<R0
  4365 09:0E4C: 86 03        	stx	<R0+2
  4366 09:0E4E: DA           	phx
  4367 09:0E4F: 48           	pha
  4368 09:0E50: F4 4B 00     	pea	#<$4b
  4369 09:0E53: F4 64 00     	pea	#<$64
  4370 09:0E56: F4 14 00     	pea	#<$14
  4371 09:0E59: F4 14 00     	pea	#<$14
  4372 09:0E5C: F4 xx xx     	pea	#^L41+1029
  4373 09:0E5F: F4 xx xx     	pea	#<L41+1029
  4374 09:0E62: F4 xx xx     	pea	#^L41+1006
  4375 09:0E65: F4 xx xx     	pea	#<L41+1006
  4376 09:0E68: F4 02 00     	pea	#^$2000d
  4377 09:0E6B: F4 0D 00     	pea	#<$2000d
  4378 09:0E6E: 22 xx xx xx  	jsl	~~k_user_CreateWindow
  4379 09:0E72: 85 15        	sta	<L43+dlgWnd_1
  4380 09:0E74: 86 17        	stx	<L43+dlgWnd_1+2
  4381                        ;					}
  4382                        	.line	684
  4383                        ;					else
  4384 09:0E76: 82 0A 00     	brl	L10055
  4385                        L10054:
  4386                        ;					{
  4387                        	.line	686
  4388                        ;						k_debug_
  Mon Sep 27 2021  9:39                                                Page 87


                    string("Dialog Already Open\r\n");
  4389                        	.line	687
  4390 09:0E79: F4 xx xx     	pea	#^L41+1032
  4391 09:0E7C: F4 xx xx     	pea	#<L41+1032
  4392 09:0E7F: 22 xx xx xx  	jsl	~~k_debug_string
  4393                        ;					}
  4394                        	.line	688
  4395                        L10055:
  4396                        ;
  4397                        ;					break;
  4398                        	.line	690
  4399 09:0E83: 82 F4 03     	brl	L10031
  4400                        ;				case DESK_MENU_DBG_FONTS
                    :
  4401                        	.line	691
  4402                        L10056:
  4403                        ;					//k_debug_string
                    ("DESK_MENU_DBG_FONTS\r\n");
  4404                        ;					if(k_user_IsOSDe
                    bug())
  4405                        	.line	693
  4406                        ;					{
  4407 09:0E86: 22 xx xx xx  	jsl	~~k_user_IsOSDebug
  4408 09:0E8A: 29 FF 00     	and	#$ff
  4409 09:0E8D: D0 03        	bne	L72
  4410 09:0E8F: 82 07 00     	brl	L10057
  4411                        L72:
  4412                        	.line	694
  4413                        ;						k_user_D
                    isableOSDebug();
  4414                        	.line	695
  4415 09:0E92: 22 xx xx xx  	jsl	~~k_user_DisableOSDebug
  4416                        ;					}
  4417                        	.line	696
  4418                        ;					else
  4419 09:0E96: 82 04 00     	brl	L10058
  4420                        L10057:
  4421                        ;					{
  4422                        	.line	698
  4423                        ;						k_user_E
                    nableOSDebug();
  4424                        	.line	699
  4425 09:0E99: 22 xx xx xx  	jsl	~~k_user_EnableOSDebug
  4426                        ;					}
  4427                        	.line	700
  4428                        L10058:
  4429                        ;
  4430                        ;					k_user_SetMenuSt
                    ate((HMENU)((PFXCMDMESSAGE)pMsg)->parameter2,
  4431                        	.line	702
  4432                        ;							
                                ((PFXCMDMESSAGE)pMsg)->cmdMId,
  4433                        ;							
                    			k_user_IsOSDebug());
  4434 09:0E9D: 22 xx xx xx  	jsl	~~k_user_IsOSDebug
  4435 09:0EA1: E2 20        	sep	#$20
  4436                        	longa	off
  4437 09:0EA3: 85 01        	sta	<R0
  Mon Sep 27 2021  9:39                                                Page 88


  4438 09:0EA5: C2 20        	rep	#$20
  4439                        	longa	on
  4440 09:0EA7: A5 01        	lda	<R0
  4441 09:0EA9: 29 FF 00     	and	#$ff
  4442 09:0EAC: 48           	pha
  4443 09:0EAD: A0 18 00     	ldy	#$18
  4444 09:0EB0: B7 52        	lda	[<L42+pMsg_0],Y
  4445 09:0EB2: 48           	pha
  4446 09:0EB3: A0 20 00     	ldy	#$20
  4447 09:0EB6: B7 52        	lda	[<L42+pMsg_0],Y
  4448 09:0EB8: 48           	pha
  4449 09:0EB9: A0 1E 00     	ldy	#$1e
  4450 09:0EBC: B7 52        	lda	[<L42+pMsg_0],Y
  4451 09:0EBE: 48           	pha
  4452 09:0EBF: 22 xx xx xx  	jsl	~~k_user_SetMenuState
  4453                        ;
  4454                        ;					break;
  4455                        	.line	706
  4456 09:0EC3: 82 B4 03     	brl	L10031
  4457                        ;				case DESK_MENU_DBG_WINDO
                    W:
  4458                        	.line	707
  4459                        L10059:
  4460                        ;					k_debug_string("
                    DESK_MENU_DBG_WINDOW\r\n");
  4461                        	.line	708
  4462 09:0EC6: F4 xx xx     	pea	#^L41+1054
  4463 09:0EC9: F4 xx xx     	pea	#<L41+1054
  4464 09:0ECC: 22 xx xx xx  	jsl	~~k_debug_string
  4465                        ;
  4466                        ;					dlgWnd = k_getWi
                    ndowFromHandle(k_user_findWindow("Debug Window"));
  4467                        	.line	710
  4468 09:0ED0: F4 xx xx     	pea	#^L41+1077
  4469 09:0ED3: F4 xx xx     	pea	#<L41+1077
  4470 09:0ED6: 22 xx xx xx  	jsl	~~k_user_findWindow
  4471 09:0EDA: 85 01        	sta	<R0
  4472 09:0EDC: 86 03        	stx	<R0+2
  4473 09:0EDE: DA           	phx
  4474 09:0EDF: 48           	pha
  4475 09:0EE0: 22 xx xx xx  	jsl	~~k_getWindowFromHandle
  4476 09:0EE4: 85 15        	sta	<L43+dlgWnd_1
  4477 09:0EE6: 86 17        	stx	<L43+dlgWnd_1+2
  4478                        ;					if(dlgWnd == NUL
                    L)
  4479                        	.line	711
  4480                        ;					{
  4481 09:0EE8: A5 15        	lda	<L43+dlgWnd_1
  4482 09:0EEA: 05 17        	ora	<L43+dlgWnd_1+2
  4483 09:0EEC: F0 03        	beq	L73
  4484 09:0EEE: 82 3D 00     	brl	L10060
  4485                        L73:
  4486                        	.line	712
  4487                        ;						k_user_C
                    reateWindow(FXWS_THICKFRAME | FXWS_CAPTION | FXWS_VISIBLE | 
                    FXWS_SYSMENU | FXWS_MINIMIZEBOX | FXWS_MAXIMIZEBOX | FXWS_PO
                    PUP | FXWS_SIZEBOX,
  4488                        	.line	713
  Mon Sep 27 2021  9:39                                                Page 89


  4489                        ;							
                    				"textWindowClass",
  4490                        ;							
                    				"Text Window",
  4491                        ;							
                    				100,100,
  4492                        ;							
                    				300,200,
  4493                        ;							
                    				pMsg->hwnd,
  4494                        ;							
                    				NULL,
  4495                        ;							
                    				NULL);
  4496 09:0EF1: F4 00 00     	pea	#^$0
  4497 09:0EF4: F4 00 00     	pea	#<$0
  4498 09:0EF7: F4 00 00     	pea	#^$0
  4499 09:0EFA: F4 00 00     	pea	#<$0
  4500 09:0EFD: A0 0C 00     	ldy	#$c
  4501 09:0F00: B7 52        	lda	[<L42+pMsg_0],Y
  4502 09:0F02: 48           	pha
  4503 09:0F03: A0 0A 00     	ldy	#$a
  4504 09:0F06: B7 52        	lda	[<L42+pMsg_0],Y
  4505 09:0F08: 48           	pha
  4506 09:0F09: F4 C8 00     	pea	#<$c8
  4507 09:0F0C: F4 2C 01     	pea	#<$12c
  4508 09:0F0F: F4 64 00     	pea	#<$64
  4509 09:0F12: F4 64 00     	pea	#<$64
  4510 09:0F15: F4 xx xx     	pea	#^L41+1106
  4511 09:0F18: F4 xx xx     	pea	#<L41+1106
  4512 09:0F1B: F4 xx xx     	pea	#^L41+1090
  4513 09:0F1E: F4 xx xx     	pea	#<L41+1090
  4514 09:0F21: F4 22 00     	pea	#^$22013d
  4515 09:0F24: F4 3D 01     	pea	#<$22013d
  4516 09:0F27: 22 xx xx xx  	jsl	~~k_user_CreateWindow
  4517                        ;					}
  4518                        	.line	721
  4519                        ;					else
  4520 09:0F2B: 82 0A 00     	brl	L10061
  4521                        L10060:
  4522                        ;					{
  4523                        	.line	723
  4524                        ;						k_debug_
                    string("Debug Window Already Open\r\n");
  4525                        	.line	724
  4526 09:0F2E: F4 xx xx     	pea	#^L41+1118
  4527 09:0F31: F4 xx xx     	pea	#<L41+1118
  4528 09:0F34: 22 xx xx xx  	jsl	~~k_debug_string
  4529                        ;					}
  4530                        	.line	725
  4531                        L10061:
  4532                        ;
  4533                        ;					break;
  4534                        	.line	727
  4535 09:0F38: 82 3F 03     	brl	L10031
  4536                        ;				case DESK_MENU_DBG_SELEC
                    T:
  4537                        	.line	728
  Mon Sep 27 2021  9:39                                                Page 90


  4538                        L10062:
  4539                        ;					k_debug_string("
                    DESK_MENU_DBG_SELECT\r\n");
  4540                        	.line	729
  4541 09:0F3B: F4 xx xx     	pea	#^L41+1146
  4542 09:0F3E: F4 xx xx     	pea	#<L41+1146
  4543 09:0F41: 22 xx xx xx  	jsl	~~k_debug_string
  4544                        ;					break;
  4545                        	.line	730
  4546 09:0F45: 82 32 03     	brl	L10031
  4547                        ;				case DESK_MENU_DBG_DRAG:
  4548                        	.line	731
  4549                        L10063:
  4550                        ;					//pctx->Reserved
                    1 = (LPVOID)(!((LONG)pctx->Reserved1));
  4551                        ;
  4552                        ;					((INT*)pctx->use
                    rData)[DEBUG_MOUSE_ENABLE] = !((INT*)pctx->userData)[DEBUG_M
                    OUSE_ENABLE];
  4553                        	.line	734
  4554 09:0F48: A0 83 00     	ldy	#$83
  4555 09:0F4B: B7 1D        	lda	[<L43+pctx_1],Y
  4556 09:0F4D: 85 01        	sta	<R0
  4557 09:0F4F: A0 85 00     	ldy	#$85
  4558 09:0F52: B7 1D        	lda	[<L43+pctx_1],Y
  4559 09:0F54: 85 03        	sta	<R0+2
  4560 09:0F56: 64 05        	stz	<R1
  4561 09:0F58: A0 83 00     	ldy	#$83
  4562 09:0F5B: B7 1D        	lda	[<L43+pctx_1],Y
  4563 09:0F5D: 85 09        	sta	<R2
  4564 09:0F5F: A0 85 00     	ldy	#$85
  4565 09:0F62: B7 1D        	lda	[<L43+pctx_1],Y
  4566 09:0F64: 85 0B        	sta	<R2+2
  4567 09:0F66: A7 09        	lda	[<R2]
  4568 09:0F68: F0 03        	beq	L75
  4569 09:0F6A: 82 02 00     	brl	L74
  4570                        L75:
  4571 09:0F6D: E6 05        	inc	<R1
  4572                        L74:
  4573 09:0F6F: A5 05        	lda	<R1
  4574 09:0F71: 87 01        	sta	[<R0]
  4575                        ;
  4576                        ;					if(!((INT*)pctx-
                    >userData)[DEBUG_MOUSE_ENABLE])
  4577                        	.line	736
  4578                        ;					{
  4579 09:0F73: A0 83 00     	ldy	#$83
  4580 09:0F76: B7 1D        	lda	[<L43+pctx_1],Y
  4581 09:0F78: 85 01        	sta	<R0
  4582 09:0F7A: A0 85 00     	ldy	#$85
  4583 09:0F7D: B7 1D        	lda	[<L43+pctx_1],Y
  4584 09:0F7F: 85 03        	sta	<R0+2
  4585 09:0F81: A7 01        	lda	[<R0]
  4586 09:0F83: F0 03        	beq	L76
  4587 09:0F85: 82 6A 00     	brl	L10064
  4588                        L76:
  4589                        	.line	737
  4590                        ;						px = ((I
  Mon Sep 27 2021  9:39                                                Page 91


                    NT*)pctx->userData)[1];
  4591                        	.line	738
  4592 09:0F88: A0 83 00     	ldy	#$83
  4593 09:0F8B: B7 1D        	lda	[<L43+pctx_1],Y
  4594 09:0F8D: 85 01        	sta	<R0
  4595 09:0F8F: A0 85 00     	ldy	#$85
  4596 09:0F92: B7 1D        	lda	[<L43+pctx_1],Y
  4597 09:0F94: 85 03        	sta	<R0+2
  4598 09:0F96: A0 02 00     	ldy	#$2
  4599 09:0F99: B7 01        	lda	[<R0],Y
  4600 09:0F9B: 85 2C        	sta	<L43+px_1
  4601                        ;						py = ((I
                    NT*)pctx->userData)[2];
  4602                        	.line	739
  4603 09:0F9D: A0 83 00     	ldy	#$83
  4604 09:0FA0: B7 1D        	lda	[<L43+pctx_1],Y
  4605 09:0FA2: 85 01        	sta	<R0
  4606 09:0FA4: A0 85 00     	ldy	#$85
  4607 09:0FA7: B7 1D        	lda	[<L43+pctx_1],Y
  4608 09:0FA9: 85 03        	sta	<R0+2
  4609 09:0FAB: A0 04 00     	ldy	#$4
  4610 09:0FAE: B7 01        	lda	[<R0],Y
  4611 09:0FB0: 85 2E        	sta	<L43+py_1
  4612                        ;
  4613                        ;						if(px > 
                    -1)
  4614                        	.line	741
  4615                        ;						{
  4616 09:0FB2: 38           	sec
  4617 09:0FB3: A9 FF FF     	lda	#$ffff
  4618 09:0FB6: E5 2C        	sbc	<L43+px_1
  4619 09:0FB8: 70 03        	bvs	L77
  4620 09:0FBA: 49 00 80     	eor	#$8000
  4621                        L77:
  4622 09:0FBD: 10 03        	bpl	L78
  4623 09:0FBF: 82 30 00     	brl	L10065
  4624                        L78:
  4625                        	.line	742
  4626                        ;							
                    //k_draw_rect_slow(px,py, px+100, py+100, 0);
  4627                        ;							
                    k_vdma_fill_rect_ex(px,py, 200, 200, FILLCOLOR_TRANSPARENT,B
                    ITMAP_FRONT);
  4628                        	.line	744
  4629 09:0FC2: F4 00 00     	pea	#<$0
  4630 09:0FC5: F4 00 00     	pea	#<$0
  4631 09:0FC8: F4 C8 00     	pea	#<$c8
  4632 09:0FCB: F4 C8 00     	pea	#<$c8
  4633 09:0FCE: A0 00 00     	ldy	#$0
  4634 09:0FD1: A5 2E        	lda	<L43+py_1
  4635 09:0FD3: 10 01        	bpl	L79
  4636 09:0FD5: 88           	dey
  4637                        L79:
  4638 09:0FD6: 85 01        	sta	<R0
  4639 09:0FD8: 84 03        	sty	<R0+2
  4640 09:0FDA: D4 03        	pei	<R0+2
  4641 09:0FDC: D4 01        	pei	<R0
  4642 09:0FDE: A0 00 00     	ldy	#$0
  Mon Sep 27 2021  9:39                                                Page 92


  4643 09:0FE1: A5 2C        	lda	<L43+px_1
  4644 09:0FE3: 10 01        	bpl	L80
  4645 09:0FE5: 88           	dey
  4646                        L80:
  4647 09:0FE6: 85 05        	sta	<R1
  4648 09:0FE8: 84 07        	sty	<R1+2
  4649 09:0FEA: D4 07        	pei	<R1+2
  4650 09:0FEC: D4 05        	pei	<R1
  4651 09:0FEE: 22 xx xx xx  	jsl	~~k_vdma_fill_rect_ex
  4652                        ;						}
  4653                        	.line	745
  4654                        ;					}
  4655                        L10065:
  4656                        	.line	746
  4657                        ;
  4658                        ;
  4659                        ;					//k_debug_intege
                    r("DesktopWindowProc::DEBUG MENU DRAG:",((INT*)pctx->userDat
                    a)[DEBUG_MOUSE_ENABLE]);
  4660                        ;					//k_debug_pointe
                    r("DesktopWindowProc::DEBUG MENU CONTROL HMENU:",(HMENU)((PF
                    XCMDMESSAGE)pMsg)->parameter2);
  4661                        ;					//k_debug_string
                    s("DesktopWindowProc::DEBUG MENU CONTROL caption:",(LPSTR)((
                    PMENU)((PFXCMDMESSAGE)pMsg)->parameter2)->pCaption);
  4662                        ;					//k_debug_pointe
                    r("DesktopWindowProc::DEBUG MENU CONTROL subMenus:",((PMENU)
                    ((PFXCMDMESSAGE)pMsg)->parameter2)->subMenus);
  4663                        ;
  4664                        ;					k_user_SetMenuSt
                    ate((HMENU)((PFXCMDMESSAGE)pMsg)->parameter2,((PFXCMDMESSAGE
                    )pMsg)->cmdMId,((INT*)pctx->userData)[DEBUG_MOUSE_ENABLE]);
  4665                        L10064:
  4666                        	.line	754
  4667 09:0FF2: A0 83 00     	ldy	#$83
  4668 09:0FF5: B7 1D        	lda	[<L43+pctx_1],Y
  4669 09:0FF7: 85 01        	sta	<R0
  4670 09:0FF9: A0 85 00     	ldy	#$85
  4671 09:0FFC: B7 1D        	lda	[<L43+pctx_1],Y
  4672 09:0FFE: 85 03        	sta	<R0+2
  4673 09:1000: A7 01        	lda	[<R0]
  4674 09:1002: 48           	pha
  4675 09:1003: A0 18 00     	ldy	#$18
  4676 09:1006: B7 52        	lda	[<L42+pMsg_0],Y
  4677 09:1008: 48           	pha
  4678 09:1009: A0 20 00     	ldy	#$20
  4679 09:100C: B7 52        	lda	[<L42+pMsg_0],Y
  4680 09:100E: 48           	pha
  4681 09:100F: A0 1E 00     	ldy	#$1e
  4682 09:1012: B7 52        	lda	[<L42+pMsg_0],Y
  4683 09:1014: 48           	pha
  4684 09:1015: 22 xx xx xx  	jsl	~~k_user_SetMenuState
  4685                        ;
  4686                        ;
  4687                        ;					//k_send_command
                    _message((HWND)((PFXCMDMESSAGE)pMsg)->parameter2,FX_CONTROL_
                    COMMAND,CTL_MENU_CHECKED,((PFXCMDMESSAGE)pMsg)->cmdMId,((INT
                    *)pctx->userData)[0],0);
  Mon Sep 27 2021  9:39                                                Page 93


  4688                        ;
  4689                        ;
  4690                        ;					break;
  4691                        	.line	760
  4692 09:1019: 82 5E 02     	brl	L10031
  4693                        ;				case DESK_MENU_DBG_RUBBE
                    RBAND:
  4694                        	.line	761
  4695                        L10066:
  4696                        ;
  4697                        ;
  4698                        ;					((INT*)pctx->use
                    rData)[DEBUG_MOUSE_BOX_ENABLE] = !((INT*)pctx->userData)[DEB
                    UG_MOUSE_BOX_ENABLE];
  4699                        	.line	764
  4700 09:101C: A0 83 00     	ldy	#$83
  4701 09:101F: B7 1D        	lda	[<L43+pctx_1],Y
  4702 09:1021: 85 01        	sta	<R0
  4703 09:1023: A0 85 00     	ldy	#$85
  4704 09:1026: B7 1D        	lda	[<L43+pctx_1],Y
  4705 09:1028: 85 03        	sta	<R0+2
  4706 09:102A: 64 05        	stz	<R1
  4707 09:102C: A0 83 00     	ldy	#$83
  4708 09:102F: B7 1D        	lda	[<L43+pctx_1],Y
  4709 09:1031: 85 09        	sta	<R2
  4710 09:1033: A0 85 00     	ldy	#$85
  4711 09:1036: B7 1D        	lda	[<L43+pctx_1],Y
  4712 09:1038: 85 0B        	sta	<R2+2
  4713 09:103A: A0 0C 00     	ldy	#$c
  4714 09:103D: B7 09        	lda	[<R2],Y
  4715 09:103F: F0 03        	beq	L82
  4716 09:1041: 82 02 00     	brl	L81
  4717                        L82:
  4718 09:1044: E6 05        	inc	<R1
  4719                        L81:
  4720 09:1046: A5 05        	lda	<R1
  4721 09:1048: A0 0C 00     	ldy	#$c
  4722 09:104B: 97 01        	sta	[<R0],Y
  4723                        ;
  4724                        ;					if(!((INT*)pctx-
                    >userData)[DEBUG_MOUSE_BOX_ENABLE])
  4725                        	.line	766
  4726                        ;					{
  4727 09:104D: A0 83 00     	ldy	#$83
  4728 09:1050: B7 1D        	lda	[<L43+pctx_1],Y
  4729 09:1052: 85 01        	sta	<R0
  4730 09:1054: A0 85 00     	ldy	#$85
  4731 09:1057: B7 1D        	lda	[<L43+pctx_1],Y
  4732 09:1059: 85 03        	sta	<R0+2
  4733 09:105B: A0 0C 00     	ldy	#$c
  4734 09:105E: B7 01        	lda	[<R0],Y
  4735 09:1060: F0 03        	beq	L83
  4736 09:1062: 82 42 00     	brl	L10067
  4737                        L83:
  4738                        	.line	767
  4739                        ;
  4740                        ;						((INT*)p
                    ctx->userData)[DEBUG_MOUSE_BOXING] = FALSE;
  Mon Sep 27 2021  9:39                                                Page 94


  4741                        	.line	769
  4742 09:1065: A0 83 00     	ldy	#$83
  4743 09:1068: B7 1D        	lda	[<L43+pctx_1],Y
  4744 09:106A: 85 01        	sta	<R0
  4745 09:106C: A0 85 00     	ldy	#$85
  4746 09:106F: B7 1D        	lda	[<L43+pctx_1],Y
  4747 09:1071: 85 03        	sta	<R0+2
  4748 09:1073: A9 00 00     	lda	#$0
  4749 09:1076: A0 06 00     	ldy	#$6
  4750 09:1079: 97 01        	sta	[<R0],Y
  4751                        ;						((INT*)p
                    ctx->userData)[DEBUG_MOUSE_BOX_TOP] = -1;
  4752                        	.line	770
  4753 09:107B: A0 83 00     	ldy	#$83
  4754 09:107E: B7 1D        	lda	[<L43+pctx_1],Y
  4755 09:1080: 85 01        	sta	<R0
  4756 09:1082: A0 85 00     	ldy	#$85
  4757 09:1085: B7 1D        	lda	[<L43+pctx_1],Y
  4758 09:1087: 85 03        	sta	<R0+2
  4759 09:1089: A9 FF FF     	lda	#$ffff
  4760 09:108C: A0 08 00     	ldy	#$8
  4761 09:108F: 97 01        	sta	[<R0],Y
  4762                        ;						((INT*)p
                    ctx->userData)[DEBUG_MOUSE_BOX_LEFT] = -1;
  4763                        	.line	771
  4764 09:1091: A0 83 00     	ldy	#$83
  4765 09:1094: B7 1D        	lda	[<L43+pctx_1],Y
  4766 09:1096: 85 01        	sta	<R0
  4767 09:1098: A0 85 00     	ldy	#$85
  4768 09:109B: B7 1D        	lda	[<L43+pctx_1],Y
  4769 09:109D: 85 03        	sta	<R0+2
  4770 09:109F: A9 FF FF     	lda	#$ffff
  4771 09:10A2: A0 0A 00     	ldy	#$a
  4772 09:10A5: 97 01        	sta	[<R0],Y
  4773                        ;
  4774                        ;					}
  4775                        	.line	773
  4776                        ;
  4777                        ;
  4778                        ;					//k_debug_intege
                    r("DesktopWindowProc::DEBUG MENU RUBBERBAND:",((INT*)pctx->u
                    serData)[DEBUG_MOUSE_BOX_ENABLE]);
  4779                        ;					//k_debug_pointe
                    r("DesktopWindowProc::DEBUG MENU CONTROL HMENU:",(HMENU)((PF
                    XCMDMESSAGE)pMsg)->parameter2);
  4780                        ;					//k_debug_string
                    s("DesktopWindowProc::DEBUG MENU CONTROL caption:",(LPSTR)((
                    PMENU)((PFXCMDMESSAGE)pMsg)->parameter2)->pCaption);
  4781                        ;					//k_debug_pointe
                    r("DesktopWindowProc::DEBUG MENU CONTROL subMenus:",((PMENU)
                    ((PFXCMDMESSAGE)pMsg)->parameter2)->subMenus);
  4782                        ;
  4783                        ;
  4784                        ;					k_user_SetMenuSt
                    ate((HMENU)((PFXCMDMESSAGE)pMsg)->parameter2,((PFXCMDMESSAGE
                    )pMsg)->cmdMId,((INT*)pctx->userData)[DEBUG_MOUSE_BOX_ENABLE
                    ]);
  4785                        L10067:
  Mon Sep 27 2021  9:39                                                Page 95


  4786                        	.line	782
  4787 09:10A7: A0 83 00     	ldy	#$83
  4788 09:10AA: B7 1D        	lda	[<L43+pctx_1],Y
  4789 09:10AC: 85 01        	sta	<R0
  4790 09:10AE: A0 85 00     	ldy	#$85
  4791 09:10B1: B7 1D        	lda	[<L43+pctx_1],Y
  4792 09:10B3: 85 03        	sta	<R0+2
  4793 09:10B5: A0 0C 00     	ldy	#$c
  4794 09:10B8: B7 01        	lda	[<R0],Y
  4795 09:10BA: 48           	pha
  4796 09:10BB: A0 18 00     	ldy	#$18
  4797 09:10BE: B7 52        	lda	[<L42+pMsg_0],Y
  4798 09:10C0: 48           	pha
  4799 09:10C1: A0 20 00     	ldy	#$20
  4800 09:10C4: B7 52        	lda	[<L42+pMsg_0],Y
  4801 09:10C6: 48           	pha
  4802 09:10C7: A0 1E 00     	ldy	#$1e
  4803 09:10CA: B7 52        	lda	[<L42+pMsg_0],Y
  4804 09:10CC: 48           	pha
  4805 09:10CD: 22 xx xx xx  	jsl	~~k_user_SetMenuState
  4806                        ;					//k_send_command
                    _message((HWND)((PFXCMDMESSAGE)pMsg)->parameter2,FX_MENU_COM
                    MAND,CTL_MENU_CHECKED,((PFXCMDMESSAGE)pMsg)->cmdMId,((INT*)p
                    ctx->userData)[0],0);
  4807                        ;
  4808                        ;					break;
  4809                        	.line	785
  4810 09:10D1: 82 A6 01     	brl	L10031
  4811                        ;
  4812                        ;				case DESK_MENU_DBG_HOURG
                    LASS:
  4813                        	.line	787
  4814                        L10068:
  4815                        ;					k_user_setMouseP
                    ointer("HOURGLASS");
  4816                        	.line	788
  4817 09:10D4: F4 xx xx     	pea	#^L41+1169
  4818 09:10D7: F4 xx xx     	pea	#<L41+1169
  4819 09:10DA: 22 xx xx xx  	jsl	~~k_user_setMousePointer
  4820                        ;					break;
  4821                        	.line	789
  4822 09:10DE: 82 99 01     	brl	L10031
  4823                        ;				case DESK_MENU_DBG_HELP:
  4824                        	.line	790
  4825                        L10069:
  4826                        ;					k_user_setMouseP
                    ointer("HELP");
  4827                        	.line	791
  4828 09:10E1: F4 xx xx     	pea	#^L41+1179
  4829 09:10E4: F4 xx xx     	pea	#<L41+1179
  4830 09:10E7: 22 xx xx xx  	jsl	~~k_user_setMousePointer
  4831                        ;					break;
  4832                        	.line	792
  4833 09:10EB: 82 8C 01     	brl	L10031
  4834                        ;				case DESK_MENU_DBG_ARROW
                    :
  4835                        	.line	793
  4836                        L10070:
  Mon Sep 27 2021  9:39                                                Page 96


  4837                        ;					k_user_setMouseP
                    ointer("ARROW");
  4838                        	.line	794
  4839 09:10EE: F4 xx xx     	pea	#^L41+1184
  4840 09:10F1: F4 xx xx     	pea	#<L41+1184
  4841 09:10F4: 22 xx xx xx  	jsl	~~k_user_setMousePointer
  4842                        ;					break;
  4843                        	.line	795
  4844 09:10F8: 82 7F 01     	brl	L10031
  4845                        ;				case DESK_MENU_DBG_RESIZ
                    E:
  4846                        	.line	796
  4847                        L10071:
  4848                        ;					k_user_setMouseP
                    ointer("RESIZE");
  4849                        	.line	797
  4850 09:10FB: F4 xx xx     	pea	#^L41+1190
  4851 09:10FE: F4 xx xx     	pea	#<L41+1190
  4852 09:1101: 22 xx xx xx  	jsl	~~k_user_setMousePointer
  4853                        ;					break;
  4854                        	.line	798
  4855 09:1105: 82 72 01     	brl	L10031
  4856                        ;				case DESK_MENU_WINDOWS_R
                    EDRAW:
  4857                        	.line	799
  4858                        L10072:
  4859                        ;					k_send_window_me
                    ssage(BROADCAST_HWND,FX_DRAW_NONCLIENT,NULL,0);
  4860                        	.line	800
  4861 09:1108: F4 00 00     	pea	#<$0
  4862 09:110B: F4 00 00     	pea	#^$0
  4863 09:110E: F4 00 00     	pea	#<$0
  4864 09:1111: F4 01 FB     	pea	#<$fb01
  4865 09:1114: F4 FA FF     	pea	#^$fffafffa
  4866 09:1117: F4 FA FF     	pea	#<$fffafffa
  4867 09:111A: 22 xx xx xx  	jsl	~~k_send_window_message
  4868                        ;					break;
  4869                        	.line	801
  4870 09:111E: 82 59 01     	brl	L10031
  4871                        ;				case DESK_MENU_WINDOWS_M
                    SG6:
  4872                        	.line	802
  4873                        L10073:
  4874                        ;					k_user_CreateMsg
                    Box(0x06,"Warn About Something",0,100,100);
  4875                        	.line	803
  4876 09:1121: F4 64 00     	pea	#<$64
  4877 09:1124: F4 64 00     	pea	#<$64
  4878 09:1127: F4 00 00     	pea	#<$0
  4879 09:112A: F4 xx xx     	pea	#^L41+1197
  4880 09:112D: F4 xx xx     	pea	#<L41+1197
  4881 09:1130: F4 06 00     	pea	#<$6
  4882 09:1133: 22 xx xx xx  	jsl	~~k_user_CreateMsgBox
  4883                        ;					break;
  4884                        	.line	804
  4885 09:1137: 82 40 01     	brl	L10031
  4886                        ;				case DESK_MENU_WINDOWS_M
                    SG7:
  Mon Sep 27 2021  9:39                                                Page 97


  4887                        	.line	805
  4888                        L10074:
  4889                        ;					k_user_CreateMsg
                    Box(0x07,"Stop, Don't do it!",0,100,100);
  4890                        	.line	806
  4891 09:113A: F4 64 00     	pea	#<$64
  4892 09:113D: F4 64 00     	pea	#<$64
  4893 09:1140: F4 00 00     	pea	#<$0
  4894 09:1143: F4 xx xx     	pea	#^L41+1218
  4895 09:1146: F4 xx xx     	pea	#<L41+1218
  4896 09:1149: F4 07 00     	pea	#<$7
  4897 09:114C: 22 xx xx xx  	jsl	~~k_user_CreateMsgBox
  4898                        ;					break;
  4899                        	.line	807
  4900 09:1150: 82 27 01     	brl	L10031
  4901                        ;				case DESK_MENU_WINDOWS_B
                    0:
  4902                        	.line	808
  4903                        L10075:
  4904                        ;					setColors();
  4905                        	.line	809
  4906 09:1153: 22 xx xx xx  	jsl	~~setColors
  4907                        ;					break;
  4908                        	.line	810
  4909 09:1157: 82 20 01     	brl	L10031
  4910                        ;				case DESK_MENU_WINDOWS_C
                    0:
  4911                        	.line	811
  4912                        L10076:
  4913                        ;					defineGrayPalett
                    e();
  4914                        	.line	812
  4915 09:115A: 22 xx xx xx  	jsl	~~defineGrayPalette
  4916                        ;					break;
  4917                        	.line	813
  4918 09:115E: 82 19 01     	brl	L10031
  4919                        ;				case DESK_MENU_WINDOWS_D
                    0:
  4920                        	.line	814
  4921                        L10077:
  4922                        ;
  4923                        ;					k_debug_long("k_
                    gui_get_pixel_offset:",k_gui_get_pixel_offset(10,150));
  4924                        	.line	816
  4925 09:1161: F4 96 00     	pea	#<$96
  4926 09:1164: F4 0A 00     	pea	#<$a
  4927 09:1167: 22 xx xx xx  	jsl	~~k_gui_get_pixel_offset
  4928 09:116B: 85 01        	sta	<R0
  4929 09:116D: 86 03        	stx	<R0+2
  4930 09:116F: DA           	phx
  4931 09:1170: 48           	pha
  4932 09:1171: F4 xx xx     	pea	#^L41+1237
  4933 09:1174: F4 xx xx     	pea	#<L41+1237
  4934 09:1177: 22 xx xx xx  	jsl	~~k_debug_long
  4935                        ;
  4936                        ;					k_vdma_fill_rect
                    _ex(0,0,640,480,15,0x20);
  4937                        	.line	818
  Mon Sep 27 2021  9:39                                                Page 98


  4938 09:117B: F4 20 00     	pea	#<$20
  4939 09:117E: F4 0F 00     	pea	#<$f
  4940 09:1181: F4 E0 01     	pea	#<$1e0
  4941 09:1184: F4 80 02     	pea	#<$280
  4942 09:1187: F4 00 00     	pea	#^$0
  4943 09:118A: F4 00 00     	pea	#<$0
  4944 09:118D: F4 00 00     	pea	#^$0
  4945 09:1190: F4 00 00     	pea	#<$0
  4946 09:1193: 22 xx xx xx  	jsl	~~k_vdma_fill_rect_ex
  4947                        ;					k_draw_rect(10,1
                    50,100,100,15,0,0x20);
  4948                        	.line	819
  4949 09:1197: F4 20 00     	pea	#<$20
  4950 09:119A: F4 00 00     	pea	#<$0
  4951 09:119D: F4 0F 00     	pea	#<$f
  4952 09:11A0: F4 64 00     	pea	#<$64
  4953 09:11A3: F4 64 00     	pea	#<$64
  4954 09:11A6: F4 96 00     	pea	#<$96
  4955 09:11A9: F4 0A 00     	pea	#<$a
  4956 09:11AC: 22 xx xx xx  	jsl	~~k_draw_rect
  4957                        ;					k_vdma_copy_addr
                    ess_ex(
  4958                        	.line	820
  4959                        ;							
                                    (LPSTR)(((LONG)0x100000) + k_gui_get_pixel_o
                    ffset(10,150)),
  4960                        ;							
                    				(LPSTR)(((LONG)0x200000) + k_gui
                    _get_pixel_offset(10,150)),
  4961                        ;							
                    				100,100);
  4962 09:11B0: F4 64 00     	pea	#<$64
  4963 09:11B3: F4 64 00     	pea	#<$64
  4964 09:11B6: F4 96 00     	pea	#<$96
  4965 09:11B9: F4 0A 00     	pea	#<$a
  4966 09:11BC: 22 xx xx xx  	jsl	~~k_gui_get_pixel_offset
  4967 09:11C0: 85 01        	sta	<R0
  4968 09:11C2: 86 03        	stx	<R0+2
  4969 09:11C4: 18           	clc
  4970 09:11C5: A9 00 00     	lda	#$0
  4971 09:11C8: 65 01        	adc	<R0
  4972 09:11CA: 85 05        	sta	<R1
  4973 09:11CC: A9 20 00     	lda	#$20
  4974 09:11CF: 65 03        	adc	<R0+2
  4975 09:11D1: 85 07        	sta	<R1+2
  4976 09:11D3: D4 07        	pei	<R1+2
  4977 09:11D5: D4 05        	pei	<R1
  4978 09:11D7: F4 96 00     	pea	#<$96
  4979 09:11DA: F4 0A 00     	pea	#<$a
  4980 09:11DD: 22 xx xx xx  	jsl	~~k_gui_get_pixel_offset
  4981 09:11E1: 85 01        	sta	<R0
  4982 09:11E3: 86 03        	stx	<R0+2
  4983 09:11E5: 18           	clc
  4984 09:11E6: A9 00 00     	lda	#$0
  4985 09:11E9: 65 01        	adc	<R0
  4986 09:11EB: 85 09        	sta	<R2
  4987 09:11ED: A9 10 00     	lda	#$10
  4988 09:11F0: 65 03        	adc	<R0+2
  Mon Sep 27 2021  9:39                                                Page 99


  4989 09:11F2: 85 0B        	sta	<R2+2
  4990 09:11F4: D4 0B        	pei	<R2+2
  4991 09:11F6: D4 09        	pei	<R2
  4992 09:11F8: 22 xx xx xx  	jsl	~~k_vdma_copy_address_ex
  4993                        ;					break;
  4994                        	.line	824
  4995 09:11FC: 82 7B 00     	brl	L10031
  4996                        ;				default:
  4997                        	.line	825
  4998                        L10078:
  4999                        ;					break;
  5000                        	.line	826
  5001 09:11FF: 82 78 00     	brl	L10031
  5002                        ;				}
  5003                        	.line	827
  5004                        L10030:
  5005                        	xref	~~~swt
  5006 09:1202: 22 xx xx xx  	jsl	~~~swt
  5007 09:1206: 1C 00        	dw	28
  5008 09:1208: 0A 00        	dw	10
  5009 09:120A: ED 0A        	dw	L10039-1
  5010 09:120C: 15 00        	dw	21
  5011 09:120E: A3 0A        	dw	L10032-1
  5012 09:1210: 16 00        	dw	22
  5013 09:1212: BD 0A        	dw	L10034-1
  5014 09:1214: 18 00        	dw	24
  5015 09:1216: CE 0A        	dw	L10036-1
  5016 09:1218: 19 00        	dw	25
  5017 09:121A: C4 0A        	dw	L10035-1
  5018 09:121C: 1A 00        	dw	26
  5019 09:121E: D5 0A        	dw	L10037-1
  5020 09:1220: 1B 00        	dw	27
  5021 09:1222: DC 0A        	dw	L10038-1
  5022 09:1224: 22 00        	dw	34
  5023 09:1226: 80 0D        	dw	L10053-1
  5024 09:1228: 29 00        	dw	41
  5025 09:122A: 9F 0C        	dw	L10050-1
  5026 09:122C: 2A 00        	dw	42
  5027 09:122E: 37 0B        	dw	L10042-1
  5028 09:1230: 32 00        	dw	50
  5029 09:1232: 1A 0C        	dw	L10047-1
  5030 09:1234: 33 00        	dw	51
  5031 09:1236: 85 0E        	dw	L10056-1
  5032 09:1238: 34 00        	dw	52
  5033 09:123A: C5 0E        	dw	L10059-1
  5034 09:123C: 35 00        	dw	53
  5035 09:123E: 3A 0F        	dw	L10062-1
  5036 09:1240: 36 00        	dw	54
  5037 09:1242: 47 0F        	dw	L10063-1
  5038 09:1244: 37 00        	dw	55
  5039 09:1246: 1B 10        	dw	L10066-1
  5040 09:1248: 38 00        	dw	56
  5041 09:124A: D3 10        	dw	L10068-1
  5042 09:124C: 39 00        	dw	57
  5043 09:124E: E0 10        	dw	L10069-1
  5044 09:1250: 3A 00        	dw	58
  5045 09:1252: ED 10        	dw	L10070-1
  5046 09:1254: 3B 00        	dw	59
  Mon Sep 27 2021  9:39                                                Page 100


  5047 09:1256: FA 10        	dw	L10071-1
  5048 09:1258: 3D 00        	dw	61
  5049 09:125A: 07 11        	dw	L10072-1
  5050 09:125C: 3E 00        	dw	62
  5051 09:125E: 20 11        	dw	L10073-1
  5052 09:1260: 3F 00        	dw	63
  5053 09:1262: 39 11        	dw	L10074-1
  5054 09:1264: 40 00        	dw	64
  5055 09:1266: 52 11        	dw	L10075-1
  5056 09:1268: 41 00        	dw	65
  5057 09:126A: 59 11        	dw	L10076-1
  5058 09:126C: 42 00        	dw	66
  5059 09:126E: 60 11        	dw	L10077-1
  5060 09:1270: 47 00        	dw	71
  5061 09:1272: FE 0A        	dw	L10040-1
  5062 09:1274: C9 00        	dw	201
  5063 09:1276: B6 0A        	dw	L10033-1
  5064 09:1278: FE 11        	dw	L10078-1
  5065                        L10031:
  5066                        ;			}
  5067                        	.line	828
  5068                        ;
  5069                        ;			break;
  5070                        L10029:
  5071                        	.line	830
  5072 09:127A: 82 6A 0E     	brl	L10019
  5073                        ;		case FX_KEY_SCANCODE:
  5074                        	.line	831
  5075                        L10079:
  5076                        ;			k_debug_hex("DesktopWindowProc::
                    FX_KEY_SCANCODE:",pMsg->data[0]);
  5077                        	.line	832
  5078 09:127D: A0 16 00     	ldy	#$16
  5079 09:1280: B7 52        	lda	[<L42+pMsg_0],Y
  5080 09:1282: 48           	pha
  5081 09:1283: F4 xx xx     	pea	#^L41+1261
  5082 09:1286: F4 xx xx     	pea	#<L41+1261
  5083 09:1289: 22 xx xx xx  	jsl	~~k_debug_hex
  5084                        ;			k_debug_hex("DesktopWindowProc::
                    FX_KEY_SCANCODE EXT:",pMsg->data[3]);
  5085                        	.line	833
  5086 09:128D: A0 19 00     	ldy	#$19
  5087 09:1290: B7 52        	lda	[<L42+pMsg_0],Y
  5088 09:1292: 48           	pha
  5089 09:1293: F4 xx xx     	pea	#^L41+1297
  5090 09:1296: F4 xx xx     	pea	#<L41+1297
  5091 09:1299: 22 xx xx xx  	jsl	~~k_debug_hex
  5092                        ;			//k_debug_hex("DesktopWindowProc
                    ::FX_KEY_SCANCODE SHIFTED:",pMsg->data[1]);
  5093                        ;			//k_debug_hex("DesktopWindowProc
                    ::FX_KEY_SCANCODE ALT:",pMsg->data[2]);
  5094                        ;			//k_debug_char("DesktopWindowPro
                    c::FX_KEY_SCANCODE CHAR:",pMsg->data[7]);
  5095                        ;
  5096                        ;
  5097                        ;
  5098                        ;			break;
  5099                        	.line	840
  Mon Sep 27 2021  9:39                                                Page 101


  5100 09:129D: 82 47 0E     	brl	L10019
  5101                        ;		case FX_KEY_UP:
  5102                        	.line	841
  5103                        L10080:
  5104                        ;			//k_debug_hex("DesktopWindowProc
                    ::FX_KEY_UP:",pMsg->data[0]);
  5105                        ;			//k_debug_hex("DesktopWindowProc
                    ::FX_KEY_UP EXT:",pMsg->data[3]);
  5106                        ;			//k_debug_hex("DesktopWindowProc
                    ::FX_KEY_UP SHIFTED:",pMsg->data[1]);
  5107                        ;			//k_debug_hex("DesktopWindowProc
                    ::FX_KEY_UP ALT:",pMsg->data[2]);
  5108                        ;			k_debug_hex("DesktopWindowProc::
                    FX_KEY_UP SCANCODE:",((PKEYSTATE)pMsg->data)->scanCode);
  5109                        	.line	846
  5110 09:12A0: A0 16 00     	ldy	#$16
  5111 09:12A3: B7 52        	lda	[<L42+pMsg_0],Y
  5112 09:12A5: 48           	pha
  5113 09:12A6: F4 xx xx     	pea	#^L41+1337
  5114 09:12A9: F4 xx xx     	pea	#<L41+1337
  5115 09:12AC: 22 xx xx xx  	jsl	~~k_debug_hex
  5116                        ;			k_debug_char("DesktopWindowProc:
                    :FX_KEY_UP CHAR:",(CHAR)((PKEYSTATE)pMsg->data)->keyChar);
  5117                        	.line	847
  5118 09:12B0: A0 1D 00     	ldy	#$1d
  5119 09:12B3: B7 52        	lda	[<L42+pMsg_0],Y
  5120 09:12B5: 48           	pha
  5121 09:12B6: F4 xx xx     	pea	#^L41+1376
  5122 09:12B9: F4 xx xx     	pea	#<L41+1376
  5123 09:12BC: 22 xx xx xx  	jsl	~~k_debug_char
  5124                        ;			//k_debug_hex_integer("DesktopWi
                    ndowProc::FX_KEY_UP CHAR:",(CHAR)*((PUINT)(&pMsg->data[0])))
                    ;
  5125                        ;
  5126                        ;
  5127                        ;			break;
  5128                        	.line	851
  5129 09:12C0: 82 24 0E     	brl	L10019
  5130                        ;		case FX_KEY_DOWN:
  5131                        	.line	852
  5132                        L10081:
  5133                        ;			k_debug_hex("DesktopWindowProc::
                    FX_KEY_DOWN SCANCODE:",((PKEYSTATE)pMsg->data)->scanCode);
  5134                        	.line	853
  5135 09:12C3: A0 16 00     	ldy	#$16
  5136 09:12C6: B7 52        	lda	[<L42+pMsg_0],Y
  5137 09:12C8: 48           	pha
  5138 09:12C9: F4 xx xx     	pea	#^L41+1411
  5139 09:12CC: F4 xx xx     	pea	#<L41+1411
  5140 09:12CF: 22 xx xx xx  	jsl	~~k_debug_hex
  5141                        ;			//k_debug_hex("DesktopWindowProc
                    ::FX_KEY_DOWN EXT:",pMsg->data[3]);
  5142                        ;			//k_debug_hex("DesktopWindowProc
                    ::FX_KEY_DOWN SHIFTED:",pMsg->data[1]);
  5143                        ;			//k_debug_hex("DesktopWindowProc
                    ::FX_KEY_DOWN ALT:",pMsg->data[2]);
  5144                        ;			k_debug_char("DesktopWindowProc:
                    :FX_KEY_DOWN CHAR:",(CHAR)((PKEYSTATE)pMsg->data)->keyChar);
  Mon Sep 27 2021  9:39                                                Page 102


  5145                        	.line	857
  5146 09:12D3: A0 1D 00     	ldy	#$1d
  5147 09:12D6: B7 52        	lda	[<L42+pMsg_0],Y
  5148 09:12D8: 48           	pha
  5149 09:12D9: F4 xx xx     	pea	#^L41+1452
  5150 09:12DC: F4 xx xx     	pea	#<L41+1452
  5151 09:12DF: 22 xx xx xx  	jsl	~~k_debug_char
  5152                        ;			//k_debug_hex_integer("DesktopWi
                    ndowProc::FX_KEY_DOWN CHAR:",*((PUINT)(&pMsg->data[0])));
  5153                        ;
  5154                        ;			temp1 = ((PKEYSTATE)pMsg->data)-
                    >scanCode & 0x00FF;
  5155                        	.line	860
  5156 09:12E3: A0 16 00     	ldy	#$16
  5157 09:12E6: B7 52        	lda	[<L42+pMsg_0],Y
  5158 09:12E8: 29 FF 00     	and	#<$ff
  5159 09:12EB: 85 24        	sta	<L43+temp1_1
  5160                        ;
  5161                        ;			if((CHAR)((PKEYSTATE)pMsg->data)
                    ->scanCode == 0x01)
  5162                        	.line	862
  5163                        ;			{
  5164 09:12ED: E2 20        	sep	#$20
  5165                        	longa	off
  5166 09:12EF: A0 16 00     	ldy	#$16
  5167 09:12F2: B7 52        	lda	[<L42+pMsg_0],Y
  5168 09:12F4: C9 01        	cmp	#<$1
  5169 09:12F6: C2 20        	rep	#$20
  5170                        	longa	on
  5171 09:12F8: F0 03        	beq	L84
  5172 09:12FA: 82 4F 00     	brl	L10082
  5173                        L84:
  5174                        	.line	863
  5175                        ;				k_debug_hex("DesktopWind
                    owProc::_k_desktopMenuState.visible(CLOSE):",_k_desktopMenuS
                    tate.visible);
  5176                        	.line	864
  5177 09:12FD: AD xx xx     	lda	|~~_k_desktopMenuState
  5178 09:1300: 48           	pha
  5179 09:1301: F4 xx xx     	pea	#^L41+1489
  5180 09:1304: F4 xx xx     	pea	#<L41+1489
  5181 09:1307: 22 xx xx xx  	jsl	~~k_debug_hex
  5182                        ;				if(_k_desktopMenuState.p
                    Menu)
  5183                        	.line	865
  5184                        ;				{
  5185 09:130B: AD xx xx     	lda	|~~_k_desktopMenuState+10
  5186 09:130E: 0D xx xx     	ora	|~~_k_desktopMenuState+10+2
  5187 09:1311: D0 03        	bne	L85
  5188 09:1313: 82 33 00     	brl	L10083
  5189                        L85:
  5190                        	.line	866
  5191                        ;					 k_user_CloseMen
                    u((HWND)_k_desktopMenuState.pMenu);
  5192                        	.line	867
  5193 09:1316: AD xx xx     	lda	|~~_k_desktopMenuState+10+2
  5194 09:1319: 48           	pha
  5195 09:131A: AD xx xx     	lda	|~~_k_desktopMenuState+10
  Mon Sep 27 2021  9:39                                                Page 103


  5196 09:131D: 48           	pha
  5197 09:131E: 22 xx xx xx  	jsl	~~k_user_CloseMenu
  5198                        ;					_k_desktopMenuSt
                    ate.visible = FALSE;
  5199                        	.line	868
  5200 09:1322: E2 20        	sep	#$20
  5201                        	longa	off
  5202 09:1324: 9C xx xx     	stz	|~~_k_desktopMenuState
  5203 09:1327: C2 20        	rep	#$20
  5204                        	longa	on
  5205                        ;					_k_desktopMenuSt
                    ate.pMenu = NULL;
  5206                        	.line	869
  5207 09:1329: 9C xx xx     	stz	|~~_k_desktopMenuState+10
  5208 09:132C: 9C xx xx     	stz	|~~_k_desktopMenuState+10+2
  5209                        ;					_k_desktopMenuSt
                    ate.selectedIndex = -1;
  5210                        	.line	870
  5211 09:132F: A9 FF FF     	lda	#$ffff
  5212 09:1332: 8D xx xx     	sta	|~~_k_desktopMenuState+14
  5213                        ;
  5214                        ;
  5215                        ;					k_send_window_me
                    ssage(pWin,FX_FOCUS_WINDOW,NULL,0);
  5216                        	.line	873
  5217 09:1335: F4 00 00     	pea	#<$0
  5218 09:1338: F4 00 00     	pea	#^$0
  5219 09:133B: F4 00 00     	pea	#<$0
  5220 09:133E: F4 13 0F     	pea	#<$f13
  5221 09:1341: D4 13        	pei	<L43+pWin_1+2
  5222 09:1343: D4 11        	pei	<L43+pWin_1
  5223 09:1345: 22 xx xx xx  	jsl	~~k_send_window_message
  5224                        ;
  5225                        ;				}
  5226                        	.line	875
  5227                        ;			}
  5228                        L10083:
  5229                        	.line	876
  5230                        ;			else
  5231 09:1349: 82 09 02     	brl	L10084
  5232                        L10082:
  5233                        ;			{
  5234                        	.line	878
  5235                        ;				k_debug_hex("DesktopWind
                    owProc::_k_desktopMenuState.visible(OPEN):",_k_desktopMenuSt
                    ate.visible);
  5236                        	.line	879
  5237 09:134C: AD xx xx     	lda	|~~_k_desktopMenuState
  5238 09:134F: 48           	pha
  5239 09:1350: F4 xx xx     	pea	#^L41+1544
  5240 09:1353: F4 xx xx     	pea	#<L41+1544
  5241 09:1356: 22 xx xx xx  	jsl	~~k_debug_hex
  5242                        ;				if(!_k_desktopMenuState.
                    visible)
  5243                        	.line	880
  5244                        ;				{
  5245 09:135A: AD xx xx     	lda	|~~_k_desktopMenuState
  5246 09:135D: 29 FF 00     	and	#$ff
  Mon Sep 27 2021  9:39                                                Page 104


  5247 09:1360: F0 03        	beq	L86
  5248 09:1362: 82 77 00     	brl	L10085
  5249                        L86:
  5250                        	.line	881
  5251                        ;					k_debug_hex("Des
                    ktopWindowProc::FX_KEY_DOWN:",(CHAR)((PKEYSTATE)pMsg->data)-
                    >isAlt);
  5252                        	.line	882
  5253 09:1365: A0 18 00     	ldy	#$18
  5254 09:1368: B7 52        	lda	[<L42+pMsg_0],Y
  5255 09:136A: 48           	pha
  5256 09:136B: F4 xx xx     	pea	#^L41+1598
  5257 09:136E: F4 xx xx     	pea	#<L41+1598
  5258 09:1371: 22 xx xx xx  	jsl	~~k_debug_hex
  5259                        ;
  5260                        ;					if((temp1!=0x38)
                     && ((((PKEYSTATE)pMsg->data)->isAlt) == 1)) // ALT
  5261                        	.line	884
  5262                        ;					{
  5263 09:1375: A5 24        	lda	<L43+temp1_1
  5264 09:1377: C9 38 00     	cmp	#<$38
  5265 09:137A: D0 03        	bne	L87
  5266 09:137C: 82 5A 00     	brl	L10086
  5267                        L87:
  5268 09:137F: E2 20        	sep	#$20
  5269                        	longa	off
  5270 09:1381: A0 18 00     	ldy	#$18
  5271 09:1384: B7 52        	lda	[<L42+pMsg_0],Y
  5272 09:1386: C9 01        	cmp	#<$1
  5273 09:1388: C2 20        	rep	#$20
  5274                        	longa	on
  5275 09:138A: F0 03        	beq	L88
  5276 09:138C: 82 4A 00     	brl	L10086
  5277                        L88:
  5278                        	.line	885
  5279                        ;						_k_deskt
                    opMenuState.visible = TRUE;
  5280                        	.line	886
  5281 09:138F: E2 20        	sep	#$20
  5282                        	longa	off
  5283 09:1391: A9 01        	lda	#$1
  5284 09:1393: 8D xx xx     	sta	|~~_k_desktopMenuState
  5285 09:1396: C2 20        	rep	#$20
  5286                        	longa	on
  5287                        ;						 k_debug
                    _char("DesktopWindowProc::Calling k_user_SendMenuAccelerator
                    :",(CHAR)((PKEYSTATE)pMsg->data)->keyChar);
  5288                        	.line	887
  5289 09:1398: A0 1D 00     	ldy	#$1d
  5290 09:139B: B7 52        	lda	[<L42+pMsg_0],Y
  5291 09:139D: 48           	pha
  5292 09:139E: F4 xx xx     	pea	#^L41+1630
  5293 09:13A1: F4 xx xx     	pea	#<L41+1630
  5294 09:13A4: 22 xx xx xx  	jsl	~~k_debug_char
  5295                        ;						_k_deskt
                    opMenuState.pMenu = k_user_SendMenuAccelerator((CHAR)((PKEYS
                    TATE)pMsg->data)->keyChar);
  5296                        	.line	888
  Mon Sep 27 2021  9:39                                                Page 105


  5297 09:13A8: A0 1D 00     	ldy	#$1d
  5298 09:13AB: B7 52        	lda	[<L42+pMsg_0],Y
  5299 09:13AD: 48           	pha
  5300 09:13AE: 22 xx xx xx  	jsl	~~k_user_SendMenuAccelerator
  5301 09:13B2: 8D xx xx     	sta	|~~_k_desktopMenuState+10
  5302 09:13B5: 8E xx xx     	stx	|~~_k_desktopMenuState+10+2
  5303                        ;
  5304                        ;
  5305                        ;						if(_k_de
                    sktopMenuState.selectedIndex == -1)
  5306                        	.line	891
  5307                        ;						{
  5308 09:13B8: AD xx xx     	lda	|~~_k_desktopMenuState+14
  5309 09:13BB: C9 FF FF     	cmp	#<$ffffffff
  5310 09:13BE: F0 03        	beq	L89
  5311 09:13C0: 82 16 00     	brl	L10087
  5312                        L89:
  5313                        	.line	892
  5314                        ;							
                    _k_desktopMenuState.selectedIndex+=1;
  5315                        	.line	893
  5316 09:13C3: EE xx xx     	inc	|~~_k_desktopMenuState+14
  5317                        ;							
                    k_user_HighlightMenu(_k_desktopMenuState.pMenu,_k_desktopMen
                    uState.selectedIndex,TRUE);
  5318                        	.line	894
  5319 09:13C6: F4 01 00     	pea	#<$1
  5320 09:13C9: AD xx xx     	lda	|~~_k_desktopMenuState+14
  5321 09:13CC: 48           	pha
  5322 09:13CD: AD xx xx     	lda	|~~_k_desktopMenuState+10+2
  5323 09:13D0: 48           	pha
  5324 09:13D1: AD xx xx     	lda	|~~_k_desktopMenuState+10
  5325 09:13D4: 48           	pha
  5326 09:13D5: 22 xx xx xx  	jsl	~~k_user_HighlightMenu
  5327                        ;						}
  5328                        	.line	895
  5329                        ;					}
  5330                        L10087:
  5331                        	.line	896
  5332                        ;				}
  5333                        L10086:
  5334                        	.line	897
  5335                        ;				else
  5336 09:13D9: 82 79 01     	brl	L10088
  5337                        L10085:
  5338                        ;				{
  5339                        	.line	899
  5340                        ;					if(((((PKEYSTATE
                    )pMsg->data)->isExtended) == 1))
  5341                        	.line	900
  5342                        ;					{
  5343 09:13DC: E2 20        	sep	#$20
  5344                        	longa	off
  5345 09:13DE: A0 19 00     	ldy	#$19
  5346 09:13E1: B7 52        	lda	[<L42+pMsg_0],Y
  5347 09:13E3: C9 01        	cmp	#<$1
  5348 09:13E5: C2 20        	rep	#$20
  5349                        	longa	on
  Mon Sep 27 2021  9:39                                                Page 106


  5350 09:13E7: F0 03        	beq	L90
  5351 09:13E9: 82 0F 01     	brl	L10089
  5352                        L90:
  5353                        	.line	901
  5354                        ;						if((temp
                    1 == 0x50) || (temp1 == 0xD5))
  5355                        	.line	902
  5356                        ;						{
  5357 09:13EC: A5 24        	lda	<L43+temp1_1
  5358 09:13EE: C9 50 00     	cmp	#<$50
  5359 09:13F1: D0 03        	bne	L92
  5360 09:13F3: 82 0A 00     	brl	L91
  5361                        L92:
  5362 09:13F6: A5 24        	lda	<L43+temp1_1
  5363 09:13F8: C9 D5 00     	cmp	#<$d5
  5364 09:13FB: F0 03        	beq	L93
  5365 09:13FD: 82 45 00     	brl	L10090
  5366                        L93:
  5367                        L91:
  5368                        	.line	903
  5369                        ;							
                    if(_k_desktopMenuState.pMenu)
  5370                        	.line	904
  5371                        ;							
                    {
  5372 09:1400: AD xx xx     	lda	|~~_k_desktopMenuState+10
  5373 09:1403: 0D xx xx     	ora	|~~_k_desktopMenuState+10+2
  5374 09:1406: D0 03        	bne	L94
  5375 09:1408: 82 37 00     	brl	L10091
  5376                        L94:
  5377                        	.line	905
  5378                        ;							
                    	k_debug_strings("DesktopWindowProc::Calling k_user_Highl
                    ightMenu:","UP");
  5379                        	.line	906
  5380 09:140B: F4 xx xx     	pea	#^L41+1734
  5381 09:140E: F4 xx xx     	pea	#<L41+1734
  5382 09:1411: F4 xx xx     	pea	#^L41+1685
  5383 09:1414: F4 xx xx     	pea	#<L41+1685
  5384 09:1417: 22 xx xx xx  	jsl	~~k_debug_strings
  5385                        ;
  5386                        ;							
                    	if(_k_desktopMenuState.selectedIndex > 0)
  5387                        	.line	908
  5388                        ;							
                    	{
  5389 09:141B: 38           	sec
  5390 09:141C: A9 00 00     	lda	#$0
  5391 09:141F: ED xx xx     	sbc	|~~_k_desktopMenuState+14
  5392 09:1422: 70 03        	bvs	L95
  5393 09:1424: 49 00 80     	eor	#$8000
  5394                        L95:
  5395 09:1427: 10 03        	bpl	L96
  5396 09:1429: 82 16 00     	brl	L10092
  5397                        L96:
  5398                        	.line	909
  5399                        ;							
                    		_k_desktopMenuState.selectedIndex-=1;
  Mon Sep 27 2021  9:39                                                Page 107


  5400                        	.line	910
  5401 09:142C: CE xx xx     	dec	|~~_k_desktopMenuState+14
  5402                        ;							
                    		k_user_HighlightMenu(_k_desktopMenuState.pMenu,_
                    k_desktopMenuState.selectedIndex,TRUE);
  5403                        	.line	911
  5404 09:142F: F4 01 00     	pea	#<$1
  5405 09:1432: AD xx xx     	lda	|~~_k_desktopMenuState+14
  5406 09:1435: 48           	pha
  5407 09:1436: AD xx xx     	lda	|~~_k_desktopMenuState+10+2
  5408 09:1439: 48           	pha
  5409 09:143A: AD xx xx     	lda	|~~_k_desktopMenuState+10
  5410 09:143D: 48           	pha
  5411 09:143E: 22 xx xx xx  	jsl	~~k_user_HighlightMenu
  5412                        ;							
                    	}
  5413                        	.line	912
  5414                        ;							
                    }
  5415                        L10092:
  5416                        	.line	913
  5417                        ;						}
  5418                        L10091:
  5419                        	.line	914
  5420                        ;						else if(
                    (temp1 == 0x50) || (temp1 == 0xC9))
  5421 09:1442: 82 B3 00     	brl	L10093
  5422                        L10090:
  5423                        	.line	915
  5424                        ;						{
  5425 09:1445: A5 24        	lda	<L43+temp1_1
  5426 09:1447: C9 50 00     	cmp	#<$50
  5427 09:144A: D0 03        	bne	L98
  5428 09:144C: 82 0A 00     	brl	L97
  5429                        L98:
  5430 09:144F: A5 24        	lda	<L43+temp1_1
  5431 09:1451: C9 C9 00     	cmp	#<$c9
  5432 09:1454: F0 03        	beq	L99
  5433 09:1456: 82 45 00     	brl	L10094
  5434                        L99:
  5435                        L97:
  5436                        	.line	916
  5437                        ;							
                    if(_k_desktopMenuState.pMenu)
  5438                        	.line	917
  5439                        ;							
                    {
  5440 09:1459: AD xx xx     	lda	|~~_k_desktopMenuState+10
  5441 09:145C: 0D xx xx     	ora	|~~_k_desktopMenuState+10+2
  5442 09:145F: D0 03        	bne	L100
  5443 09:1461: 82 37 00     	brl	L10095
  5444                        L100:
  5445                        	.line	918
  5446                        ;							
                    	k_debug_strings("DesktopWindowProc::Calling k_user_Highl
                    ightMenu:","DOWN");
  5447                        	.line	919
  5448 09:1464: F4 xx xx     	pea	#^L41+1786
  Mon Sep 27 2021  9:39                                                Page 108


  5449 09:1467: F4 xx xx     	pea	#<L41+1786
  5450 09:146A: F4 xx xx     	pea	#^L41+1737
  5451 09:146D: F4 xx xx     	pea	#<L41+1737
  5452 09:1470: 22 xx xx xx  	jsl	~~k_debug_strings
  5453                        ;							
                    	if(_k_desktopMenuState.selectedIndex < 100)  // fix the 
                    max
  5454                        	.line	920
  5455                        ;							
                    	{
  5456 09:1474: 38           	sec
  5457 09:1475: AD xx xx     	lda	|~~_k_desktopMenuState+14
  5458 09:1478: E9 64 00     	sbc	#<$64
  5459 09:147B: 70 03        	bvs	L101
  5460 09:147D: 49 00 80     	eor	#$8000
  5461                        L101:
  5462 09:1480: 10 03        	bpl	L102
  5463 09:1482: 82 16 00     	brl	L10096
  5464                        L102:
  5465                        	.line	921
  5466                        ;							
                    		_k_desktopMenuState.selectedIndex+=1;
  5467                        	.line	922
  5468 09:1485: EE xx xx     	inc	|~~_k_desktopMenuState+14
  5469                        ;							
                    		k_user_HighlightMenu(_k_desktopMenuState.pMenu,_
                    k_desktopMenuState.selectedIndex,TRUE);
  5470                        	.line	923
  5471 09:1488: F4 01 00     	pea	#<$1
  5472 09:148B: AD xx xx     	lda	|~~_k_desktopMenuState+14
  5473 09:148E: 48           	pha
  5474 09:148F: AD xx xx     	lda	|~~_k_desktopMenuState+10+2
  5475 09:1492: 48           	pha
  5476 09:1493: AD xx xx     	lda	|~~_k_desktopMenuState+10
  5477 09:1496: 48           	pha
  5478 09:1497: 22 xx xx xx  	jsl	~~k_user_HighlightMenu
  5479                        ;							
                    	}
  5480                        	.line	924
  5481                        ;							
                    }
  5482                        L10096:
  5483                        	.line	925
  5484                        ;						}
  5485                        L10095:
  5486                        	.line	926
  5487                        ;						else if(
                    temp1 == 0x1C)
  5488 09:149B: 82 5A 00     	brl	L10097
  5489                        L10094:
  5490                        	.line	927
  5491                        ;						{
  5492 09:149E: A5 24        	lda	<L43+temp1_1
  5493 09:14A0: C9 1C 00     	cmp	#<$1c
  5494 09:14A3: F0 03        	beq	L103
  5495 09:14A5: 82 50 00     	brl	L10098
  5496                        L103:
  5497                        	.line	928
  Mon Sep 27 2021  9:39                                                Page 109


  5498                        ;							
                    k_debug_pointer("DesktopWindowProc::_k_desktopMenuState.pMen
                    u:",_k_desktopMenuState.pMenu);
  5499                        	.line	929
  5500 09:14A8: AD xx xx     	lda	|~~_k_desktopMenuState+10+2
  5501 09:14AB: 48           	pha
  5502 09:14AC: AD xx xx     	lda	|~~_k_desktopMenuState+10
  5503 09:14AF: 48           	pha
  5504 09:14B0: F4 xx xx     	pea	#^L41+1791
  5505 09:14B3: F4 xx xx     	pea	#<L41+1791
  5506 09:14B6: 22 xx xx xx  	jsl	~~k_debug_pointer
  5507                        ;							
                    if(_k_desktopMenuState.pMenu)
  5508                        	.line	930
  5509                        ;							
                    {
  5510 09:14BA: AD xx xx     	lda	|~~_k_desktopMenuState+10
  5511 09:14BD: 0D xx xx     	ora	|~~_k_desktopMenuState+10+2
  5512 09:14C0: D0 03        	bne	L104
  5513 09:14C2: 82 33 00     	brl	L10099
  5514                        L104:
  5515                        	.line	931
  5516                        ;							
                    	k_debug_strings("DesktopWindowProc::Calling k_user_Selec
                    tMenu:","ENTER");
  5517                        	.line	932
  5518 09:14C5: F4 xx xx     	pea	#^L41+1883
  5519 09:14C8: F4 xx xx     	pea	#<L41+1883
  5520 09:14CB: F4 xx xx     	pea	#^L41+1837
  5521 09:14CE: F4 xx xx     	pea	#<L41+1837
  5522 09:14D1: 22 xx xx xx  	jsl	~~k_debug_strings
  5523                        ;							
                    	k_user_SelectMenu(_k_desktopMenuState.pMenu,_k_desktopMe
                    nuState.selectedIndex);
  5524                        	.line	933
  5525 09:14D5: AD xx xx     	lda	|~~_k_desktopMenuState+14
  5526 09:14D8: 48           	pha
  5527 09:14D9: AD xx xx     	lda	|~~_k_desktopMenuState+10+2
  5528 09:14DC: 48           	pha
  5529 09:14DD: AD xx xx     	lda	|~~_k_desktopMenuState+10
  5530 09:14E0: 48           	pha
  5531 09:14E1: 22 xx xx xx  	jsl	~~k_user_SelectMenu
  5532                        ;
  5533                        ;							
                    	_k_desktopMenuState.visible = FALSE;
  5534                        	.line	935
  5535 09:14E5: E2 20        	sep	#$20
  5536                        	longa	off
  5537 09:14E7: 9C xx xx     	stz	|~~_k_desktopMenuState
  5538 09:14EA: C2 20        	rep	#$20
  5539                        	longa	on
  5540                        ;							
                    	_k_desktopMenuState.pMenu = NULL;
  5541                        	.line	936
  5542 09:14EC: 9C xx xx     	stz	|~~_k_desktopMenuState+10
  5543 09:14EF: 9C xx xx     	stz	|~~_k_desktopMenuState+10+2
  5544                        ;							
                    	_k_desktopMenuState.selectedIndex = -1;
  Mon Sep 27 2021  9:39                                                Page 110


  5545                        	.line	937
  5546 09:14F2: A9 FF FF     	lda	#$ffff
  5547 09:14F5: 8D xx xx     	sta	|~~_k_desktopMenuState+14
  5548                        ;							
                    }
  5549                        	.line	938
  5550                        ;						}
  5551                        L10099:
  5552                        	.line	939
  5553                        ;
  5554                        ;					}
  5555                        L10098:
  5556                        L10097:
  5557                        L10093:
  5558                        	.line	941
  5559                        ;					else
  5560 09:14F8: 82 5A 00     	brl	L10100
  5561                        L10089:
  5562                        ;					{
  5563                        	.line	943
  5564                        ;						if(temp1
                    !=0x1C)
  5565                        	.line	944
  5566                        ;						{
  5567 09:14FB: A5 24        	lda	<L43+temp1_1
  5568 09:14FD: C9 1C 00     	cmp	#<$1c
  5569 09:1500: D0 03        	bne	L105
  5570 09:1502: 82 50 00     	brl	L10101
  5571                        L105:
  5572                        	.line	945
  5573                        ;							
                    k_debug_pointer("DesktopWindowProc::_k_desktopMenuState.pMen
                    u:",_k_desktopMenuState.pMenu);
  5574                        	.line	946
  5575 09:1505: AD xx xx     	lda	|~~_k_desktopMenuState+10+2
  5576 09:1508: 48           	pha
  5577 09:1509: AD xx xx     	lda	|~~_k_desktopMenuState+10
  5578 09:150C: 48           	pha
  5579 09:150D: F4 xx xx     	pea	#^L41+1889
  5580 09:1510: F4 xx xx     	pea	#<L41+1889
  5581 09:1513: 22 xx xx xx  	jsl	~~k_debug_pointer
  5582                        ;							
                    if(_k_desktopMenuState.pMenu)
  5583                        	.line	947
  5584                        ;							
                    {
  5585 09:1517: AD xx xx     	lda	|~~_k_desktopMenuState+10
  5586 09:151A: 0D xx xx     	ora	|~~_k_desktopMenuState+10+2
  5587 09:151D: D0 03        	bne	L106
  5588 09:151F: 82 33 00     	brl	L10102
  5589                        L106:
  5590                        	.line	948
  5591                        ;							
                    	k_debug_strings("DesktopWindowProc::Calling k_user_Selec
                    tMenu:","ENTER");
  5592                        	.line	949
  5593 09:1522: F4 xx xx     	pea	#^L41+1981
  5594 09:1525: F4 xx xx     	pea	#<L41+1981
  Mon Sep 27 2021  9:39                                                Page 111


  5595 09:1528: F4 xx xx     	pea	#^L41+1935
  5596 09:152B: F4 xx xx     	pea	#<L41+1935
  5597 09:152E: 22 xx xx xx  	jsl	~~k_debug_strings
  5598                        ;							
                    	k_user_SelectMenu(_k_desktopMenuState.pMenu,_k_desktopMe
                    nuState.selectedIndex);
  5599                        	.line	950
  5600 09:1532: AD xx xx     	lda	|~~_k_desktopMenuState+14
  5601 09:1535: 48           	pha
  5602 09:1536: AD xx xx     	lda	|~~_k_desktopMenuState+10+2
  5603 09:1539: 48           	pha
  5604 09:153A: AD xx xx     	lda	|~~_k_desktopMenuState+10
  5605 09:153D: 48           	pha
  5606 09:153E: 22 xx xx xx  	jsl	~~k_user_SelectMenu
  5607                        ;
  5608                        ;							
                    	_k_desktopMenuState.visible = FALSE;
  5609                        	.line	952
  5610 09:1542: E2 20        	sep	#$20
  5611                        	longa	off
  5612 09:1544: 9C xx xx     	stz	|~~_k_desktopMenuState
  5613 09:1547: C2 20        	rep	#$20
  5614                        	longa	on
  5615                        ;							
                    	_k_desktopMenuState.pMenu = NULL;
  5616                        	.line	953
  5617 09:1549: 9C xx xx     	stz	|~~_k_desktopMenuState+10
  5618 09:154C: 9C xx xx     	stz	|~~_k_desktopMenuState+10+2
  5619                        ;							
                    	_k_desktopMenuState.selectedIndex = -1;
  5620                        	.line	954
  5621 09:154F: A9 FF FF     	lda	#$ffff
  5622 09:1552: 8D xx xx     	sta	|~~_k_desktopMenuState+14
  5623                        ;
  5624                        ;							
                    }
  5625                        	.line	956
  5626                        ;						}
  5627                        L10102:
  5628                        	.line	957
  5629                        ;					}
  5630                        L10101:
  5631                        	.line	958
  5632                        L10100:
  5633                        ;
  5634                        ;				}
  5635                        	.line	960
  5636                        L10088:
  5637                        ;			}
  5638                        	.line	961
  5639                        L10084:
  5640                        ;
  5641                        ;			break;
  5642                        	.line	963
  5643 09:1555: 82 8F 0B     	brl	L10019
  5644                        ;		case FX_DISK_INSERT:
  5645                        	.line	964
  5646                        L10103:
  Mon Sep 27 2021  9:39                                                Page 112


  5647                        ;
  5648                        ;			k_debug_string("DesktopWindowPro
                    c::DISK-INSERT:");
  5649                        	.line	966
  5650 09:1558: F4 xx xx     	pea	#^L41+1987
  5651 09:155B: F4 xx xx     	pea	#<L41+1987
  5652 09:155E: 22 xx xx xx  	jsl	~~k_debug_string
  5653                        ;			if(((PDISKINFO)pMsg->pheap)->stg
                    Name)
  5654                        	.line	967
  5655                        ;			{
  5656 09:1562: A0 0E 00     	ldy	#$e
  5657 09:1565: B7 52        	lda	[<L42+pMsg_0],Y
  5658 09:1567: A0 10 00     	ldy	#$10
  5659 09:156A: 17 52        	ora	[<L42+pMsg_0],Y
  5660 09:156C: D0 03        	bne	L107
  5661 09:156E: 82 13 00     	brl	L10104
  5662                        L107:
  5663                        	.line	968
  5664                        ;				k_debug_string(((PDISKIN
                    FO)pMsg->pheap)->stgName);
  5665                        	.line	969
  5666 09:1571: A0 10 00     	ldy	#$10
  5667 09:1574: B7 52        	lda	[<L42+pMsg_0],Y
  5668 09:1576: 48           	pha
  5669 09:1577: A0 0E 00     	ldy	#$e
  5670 09:157A: B7 52        	lda	[<L42+pMsg_0],Y
  5671 09:157C: 48           	pha
  5672 09:157D: 22 xx xx xx  	jsl	~~k_debug_string
  5673                        ;			}
  5674                        	.line	970
  5675                        ;			else
  5676 09:1581: 82 0A 00     	brl	L10105
  5677                        L10104:
  5678                        ;			{
  5679                        	.line	972
  5680                        ;				k_debug_string("NULL");
  5681                        	.line	973
  5682 09:1584: F4 xx xx     	pea	#^L41+2019
  5683 09:1587: F4 xx xx     	pea	#<L41+2019
  5684 09:158A: 22 xx xx xx  	jsl	~~k_debug_string
  5685                        ;			}
  5686                        	.line	974
  5687                        L10105:
  5688                        ;			k_debug_string("\r\n");
  5689                        	.line	975
  5690 09:158E: F4 xx xx     	pea	#^L41+2024
  5691 09:1591: F4 xx xx     	pea	#<L41+2024
  5692 09:1594: 22 xx xx xx  	jsl	~~k_debug_string
  5693                        ;
  5694                        ;			((PDISKINFO)pMsg->pheap)->stgNam
                    e[31] = 0;
  5695                        	.line	977
  5696 09:1598: A0 0E 00     	ldy	#$e
  5697 09:159B: B7 52        	lda	[<L42+pMsg_0],Y
  5698 09:159D: 85 01        	sta	<R0
  5699 09:159F: A0 10 00     	ldy	#$10
  5700 09:15A2: B7 52        	lda	[<L42+pMsg_0],Y
  Mon Sep 27 2021  9:39                                                Page 113


  5701 09:15A4: 85 03        	sta	<R0+2
  5702 09:15A6: E2 20        	sep	#$20
  5703                        	longa	off
  5704 09:15A8: A9 00        	lda	#$0
  5705 09:15AA: A0 1F 00     	ldy	#$1f
  5706 09:15AD: 97 01        	sta	[<R0],Y
  5707 09:15AF: C2 20        	rep	#$20
  5708                        	longa	on
  5709                        ;
  5710                        ;			if(p->desktopCtl->currentDiskNam
                    e && strcmp( k_to_uppercase(  ((PDISKINFO)pMsg->pheap)->stgN
                    ame),p->desktopCtl->currentDiskName) == 0)
  5711                        	.line	979
  5712                        ;			{
  5713 09:15B1: A0 58 00     	ldy	#$58
  5714 09:15B4: B7 19        	lda	[<L43+p_1],Y
  5715 09:15B6: 85 01        	sta	<R0
  5716 09:15B8: A0 5A 00     	ldy	#$5a
  5717 09:15BB: B7 19        	lda	[<L43+p_1],Y
  5718 09:15BD: 85 03        	sta	<R0+2
  5719 09:15BF: A0 11 00     	ldy	#$11
  5720 09:15C2: B7 01        	lda	[<R0],Y
  5721 09:15C4: A0 13 00     	ldy	#$13
  5722 09:15C7: 17 01        	ora	[<R0],Y
  5723 09:15C9: D0 03        	bne	L108
  5724 09:15CB: 82 47 00     	brl	L10106
  5725                        L108:
  5726 09:15CE: A0 58 00     	ldy	#$58
  5727 09:15D1: B7 19        	lda	[<L43+p_1],Y
  5728 09:15D3: 85 01        	sta	<R0
  5729 09:15D5: A0 5A 00     	ldy	#$5a
  5730 09:15D8: B7 19        	lda	[<L43+p_1],Y
  5731 09:15DA: 85 03        	sta	<R0+2
  5732 09:15DC: A0 13 00     	ldy	#$13
  5733 09:15DF: B7 01        	lda	[<R0],Y
  5734 09:15E1: 48           	pha
  5735 09:15E2: A0 11 00     	ldy	#$11
  5736 09:15E5: B7 01        	lda	[<R0],Y
  5737 09:15E7: 48           	pha
  5738 09:15E8: A0 10 00     	ldy	#$10
  5739 09:15EB: B7 52        	lda	[<L42+pMsg_0],Y
  5740 09:15ED: 48           	pha
  5741 09:15EE: A0 0E 00     	ldy	#$e
  5742 09:15F1: B7 52        	lda	[<L42+pMsg_0],Y
  5743 09:15F3: 48           	pha
  5744 09:15F4: 22 xx xx xx  	jsl	~~k_to_uppercase
  5745 09:15F8: 85 01        	sta	<R0
  5746 09:15FA: 86 03        	stx	<R0+2
  5747 09:15FC: DA           	phx
  5748 09:15FD: 48           	pha
  5749 09:15FE: 22 xx xx xx  	jsl	~~strcmp
  5750 09:1602: AA           	tax
  5751 09:1603: F0 03        	beq	L109
  5752 09:1605: 82 0D 00     	brl	L10106
  5753                        L109:
  5754                        	.line	980
  5755                        ;				k_debug_string("DesktopW
                    indowProc::DISK-INSERT:NO-CHANGE\r\n");
  Mon Sep 27 2021  9:39                                                Page 114


  5756                        	.line	981
  5757 09:1608: F4 xx xx     	pea	#^L41+2027
  5758 09:160B: F4 xx xx     	pea	#<L41+2027
  5759 09:160E: 22 xx xx xx  	jsl	~~k_debug_string
  5760                        ;			}
  5761                        	.line	982
  5762                        ;			else
  5763 09:1612: 82 55 02     	brl	L10107
  5764                        L10106:
  5765                        ;			{
  5766                        	.line	984
  5767                        ;				if(p->desktopCtl->curren
                    tDiskName)
  5768                        	.line	985
  5769                        ;				{
  5770 09:1615: A0 58 00     	ldy	#$58
  5771 09:1618: B7 19        	lda	[<L43+p_1],Y
  5772 09:161A: 85 01        	sta	<R0
  5773 09:161C: A0 5A 00     	ldy	#$5a
  5774 09:161F: B7 19        	lda	[<L43+p_1],Y
  5775 09:1621: 85 03        	sta	<R0+2
  5776 09:1623: A0 11 00     	ldy	#$11
  5777 09:1626: B7 01        	lda	[<R0],Y
  5778 09:1628: A0 13 00     	ldy	#$13
  5779 09:162B: 17 01        	ora	[<R0],Y
  5780 09:162D: D0 03        	bne	L110
  5781 09:162F: 82 B7 00     	brl	L10108
  5782                        L110:
  5783                        	.line	986
  5784                        ;					temp1 = strlen(p
                    ->desktopCtl->currentDiskName);
  5785                        	.line	987
  5786 09:1632: A0 58 00     	ldy	#$58
  5787 09:1635: B7 19        	lda	[<L43+p_1],Y
  5788 09:1637: 85 01        	sta	<R0
  5789 09:1639: A0 5A 00     	ldy	#$5a
  5790 09:163C: B7 19        	lda	[<L43+p_1],Y
  5791 09:163E: 85 03        	sta	<R0+2
  5792 09:1640: A0 13 00     	ldy	#$13
  5793 09:1643: B7 01        	lda	[<R0],Y
  5794 09:1645: 48           	pha
  5795 09:1646: A0 11 00     	ldy	#$11
  5796 09:1649: B7 01        	lda	[<R0],Y
  5797 09:164B: 48           	pha
  5798 09:164C: 22 xx xx xx  	jsl	~~strlen
  5799 09:1650: 85 24        	sta	<L43+temp1_1
  5800                        ;					temp2 = (temp1*4
                    );
  5801                        	.line	988
  5802 09:1652: A5 24        	lda	<L43+temp1_1
  5803 09:1654: 0A           	asl	A
  5804 09:1655: 0A           	asl	A
  5805 09:1656: 85 26        	sta	<L43+temp2_1
  5806                        ;					k_put_winicon_po
                    int(ICON_DISK,640 - (40 + temp2/2),20,p->desktopCtl->backgro
                    undColor,PAINTMODE_BACKGROUND);
  5807                        	.line	989
  5808 09:1658: F4 F0 00     	pea	#<$f0
  Mon Sep 27 2021  9:39                                                Page 115


  5809 09:165B: A0 58 00     	ldy	#$58
  5810 09:165E: B7 19        	lda	[<L43+p_1],Y
  5811 09:1660: 85 01        	sta	<R0
  5812 09:1662: A0 5A 00     	ldy	#$5a
  5813 09:1665: B7 19        	lda	[<L43+p_1],Y
  5814 09:1667: 85 03        	sta	<R0+2
  5815 09:1669: A0 05 00     	ldy	#$5
  5816 09:166C: B7 01        	lda	[<R0],Y
  5817 09:166E: 48           	pha
  5818 09:166F: F4 14 00     	pea	#<$14
  5819 09:1672: A5 26        	lda	<L43+temp2_1
  5820 09:1674: A2 02 00     	ldx	#<$2
  5821                        	xref	~~~div
  5822 09:1677: 22 xx xx xx  	jsl	~~~div
  5823 09:167B: 85 01        	sta	<R0
  5824 09:167D: 18           	clc
  5825 09:167E: A9 28 00     	lda	#$28
  5826 09:1681: 65 01        	adc	<R0
  5827 09:1683: 85 05        	sta	<R1
  5828 09:1685: 38           	sec
  5829 09:1686: A9 80 02     	lda	#$280
  5830 09:1689: E5 05        	sbc	<R1
  5831 09:168B: 48           	pha
  5832 09:168C: F4 03 00     	pea	#<$3
  5833 09:168F: 22 xx xx xx  	jsl	~~k_put_winicon_point
  5834                        ;					k_draw_text_poin
                    t(p->desktopCtl->currentDiskName,640 - (35 + temp2/2) - (tem
                    p2),40,p->desktopCtl->backgroundColor);
  5835                        	.line	990
  5836 09:1693: A0 58 00     	ldy	#$58
  5837 09:1696: B7 19        	lda	[<L43+p_1],Y
  5838 09:1698: 85 01        	sta	<R0
  5839 09:169A: A0 5A 00     	ldy	#$5a
  5840 09:169D: B7 19        	lda	[<L43+p_1],Y
  5841 09:169F: 85 03        	sta	<R0+2
  5842 09:16A1: A0 05 00     	ldy	#$5
  5843 09:16A4: B7 01        	lda	[<R0],Y
  5844 09:16A6: 48           	pha
  5845 09:16A7: F4 28 00     	pea	#<$28
  5846 09:16AA: A5 26        	lda	<L43+temp2_1
  5847 09:16AC: A2 02 00     	ldx	#<$2
  5848                        	xref	~~~div
  5849 09:16AF: 22 xx xx xx  	jsl	~~~div
  5850 09:16B3: 85 05        	sta	<R1
  5851 09:16B5: 18           	clc
  5852 09:16B6: A9 23 00     	lda	#$23
  5853 09:16B9: 65 05        	adc	<R1
  5854 09:16BB: 85 09        	sta	<R2
  5855 09:16BD: 38           	sec
  5856 09:16BE: A9 80 02     	lda	#$280
  5857 09:16C1: E5 09        	sbc	<R2
  5858 09:16C3: 85 05        	sta	<R1
  5859 09:16C5: 38           	sec
  5860 09:16C6: A5 05        	lda	<R1
  5861 09:16C8: E5 26        	sbc	<L43+temp2_1
  5862 09:16CA: 48           	pha
  5863 09:16CB: A0 58 00     	ldy	#$58
  5864 09:16CE: B7 19        	lda	[<L43+p_1],Y
  Mon Sep 27 2021  9:39                                                Page 116


  5865 09:16D0: 85 05        	sta	<R1
  5866 09:16D2: A0 5A 00     	ldy	#$5a
  5867 09:16D5: B7 19        	lda	[<L43+p_1],Y
  5868 09:16D7: 85 07        	sta	<R1+2
  5869 09:16D9: A0 13 00     	ldy	#$13
  5870 09:16DC: B7 05        	lda	[<R1],Y
  5871 09:16DE: 48           	pha
  5872 09:16DF: A0 11 00     	ldy	#$11
  5873 09:16E2: B7 05        	lda	[<R1],Y
  5874 09:16E4: 48           	pha
  5875 09:16E5: 22 xx xx xx  	jsl	~~k_draw_text_point
  5876                        ;				}
  5877                        	.line	991
  5878                        ;
  5879                        ;				temp1 = strlen(((PDISKIN
                    FO)pMsg->pheap)->stgName);
  5880                        L10108:
  5881                        	.line	993
  5882 09:16E9: A0 10 00     	ldy	#$10
  5883 09:16EC: B7 52        	lda	[<L42+pMsg_0],Y
  5884 09:16EE: 48           	pha
  5885 09:16EF: A0 0E 00     	ldy	#$e
  5886 09:16F2: B7 52        	lda	[<L42+pMsg_0],Y
  5887 09:16F4: 48           	pha
  5888 09:16F5: 22 xx xx xx  	jsl	~~strlen
  5889 09:16F9: 85 24        	sta	<L43+temp1_1
  5890                        ;				temp2 = (temp1*4);
  5891                        	.line	994
  5892 09:16FB: A5 24        	lda	<L43+temp1_1
  5893 09:16FD: 0A           	asl	A
  5894 09:16FE: 0A           	asl	A
  5895 09:16FF: 85 26        	sta	<L43+temp2_1
  5896                        ;
  5897                        ;				k_put_winicon_point(ICON
                    _DISK,640 - (40 + temp2/2),20,0,PAINTMODE_DEFAULT);
  5898                        	.line	996
  5899 09:1701: F4 00 00     	pea	#<$0
  5900 09:1704: F4 00 00     	pea	#<$0
  5901 09:1707: F4 14 00     	pea	#<$14
  5902 09:170A: A5 26        	lda	<L43+temp2_1
  5903 09:170C: A2 02 00     	ldx	#<$2
  5904                        	xref	~~~div
  5905 09:170F: 22 xx xx xx  	jsl	~~~div
  5906 09:1713: 85 01        	sta	<R0
  5907 09:1715: 18           	clc
  5908 09:1716: A9 28 00     	lda	#$28
  5909 09:1719: 65 01        	adc	<R0
  5910 09:171B: 85 05        	sta	<R1
  5911 09:171D: 38           	sec
  5912 09:171E: A9 80 02     	lda	#$280
  5913 09:1721: E5 05        	sbc	<R1
  5914 09:1723: 48           	pha
  5915 09:1724: F4 03 00     	pea	#<$3
  5916 09:1727: 22 xx xx xx  	jsl	~~k_put_winicon_point
  5917                        ;				k_draw_text_point(k_to_u
                    ppercase(((PDISKINFO)pMsg->pheap)->stgName),640 - (35 + temp
                    2/2) - (temp2),40,0);
  5918                        	.line	997
  Mon Sep 27 2021  9:39                                                Page 117


  5919 09:172B: F4 00 00     	pea	#<$0
  5920 09:172E: F4 28 00     	pea	#<$28
  5921 09:1731: A5 26        	lda	<L43+temp2_1
  5922 09:1733: A2 02 00     	ldx	#<$2
  5923                        	xref	~~~div
  5924 09:1736: 22 xx xx xx  	jsl	~~~div
  5925 09:173A: 85 01        	sta	<R0
  5926 09:173C: 18           	clc
  5927 09:173D: A9 23 00     	lda	#$23
  5928 09:1740: 65 01        	adc	<R0
  5929 09:1742: 85 05        	sta	<R1
  5930 09:1744: 38           	sec
  5931 09:1745: A9 80 02     	lda	#$280
  5932 09:1748: E5 05        	sbc	<R1
  5933 09:174A: 85 01        	sta	<R0
  5934 09:174C: 38           	sec
  5935 09:174D: A5 01        	lda	<R0
  5936 09:174F: E5 26        	sbc	<L43+temp2_1
  5937 09:1751: 48           	pha
  5938 09:1752: A0 10 00     	ldy	#$10
  5939 09:1755: B7 52        	lda	[<L42+pMsg_0],Y
  5940 09:1757: 48           	pha
  5941 09:1758: A0 0E 00     	ldy	#$e
  5942 09:175B: B7 52        	lda	[<L42+pMsg_0],Y
  5943 09:175D: 48           	pha
  5944 09:175E: 22 xx xx xx  	jsl	~~k_to_uppercase
  5945 09:1762: 85 01        	sta	<R0
  5946 09:1764: 86 03        	stx	<R0+2
  5947 09:1766: DA           	phx
  5948 09:1767: 48           	pha
  5949 09:1768: 22 xx xx xx  	jsl	~~k_draw_text_point
  5950                        ;
  5951                        ;				if(p->desktopCtl->curren
                    tDiskName!=NULL)
  5952                        	.line	999
  5953                        ;					k_mem_deallocate
                    _heap(p->desktopCtl->currentDiskName);
  5954 09:176C: A0 58 00     	ldy	#$58
  5955 09:176F: B7 19        	lda	[<L43+p_1],Y
  5956 09:1771: 85 01        	sta	<R0
  5957 09:1773: A0 5A 00     	ldy	#$5a
  5958 09:1776: B7 19        	lda	[<L43+p_1],Y
  5959 09:1778: 85 03        	sta	<R0+2
  5960 09:177A: A0 11 00     	ldy	#$11
  5961 09:177D: B7 01        	lda	[<R0],Y
  5962 09:177F: A0 13 00     	ldy	#$13
  5963 09:1782: 17 01        	ora	[<R0],Y
  5964 09:1784: D0 03        	bne	L111
  5965 09:1786: 82 1E 00     	brl	L10109
  5966                        L111:
  5967                        	.line	1000
  5968 09:1789: A0 58 00     	ldy	#$58
  5969 09:178C: B7 19        	lda	[<L43+p_1],Y
  5970 09:178E: 85 01        	sta	<R0
  5971 09:1790: A0 5A 00     	ldy	#$5a
  5972 09:1793: B7 19        	lda	[<L43+p_1],Y
  5973 09:1795: 85 03        	sta	<R0+2
  5974 09:1797: A0 13 00     	ldy	#$13
  Mon Sep 27 2021  9:39                                                Page 118


  5975 09:179A: B7 01        	lda	[<R0],Y
  5976 09:179C: 48           	pha
  5977 09:179D: A0 11 00     	ldy	#$11
  5978 09:17A0: B7 01        	lda	[<R0],Y
  5979 09:17A2: 48           	pha
  5980 09:17A3: 22 xx xx xx  	jsl	~~k_mem_deallocate_heap
  5981                        ;
  5982                        ;				p->desktopCtl->currentDi
                    skName = k_string_copy_string(((PDISKINFO)pMsg->pheap)->stgN
                    ame);
  5983                        L10109:
  5984                        	.line	1002
  5985 09:17A7: A0 58 00     	ldy	#$58
  5986 09:17AA: B7 19        	lda	[<L43+p_1],Y
  5987 09:17AC: 85 01        	sta	<R0
  5988 09:17AE: A0 5A 00     	ldy	#$5a
  5989 09:17B1: B7 19        	lda	[<L43+p_1],Y
  5990 09:17B3: 85 03        	sta	<R0+2
  5991 09:17B5: A0 10 00     	ldy	#$10
  5992 09:17B8: B7 52        	lda	[<L42+pMsg_0],Y
  5993 09:17BA: 48           	pha
  5994 09:17BB: A0 0E 00     	ldy	#$e
  5995 09:17BE: B7 52        	lda	[<L42+pMsg_0],Y
  5996 09:17C0: 48           	pha
  5997 09:17C1: 22 xx xx xx  	jsl	~~k_string_copy_string
  5998 09:17C5: 85 05        	sta	<R1
  5999 09:17C7: 86 07        	stx	<R1+2
  6000 09:17C9: A5 05        	lda	<R1
  6001 09:17CB: A0 11 00     	ldy	#$11
  6002 09:17CE: 97 01        	sta	[<R0],Y
  6003 09:17D0: A5 07        	lda	<R1+2
  6004 09:17D2: A0 13 00     	ldy	#$13
  6005 09:17D5: 97 01        	sta	[<R0],Y
  6006                        ;
  6007                        ;				pcd = k_mem_allocate_hea
                    p(sizeof(CLICKDETECTED));
  6008                        	.line	1004
  6009 09:17D7: F4 00 00     	pea	#^$8
  6010 09:17DA: F4 08 00     	pea	#<$8
  6011 09:17DD: 22 xx xx xx  	jsl	~~k_mem_allocate_heap
  6012 09:17E1: 85 33        	sta	<L43+pcd_1
  6013 09:17E3: 86 35        	stx	<L43+pcd_1+2
  6014                        ;				if(pcd)
  6015                        	.line	1005
  6016                        ;				{
  6017 09:17E5: A5 33        	lda	<L43+pcd_1
  6018 09:17E7: 05 35        	ora	<L43+pcd_1+2
  6019 09:17E9: D0 03        	bne	L112
  6020 09:17EB: 82 58 00     	brl	L10110
  6021                        L112:
  6022                        	.line	1006
  6023                        ;					pcd->window  = k
                    _create_ui_window_class(640 - (40 + temp2/2),20,ICONH,ICONW,
                    "disk","icon",NULL);
  6024                        	.line	1007
  6025 09:17EE: F4 00 00     	pea	#^$0
  6026 09:17F1: F4 00 00     	pea	#<$0
  6027 09:17F4: F4 xx xx     	pea	#^L41+2075
  Mon Sep 27 2021  9:39                                                Page 119


  6028 09:17F7: F4 xx xx     	pea	#<L41+2075
  6029 09:17FA: F4 xx xx     	pea	#^L41+2070
  6030 09:17FD: F4 xx xx     	pea	#<L41+2070
  6031 09:1800: F4 10 00     	pea	#<$10
  6032 09:1803: F4 10 00     	pea	#<$10
  6033 09:1806: F4 14 00     	pea	#<$14
  6034 09:1809: A5 26        	lda	<L43+temp2_1
  6035 09:180B: A2 02 00     	ldx	#<$2
  6036                        	xref	~~~div
  6037 09:180E: 22 xx xx xx  	jsl	~~~div
  6038 09:1812: 85 01        	sta	<R0
  6039 09:1814: 18           	clc
  6040 09:1815: A9 28 00     	lda	#$28
  6041 09:1818: 65 01        	adc	<R0
  6042 09:181A: 85 05        	sta	<R1
  6043 09:181C: 38           	sec
  6044 09:181D: A9 80 02     	lda	#$280
  6045 09:1820: E5 05        	sbc	<R1
  6046 09:1822: 48           	pha
  6047 09:1823: 22 xx xx xx  	jsl	~~k_create_ui_window_class
  6048 09:1827: 85 01        	sta	<R0
  6049 09:1829: 86 03        	stx	<R0+2
  6050 09:182B: A5 01        	lda	<R0
  6051 09:182D: 87 33        	sta	[<L43+pcd_1]
  6052 09:182F: A5 03        	lda	<R0+2
  6053 09:1831: A0 02 00     	ldy	#$2
  6054 09:1834: 97 33        	sta	[<L43+pcd_1],Y
  6055                        ;					pcd->handler = O
                    bjectClicked;
  6056                        	.line	1008
  6057 09:1836: A9 xx xx     	lda	#<~~ObjectClicked
  6058 09:1839: A0 04 00     	ldy	#$4
  6059 09:183C: 97 33        	sta	[<L43+pcd_1],Y
  6060 09:183E: A9 xx xx     	lda	#^~~ObjectClicked
  6061 09:1841: A0 06 00     	ldy	#$6
  6062 09:1844: 97 33        	sta	[<L43+pcd_1],Y
  6063                        ;					//k_add_window_h
                    it_node(pcd);
  6064                        ;				}
  6065                        	.line	1010
  6066                        ;
  6067                        ;				k_debug_message("Desktop
                    WindowProc::DISK-INSERT:DISK:",p->desktopCtl->currentDiskNam
                    e);
  6068                        L10110:
  6069                        	.line	1012
  6070 09:1846: A0 58 00     	ldy	#$58
  6071 09:1849: B7 19        	lda	[<L43+p_1],Y
  6072 09:184B: 85 01        	sta	<R0
  6073 09:184D: A0 5A 00     	ldy	#$5a
  6074 09:1850: B7 19        	lda	[<L43+p_1],Y
  6075 09:1852: 85 03        	sta	<R0+2
  6076 09:1854: A0 13 00     	ldy	#$13
  6077 09:1857: B7 01        	lda	[<R0],Y
  6078 09:1859: 48           	pha
  6079 09:185A: A0 11 00     	ldy	#$11
  6080 09:185D: B7 01        	lda	[<R0],Y
  6081 09:185F: 48           	pha
  Mon Sep 27 2021  9:39                                                Page 120


  6082 09:1860: F4 xx xx     	pea	#^L41+2080
  6083 09:1863: F4 xx xx     	pea	#<L41+2080
  6084 09:1866: 22 xx xx xx  	jsl	~~k_debug_message
  6085                        ;			}
  6086                        	.line	1013
  6087                        L10107:
  6088                        ;			break;
  6089                        	.line	1014
  6090 09:186A: 82 7A 08     	brl	L10019
  6091                        ;		case FX_DISK_REMOVE:
  6092                        	.line	1015
  6093                        L10111:
  6094                        ;
  6095                        ;			k_debug_string("DesktopWindowPro
                    c::DISK-REMOVE\r\n");
  6096                        	.line	1017
  6097 09:186D: F4 xx xx     	pea	#^L41+2117
  6098 09:1870: F4 xx xx     	pea	#<L41+2117
  6099 09:1873: 22 xx xx xx  	jsl	~~k_debug_string
  6100                        ;
  6101                        ;			if(p->desktopCtl->currentDiskNam
                    e)
  6102                        	.line	1019
  6103                        ;			{
  6104 09:1877: A0 58 00     	ldy	#$58
  6105 09:187A: B7 19        	lda	[<L43+p_1],Y
  6106 09:187C: 85 01        	sta	<R0
  6107 09:187E: A0 5A 00     	ldy	#$5a
  6108 09:1881: B7 19        	lda	[<L43+p_1],Y
  6109 09:1883: 85 03        	sta	<R0+2
  6110 09:1885: A0 11 00     	ldy	#$11
  6111 09:1888: B7 01        	lda	[<R0],Y
  6112 09:188A: A0 13 00     	ldy	#$13
  6113 09:188D: 17 01        	ora	[<R0],Y
  6114 09:188F: D0 03        	bne	L113
  6115 09:1891: 82 52 01     	brl	L10112
  6116                        L113:
  6117                        	.line	1020
  6118                        ;				k_debug_message("Desktop
                    WindowProc::DISK-REMOVE:DISK:",p->desktopCtl->currentDiskNam
                    e);
  6119                        	.line	1021
  6120 09:1894: A0 58 00     	ldy	#$58
  6121 09:1897: B7 19        	lda	[<L43+p_1],Y
  6122 09:1899: 85 01        	sta	<R0
  6123 09:189B: A0 5A 00     	ldy	#$5a
  6124 09:189E: B7 19        	lda	[<L43+p_1],Y
  6125 09:18A0: 85 03        	sta	<R0+2
  6126 09:18A2: A0 13 00     	ldy	#$13
  6127 09:18A5: B7 01        	lda	[<R0],Y
  6128 09:18A7: 48           	pha
  6129 09:18A8: A0 11 00     	ldy	#$11
  6130 09:18AB: B7 01        	lda	[<R0],Y
  6131 09:18AD: 48           	pha
  6132 09:18AE: F4 xx xx     	pea	#^L41+2150
  6133 09:18B1: F4 xx xx     	pea	#<L41+2150
  6134 09:18B4: 22 xx xx xx  	jsl	~~k_debug_message
  6135                        ;				k_debug_integer("Desktop
  Mon Sep 27 2021  9:39                                                Page 121


                    WindowProc::DISK-REMOVE:backgroundColor:",p->desktopCtl->bac
                    kgroundColor);
  6136                        	.line	1022
  6137 09:18B8: A0 58 00     	ldy	#$58
  6138 09:18BB: B7 19        	lda	[<L43+p_1],Y
  6139 09:18BD: 85 01        	sta	<R0
  6140 09:18BF: A0 5A 00     	ldy	#$5a
  6141 09:18C2: B7 19        	lda	[<L43+p_1],Y
  6142 09:18C4: 85 03        	sta	<R0+2
  6143 09:18C6: A0 05 00     	ldy	#$5
  6144 09:18C9: B7 01        	lda	[<R0],Y
  6145 09:18CB: 48           	pha
  6146 09:18CC: F4 xx xx     	pea	#^L41+2187
  6147 09:18CF: F4 xx xx     	pea	#<L41+2187
  6148 09:18D2: 22 xx xx xx  	jsl	~~k_debug_integer
  6149                        ;
  6150                        ;				temp1 = strlen(p->deskto
                    pCtl->currentDiskName);
  6151                        	.line	1024
  6152 09:18D6: A0 58 00     	ldy	#$58
  6153 09:18D9: B7 19        	lda	[<L43+p_1],Y
  6154 09:18DB: 85 01        	sta	<R0
  6155 09:18DD: A0 5A 00     	ldy	#$5a
  6156 09:18E0: B7 19        	lda	[<L43+p_1],Y
  6157 09:18E2: 85 03        	sta	<R0+2
  6158 09:18E4: A0 13 00     	ldy	#$13
  6159 09:18E7: B7 01        	lda	[<R0],Y
  6160 09:18E9: 48           	pha
  6161 09:18EA: A0 11 00     	ldy	#$11
  6162 09:18ED: B7 01        	lda	[<R0],Y
  6163 09:18EF: 48           	pha
  6164 09:18F0: 22 xx xx xx  	jsl	~~strlen
  6165 09:18F4: 85 24        	sta	<L43+temp1_1
  6166                        ;				temp2 = (temp1*4);
  6167                        	.line	1025
  6168 09:18F6: A5 24        	lda	<L43+temp1_1
  6169 09:18F8: 0A           	asl	A
  6170 09:18F9: 0A           	asl	A
  6171 09:18FA: 85 26        	sta	<L43+temp2_1
  6172                        ;
  6173                        ;				k_put_winicon_point(ICON
                    _DISK,640 - (40 + temp2/2),20,p->desktopCtl->backgroundColor
                    ,PAINTMODE_BACKGROUND);
  6174                        	.line	1027
  6175 09:18FC: F4 F0 00     	pea	#<$f0
  6176 09:18FF: A0 58 00     	ldy	#$58
  6177 09:1902: B7 19        	lda	[<L43+p_1],Y
  6178 09:1904: 85 01        	sta	<R0
  6179 09:1906: A0 5A 00     	ldy	#$5a
  6180 09:1909: B7 19        	lda	[<L43+p_1],Y
  6181 09:190B: 85 03        	sta	<R0+2
  6182 09:190D: A0 05 00     	ldy	#$5
  6183 09:1910: B7 01        	lda	[<R0],Y
  6184 09:1912: 48           	pha
  6185 09:1913: F4 14 00     	pea	#<$14
  6186 09:1916: A5 26        	lda	<L43+temp2_1
  6187 09:1918: A2 02 00     	ldx	#<$2
  6188                        	xref	~~~div
  Mon Sep 27 2021  9:39                                                Page 122


  6189 09:191B: 22 xx xx xx  	jsl	~~~div
  6190 09:191F: 85 01        	sta	<R0
  6191 09:1921: 18           	clc
  6192 09:1922: A9 28 00     	lda	#$28
  6193 09:1925: 65 01        	adc	<R0
  6194 09:1927: 85 05        	sta	<R1
  6195 09:1929: 38           	sec
  6196 09:192A: A9 80 02     	lda	#$280
  6197 09:192D: E5 05        	sbc	<R1
  6198 09:192F: 48           	pha
  6199 09:1930: F4 03 00     	pea	#<$3
  6200 09:1933: 22 xx xx xx  	jsl	~~k_put_winicon_point
  6201                        ;				k_draw_text_point(p->des
                    ktopCtl->currentDiskName,640 - (35 + temp2/2) - (temp2),40,p
                    ->desktopCtl->backgroundColor);
  6202                        	.line	1028
  6203 09:1937: A0 58 00     	ldy	#$58
  6204 09:193A: B7 19        	lda	[<L43+p_1],Y
  6205 09:193C: 85 01        	sta	<R0
  6206 09:193E: A0 5A 00     	ldy	#$5a
  6207 09:1941: B7 19        	lda	[<L43+p_1],Y
  6208 09:1943: 85 03        	sta	<R0+2
  6209 09:1945: A0 05 00     	ldy	#$5
  6210 09:1948: B7 01        	lda	[<R0],Y
  6211 09:194A: 48           	pha
  6212 09:194B: F4 28 00     	pea	#<$28
  6213 09:194E: A5 26        	lda	<L43+temp2_1
  6214 09:1950: A2 02 00     	ldx	#<$2
  6215                        	xref	~~~div
  6216 09:1953: 22 xx xx xx  	jsl	~~~div
  6217 09:1957: 85 05        	sta	<R1
  6218 09:1959: 18           	clc
  6219 09:195A: A9 23 00     	lda	#$23
  6220 09:195D: 65 05        	adc	<R1
  6221 09:195F: 85 09        	sta	<R2
  6222 09:1961: 38           	sec
  6223 09:1962: A9 80 02     	lda	#$280
  6224 09:1965: E5 09        	sbc	<R2
  6225 09:1967: 85 05        	sta	<R1
  6226 09:1969: 38           	sec
  6227 09:196A: A5 05        	lda	<R1
  6228 09:196C: E5 26        	sbc	<L43+temp2_1
  6229 09:196E: 48           	pha
  6230 09:196F: A0 58 00     	ldy	#$58
  6231 09:1972: B7 19        	lda	[<L43+p_1],Y
  6232 09:1974: 85 05        	sta	<R1
  6233 09:1976: A0 5A 00     	ldy	#$5a
  6234 09:1979: B7 19        	lda	[<L43+p_1],Y
  6235 09:197B: 85 07        	sta	<R1+2
  6236 09:197D: A0 13 00     	ldy	#$13
  6237 09:1980: B7 05        	lda	[<R1],Y
  6238 09:1982: 48           	pha
  6239 09:1983: A0 11 00     	ldy	#$11
  6240 09:1986: B7 05        	lda	[<R1],Y
  6241 09:1988: 48           	pha
  6242 09:1989: 22 xx xx xx  	jsl	~~k_draw_text_point
  6243                        ;
  6244                        ;				if(p->desktopCtl->curren
  Mon Sep 27 2021  9:39                                                Page 123


                    tDiskName!=NULL)
  6245                        	.line	1030
  6246                        ;					k_mem_deallocate
                    _heap(p->desktopCtl->currentDiskName);
  6247 09:198D: A0 58 00     	ldy	#$58
  6248 09:1990: B7 19        	lda	[<L43+p_1],Y
  6249 09:1992: 85 01        	sta	<R0
  6250 09:1994: A0 5A 00     	ldy	#$5a
  6251 09:1997: B7 19        	lda	[<L43+p_1],Y
  6252 09:1999: 85 03        	sta	<R0+2
  6253 09:199B: A0 11 00     	ldy	#$11
  6254 09:199E: B7 01        	lda	[<R0],Y
  6255 09:19A0: A0 13 00     	ldy	#$13
  6256 09:19A3: 17 01        	ora	[<R0],Y
  6257 09:19A5: D0 03        	bne	L114
  6258 09:19A7: 82 1E 00     	brl	L10113
  6259                        L114:
  6260                        	.line	1031
  6261 09:19AA: A0 58 00     	ldy	#$58
  6262 09:19AD: B7 19        	lda	[<L43+p_1],Y
  6263 09:19AF: 85 01        	sta	<R0
  6264 09:19B1: A0 5A 00     	ldy	#$5a
  6265 09:19B4: B7 19        	lda	[<L43+p_1],Y
  6266 09:19B6: 85 03        	sta	<R0+2
  6267 09:19B8: A0 13 00     	ldy	#$13
  6268 09:19BB: B7 01        	lda	[<R0],Y
  6269 09:19BD: 48           	pha
  6270 09:19BE: A0 11 00     	ldy	#$11
  6271 09:19C1: B7 01        	lda	[<R0],Y
  6272 09:19C3: 48           	pha
  6273 09:19C4: 22 xx xx xx  	jsl	~~k_mem_deallocate_heap
  6274                        ;
  6275                        ;				p->desktopCtl->currentDi
                    skName = NULL;
  6276                        L10113:
  6277                        	.line	1033
  6278 09:19C8: A0 58 00     	ldy	#$58
  6279 09:19CB: B7 19        	lda	[<L43+p_1],Y
  6280 09:19CD: 85 01        	sta	<R0
  6281 09:19CF: A0 5A 00     	ldy	#$5a
  6282 09:19D2: B7 19        	lda	[<L43+p_1],Y
  6283 09:19D4: 85 03        	sta	<R0+2
  6284 09:19D6: A9 00 00     	lda	#$0
  6285 09:19D9: A0 11 00     	ldy	#$11
  6286 09:19DC: 97 01        	sta	[<R0],Y
  6287 09:19DE: A9 00 00     	lda	#$0
  6288 09:19E1: A0 13 00     	ldy	#$13
  6289 09:19E4: 97 01        	sta	[<R0],Y
  6290                        ;			}
  6291                        	.line	1034
  6292                        ;
  6293                        ;			break;
  6294                        L10112:
  6295                        	.line	1036
  6296 09:19E6: 82 FE 06     	brl	L10019
  6297                        ;		case FX_APP_MESSAGE:
  6298                        	.line	1037
  6299                        L10114:
  Mon Sep 27 2021  9:39                                                Page 124


  6300                        ;			k_debug_string("DesktopWindowPro
                    c::FX_APP_MESSAGE\r\n");
  6301                        	.line	1038
  6302 09:19E9: F4 xx xx     	pea	#^L41+2235
  6303 09:19EC: F4 xx xx     	pea	#<L41+2235
  6304 09:19EF: 22 xx xx xx  	jsl	~~k_debug_string
  6305                        ;
  6306                        ;			if(pMsg->pheap)
  6307                        	.line	1040
  6308                        ;			{
  6309 09:19F3: A0 0E 00     	ldy	#$e
  6310 09:19F6: B7 52        	lda	[<L42+pMsg_0],Y
  6311 09:19F8: A0 10 00     	ldy	#$10
  6312 09:19FB: 17 52        	ora	[<L42+pMsg_0],Y
  6313 09:19FD: D0 03        	bne	L115
  6314 09:19FF: 82 FD 00     	brl	L10115
  6315                        L115:
  6316                        	.line	1041
  6317                        ;				pdtd = (PDESKTOP_DATA)pM
                    sg->pheap;
  6318                        	.line	1042
  6319 09:1A02: A0 0E 00     	ldy	#$e
  6320 09:1A05: B7 52        	lda	[<L42+pMsg_0],Y
  6321 09:1A07: 85 47        	sta	<L43+pdtd_1
  6322 09:1A09: A0 10 00     	ldy	#$10
  6323 09:1A0C: B7 52        	lda	[<L42+pMsg_0],Y
  6324 09:1A0E: 85 49        	sta	<L43+pdtd_1+2
  6325                        ;
  6326                        ;				k_debug_integer("Desktop
                    WindowProc::FX_APP_MESSAGE:type:",pdtd->type);
  6327                        	.line	1044
  6328 09:1A10: A7 47        	lda	[<L43+pdtd_1]
  6329 09:1A12: 48           	pha
  6330 09:1A13: F4 xx xx     	pea	#^L41+2271
  6331 09:1A16: F4 xx xx     	pea	#<L41+2271
  6332 09:1A19: 22 xx xx xx  	jsl	~~k_debug_integer
  6333                        ;
  6334                        ;				switch(pdtd->type)
  6335                        	.line	1046
  6336 09:1A1D: A7 47        	lda	[<L43+pdtd_1]
  6337 09:1A1F: 82 D1 00     	brl	L10116
  6338                        ;				{
  6339                        	.line	1047
  6340                        ;				case FX_DTD_MSGBOX:
  6341                        	.line	1048
  6342                        L10118:
  6343                        ;
  6344                        ;					if(pdtd->desktop
                    Action)
  6345                        	.line	1050
  6346                        ;					{
  6347 09:1A22: A0 04 00     	ldy	#$4
  6348 09:1A25: B7 47        	lda	[<L43+pdtd_1],Y
  6349 09:1A27: A0 06 00     	ldy	#$6
  6350 09:1A2A: 17 47        	ora	[<L43+pdtd_1],Y
  6351 09:1A2C: D0 03        	bne	L116
  6352 09:1A2E: 82 BC 00     	brl	L10119
  6353                        L116:
  Mon Sep 27 2021  9:39                                                Page 125


  6354                        	.line	1051
  6355                        ;						pWin = k
                    _user_CreateWindow(FXWS_POPUP | FXWS_BORDER | FXWS_VISIBLE,
  6356                        	.line	1052
  6357                        ;							
                    					   "msgboxWindowClass",
  6358                        ;							
                    					   k_fxstring_as(((PMSGB
                    OX_DATA)pdtd->desktopAction)->caption) ,
  6359                        ;							
                    					   ((PMSGBOX_DATA)pdtd->
                    desktopAction)->x,
  6360                        ;							
                    					   ((PMSGBOX_DATA)pdtd->
                    desktopAction)->y,
  6361                        ;							
                    						200,100,
  6362                        ;							
                    						k_user_getDeskto
                    pWindow(),
  6363                        ;							
                    						((HANDLE)(ULONG)
                    ((PMSGBOX_DATA)pdtd->desktopAction)->type),
  6364                        ;							
                    						NULL);
  6365 09:1A31: F4 00 00     	pea	#^$0
  6366 09:1A34: F4 00 00     	pea	#<$0
  6367 09:1A37: A0 04 00     	ldy	#$4
  6368 09:1A3A: B7 47        	lda	[<L43+pdtd_1],Y
  6369 09:1A3C: 85 01        	sta	<R0
  6370 09:1A3E: A0 06 00     	ldy	#$6
  6371 09:1A41: B7 47        	lda	[<L43+pdtd_1],Y
  6372 09:1A43: 85 03        	sta	<R0+2
  6373 09:1A45: A7 01        	lda	[<R0]
  6374 09:1A47: 85 01        	sta	<R0
  6375 09:1A49: 64 03        	stz	<R0+2
  6376 09:1A4B: D4 03        	pei	<R0+2
  6377 09:1A4D: D4 01        	pei	<R0
  6378 09:1A4F: 22 xx xx xx  	jsl	~~k_user_getDesktopWindow
  6379 09:1A53: 85 05        	sta	<R1
  6380 09:1A55: 86 07        	stx	<R1+2
  6381 09:1A57: DA           	phx
  6382 09:1A58: 48           	pha
  6383 09:1A59: F4 64 00     	pea	#<$64
  6384 09:1A5C: F4 C8 00     	pea	#<$c8
  6385 09:1A5F: A0 04 00     	ldy	#$4
  6386 09:1A62: B7 47        	lda	[<L43+pdtd_1],Y
  6387 09:1A64: 85 09        	sta	<R2
  6388 09:1A66: A0 06 00     	ldy	#$6
  6389 09:1A69: B7 47        	lda	[<L43+pdtd_1],Y
  6390 09:1A6B: 85 0B        	sta	<R2+2
  6391 09:1A6D: A0 0A 00     	ldy	#$a
  6392 09:1A70: B7 09        	lda	[<R2],Y
  6393 09:1A72: 48           	pha
  6394 09:1A73: A0 04 00     	ldy	#$4
  6395 09:1A76: B7 47        	lda	[<L43+pdtd_1],Y
  6396 09:1A78: 85 09        	sta	<R2
  6397 09:1A7A: A0 06 00     	ldy	#$6
  Mon Sep 27 2021  9:39                                                Page 126


  6398 09:1A7D: B7 47        	lda	[<L43+pdtd_1],Y
  6399 09:1A7F: 85 0B        	sta	<R2+2
  6400 09:1A81: A0 08 00     	ldy	#$8
  6401 09:1A84: B7 09        	lda	[<R2],Y
  6402 09:1A86: 48           	pha
  6403 09:1A87: A0 04 00     	ldy	#$4
  6404 09:1A8A: B7 47        	lda	[<L43+pdtd_1],Y
  6405 09:1A8C: 85 09        	sta	<R2
  6406 09:1A8E: A0 06 00     	ldy	#$6
  6407 09:1A91: B7 47        	lda	[<L43+pdtd_1],Y
  6408 09:1A93: 85 0B        	sta	<R2+2
  6409 09:1A95: A0 04 00     	ldy	#$4
  6410 09:1A98: B7 09        	lda	[<R2],Y
  6411 09:1A9A: 48           	pha
  6412 09:1A9B: A0 02 00     	ldy	#$2
  6413 09:1A9E: B7 09        	lda	[<R2],Y
  6414 09:1AA0: 48           	pha
  6415 09:1AA1: 22 xx xx xx  	jsl	~~k_fxstring_as
  6416 09:1AA5: 85 09        	sta	<R2
  6417 09:1AA7: 86 0B        	stx	<R2+2
  6418 09:1AA9: DA           	phx
  6419 09:1AAA: 48           	pha
  6420 09:1AAB: F4 xx xx     	pea	#^L41+2311
  6421 09:1AAE: F4 xx xx     	pea	#<L41+2311
  6422 09:1AB1: F4 21 00     	pea	#^$210001
  6423 09:1AB4: F4 01 00     	pea	#<$210001
  6424 09:1AB7: 22 xx xx xx  	jsl	~~k_user_CreateWindow
  6425 09:1ABB: 85 11        	sta	<L43+pWin_1
  6426 09:1ABD: 86 13        	stx	<L43+pWin_1+2
  6427                        ;
  6428                        ;						k_fxstri
                    ng_free(((PMSGBOX_DATA)pdtd->desktopAction)->caption);
  6429                        	.line	1062
  6430 09:1ABF: A0 04 00     	ldy	#$4
  6431 09:1AC2: B7 47        	lda	[<L43+pdtd_1],Y
  6432 09:1AC4: 85 01        	sta	<R0
  6433 09:1AC6: A0 06 00     	ldy	#$6
  6434 09:1AC9: B7 47        	lda	[<L43+pdtd_1],Y
  6435 09:1ACB: 85 03        	sta	<R0+2
  6436 09:1ACD: A0 04 00     	ldy	#$4
  6437 09:1AD0: B7 01        	lda	[<R0],Y
  6438 09:1AD2: 48           	pha
  6439 09:1AD3: A0 02 00     	ldy	#$2
  6440 09:1AD6: B7 01        	lda	[<R0],Y
  6441 09:1AD8: 48           	pha
  6442 09:1AD9: 22 xx xx xx  	jsl	~~k_fxstring_free
  6443                        ;						k_mem_de
                    allocate_heap(pdtd->desktopAction);
  6444                        	.line	1063
  6445 09:1ADD: A0 06 00     	ldy	#$6
  6446 09:1AE0: B7 47        	lda	[<L43+pdtd_1],Y
  6447 09:1AE2: 48           	pha
  6448 09:1AE3: A0 04 00     	ldy	#$4
  6449 09:1AE6: B7 47        	lda	[<L43+pdtd_1],Y
  6450 09:1AE8: 48           	pha
  6451 09:1AE9: 22 xx xx xx  	jsl	~~k_mem_deallocate_heap
  6452                        ;					}
  6453                        	.line	1064
  Mon Sep 27 2021  9:39                                                Page 127


  6454                        ;
  6455                        ;					break;
  6456                        L10119:
  6457                        	.line	1066
  6458 09:1AED: 82 0F 00     	brl	L10117
  6459                        ;				default:
  6460                        	.line	1067
  6461                        L10120:
  6462                        ;					break;
  6463                        	.line	1068
  6464 09:1AF0: 82 0C 00     	brl	L10117
  6465                        ;				}
  6466                        	.line	1069
  6467                        L10116:
  6468                        	xref	~~~swt
  6469 09:1AF3: 22 xx xx xx  	jsl	~~~swt
  6470 09:1AF7: 01 00        	dw	1
  6471 09:1AF9: 02 00        	dw	2
  6472 09:1AFB: 21 1A        	dw	L10118-1
  6473 09:1AFD: EF 1A        	dw	L10120-1
  6474                        L10117:
  6475                        ;			}
  6476                        	.line	1070
  6477                        ;			break;
  6478                        L10115:
  6479                        	.line	1071
  6480 09:1AFF: 82 E5 05     	brl	L10019
  6481                        ;		case FX_MOUSE_MOVE:
  6482                        	.line	1072
  6483                        L10121:
  6484                        ;
  6485                        ;
  6486                        ;
  6487                        ;			cx = *((INT*)&pMsg->data[1]) - p
                    Win->win_x;
  6488                        	.line	1076
  6489 09:1B02: 38           	sec
  6490 09:1B03: A0 17 00     	ldy	#$17
  6491 09:1B06: B7 52        	lda	[<L42+pMsg_0],Y
  6492 09:1B08: A0 0C 00     	ldy	#$c
  6493 09:1B0B: F7 11        	sbc	[<L43+pWin_1],Y
  6494 09:1B0D: 85 28        	sta	<L43+cx_1
  6495                        ;			cy = *((INT*)&pMsg->data[3]) - p
                    Win->win_y;
  6496                        	.line	1077
  6497 09:1B0F: 38           	sec
  6498 09:1B10: A0 19 00     	ldy	#$19
  6499 09:1B13: B7 52        	lda	[<L42+pMsg_0],Y
  6500 09:1B15: A0 0E 00     	ldy	#$e
  6501 09:1B18: F7 11        	sbc	[<L43+pWin_1],Y
  6502 09:1B1A: 85 2A        	sta	<L43+cy_1
  6503                        ;
  6504                        ;			px = ((INT*)pctx->userData)[DEBU
                    G_MOUSE_CX];
  6505                        	.line	1079
  6506 09:1B1C: A0 83 00     	ldy	#$83
  6507 09:1B1F: B7 1D        	lda	[<L43+pctx_1],Y
  6508 09:1B21: 85 01        	sta	<R0
  Mon Sep 27 2021  9:39                                                Page 128


  6509 09:1B23: A0 85 00     	ldy	#$85
  6510 09:1B26: B7 1D        	lda	[<L43+pctx_1],Y
  6511 09:1B28: 85 03        	sta	<R0+2
  6512 09:1B2A: A0 02 00     	ldy	#$2
  6513 09:1B2D: B7 01        	lda	[<R0],Y
  6514 09:1B2F: 85 2C        	sta	<L43+px_1
  6515                        ;			py = ((INT*)pctx->userData)[DEBU
                    G_MOUSE_CY];
  6516                        	.line	1080
  6517 09:1B31: A0 83 00     	ldy	#$83
  6518 09:1B34: B7 1D        	lda	[<L43+pctx_1],Y
  6519 09:1B36: 85 01        	sta	<R0
  6520 09:1B38: A0 85 00     	ldy	#$85
  6521 09:1B3B: B7 1D        	lda	[<L43+pctx_1],Y
  6522 09:1B3D: 85 03        	sta	<R0+2
  6523 09:1B3F: A0 04 00     	ldy	#$4
  6524 09:1B42: B7 01        	lda	[<R0],Y
  6525 09:1B44: 85 2E        	sta	<L43+py_1
  6526                        ;
  6527                        ;			if(((INT*)pctx->userData)[DEBUG_
                    MOUSE_ENABLE] && !((INT*)pctx->userData)[DEBUG_MOUSE_BOXING]
                    )
  6528                        	.line	1082
  6529                        ;			{
  6530 09:1B46: A0 83 00     	ldy	#$83
  6531 09:1B49: B7 1D        	lda	[<L43+pctx_1],Y
  6532 09:1B4B: 85 01        	sta	<R0
  6533 09:1B4D: A0 85 00     	ldy	#$85
  6534 09:1B50: B7 1D        	lda	[<L43+pctx_1],Y
  6535 09:1B52: 85 03        	sta	<R0+2
  6536 09:1B54: A7 01        	lda	[<R0]
  6537 09:1B56: D0 03        	bne	L117
  6538 09:1B58: 82 F6 00     	brl	L10122
  6539                        L117:
  6540 09:1B5B: A0 83 00     	ldy	#$83
  6541 09:1B5E: B7 1D        	lda	[<L43+pctx_1],Y
  6542 09:1B60: 85 01        	sta	<R0
  6543 09:1B62: A0 85 00     	ldy	#$85
  6544 09:1B65: B7 1D        	lda	[<L43+pctx_1],Y
  6545 09:1B67: 85 03        	sta	<R0+2
  6546 09:1B69: A0 06 00     	ldy	#$6
  6547 09:1B6C: B7 01        	lda	[<R0],Y
  6548 09:1B6E: F0 03        	beq	L118
  6549 09:1B70: 82 DE 00     	brl	L10122
  6550                        L118:
  6551                        	.line	1083
  6552                        ;
  6553                        ;				cx = *((INT*)&pMsg->data
                    [1]) - pWin->win_x;
  6554                        	.line	1085
  6555 09:1B73: 38           	sec
  6556 09:1B74: A0 17 00     	ldy	#$17
  6557 09:1B77: B7 52        	lda	[<L42+pMsg_0],Y
  6558 09:1B79: A0 0C 00     	ldy	#$c
  6559 09:1B7C: F7 11        	sbc	[<L43+pWin_1],Y
  6560 09:1B7E: 85 28        	sta	<L43+cx_1
  6561                        ;				cy = *((INT*)&pMsg->data
                    [3]) - pWin->win_y;
  Mon Sep 27 2021  9:39                                                Page 129


  6562                        	.line	1086
  6563 09:1B80: 38           	sec
  6564 09:1B81: A0 19 00     	ldy	#$19
  6565 09:1B84: B7 52        	lda	[<L42+pMsg_0],Y
  6566 09:1B86: A0 0E 00     	ldy	#$e
  6567 09:1B89: F7 11        	sbc	[<L43+pWin_1],Y
  6568 09:1B8B: 85 2A        	sta	<L43+cy_1
  6569                        ;
  6570                        ;
  6571                        ;				px = ((INT*)pctx->userDa
                    ta)[DEBUG_MOUSE_CX];
  6572                        	.line	1089
  6573 09:1B8D: A0 83 00     	ldy	#$83
  6574 09:1B90: B7 1D        	lda	[<L43+pctx_1],Y
  6575 09:1B92: 85 01        	sta	<R0
  6576 09:1B94: A0 85 00     	ldy	#$85
  6577 09:1B97: B7 1D        	lda	[<L43+pctx_1],Y
  6578 09:1B99: 85 03        	sta	<R0+2
  6579 09:1B9B: A0 02 00     	ldy	#$2
  6580 09:1B9E: B7 01        	lda	[<R0],Y
  6581 09:1BA0: 85 2C        	sta	<L43+px_1
  6582                        ;				py = ((INT*)pctx->userDa
                    ta)[DEBUG_MOUSE_CY];
  6583                        	.line	1090
  6584 09:1BA2: A0 83 00     	ldy	#$83
  6585 09:1BA5: B7 1D        	lda	[<L43+pctx_1],Y
  6586 09:1BA7: 85 01        	sta	<R0
  6587 09:1BA9: A0 85 00     	ldy	#$85
  6588 09:1BAC: B7 1D        	lda	[<L43+pctx_1],Y
  6589 09:1BAE: 85 03        	sta	<R0+2
  6590 09:1BB0: A0 04 00     	ldy	#$4
  6591 09:1BB3: B7 01        	lda	[<R0],Y
  6592 09:1BB5: 85 2E        	sta	<L43+py_1
  6593                        ;
  6594                        ;				if(px > -1)
  6595                        	.line	1092
  6596                        ;				{
  6597 09:1BB7: 38           	sec
  6598 09:1BB8: A9 FF FF     	lda	#$ffff
  6599 09:1BBB: E5 2C        	sbc	<L43+px_1
  6600 09:1BBD: 70 03        	bvs	L119
  6601 09:1BBF: 49 00 80     	eor	#$8000
  6602                        L119:
  6603 09:1BC2: 10 03        	bpl	L120
  6604 09:1BC4: 82 30 00     	brl	L10123
  6605                        L120:
  6606                        	.line	1093
  6607                        ;					//k_draw_rect_sl
                    ow(px,py, px+100, py+100, 0);
  6608                        ;					k_vdma_fill_rect
                    _ex(px,py, 200, 200, FILLCOLOR_TRANSPARENT,BITMAP_FRONT);
  6609                        	.line	1095
  6610 09:1BC7: F4 00 00     	pea	#<$0
  6611 09:1BCA: F4 00 00     	pea	#<$0
  6612 09:1BCD: F4 C8 00     	pea	#<$c8
  6613 09:1BD0: F4 C8 00     	pea	#<$c8
  6614 09:1BD3: A0 00 00     	ldy	#$0
  6615 09:1BD6: A5 2E        	lda	<L43+py_1
  Mon Sep 27 2021  9:39                                                Page 130


  6616 09:1BD8: 10 01        	bpl	L121
  6617 09:1BDA: 88           	dey
  6618                        L121:
  6619 09:1BDB: 85 01        	sta	<R0
  6620 09:1BDD: 84 03        	sty	<R0+2
  6621 09:1BDF: D4 03        	pei	<R0+2
  6622 09:1BE1: D4 01        	pei	<R0
  6623 09:1BE3: A0 00 00     	ldy	#$0
  6624 09:1BE6: A5 2C        	lda	<L43+px_1
  6625 09:1BE8: 10 01        	bpl	L122
  6626 09:1BEA: 88           	dey
  6627                        L122:
  6628 09:1BEB: 85 05        	sta	<R1
  6629 09:1BED: 84 07        	sty	<R1+2
  6630 09:1BEF: D4 07        	pei	<R1+2
  6631 09:1BF1: D4 05        	pei	<R1
  6632 09:1BF3: 22 xx xx xx  	jsl	~~k_vdma_fill_rect_ex
  6633                        ;				}
  6634                        	.line	1096
  6635                        ;
  6636                        ;				//k_draw_rect_slow(cx,cy
                    , cx+100, cy+100, 15);
  6637                        ;				k_vdma_fill_rect_ex(cx,c
                    y, 200, 100, 15,BITMAP_FRONT);
  6638                        L10123:
  6639                        	.line	1099
  6640 09:1BF7: F4 00 00     	pea	#<$0
  6641 09:1BFA: F4 0F 00     	pea	#<$f
  6642 09:1BFD: F4 64 00     	pea	#<$64
  6643 09:1C00: F4 C8 00     	pea	#<$c8
  6644 09:1C03: A0 00 00     	ldy	#$0
  6645 09:1C06: A5 2A        	lda	<L43+cy_1
  6646 09:1C08: 10 01        	bpl	L123
  6647 09:1C0A: 88           	dey
  6648                        L123:
  6649 09:1C0B: 85 01        	sta	<R0
  6650 09:1C0D: 84 03        	sty	<R0+2
  6651 09:1C0F: D4 03        	pei	<R0+2
  6652 09:1C11: D4 01        	pei	<R0
  6653 09:1C13: A0 00 00     	ldy	#$0
  6654 09:1C16: A5 28        	lda	<L43+cx_1
  6655 09:1C18: 10 01        	bpl	L124
  6656 09:1C1A: 88           	dey
  6657                        L124:
  6658 09:1C1B: 85 05        	sta	<R1
  6659 09:1C1D: 84 07        	sty	<R1+2
  6660 09:1C1F: D4 07        	pei	<R1+2
  6661 09:1C21: D4 05        	pei	<R1
  6662 09:1C23: 22 xx xx xx  	jsl	~~k_vdma_fill_rect_ex
  6663                        ;
  6664                        ;				((INT*)pctx->userData)[D
                    EBUG_MOUSE_CX] = cx;
  6665                        	.line	1101
  6666 09:1C27: A0 83 00     	ldy	#$83
  6667 09:1C2A: B7 1D        	lda	[<L43+pctx_1],Y
  6668 09:1C2C: 85 01        	sta	<R0
  6669 09:1C2E: A0 85 00     	ldy	#$85
  6670 09:1C31: B7 1D        	lda	[<L43+pctx_1],Y
  Mon Sep 27 2021  9:39                                                Page 131


  6671 09:1C33: 85 03        	sta	<R0+2
  6672 09:1C35: A5 28        	lda	<L43+cx_1
  6673 09:1C37: A0 02 00     	ldy	#$2
  6674 09:1C3A: 97 01        	sta	[<R0],Y
  6675                        ;				((INT*)pctx->userData)[D
                    EBUG_MOUSE_CY] = cy;
  6676                        	.line	1102
  6677 09:1C3C: A0 83 00     	ldy	#$83
  6678 09:1C3F: B7 1D        	lda	[<L43+pctx_1],Y
  6679 09:1C41: 85 01        	sta	<R0
  6680 09:1C43: A0 85 00     	ldy	#$85
  6681 09:1C46: B7 1D        	lda	[<L43+pctx_1],Y
  6682 09:1C48: 85 03        	sta	<R0+2
  6683 09:1C4A: A5 2A        	lda	<L43+cy_1
  6684 09:1C4C: A0 04 00     	ldy	#$4
  6685 09:1C4F: 97 01        	sta	[<R0],Y
  6686                        ;
  6687                        ;			}
  6688                        	.line	1104
  6689                        ;
  6690                        ;			/*
  6691                        ;			pzero = k_getZeroPage();
  6692                        ;
  6693                        ;			k_debug_long("DesktopWindowProc:
                    :FX_MOUSE_MOVE:DS:",(pzero->fxos_mouse_dbg_3));
  6694                        ;			k_debug_long("DesktopWindowProc:
                    :FX_MOUSE_MOVE:DX:",(pzero->fxos_mouse_dbg_1));
  6695                        ;			k_debug_long("DesktopWindowProc:
                    :FX_MOUSE_MOVE:DY:",(pzero->fxos_mouse_dbg_2));
  6696                        ;			k_debug_integer("DesktopWindowPr
                    oc::FX_MOUSE_MOVE:X:",*((INT*)&pMsg->data[1]));
  6697                        ;			k_debug_integer("DesktopWindowPr
                    oc::FX_MOUSE_MOVE:Y:",*((INT*)&pMsg->data[3]));
  6698                        ;			*/
  6699                        ;			break;
  6700                        L10122:
  6701                        	.line	1115
  6702 09:1C51: 82 93 04     	brl	L10019
  6703                        ;
  6704                        ;		case FX_MOUSE_ENTER:
  6705                        	.line	1117
  6706                        L10124:
  6707                        ;			k_debug_strings("DesktopWindowPr
                    oc::FX_MOUSE_ENTER:",pWin->win_title);
  6708                        	.line	1118
  6709 09:1C54: 18           	clc
  6710 09:1C55: A9 4C 01     	lda	#$14c
  6711 09:1C58: 65 11        	adc	<L43+pWin_1
  6712 09:1C5A: 85 01        	sta	<R0
  6713 09:1C5C: A9 00 00     	lda	#$0
  6714 09:1C5F: 65 13        	adc	<L43+pWin_1+2
  6715 09:1C61: 85 03        	sta	<R0+2
  6716 09:1C63: D4 03        	pei	<R0+2
  6717 09:1C65: D4 01        	pei	<R0
  6718 09:1C67: F4 xx xx     	pea	#^L41+2329
  6719 09:1C6A: F4 xx xx     	pea	#<L41+2329
  6720 09:1C6D: 22 xx xx xx  	jsl	~~k_debug_strings
  6721                        ;			break;
  Mon Sep 27 2021  9:39                                                Page 132


  6722                        	.line	1119
  6723 09:1C71: 82 73 04     	brl	L10019
  6724                        ;		case FX_MOUSE_EXIT:
  6725                        	.line	1120
  6726                        L10125:
  6727                        ;			k_debug_strings("DesktopWindowPr
                    oc::FX_MOUSE_EXIT:",pWin->win_title);
  6728                        	.line	1121
  6729 09:1C74: 18           	clc
  6730 09:1C75: A9 4C 01     	lda	#$14c
  6731 09:1C78: 65 11        	adc	<L43+pWin_1
  6732 09:1C7A: 85 01        	sta	<R0
  6733 09:1C7C: A9 00 00     	lda	#$0
  6734 09:1C7F: 65 13        	adc	<L43+pWin_1+2
  6735 09:1C81: 85 03        	sta	<R0+2
  6736 09:1C83: D4 03        	pei	<R0+2
  6737 09:1C85: D4 01        	pei	<R0
  6738 09:1C87: F4 xx xx     	pea	#^L41+2364
  6739 09:1C8A: F4 xx xx     	pea	#<L41+2364
  6740 09:1C8D: 22 xx xx xx  	jsl	~~k_debug_strings
  6741                        ;			break;
  6742                        	.line	1122
  6743 09:1C91: 82 53 04     	brl	L10019
  6744                        ;
  6745                        ;		case FX_RBUTTON_DOWN:
  6746                        	.line	1124
  6747                        L10126:
  6748                        ;			k_debug_string("DesktopWindowPro
                    c::FX_RBUTTON_DOWN\r\n");
  6749                        	.line	1125
  6750 09:1C94: F4 xx xx     	pea	#^L41+2398
  6751 09:1C97: F4 xx xx     	pea	#<L41+2398
  6752 09:1C9A: 22 xx xx xx  	jsl	~~k_debug_string
  6753                        ;			//k_exec_throw_exception(0xFF000
                    000,1,"Test Exception Mode Messages",-1);
  6754                        ;			//drawMandelbrot();
  6755                        ;
  6756                        ;			break;
  6757                        	.line	1129
  6758 09:1C9E: 82 46 04     	brl	L10019
  6759                        ;
  6760                        ;		case FX_LBUTTON_DOWN:
  6761                        	.line	1131
  6762                        L10127:
  6763                        ;			k_debug_string("DesktopWindowPro
                    c::FX_LBUTTON_DOWN\r\n");
  6764                        	.line	1132
  6765 09:1CA1: F4 xx xx     	pea	#^L41+2435
  6766 09:1CA4: F4 xx xx     	pea	#<L41+2435
  6767 09:1CA7: 22 xx xx xx  	jsl	~~k_debug_string
  6768                        ;			//k_debug_integer("DesktopWindow
                    Proc::DEBUG_MOUSE_BOX_ENABLE:",((INT*)pctx->userData)[DEBUG_
                    MOUSE_BOX_ENABLE]);
  6769                        ;			//k_debug_integer("DesktopWindow
                    Proc::DEBUG_MOUSE_BOXING:",((INT*)pctx->userData)[DEBUG_MOUS
                    E_BOXING]);
  6770                        ;
  6771                        ;			if(((INT*)pctx->userData)[DEBUG_
  Mon Sep 27 2021  9:39                                                Page 133


                    MOUSE_BOX_ENABLE] && !((INT*)pctx->userData)[DEBUG_MOUSE_BOX
                    ING])
  6772                        	.line	1136
  6773                        ;			{
  6774 09:1CAB: A0 83 00     	ldy	#$83
  6775 09:1CAE: B7 1D        	lda	[<L43+pctx_1],Y
  6776 09:1CB0: 85 01        	sta	<R0
  6777 09:1CB2: A0 85 00     	ldy	#$85
  6778 09:1CB5: B7 1D        	lda	[<L43+pctx_1],Y
  6779 09:1CB7: 85 03        	sta	<R0+2
  6780 09:1CB9: A0 0C 00     	ldy	#$c
  6781 09:1CBC: B7 01        	lda	[<R0],Y
  6782 09:1CBE: D0 03        	bne	L125
  6783 09:1CC0: 82 9C 00     	brl	L10128
  6784                        L125:
  6785 09:1CC3: A0 83 00     	ldy	#$83
  6786 09:1CC6: B7 1D        	lda	[<L43+pctx_1],Y
  6787 09:1CC8: 85 01        	sta	<R0
  6788 09:1CCA: A0 85 00     	ldy	#$85
  6789 09:1CCD: B7 1D        	lda	[<L43+pctx_1],Y
  6790 09:1CCF: 85 03        	sta	<R0+2
  6791 09:1CD1: A0 06 00     	ldy	#$6
  6792 09:1CD4: B7 01        	lda	[<R0],Y
  6793 09:1CD6: F0 03        	beq	L126
  6794 09:1CD8: 82 84 00     	brl	L10128
  6795                        L126:
  6796                        	.line	1137
  6797                        ;
  6798                        ;				((INT*)pctx->userData)[D
                    EBUG_MOUSE_BOXING] = TRUE;
  6799                        	.line	1139
  6800 09:1CDB: A0 83 00     	ldy	#$83
  6801 09:1CDE: B7 1D        	lda	[<L43+pctx_1],Y
  6802 09:1CE0: 85 01        	sta	<R0
  6803 09:1CE2: A0 85 00     	ldy	#$85
  6804 09:1CE5: B7 1D        	lda	[<L43+pctx_1],Y
  6805 09:1CE7: 85 03        	sta	<R0+2
  6806 09:1CE9: A9 01 00     	lda	#$1
  6807 09:1CEC: A0 06 00     	ldy	#$6
  6808 09:1CEF: 97 01        	sta	[<R0],Y
  6809                        ;
  6810                        ;				cy = *((INT*)&pMsg->data
                    [3]) - pWin->win_y;
  6811                        	.line	1141
  6812 09:1CF1: 38           	sec
  6813 09:1CF2: A0 19 00     	ldy	#$19
  6814 09:1CF5: B7 52        	lda	[<L42+pMsg_0],Y
  6815 09:1CF7: A0 0E 00     	ldy	#$e
  6816 09:1CFA: F7 11        	sbc	[<L43+pWin_1],Y
  6817 09:1CFC: 85 2A        	sta	<L43+cy_1
  6818                        ;				cx = *((INT*)&pMsg->data
                    [1]) - pWin->win_x;
  6819                        	.line	1142
  6820 09:1CFE: 38           	sec
  6821 09:1CFF: A0 17 00     	ldy	#$17
  6822 09:1D02: B7 52        	lda	[<L42+pMsg_0],Y
  6823 09:1D04: A0 0C 00     	ldy	#$c
  6824 09:1D07: F7 11        	sbc	[<L43+pWin_1],Y
  Mon Sep 27 2021  9:39                                                Page 134


  6825 09:1D09: 85 28        	sta	<L43+cx_1
  6826                        ;
  6827                        ;				((INT*)pctx->userData)[D
                    EBUG_MOUSE_BOX_LEFT] = cx;
  6828                        	.line	1144
  6829 09:1D0B: A0 83 00     	ldy	#$83
  6830 09:1D0E: B7 1D        	lda	[<L43+pctx_1],Y
  6831 09:1D10: 85 01        	sta	<R0
  6832 09:1D12: A0 85 00     	ldy	#$85
  6833 09:1D15: B7 1D        	lda	[<L43+pctx_1],Y
  6834 09:1D17: 85 03        	sta	<R0+2
  6835 09:1D19: A5 28        	lda	<L43+cx_1
  6836 09:1D1B: A0 0A 00     	ldy	#$a
  6837 09:1D1E: 97 01        	sta	[<R0],Y
  6838                        ;				((INT*)pctx->userData)[D
                    EBUG_MOUSE_BOX_TOP]  = cy;
  6839                        	.line	1145
  6840 09:1D20: A0 83 00     	ldy	#$83
  6841 09:1D23: B7 1D        	lda	[<L43+pctx_1],Y
  6842 09:1D25: 85 01        	sta	<R0
  6843 09:1D27: A0 85 00     	ldy	#$85
  6844 09:1D2A: B7 1D        	lda	[<L43+pctx_1],Y
  6845 09:1D2C: 85 03        	sta	<R0+2
  6846 09:1D2E: A5 2A        	lda	<L43+cy_1
  6847 09:1D30: A0 08 00     	ldy	#$8
  6848 09:1D33: 97 01        	sta	[<R0],Y
  6849                        ;
  6850                        ;				((INT*)pctx->userData)[D
                    EBUG_MOUSE_CX] = cx;
  6851                        	.line	1147
  6852 09:1D35: A0 83 00     	ldy	#$83
  6853 09:1D38: B7 1D        	lda	[<L43+pctx_1],Y
  6854 09:1D3A: 85 01        	sta	<R0
  6855 09:1D3C: A0 85 00     	ldy	#$85
  6856 09:1D3F: B7 1D        	lda	[<L43+pctx_1],Y
  6857 09:1D41: 85 03        	sta	<R0+2
  6858 09:1D43: A5 28        	lda	<L43+cx_1
  6859 09:1D45: A0 02 00     	ldy	#$2
  6860 09:1D48: 97 01        	sta	[<R0],Y
  6861                        ;				((INT*)pctx->userData)[D
                    EBUG_MOUSE_CY] = cy;
  6862                        	.line	1148
  6863 09:1D4A: A0 83 00     	ldy	#$83
  6864 09:1D4D: B7 1D        	lda	[<L43+pctx_1],Y
  6865 09:1D4F: 85 01        	sta	<R0
  6866 09:1D51: A0 85 00     	ldy	#$85
  6867 09:1D54: B7 1D        	lda	[<L43+pctx_1],Y
  6868 09:1D56: 85 03        	sta	<R0+2
  6869 09:1D58: A5 2A        	lda	<L43+cy_1
  6870 09:1D5A: A0 04 00     	ldy	#$4
  6871 09:1D5D: 97 01        	sta	[<R0],Y
  6872                        ;			}
  6873                        	.line	1149
  6874                        ;
  6875                        ;
  6876                        ;			break;
  6877                        L10128:
  6878                        	.line	1152
  Mon Sep 27 2021  9:39                                                Page 135


  6879 09:1D5F: 82 85 03     	brl	L10019
  6880                        ;		case FX_LBUTTON_UP:
  6881                        	.line	1153
  6882                        L10129:
  6883                        ;			k_debug_string("DesktopWindowPro
                    c::FX_LBUTTON_UP\r\n");
  6884                        	.line	1154
  6885 09:1D62: F4 xx xx     	pea	#^L41+2472
  6886 09:1D65: F4 xx xx     	pea	#<L41+2472
  6887 09:1D68: 22 xx xx xx  	jsl	~~k_debug_string
  6888                        ;			/*
  6889                        ;			//pixelLocation =  &(((unsigned 
                    char FAR *)BITMAP_BANK_0)[(long)(( ((long)200) * 640L) + ((l
                    ong)200) )]);
  6890                        ;			pixelLocation =  (LPVOID)((long)
                    (( ((long)200) * 640L) + ((long)200) ));
  6891                        ;
  6892                        ;			k_debug_pointer("DesktopWindowPr
                    oc::pixelLocation:",pixelLocation);
  6893                        ;
  6894                        ;
  6895                        ;			while(temp1 == VDMA_STAT_VDMA_IP
                    S)
  6896                        ;			{
  6897                        ;				temp1 = ( VDMA_STATUS_RE
                    G[0] & VDMA_STAT_VDMA_IPS);
  6898                        ;			}
  6899                        ;
  6900                        ;			//VDMA_CONTROL_REG[0] = 1 + 2;
  6901                        ;			VDMA_CONTROL_REG[0]  = (VDMA_CTR
                    L_ENABLE | VDMA_CTRL_1D_2D );
  6902                        ;
  6903                        ;			k_debug_pointer("DesktopWindowPr
                    oc::pixelLocation:",pixelLocation);
  6904                        ;
  6905                        ;			VDMA_SRC_ADDY_L[0]  = 0x00;//$AF
                    0402 ;// Pointer to the Source of the Data to be stransfered
  6906                        ;			VDMA_SRC_ADDY_M[0]  = 0x00; //$A
                    F0403 ;// This needs to be within Vicky's Range ($00_0000 - 
                    $3F_0000)
  6907                        ;			VDMA_SRC_ADDY_H[0]  = 0x00;
  6908                        ;
  6909                        ;
  6910                        ;			VDMA_DST_ADDY_L[0] = L24BYTE(pix
                    elLocation);
  6911                        ;			VDMA_DST_ADDY_M[0] = M24BYTE(pix
                    elLocation);
  6912                        ;			VDMA_DST_ADDY_H[0] = H24BYTE(pix
                    elLocation);
  6913                        ;
  6914                        ;
  6915                        ;			VDMA_X_SIZE_L[0]  = 200;
  6916                        ;			VDMA_X_SIZE_H[0]  = 0;
  6917                        ;			VDMA_Y_SIZE_L[0]  = 200;
  6918                        ;			VDMA_Y_SIZE_H[0]  = 0;
  6919                        ;
  6920                        ;			//VDMA_SRC_STRIDE_L[0]  = 200;
  6921                        ;			//VDMA_SRC_STRIDE_H[0]  = 0;
  Mon Sep 27 2021  9:39                                                Page 136


  6922                        ;			//VDMA_DST_STRIDE_L[0]  = 200;
  6923                        ;			//VDMA_DST_STRIDE_H[0]  = 0;
  6924                        ;
  6925                        ;
  6926                        ;			k_debug_pointer("DesktopWindowPr
                    oc::start-vdma:",pixelLocation);
  6927                        ;
  6928                        ;			VDMA_CONTROL_REG[0]  = (VDMA_CTR
                    L_ENABLE | VDMA_CTRL_1D_2D | VDMA_CTRL_START_TRF);
  6929                        ;			*/
  6930                        ;
  6931                        ;			if(pctx->userData && ((INT*)pctx
                    ->userData)[DEBUG_MOUSE_BOXING])
  6932                        	.line	1198
  6933                        ;			{
  6934 09:1D6C: A0 83 00     	ldy	#$83
  6935 09:1D6F: B7 1D        	lda	[<L43+pctx_1],Y
  6936 09:1D71: A0 85 00     	ldy	#$85
  6937 09:1D74: 17 1D        	ora	[<L43+pctx_1],Y
  6938 09:1D76: D0 03        	bne	L127
  6939 09:1D78: 82 11 01     	brl	L10130
  6940                        L127:
  6941 09:1D7B: A0 83 00     	ldy	#$83
  6942 09:1D7E: B7 1D        	lda	[<L43+pctx_1],Y
  6943 09:1D80: 85 01        	sta	<R0
  6944 09:1D82: A0 85 00     	ldy	#$85
  6945 09:1D85: B7 1D        	lda	[<L43+pctx_1],Y
  6946 09:1D87: 85 03        	sta	<R0+2
  6947 09:1D89: A0 06 00     	ldy	#$6
  6948 09:1D8C: B7 01        	lda	[<R0],Y
  6949 09:1D8E: D0 03        	bne	L128
  6950 09:1D90: 82 F9 00     	brl	L10130
  6951                        L128:
  6952                        	.line	1199
  6953                        ;				px = ((INT*)pctx->userDa
                    ta)[DEBUG_MOUSE_CX];
  6954                        	.line	1200
  6955 09:1D93: A0 83 00     	ldy	#$83
  6956 09:1D96: B7 1D        	lda	[<L43+pctx_1],Y
  6957 09:1D98: 85 01        	sta	<R0
  6958 09:1D9A: A0 85 00     	ldy	#$85
  6959 09:1D9D: B7 1D        	lda	[<L43+pctx_1],Y
  6960 09:1D9F: 85 03        	sta	<R0+2
  6961 09:1DA1: A0 02 00     	ldy	#$2
  6962 09:1DA4: B7 01        	lda	[<R0],Y
  6963 09:1DA6: 85 2C        	sta	<L43+px_1
  6964                        ;				py = ((INT*)pctx->userDa
                    ta)[DEBUG_MOUSE_CY];
  6965                        	.line	1201
  6966 09:1DA8: A0 83 00     	ldy	#$83
  6967 09:1DAB: B7 1D        	lda	[<L43+pctx_1],Y
  6968 09:1DAD: 85 01        	sta	<R0
  6969 09:1DAF: A0 85 00     	ldy	#$85
  6970 09:1DB2: B7 1D        	lda	[<L43+pctx_1],Y
  6971 09:1DB4: 85 03        	sta	<R0+2
  6972 09:1DB6: A0 04 00     	ldy	#$4
  6973 09:1DB9: B7 01        	lda	[<R0],Y
  6974 09:1DBB: 85 2E        	sta	<L43+py_1
  Mon Sep 27 2021  9:39                                                Page 137


  6975                        ;
  6976                        ;				if(px > -1)
  6977                        	.line	1203
  6978                        ;				{
  6979 09:1DBD: 38           	sec
  6980 09:1DBE: A9 FF FF     	lda	#$ffff
  6981 09:1DC1: E5 2C        	sbc	<L43+px_1
  6982 09:1DC3: 70 03        	bvs	L129
  6983 09:1DC5: 49 00 80     	eor	#$8000
  6984                        L129:
  6985 09:1DC8: 10 03        	bpl	L130
  6986 09:1DCA: 82 33 00     	brl	L10131
  6987                        L130:
  6988                        	.line	1204
  6989                        ;					k_draw_rect_slow
                    (((INT*)pctx->userData)[DEBUG_MOUSE_BOX_LEFT],
  6990                        	.line	1205
  6991                        ;							
                             ((INT*)pctx->userData)[DEBUG_MOUSE_BOX_TOP],
  6992                        ;							
                    		 px, py,
  6993                        ;							
                    		 FILLCOLOR_TRANSPARENT);
  6994 09:1DCD: F4 00 00     	pea	#<$0
  6995 09:1DD0: D4 2E        	pei	<L43+py_1
  6996 09:1DD2: D4 2C        	pei	<L43+px_1
  6997 09:1DD4: A0 83 00     	ldy	#$83
  6998 09:1DD7: B7 1D        	lda	[<L43+pctx_1],Y
  6999 09:1DD9: 85 01        	sta	<R0
  7000 09:1DDB: A0 85 00     	ldy	#$85
  7001 09:1DDE: B7 1D        	lda	[<L43+pctx_1],Y
  7002 09:1DE0: 85 03        	sta	<R0+2
  7003 09:1DE2: A0 08 00     	ldy	#$8
  7004 09:1DE5: B7 01        	lda	[<R0],Y
  7005 09:1DE7: 48           	pha
  7006 09:1DE8: A0 83 00     	ldy	#$83
  7007 09:1DEB: B7 1D        	lda	[<L43+pctx_1],Y
  7008 09:1DED: 85 01        	sta	<R0
  7009 09:1DEF: A0 85 00     	ldy	#$85
  7010 09:1DF2: B7 1D        	lda	[<L43+pctx_1],Y
  7011 09:1DF4: 85 03        	sta	<R0+2
  7012 09:1DF6: A0 0A 00     	ldy	#$a
  7013 09:1DF9: B7 01        	lda	[<R0],Y
  7014 09:1DFB: 48           	pha
  7015 09:1DFC: 22 xx xx xx  	jsl	~~k_draw_rect_slow
  7016                        ;				}
  7017                        	.line	1209
  7018                        ;
  7019                        ;				((INT*)pctx->userData)[D
                    EBUG_MOUSE_CX] 		= -1;
  7020                        L10131:
  7021                        	.line	1211
  7022 09:1E00: A0 83 00     	ldy	#$83
  7023 09:1E03: B7 1D        	lda	[<L43+pctx_1],Y
  7024 09:1E05: 85 01        	sta	<R0
  7025 09:1E07: A0 85 00     	ldy	#$85
  7026 09:1E0A: B7 1D        	lda	[<L43+pctx_1],Y
  7027 09:1E0C: 85 03        	sta	<R0+2
  Mon Sep 27 2021  9:39                                                Page 138


  7028 09:1E0E: A9 FF FF     	lda	#$ffff
  7029 09:1E11: A0 02 00     	ldy	#$2
  7030 09:1E14: 97 01        	sta	[<R0],Y
  7031                        ;				((INT*)pctx->userData)[D
                    EBUG_MOUSE_CY] 		= -1;
  7032                        	.line	1212
  7033 09:1E16: A0 83 00     	ldy	#$83
  7034 09:1E19: B7 1D        	lda	[<L43+pctx_1],Y
  7035 09:1E1B: 85 01        	sta	<R0
  7036 09:1E1D: A0 85 00     	ldy	#$85
  7037 09:1E20: B7 1D        	lda	[<L43+pctx_1],Y
  7038 09:1E22: 85 03        	sta	<R0+2
  7039 09:1E24: A9 FF FF     	lda	#$ffff
  7040 09:1E27: A0 04 00     	ldy	#$4
  7041 09:1E2A: 97 01        	sta	[<R0],Y
  7042                        ;				((INT*)pctx->userData)[D
                    EBUG_MOUSE_BOXING] 	= FALSE;
  7043                        	.line	1213
  7044 09:1E2C: A0 83 00     	ldy	#$83
  7045 09:1E2F: B7 1D        	lda	[<L43+pctx_1],Y
  7046 09:1E31: 85 01        	sta	<R0
  7047 09:1E33: A0 85 00     	ldy	#$85
  7048 09:1E36: B7 1D        	lda	[<L43+pctx_1],Y
  7049 09:1E38: 85 03        	sta	<R0+2
  7050 09:1E3A: A9 00 00     	lda	#$0
  7051 09:1E3D: A0 06 00     	ldy	#$6
  7052 09:1E40: 97 01        	sta	[<R0],Y
  7053                        ;				((INT*)pctx->userData)[D
                    EBUG_MOUSE_BOX_TOP] = -1;
  7054                        	.line	1214
  7055 09:1E42: A0 83 00     	ldy	#$83
  7056 09:1E45: B7 1D        	lda	[<L43+pctx_1],Y
  7057 09:1E47: 85 01        	sta	<R0
  7058 09:1E49: A0 85 00     	ldy	#$85
  7059 09:1E4C: B7 1D        	lda	[<L43+pctx_1],Y
  7060 09:1E4E: 85 03        	sta	<R0+2
  7061 09:1E50: A9 FF FF     	lda	#$ffff
  7062 09:1E53: A0 08 00     	ldy	#$8
  7063 09:1E56: 97 01        	sta	[<R0],Y
  7064                        ;				((INT*)pctx->userData)[D
                    EBUG_MOUSE_BOX_LEFT]= -1;
  7065                        	.line	1215
  7066 09:1E58: A0 83 00     	ldy	#$83
  7067 09:1E5B: B7 1D        	lda	[<L43+pctx_1],Y
  7068 09:1E5D: 85 01        	sta	<R0
  7069 09:1E5F: A0 85 00     	ldy	#$85
  7070 09:1E62: B7 1D        	lda	[<L43+pctx_1],Y
  7071 09:1E64: 85 03        	sta	<R0+2
  7072 09:1E66: A9 FF FF     	lda	#$ffff
  7073 09:1E69: A0 0A 00     	ldy	#$a
  7074 09:1E6C: 97 01        	sta	[<R0],Y
  7075                        ;
  7076                        ;				k_debug_integer("Desktop
                    WindowProc::DEBUG_MOUSE_BOXING:",((INT*)pctx->userData)[DEBU
                    G_MOUSE_BOXING]);
  7077                        	.line	1217
  7078 09:1E6E: A0 83 00     	ldy	#$83
  7079 09:1E71: B7 1D        	lda	[<L43+pctx_1],Y
  Mon Sep 27 2021  9:39                                                Page 139


  7080 09:1E73: 85 01        	sta	<R0
  7081 09:1E75: A0 85 00     	ldy	#$85
  7082 09:1E78: B7 1D        	lda	[<L43+pctx_1],Y
  7083 09:1E7A: 85 03        	sta	<R0+2
  7084 09:1E7C: A0 06 00     	ldy	#$6
  7085 09:1E7F: B7 01        	lda	[<R0],Y
  7086 09:1E81: 48           	pha
  7087 09:1E82: F4 xx xx     	pea	#^L41+2507
  7088 09:1E85: F4 xx xx     	pea	#<L41+2507
  7089 09:1E88: 22 xx xx xx  	jsl	~~k_debug_integer
  7090                        ;			}
  7091                        	.line	1218
  7092                        ;
  7093                        ;
  7094                        ;
  7095                        ;			break;
  7096                        L10130:
  7097                        	.line	1222
  7098 09:1E8C: 82 58 02     	brl	L10019
  7099                        ;		case FX_LBUTTON_DRAG:
  7100                        	.line	1223
  7101                        L10132:
  7102                        ;			k_debug_string("DesktopWindowPro
                    c::FX_LBUTTON_DRAG\r\n");
  7103                        	.line	1224
  7104 09:1E8F: F4 xx xx     	pea	#^L41+2546
  7105 09:1E92: F4 xx xx     	pea	#<L41+2546
  7106 09:1E95: 22 xx xx xx  	jsl	~~k_debug_string
  7107                        ;
  7108                        ;
  7109                        ;			if(((INT*)pctx->userData)[DEBUG_
                    MOUSE_BOX_ENABLE] && ((INT*)pctx->userData)[DEBUG_MOUSE_BOXI
                    NG])
  7110                        	.line	1227
  7111                        ;			{
  7112 09:1E99: A0 83 00     	ldy	#$83
  7113 09:1E9C: B7 1D        	lda	[<L43+pctx_1],Y
  7114 09:1E9E: 85 01        	sta	<R0
  7115 09:1EA0: A0 85 00     	ldy	#$85
  7116 09:1EA3: B7 1D        	lda	[<L43+pctx_1],Y
  7117 09:1EA5: 85 03        	sta	<R0+2
  7118 09:1EA7: A0 0C 00     	ldy	#$c
  7119 09:1EAA: B7 01        	lda	[<R0],Y
  7120 09:1EAC: D0 03        	bne	L131
  7121 09:1EAE: 82 FC 00     	brl	L10133
  7122                        L131:
  7123 09:1EB1: A0 83 00     	ldy	#$83
  7124 09:1EB4: B7 1D        	lda	[<L43+pctx_1],Y
  7125 09:1EB6: 85 01        	sta	<R0
  7126 09:1EB8: A0 85 00     	ldy	#$85
  7127 09:1EBB: B7 1D        	lda	[<L43+pctx_1],Y
  7128 09:1EBD: 85 03        	sta	<R0+2
  7129 09:1EBF: A0 06 00     	ldy	#$6
  7130 09:1EC2: B7 01        	lda	[<R0],Y
  7131 09:1EC4: D0 03        	bne	L132
  7132 09:1EC6: 82 E4 00     	brl	L10133
  7133                        L132:
  7134                        	.line	1228
  Mon Sep 27 2021  9:39                                                Page 140


  7135                        ;
  7136                        ;				cy = *((INT*)&pMsg->data
                    [3]) - pWin->win_y;
  7137                        	.line	1230
  7138 09:1EC9: 38           	sec
  7139 09:1ECA: A0 19 00     	ldy	#$19
  7140 09:1ECD: B7 52        	lda	[<L42+pMsg_0],Y
  7141 09:1ECF: A0 0E 00     	ldy	#$e
  7142 09:1ED2: F7 11        	sbc	[<L43+pWin_1],Y
  7143 09:1ED4: 85 2A        	sta	<L43+cy_1
  7144                        ;				cx = *((INT*)&pMsg->data
                    [1]) - pWin->win_x;
  7145                        	.line	1231
  7146 09:1ED6: 38           	sec
  7147 09:1ED7: A0 17 00     	ldy	#$17
  7148 09:1EDA: B7 52        	lda	[<L42+pMsg_0],Y
  7149 09:1EDC: A0 0C 00     	ldy	#$c
  7150 09:1EDF: F7 11        	sbc	[<L43+pWin_1],Y
  7151 09:1EE1: 85 28        	sta	<L43+cx_1
  7152                        ;
  7153                        ;				px = ((INT*)pctx->userDa
                    ta)[DEBUG_MOUSE_CX];
  7154                        	.line	1233
  7155 09:1EE3: A0 83 00     	ldy	#$83
  7156 09:1EE6: B7 1D        	lda	[<L43+pctx_1],Y
  7157 09:1EE8: 85 01        	sta	<R0
  7158 09:1EEA: A0 85 00     	ldy	#$85
  7159 09:1EED: B7 1D        	lda	[<L43+pctx_1],Y
  7160 09:1EEF: 85 03        	sta	<R0+2
  7161 09:1EF1: A0 02 00     	ldy	#$2
  7162 09:1EF4: B7 01        	lda	[<R0],Y
  7163 09:1EF6: 85 2C        	sta	<L43+px_1
  7164                        ;				py = ((INT*)pctx->userDa
                    ta)[DEBUG_MOUSE_CY];
  7165                        	.line	1234
  7166 09:1EF8: A0 83 00     	ldy	#$83
  7167 09:1EFB: B7 1D        	lda	[<L43+pctx_1],Y
  7168 09:1EFD: 85 01        	sta	<R0
  7169 09:1EFF: A0 85 00     	ldy	#$85
  7170 09:1F02: B7 1D        	lda	[<L43+pctx_1],Y
  7171 09:1F04: 85 03        	sta	<R0+2
  7172 09:1F06: A0 04 00     	ldy	#$4
  7173 09:1F09: B7 01        	lda	[<R0],Y
  7174 09:1F0B: 85 2E        	sta	<L43+py_1
  7175                        ;
  7176                        ;				if(px > -1)
  7177                        	.line	1236
  7178                        ;				{
  7179 09:1F0D: 38           	sec
  7180 09:1F0E: A9 FF FF     	lda	#$ffff
  7181 09:1F11: E5 2C        	sbc	<L43+px_1
  7182 09:1F13: 70 03        	bvs	L133
  7183 09:1F15: 49 00 80     	eor	#$8000
  7184                        L133:
  7185 09:1F18: 10 03        	bpl	L134
  7186 09:1F1A: 82 33 00     	brl	L10134
  7187                        L134:
  7188                        	.line	1237
  Mon Sep 27 2021  9:39                                                Page 141


  7189                        ;					k_draw_rect_slow
                    (((INT*)pctx->userData)[DEBUG_MOUSE_BOX_LEFT],
  7190                        	.line	1238
  7191                        ;							
                             ((INT*)pctx->userData)[DEBUG_MOUSE_BOX_TOP],
  7192                        ;							
                    		 px, py,
  7193                        ;							
                    		 FILLCOLOR_TRANSPARENT);
  7194 09:1F1D: F4 00 00     	pea	#<$0
  7195 09:1F20: D4 2E        	pei	<L43+py_1
  7196 09:1F22: D4 2C        	pei	<L43+px_1
  7197 09:1F24: A0 83 00     	ldy	#$83
  7198 09:1F27: B7 1D        	lda	[<L43+pctx_1],Y
  7199 09:1F29: 85 01        	sta	<R0
  7200 09:1F2B: A0 85 00     	ldy	#$85
  7201 09:1F2E: B7 1D        	lda	[<L43+pctx_1],Y
  7202 09:1F30: 85 03        	sta	<R0+2
  7203 09:1F32: A0 08 00     	ldy	#$8
  7204 09:1F35: B7 01        	lda	[<R0],Y
  7205 09:1F37: 48           	pha
  7206 09:1F38: A0 83 00     	ldy	#$83
  7207 09:1F3B: B7 1D        	lda	[<L43+pctx_1],Y
  7208 09:1F3D: 85 01        	sta	<R0
  7209 09:1F3F: A0 85 00     	ldy	#$85
  7210 09:1F42: B7 1D        	lda	[<L43+pctx_1],Y
  7211 09:1F44: 85 03        	sta	<R0+2
  7212 09:1F46: A0 0A 00     	ldy	#$a
  7213 09:1F49: B7 01        	lda	[<R0],Y
  7214 09:1F4B: 48           	pha
  7215 09:1F4C: 22 xx xx xx  	jsl	~~k_draw_rect_slow
  7216                        ;				}
  7217                        	.line	1242
  7218                        ;
  7219                        ;				k_draw_rect_slow(((INT*)
                    pctx->userData)[DEBUG_MOUSE_BOX_LEFT],
  7220                        L10134:
  7221                        	.line	1244
  7222                        ;							
                    	 ((INT*)pctx->userData)[DEBUG_MOUSE_BOX_TOP],
  7223                        ;							
                    	 cx,cy,
  7224                        ;							
                    	 15);
  7225 09:1F50: F4 0F 00     	pea	#<$f
  7226 09:1F53: D4 2A        	pei	<L43+cy_1
  7227 09:1F55: D4 28        	pei	<L43+cx_1
  7228 09:1F57: A0 83 00     	ldy	#$83
  7229 09:1F5A: B7 1D        	lda	[<L43+pctx_1],Y
  7230 09:1F5C: 85 01        	sta	<R0
  7231 09:1F5E: A0 85 00     	ldy	#$85
  7232 09:1F61: B7 1D        	lda	[<L43+pctx_1],Y
  7233 09:1F63: 85 03        	sta	<R0+2
  7234 09:1F65: A0 08 00     	ldy	#$8
  7235 09:1F68: B7 01        	lda	[<R0],Y
  7236 09:1F6A: 48           	pha
  7237 09:1F6B: A0 83 00     	ldy	#$83
  7238 09:1F6E: B7 1D        	lda	[<L43+pctx_1],Y
  Mon Sep 27 2021  9:39                                                Page 142


  7239 09:1F70: 85 01        	sta	<R0
  7240 09:1F72: A0 85 00     	ldy	#$85
  7241 09:1F75: B7 1D        	lda	[<L43+pctx_1],Y
  7242 09:1F77: 85 03        	sta	<R0+2
  7243 09:1F79: A0 0A 00     	ldy	#$a
  7244 09:1F7C: B7 01        	lda	[<R0],Y
  7245 09:1F7E: 48           	pha
  7246 09:1F7F: 22 xx xx xx  	jsl	~~k_draw_rect_slow
  7247                        ;
  7248                        ;				((INT*)pctx->userData)[D
                    EBUG_MOUSE_CX] = cx;
  7249                        	.line	1249
  7250 09:1F83: A0 83 00     	ldy	#$83
  7251 09:1F86: B7 1D        	lda	[<L43+pctx_1],Y
  7252 09:1F88: 85 01        	sta	<R0
  7253 09:1F8A: A0 85 00     	ldy	#$85
  7254 09:1F8D: B7 1D        	lda	[<L43+pctx_1],Y
  7255 09:1F8F: 85 03        	sta	<R0+2
  7256 09:1F91: A5 28        	lda	<L43+cx_1
  7257 09:1F93: A0 02 00     	ldy	#$2
  7258 09:1F96: 97 01        	sta	[<R0],Y
  7259                        ;				((INT*)pctx->userData)[D
                    EBUG_MOUSE_CY] = cy;
  7260                        	.line	1250
  7261 09:1F98: A0 83 00     	ldy	#$83
  7262 09:1F9B: B7 1D        	lda	[<L43+pctx_1],Y
  7263 09:1F9D: 85 01        	sta	<R0
  7264 09:1F9F: A0 85 00     	ldy	#$85
  7265 09:1FA2: B7 1D        	lda	[<L43+pctx_1],Y
  7266 09:1FA4: 85 03        	sta	<R0+2
  7267 09:1FA6: A5 2A        	lda	<L43+cy_1
  7268 09:1FA8: A0 04 00     	ldy	#$4
  7269 09:1FAB: 97 01        	sta	[<R0],Y
  7270                        ;			}
  7271                        	.line	1251
  7272                        ;
  7273                        ;			break;
  7274                        L10133:
  7275                        	.line	1253
  7276 09:1FAD: 82 37 01     	brl	L10019
  7277                        ;		case FX_LBUTTON_DBLCLICK:
  7278                        	.line	1254
  7279                        L10135:
  7280                        ;			k_debug_string("DesktopWindowPro
                    c::FX_LBUTTON_DBLCLICK\r\n");
  7281                        	.line	1255
  7282 09:1FB0: F4 xx xx     	pea	#^L41+2583
  7283 09:1FB3: F4 xx xx     	pea	#<L41+2583
  7284 09:1FB6: 22 xx xx xx  	jsl	~~k_debug_string
  7285                        ;
  7286                        ;
  7287                        ;
  7288                        ;			if(k_user_getDesktopWindow())
  7289                        	.line	1259
  7290                        ;			{
  7291 09:1FBA: 22 xx xx xx  	jsl	~~k_user_getDesktopWindow
  7292 09:1FBE: 85 01        	sta	<R0
  7293 09:1FC0: 86 03        	stx	<R0+2
  Mon Sep 27 2021  9:39                                                Page 143


  7294 09:1FC2: A5 01        	lda	<R0
  7295 09:1FC4: 05 03        	ora	<R0+2
  7296 09:1FC6: D0 03        	bne	L135
  7297 09:1FC8: 82 69 00     	brl	L10136
  7298                        L135:
  7299                        	.line	1260
  7300                        ;				k_debug_string("********
                    *************************\r\nDesktopWindowProc::DESKTOP HITL
                    ISTK\r\n*********************************\r\n");
  7301                        	.line	1261
  7302 09:1FCB: F4 xx xx     	pea	#^L41+2624
  7303 09:1FCE: F4 xx xx     	pea	#<L41+2624
  7304 09:1FD1: 22 xx xx xx  	jsl	~~k_debug_string
  7305                        ;				k_debug_nodelist_with_da
                    ta( k_getWindowFromHandle(k_user_getDesktopWindow())->pChild
                    HitList->listhead->next, debug_clickable_node );
  7306                        	.line	1262
  7307 09:1FD5: F4 xx xx     	pea	#^~~debug_clickable_node
  7308 09:1FD8: F4 xx xx     	pea	#<~~debug_clickable_node
  7309 09:1FDB: 22 xx xx xx  	jsl	~~k_user_getDesktopWindow
  7310 09:1FDF: 85 01        	sta	<R0
  7311 09:1FE1: 86 03        	stx	<R0+2
  7312 09:1FE3: DA           	phx
  7313 09:1FE4: 48           	pha
  7314 09:1FE5: 22 xx xx xx  	jsl	~~k_getWindowFromHandle
  7315 09:1FE9: 85 05        	sta	<R1
  7316 09:1FEB: 86 07        	stx	<R1+2
  7317 09:1FED: A0 C0 01     	ldy	#$1c0
  7318 09:1FF0: B7 05        	lda	[<R1],Y
  7319 09:1FF2: 85 09        	sta	<R2
  7320 09:1FF4: A0 C2 01     	ldy	#$1c2
  7321 09:1FF7: B7 05        	lda	[<R1],Y
  7322 09:1FF9: 85 0B        	sta	<R2+2
  7323 09:1FFB: A7 09        	lda	[<R2]
  7324 09:1FFD: 85 05        	sta	<R1
  7325 09:1FFF: A0 02 00     	ldy	#$2
  7326 09:2002: B7 09        	lda	[<R2],Y
  7327 09:2004: 85 07        	sta	<R1+2
  7328 09:2006: A0 0C 00     	ldy	#$c
  7329 09:2009: B7 05        	lda	[<R1],Y
  7330 09:200B: 48           	pha
  7331 09:200C: A0 0A 00     	ldy	#$a
  7332 09:200F: B7 05        	lda	[<R1],Y
  7333 09:2011: 48           	pha
  7334 09:2012: 22 xx xx xx  	jsl	~~k_debug_nodelist_with_data
  7335                        ;				k_debug_string("********
                    *************************\r\nDesktopWindowProc::GLOBAL HITLI
                    STK\r\n*********************************\r\n");
  7336                        	.line	1263
  7337 09:2016: F4 xx xx     	pea	#^L41+2732
  7338 09:2019: F4 xx xx     	pea	#<L41+2732
  7339 09:201C: 22 xx xx xx  	jsl	~~k_debug_string
  7340                        ;				k_debug_nodelist_with_da
                    ta( k_getWindowHitList(), debug_clickable_node );
  7341                        	.line	1264
  7342 09:2020: F4 xx xx     	pea	#^~~debug_clickable_node
  7343 09:2023: F4 xx xx     	pea	#<~~debug_clickable_node
  7344 09:2026: 22 xx xx xx  	jsl	~~k_getWindowHitList
  Mon Sep 27 2021  9:39                                                Page 144


  7345 09:202A: 85 01        	sta	<R0
  7346 09:202C: 86 03        	stx	<R0+2
  7347 09:202E: DA           	phx
  7348 09:202F: 48           	pha
  7349 09:2030: 22 xx xx xx  	jsl	~~k_debug_nodelist_with_data
  7350                        ;			}
  7351                        	.line	1265
  7352                        ;
  7353                        ;
  7354                        ;			break;
  7355                        L10136:
  7356                        	.line	1268
  7357 09:2034: 82 B0 00     	brl	L10019
  7358                        ;
  7359                        ;		case FX_RBUTTON_DBLCLICK:
  7360                        	.line	1270
  7361                        L10137:
  7362                        ;
  7363                        ;
  7364                        ;			k_debug_string("****************
                    *****************\r\nDesktopWindowProc::DESKTOP WINDOW LIST\
                    r\n*********************************\r\n");
  7365                        	.line	1273
  7366 09:2037: F4 xx xx     	pea	#^L41+2839
  7367 09:203A: F4 xx xx     	pea	#<L41+2839
  7368 09:203D: 22 xx xx xx  	jsl	~~k_debug_string
  7369                        ;			k_debug_nodelist_with_data( k_ge
                    tWindowList(), debug_window_node );
  7370                        	.line	1274
  7371 09:2041: F4 xx xx     	pea	#^~~debug_window_node
  7372 09:2044: F4 xx xx     	pea	#<~~debug_window_node
  7373 09:2047: 22 xx xx xx  	jsl	~~k_getWindowList
  7374 09:204B: 85 01        	sta	<R0
  7375 09:204D: 86 03        	stx	<R0+2
  7376 09:204F: DA           	phx
  7377 09:2050: 48           	pha
  7378 09:2051: 22 xx xx xx  	jsl	~~k_debug_nodelist_with_data
  7379                        ;
  7380                        ;
  7381                        ;			break;
  7382                        	.line	1277
  7383 09:2055: 82 8F 00     	brl	L10019
  7384                        ;		case FX_WINDOW_TOFRONT:
  7385                        	.line	1278
  7386                        L10138:
  7387                        ;			k_debug_string("DesktopWindowPro
                    c::FX_WINDOW_TOFRONT\r\n");
  7388                        	.line	1279
  7389 09:2058: F4 xx xx     	pea	#^L41+2950
  7390 09:205B: F4 xx xx     	pea	#<L41+2950
  7391 09:205E: 22 xx xx xx  	jsl	~~k_debug_string
  7392                        ;
  7393                        ;			//k_vdraw_ui_window(25,25,200,30
                    0,"Clicked FRONT",15,3);
  7394                        ;
  7395                        ;			break;
  7396                        	.line	1283
  7397 09:2062: 82 82 00     	brl	L10019
  Mon Sep 27 2021  9:39                                                Page 145


  7398                        ;		case FX_WINDOW_TOBACK:
  7399                        	.line	1284
  7400                        L10139:
  7401                        ;			k_debug_string("DesktopWindowPro
                    c::FX_WINDOW_TOBACK\r\n");
  7402                        	.line	1285
  7403 09:2065: F4 xx xx     	pea	#^L41+2989
  7404 09:2068: F4 xx xx     	pea	#<L41+2989
  7405 09:206B: 22 xx xx xx  	jsl	~~k_debug_string
  7406                        ;
  7407                        ;			//k_vdraw_ui_window(250,250,150,
                    200,"Clicked BACK",15,3);
  7408                        ;
  7409                        ;			break;
  7410                        	.line	1289
  7411 09:206F: 82 75 00     	brl	L10019
  7412                        ;		case FX_COM1_DATA:
  7413                        	.line	1290
  7414                        L10140:
  7415                        ;			//k_debug_string("DesktopWindowP
                    roc::FX_COM1_DATA\r\n");
  7416                        ;			break;
  7417                        	.line	1292
  7418 09:2072: 82 72 00     	brl	L10019
  7419                        ;		case FX_COM2_DATA:
  7420                        	.line	1293
  7421                        L10141:
  7422                        ;			//k_debug_string("DesktopWindowP
                    roc::FX_COM2_DATA\r\n");
  7423                        ;			break;
  7424                        	.line	1295
  7425 09:2075: 82 6F 00     	brl	L10019
  7426                        ;
  7427                        ;		default:
  7428                        	.line	1297
  7429                        L10142:
  7430                        ;			//k_updatespinner(2,40,&consoles
                    pinctx);
  7431                        ;			//return DefWindowProc(pMsg);
  7432                        ;			break;
  7433                        	.line	1300
  7434 09:2078: 82 6C 00     	brl	L10019
  7435                        ;		}
  7436                        	.line	1301
  7437                        L10018:
  7438                        	xref	~~~swt
  7439 09:207B: 22 xx xx xx  	jsl	~~~swt
  7440 09:207F: 19 00        	dw	25
  7441 09:2081: 01 0F        	dw	3841
  7442 09:2083: 53 1C        	dw	L10124-1
  7443 09:2085: 02 0F        	dw	3842
  7444 09:2087: 73 1C        	dw	L10125-1
  7445 09:2089: 03 0F        	dw	3843
  7446 09:208B: 01 1B        	dw	L10121-1
  7447 09:208D: 04 0F        	dw	3844
  7448 09:208F: A0 1C        	dw	L10127-1
  7449 09:2091: 05 0F        	dw	3845
  7450 09:2093: 8E 1E        	dw	L10132-1
  Mon Sep 27 2021  9:39                                                Page 146


  7451 09:2095: 06 0F        	dw	3846
  7452 09:2097: 61 1D        	dw	L10129-1
  7453 09:2099: 07 0F        	dw	3847
  7454 09:209B: AF 1F        	dw	L10135-1
  7455 09:209D: 08 0F        	dw	3848
  7456 09:209F: 93 1C        	dw	L10126-1
  7457 09:20A1: 0B 0F        	dw	3851
  7458 09:20A3: 36 20        	dw	L10137-1
  7459 09:20A5: 10 0F        	dw	3856
  7460 09:20A7: C2 12        	dw	L10081-1
  7461 09:20A9: 12 0F        	dw	3858
  7462 09:20AB: 9F 12        	dw	L10080-1
  7463 09:20AD: 15 0F        	dw	3861
  7464 09:20AF: 7C 12        	dw	L10079-1
  7465 09:20B1: 20 0F        	dw	3872
  7466 09:20B3: 57 15        	dw	L10103-1
  7467 09:20B5: 22 0F        	dw	3874
  7468 09:20B7: 6C 18        	dw	L10111-1
  7469 09:20B9: 30 0F        	dw	3888
  7470 09:20BB: 57 20        	dw	L10138-1
  7471 09:20BD: 31 0F        	dw	3889
  7472 09:20BF: 64 20        	dw	L10139-1
  7473 09:20C1: 00 FA        	dw	64000
  7474 09:20C3: 3B 0A        	dw	L10025-1
  7475 09:20C5: 01 FA        	dw	64001
  7476 09:20C7: 8E 0A        	dw	L10028-1
  7477 09:20C9: 02 FA        	dw	64002
  7478 09:20CB: 4E 0A        	dw	L10026-1
  7479 09:20CD: 00 FB        	dw	64256
  7480 09:20CF: 2E 0A        	dw	L10024-1
  7481 09:20D1: 00 FC        	dw	64512
  7482 09:20D3: 71 20        	dw	L10140-1
  7483 09:20D5: 01 FC        	dw	64513
  7484 09:20D7: 74 20        	dw	L10141-1
  7485 09:20D9: 03 FF        	dw	65283
  7486 09:20DB: D6 05        	dw	L10020-1
  7487 09:20DD: F0 FF        	dw	65520
  7488 09:20DF: E8 19        	dw	L10114-1
  7489 09:20E1: F1 FF        	dw	65521
  7490 09:20E3: 2B 0A        	dw	L10023-1
  7491 09:20E5: 77 20        	dw	L10142-1
  7492                        L10019:
  7493                        ;	}
  7494                        	.line	1302
  7495                        ;	//k_debug_string("DesktopWindowProc exit\r\n");
  7496                        ;
  7497                        ;	return TRUE;
  7498                        L10016:
  7499                        	.line	1305
  7500 09:20E7: A9 01 00     	lda	#$1
  7501                        L136:
  7502 09:20EA: A8           	tay
  7503 09:20EB: A5 50        	lda	<L42+2
  7504 09:20ED: 85 54        	sta	<L42+2+4
  7505 09:20EF: A5 4F        	lda	<L42+1
  7506 09:20F1: 85 53        	sta	<L42+1+4
  7507 09:20F3: 2B           	pld
  7508 09:20F4: 3B           	tsc
  Mon Sep 27 2021  9:39                                                Page 147


  7509 09:20F5: 18           	clc
  7510 09:20F6: 69 52 00     	adc	#L42+4
  7511 09:20F9: 1B           	tcs
  7512 09:20FA: 98           	tya
  7513 09:20FB: 6B           	rtl
  7514                        ;}
  7515                        	.line	1306
  7516                        	.endblock	1306
  7517             0000004E   L42	equ	78
  7518             0000000D   L43	equ	13
  7519 09:20FC:              	ends
  7520                        	efunc
  7521                        	.endfunc	1306,13,78
  7522                        	.line	1306
  7523                        	data
  7524                        L41:
  7525 00:0270: 44 65 73 6B  	db	$44,$65,$73,$6B,$74,$6F,$70,$57,$69,$6E,
                    $64,$6F,$77,$50,$72
       00:0274: 74 6F 70 57 
       00:0278: 69 6E 64 6F 
       00:027C: 77 50 72 
  7526 00:027F: 6F 63 3A 3A  	db	$6F,$63,$3A,$3A,$46,$58,$5F,$43,$52,$45,
                    $41,$54,$45,$5F,$57
       00:0283: 46 58 5F 43 
       00:0287: 52 45 41 54 
       00:028B: 45 5F 57 
  7527 00:028E: 49 4E 44 4F  	db	$49,$4E,$44,$4F,$57,$0D,$0A,$00,$44,$65,
                    $73,$6B,$74,$6F,$70
       00:0292: 57 0D 0A 00 
       00:0296: 44 65 73 6B 
       00:029A: 74 6F 70 
  7528 00:029D: 57 69 6E 64  	db	$57,$69,$6E,$64,$6F,$77,$50,$72,$6F,$63,
                    $3A,$3A,$70,$63,$74
       00:02A1: 6F 77 50 72 
       00:02A5: 6F 63 3A 3A 
       00:02A9: 70 63 74 
  7529 00:02AC: 78 3A 00 44  	db	$78,$3A,$00,$44,$65,$73,$6B,$74,$6F,$70,
                    $57,$69,$6E,$64,$6F
       00:02B0: 65 73 6B 74 
       00:02B4: 6F 70 57 69 
       00:02B8: 6E 64 6F 
  7530 00:02BB: 77 50 72 6F  	db	$77,$50,$72,$6F,$63,$3A,$3A,$70,$63,$74,
                    $78,$2D,$3E,$75,$73
       00:02BF: 63 3A 3A 70 
       00:02C3: 63 74 78 2D 
       00:02C7: 3E 75 73 
  7531 00:02CA: 65 72 44 61  	db	$65,$72,$44,$61,$74,$61,$3A,$00,$64,$65,
                    $73,$6B,$74,$6F,$70
       00:02CE: 74 61 3A 00 
       00:02D2: 64 65 73 6B 
       00:02D6: 74 6F 70 
  7532 00:02D9: 56 6F 6C 73  	db	$56,$6F,$6C,$73,$57,$69,$6E,$64,$6F,$77,
                    $43,$6C,$61,$73,$73
       00:02DD: 57 69 6E 64 
       00:02E1: 6F 77 43 6C 
       00:02E5: 61 73 73 
  7533 00:02E8: 00 70 72 65  	db	$00,$70,$72,$65,$66,$65,$72,$65,$6E,$63,
                    $65,$73,$57,$69,$6E
  Mon Sep 27 2021  9:39                                                Page 148


       00:02EC: 66 65 72 65 
       00:02F0: 6E 63 65 73 
       00:02F4: 57 69 6E 
  7534 00:02F7: 64 6F 77 43  	db	$64,$6F,$77,$43,$6C,$61,$73,$73,$00,$74,
                    $65,$78,$74,$57,$69
       00:02FB: 6C 61 73 73 
       00:02FF: 00 74 65 78 
       00:0303: 74 57 69 
  7535 00:0306: 6E 64 6F 77  	db	$6E,$64,$6F,$77,$43,$6C,$61,$73,$73,$00,
                    $6C,$69,$73,$74,$62
       00:030A: 43 6C 61 73 
       00:030E: 73 00 6C 69 
       00:0312: 73 74 62 
  7536 00:0315: 6F 78 57 69  	db	$6F,$78,$57,$69,$6E,$64,$6F,$77,$43,$6C,
                    $61,$73,$73,$00,$FFFFFF80
       00:0319: 6E 64 6F 77 
       00:031D: 43 6C 61 73 
       00:0321: 73 00 80 
  7537 00:0324: 81 00 41 4D  	db	$81,$00,$41,$4D,$49,$47,$4F,$38,$78,$38,
                    $00,$50,$61,$6C,$65
       00:0328: 49 47 4F 38 
       00:032C: 78 38 00 50 
       00:0330: 61 6C 65 
  7538 00:0333: 74 74 65 20  	db	$74,$74,$65,$20,$54,$6F,$6F,$6C,$00,$43,
                    $61,$6C,$63,$75,$6C
       00:0337: 54 6F 6F 6C 
       00:033B: 00 43 61 6C 
       00:033F: 63 75 6C 
  7539 00:0342: 61 74 6F 72  	db	$61,$74,$6F,$72,$00,$5F,$5F,$5F,$5F,$5F,
                    $5F,$5F,$5F,$5F,$5F
       00:0346: 00 5F 5F 5F 
       00:034A: 5F 5F 5F 5F 
       00:034E: 5F 5F 5F 
  7540 00:0351: 5F 5F 5F 5F  	db	$5F,$5F,$5F,$5F,$00,$50,$72,$65,$66,$65,
                    $72,$65,$6E,$63,$65
       00:0355: 00 50 72 65 
       00:0359: 66 65 72 65 
       00:035D: 6E 63 65 
  7541 00:0360: 73 00 46 69  	db	$73,$00,$46,$69,$6C,$65,$00,$56,$6F,$6C,
                    $75,$6D,$65,$20,$49
       00:0364: 6C 65 00 56 
       00:0368: 6F 6C 75 6D 
       00:036C: 65 20 49 
  7542 00:036F: 6E 66 6F 00  	db	$6E,$66,$6F,$00,$43,$68,$61,$6E,$67,$65,
                    $20,$4C,$61,$62,$65
       00:0373: 43 68 61 6E 
       00:0377: 67 65 20 4C 
       00:037B: 61 62 65 
  7543 00:037E: 6C 00 52 65  	db	$6C,$00,$52,$65,$6E,$61,$6D,$65,$00,$43,
                    $6F,$70,$79,$00,$4D
       00:0382: 6E 61 6D 65 
       00:0386: 00 43 6F 70 
       00:038A: 79 00 4D 
  7544 00:038D: 6F 75 6E 74  	db	$6F,$75,$6E,$74,$00,$45,$6A,$65,$63,$74,
                    $00,$4E,$65,$77,$20
       00:0391: 00 45 6A 65 
       00:0395: 63 74 00 4E 
       00:0399: 65 77 20 
  Mon Sep 27 2021  9:39                                                Page 149


  7545 00:039C: 46 6F 6C 64  	db	$46,$6F,$6C,$64,$65,$72,$00,$5F,$5F,$5F,
                    $5F,$5F,$5F,$5F,$5F
       00:03A0: 65 72 00 5F 
       00:03A4: 5F 5F 5F 5F 
       00:03A8: 5F 5F 5F 
  7546 00:03AB: 5F 5F 5F 5F  	db	$5F,$5F,$5F,$5F,$5F,$5F,$5F,$5F,$5F,$5F,
                    $00,$50,$72,$6F,$63
       00:03AF: 5F 5F 5F 5F 
       00:03B3: 5F 5F 00 50 
       00:03B7: 72 6F 63 
  7547 00:03BA: 65 73 73 65  	db	$65,$73,$73,$65,$73,$00,$52,$65,$66,$72,
                    $65,$73,$68,$20,$44
       00:03BE: 73 00 52 65 
       00:03C2: 66 72 65 73 
       00:03C6: 68 20 44 
  7548 00:03C9: 65 73 6B 74  	db	$65,$73,$6B,$74,$6F,$70,$00,$52,$75,$6E,
                    $2E,$2E,$2E,$00,$45
       00:03CD: 6F 70 00 52 
       00:03D1: 75 6E 2E 2E 
       00:03D5: 2E 00 45 
  7549 00:03D8: 64 69 74 00  	db	$64,$69,$74,$00,$43,$6F,$70,$79,$00,$43,
                    $75,$74,$00,$50,$61
       00:03DC: 43 6F 70 79 
       00:03E0: 00 43 75 74 
       00:03E4: 00 50 61 
  7550 00:03E7: 73 74 65 00  	db	$73,$74,$65,$00,$41,$62,$6F,$75,$74,$00,
                    $41,$62,$6F,$75,$74
       00:03EB: 41 62 6F 75 
       00:03EF: 74 00 41 62 
       00:03F3: 6F 75 74 
  7551 00:03F6: 20 46 58 2F  	db	$20,$46,$58,$2F,$4F,$53,$2E,$2E,$2E,$00,
                    $5F,$5F,$5F,$5F,$5F
       00:03FA: 4F 53 2E 2E 
       00:03FE: 2E 00 5F 5F 
       00:0402: 5F 5F 5F 
  7552 00:0405: 5F 5F 5F 5F  	db	$5F,$5F,$5F,$5F,$5F,$5F,$5F,$5F,$5F,$5F,
                    $5F,$5F,$00,$54,$65
       00:0409: 5F 5F 5F 5F 
       00:040D: 5F 5F 5F 5F 
       00:0411: 00 54 65 
  7553 00:0414: 78 74 62 6F  	db	$78,$74,$62,$6F,$78,$20,$54,$65,$73,$74,
                    $00,$4C,$69,$73,$74
       00:0418: 78 20 54 65 
       00:041C: 73 74 00 4C 
       00:0420: 69 73 74 
  7554 00:0423: 62 6F 78 20  	db	$62,$6F,$78,$20,$54,$65,$73,$74,$00,$44,
                    $65,$62,$75,$67,$20
       00:0427: 54 65 73 74 
       00:042B: 00 44 65 62 
       00:042F: 75 67 20 
  7555 00:0432: 4D 65 6E 75  	db	$4D,$65,$6E,$75,$00,$44,$65,$73,$6B,$74,
                    $6F,$70,$57,$69,$6E
       00:0436: 00 44 65 73 
       00:043A: 6B 74 6F 70 
       00:043E: 57 69 6E 
  7556 00:0441: 64 6F 77 50  	db	$64,$6F,$77,$50,$72,$6F,$63,$3A,$3A,$46,
                    $58,$5F,$44,$52,$41
       00:0445: 72 6F 63 3A 
  Mon Sep 27 2021  9:39                                                Page 150


       00:0449: 3A 46 58 5F 
       00:044D: 44 52 41 
  7557 00:0450: 57 5F 57 49  	db	$57,$5F,$57,$49,$4E,$44,$4F,$57,$0D,$0A,
                    $00,$44,$65,$73,$6B
       00:0454: 4E 44 4F 57 
       00:0458: 0D 0A 00 44 
       00:045C: 65 73 6B 
  7558 00:045F: 74 6F 70 57  	db	$74,$6F,$70,$57,$69,$6E,$64,$6F,$77,$50,
                    $72,$6F,$63,$3A,$3A
       00:0463: 69 6E 64 6F 
       00:0467: 77 50 72 6F 
       00:046B: 63 3A 3A 
  7559 00:046E: 46 58 5F 43  	db	$46,$58,$5F,$43,$4F,$4E,$54,$52,$4F,$4C,
                    $5F,$43,$4F,$4D,$4D
       00:0472: 4F 4E 54 52 
       00:0476: 4F 4C 5F 43 
       00:047A: 4F 4D 4D 
  7560 00:047D: 41 4E 44 3A  	db	$41,$4E,$44,$3A,$00,$44,$65,$73,$6B,$74,
                    $6F,$70,$57,$69,$6E
       00:0481: 00 44 65 73 
       00:0485: 6B 74 6F 70 
       00:0489: 57 69 6E 
  7561 00:048C: 64 6F 77 50  	db	$64,$6F,$77,$50,$72,$6F,$63,$3A,$3A,$46,
                    $58,$5F,$53,$43,$52
       00:0490: 72 6F 63 3A 
       00:0494: 3A 46 58 5F 
       00:0498: 53 43 52 
  7562 00:049B: 4F 4C 4C 42  	db	$4F,$4C,$4C,$42,$41,$52,$5F,$43,$4F,$4D,
                    $4D,$41,$4E,$44,$3A
       00:049F: 41 52 5F 43 
       00:04A3: 4F 4D 4D 41 
       00:04A7: 4E 44 3A 
  7563 00:04AA: 00 44 65 73  	db	$00,$44,$65,$73,$6B,$74,$6F,$70,$57,$69,
                    $6E,$64,$6F,$77,$50
       00:04AE: 6B 74 6F 70 
       00:04B2: 57 69 6E 64 
       00:04B6: 6F 77 50 
  7564 00:04B9: 72 6F 63 3A  	db	$72,$6F,$63,$3A,$3A,$46,$58,$5F,$53,$43,
                    $52,$4F,$4C,$4C,$42
       00:04BD: 3A 46 58 5F 
       00:04C1: 53 43 52 4F 
       00:04C5: 4C 4C 42 
  7565 00:04C8: 41 52 5F 43  	db	$41,$52,$5F,$43,$4F,$4D,$4D,$41,$4E,$44,
                    $3A,$4C,$4F,$43,$41
       00:04CC: 4F 4D 4D 41 
       00:04D0: 4E 44 3A 4C 
       00:04D4: 4F 43 41 
  7566 00:04D7: 54 49 4F 4E  	db	$54,$49,$4F,$4E,$3A,$00,$44,$65,$73,$6B,
                    $74,$6F,$70,$57,$69
       00:04DB: 3A 00 44 65 
       00:04DF: 73 6B 74 6F 
       00:04E3: 70 57 69 
  7567 00:04E6: 6E 64 6F 77  	db	$6E,$64,$6F,$77,$50,$72,$6F,$63,$3A,$3A,
                    $46,$58,$5F,$53,$43
       00:04EA: 50 72 6F 63 
       00:04EE: 3A 3A 46 58 
       00:04F2: 5F 53 43 
  7568 00:04F5: 52 4F 4C 4C  	db	$52,$4F,$4C,$4C,$42,$41,$52,$5F,$43,$4F,
  Mon Sep 27 2021  9:39                                                Page 151


                    $4D,$4D,$41,$4E,$44
       00:04F9: 42 41 52 5F 
       00:04FD: 43 4F 4D 4D 
       00:0501: 41 4E 44 
  7569 00:0504: 3A 56 41 4C  	db	$3A,$56,$41,$4C,$55,$45,$3A,$00,$40,$2F,
                    $70,$72,$6F,$63,$6D
       00:0508: 55 45 3A 00 
       00:050C: 40 2F 70 72 
       00:0510: 6F 63 6D 
  7570 00:0513: 61 6E 00 40  	db	$61,$6E,$00,$40,$2F,$70,$61,$6C,$65,$74,
                    $74,$65,$00,$40,$2F
       00:0517: 2F 70 61 6C 
       00:051B: 65 74 74 65 
       00:051F: 00 40 2F 
  7571 00:0522: 63 61 6C 63  	db	$63,$61,$6C,$63,$75,$6C,$61,$74,$6F,$72,
                    $00,$54,$45,$58,$54
       00:0526: 75 6C 61 74 
       00:052A: 6F 72 00 54 
       00:052E: 45 58 54 
  7572 00:0531: 42 4F 58 31  	db	$42,$4F,$58,$31,$00,$54,$45,$58,$54,$42,
                    $4F,$58,$31,$00,$54
       00:0535: 00 54 45 58 
       00:0539: 54 42 4F 58 
       00:053D: 31 00 54 
  7573 00:0540: 45 58 54 42  	db	$45,$58,$54,$42,$4F,$58,$31,$20,$41,$6C,
                    $72,$65,$61,$64,$79
       00:0544: 4F 58 31 20 
       00:0548: 41 6C 72 65 
       00:054C: 61 64 79 
  7574 00:054F: 20 4F 70 65  	db	$20,$4F,$70,$65,$6E,$0D,$0A,$00,$54,$45,
                    $58,$54,$42,$4F,$58
       00:0553: 6E 0D 0A 00 
       00:0557: 54 45 58 54 
       00:055B: 42 4F 58 
  7575 00:055E: 32 00 54 45  	db	$32,$00,$54,$45,$58,$54,$42,$4F,$58,$32,
                    $00,$54,$45,$58,$54
       00:0562: 58 54 42 4F 
       00:0566: 58 32 00 54 
       00:056A: 45 58 54 
  7576 00:056D: 42 4F 58 32  	db	$42,$4F,$58,$32,$20,$41,$6C,$72,$65,$61,
                    $64,$79,$20,$4F,$70
       00:0571: 20 41 6C 72 
       00:0575: 65 61 64 79 
       00:0579: 20 4F 70 
  7577 00:057C: 65 6E 0D 0A  	db	$65,$6E,$0D,$0A,$00,$4C,$49,$53,$54,$42,
                    $4F,$58,$00,$6C,$69
       00:0580: 00 4C 49 53 
       00:0584: 54 42 4F 58 
       00:0588: 00 6C 69 
  7578 00:058B: 73 74 62 6F  	db	$73,$74,$62,$6F,$78,$57,$69,$6E,$64,$6F,
                    $77,$43,$6C,$61,$73
       00:058F: 78 57 69 6E 
       00:0593: 64 6F 77 43 
       00:0597: 6C 61 73 
  7579 00:059A: 73 00 4C 49  	db	$73,$00,$4C,$49,$53,$54,$42,$4F,$58,$00,
                    $4C,$69,$73,$74,$62
       00:059E: 53 54 42 4F 
       00:05A2: 58 00 4C 69 
  Mon Sep 27 2021  9:39                                                Page 152


       00:05A6: 73 74 62 
  7580 00:05A9: 6F 78 20 41  	db	$6F,$78,$20,$41,$6C,$72,$65,$61,$64,$79,
                    $20,$4F,$70,$65,$6E
       00:05AD: 6C 72 65 61 
       00:05B1: 64 79 20 4F 
       00:05B5: 70 65 6E 
  7581 00:05B8: 0D 0A 00 41  	db	$0D,$0A,$00,$41,$62,$6F,$75,$74,$20,$46,
                    $58,$2F,$4F,$53,$00
       00:05BC: 62 6F 75 74 
       00:05C0: 20 46 58 2F 
       00:05C4: 4F 53 00 
  7582 00:05C7: 66 78 50 61  	db	$66,$78,$50,$61,$6C,$65,$74,$74,$65,$41,
                    $62,$6F,$75,$74,$43
       00:05CB: 6C 65 74 74 
       00:05CF: 65 41 62 6F 
       00:05D3: 75 74 43 
  7583 00:05D6: 6C 61 73 73  	db	$6C,$61,$73,$73,$00,$66,$78,$50,$61,$6C,
                    $65,$74,$74,$65,$41
       00:05DA: 00 66 78 50 
       00:05DE: 61 6C 65 74 
       00:05E2: 74 65 41 
  7584 00:05E5: 62 6F 75 74  	db	$62,$6F,$75,$74,$43,$6C,$61,$73,$73,$00,
                    $41,$62,$6F,$75,$74
       00:05E9: 43 6C 61 73 
       00:05ED: 73 00 41 62 
       00:05F1: 6F 75 74 
  7585 00:05F4: 20 46 58 2F  	db	$20,$46,$58,$2F,$4F,$53,$00,$44,$69,$61,
                    $6C,$6F,$67,$20,$41
       00:05F8: 4F 53 00 44 
       00:05FC: 69 61 6C 6F 
       00:0600: 67 20 41 
  7586 00:0603: 6C 72 65 61  	db	$6C,$72,$65,$61,$64,$79,$20,$4F,$70,$65,
                    $6E,$0D,$0A,$00,$50
       00:0607: 64 79 20 4F 
       00:060B: 70 65 6E 0D 
       00:060F: 0A 00 50 
  7587 00:0612: 72 65 66 65  	db	$72,$65,$66,$65,$72,$65,$6E,$63,$65,$73,
                    $00,$70,$72,$65,$66
       00:0616: 72 65 6E 63 
       00:061A: 65 73 00 70 
       00:061E: 72 65 66 
  7588 00:0621: 65 72 65 6E  	db	$65,$72,$65,$6E,$63,$65,$73,$57,$69,$6E,
                    $64,$6F,$77,$43,$6C
       00:0625: 63 65 73 57 
       00:0629: 69 6E 64 6F 
       00:062D: 77 43 6C 
  7589 00:0630: 61 73 73 00  	db	$61,$73,$73,$00,$50,$72,$65,$66,$65,$72,
                    $65,$6E,$63,$65,$73
       00:0634: 50 72 65 66 
       00:0638: 65 72 65 6E 
       00:063C: 63 65 73 
  7590 00:063F: 00 70 72 65  	db	$00,$70,$72,$65,$66,$65,$72,$65,$6E,$63,
                    $65,$73,$57,$69,$6E
       00:0643: 66 65 72 65 
       00:0647: 6E 63 65 73 
       00:064B: 57 69 6E 
  7591 00:064E: 64 6F 77 43  	db	$64,$6F,$77,$43,$6C,$61,$73,$73,$00,$43,
                    $68,$69,$6C,$64,$31
  Mon Sep 27 2021  9:39                                                Page 153


       00:0652: 6C 61 73 73 
       00:0656: 00 43 68 69 
       00:065A: 6C 64 31 
  7592 00:065D: 00 70 72 65  	db	$00,$70,$72,$65,$66,$65,$72,$65,$6E,$63,
                    $65,$73,$57,$69,$6E
       00:0661: 66 65 72 65 
       00:0665: 6E 63 65 73 
       00:0669: 57 69 6E 
  7593 00:066C: 64 6F 77 43  	db	$64,$6F,$77,$43,$6C,$61,$73,$73,$00,$43,
                    $32,$00,$44,$69,$61
       00:0670: 6C 61 73 73 
       00:0674: 00 43 32 00 
       00:0678: 44 69 61 
  7594 00:067B: 6C 6F 67 20  	db	$6C,$6F,$67,$20,$41,$6C,$72,$65,$61,$64,
                    $79,$20,$4F,$70,$65
       00:067F: 41 6C 72 65 
       00:0683: 61 64 79 20 
       00:0687: 4F 70 65 
  7595 00:068A: 6E 0D 0A 00  	db	$6E,$0D,$0A,$00,$44,$45,$53,$4B,$5F,$4D,
                    $45,$4E,$55,$5F,$44
       00:068E: 44 45 53 4B 
       00:0692: 5F 4D 45 4E 
       00:0696: 55 5F 44 
  7596 00:0699: 42 47 5F 57  	db	$42,$47,$5F,$57,$49,$4E,$44,$4F,$57,$0D,
                    $0A,$00,$44,$65,$62
       00:069D: 49 4E 44 4F 
       00:06A1: 57 0D 0A 00 
       00:06A5: 44 65 62 
  7597 00:06A8: 75 67 20 57  	db	$75,$67,$20,$57,$69,$6E,$64,$6F,$77,$00,
                    $74,$65,$78,$74,$57
       00:06AC: 69 6E 64 6F 
       00:06B0: 77 00 74 65 
       00:06B4: 78 74 57 
  7598 00:06B7: 69 6E 64 6F  	db	$69,$6E,$64,$6F,$77,$43,$6C,$61,$73,$73,
                    $00,$54,$65,$78,$74
       00:06BB: 77 43 6C 61 
       00:06BF: 73 73 00 54 
       00:06C3: 65 78 74 
  7599 00:06C6: 20 57 69 6E  	db	$20,$57,$69,$6E,$64,$6F,$77,$00,$44,$65,
                    $62,$75,$67,$20,$57
       00:06CA: 64 6F 77 00 
       00:06CE: 44 65 62 75 
       00:06D2: 67 20 57 
  7600 00:06D5: 69 6E 64 6F  	db	$69,$6E,$64,$6F,$77,$20,$41,$6C,$72,$65,
                    $61,$64,$79,$20,$4F
       00:06D9: 77 20 41 6C 
       00:06DD: 72 65 61 64 
       00:06E1: 79 20 4F 
  7601 00:06E4: 70 65 6E 0D  	db	$70,$65,$6E,$0D,$0A,$00,$44,$45,$53,$4B,
                    $5F,$4D,$45,$4E,$55
       00:06E8: 0A 00 44 45 
       00:06EC: 53 4B 5F 4D 
       00:06F0: 45 4E 55 
  7602 00:06F3: 5F 44 42 47  	db	$5F,$44,$42,$47,$5F,$53,$45,$4C,$45,$43,
                    $54,$0D,$0A,$00,$48
       00:06F7: 5F 53 45 4C 
       00:06FB: 45 43 54 0D 
       00:06FF: 0A 00 48 
  Mon Sep 27 2021  9:39                                                Page 154


  7603 00:0702: 4F 55 52 47  	db	$4F,$55,$52,$47,$4C,$41,$53,$53,$00,$48,
                    $45,$4C,$50,$00,$41
       00:0706: 4C 41 53 53 
       00:070A: 00 48 45 4C 
       00:070E: 50 00 41 
  7604 00:0711: 52 52 4F 57  	db	$52,$52,$4F,$57,$00,$52,$45,$53,$49,$5A,
                    $45,$00,$57,$61,$72
       00:0715: 00 52 45 53 
       00:0719: 49 5A 45 00 
       00:071D: 57 61 72 
  7605 00:0720: 6E 20 41 62  	db	$6E,$20,$41,$62,$6F,$75,$74,$20,$53,$6F,
                    $6D,$65,$74,$68,$69
       00:0724: 6F 75 74 20 
       00:0728: 53 6F 6D 65 
       00:072C: 74 68 69 
  7606 00:072F: 6E 67 00 53  	db	$6E,$67,$00,$53,$74,$6F,$70,$2C,$20,$44,
                    $6F,$6E,$27,$74,$20
       00:0733: 74 6F 70 2C 
       00:0737: 20 44 6F 6E 
       00:073B: 27 74 20 
  7607 00:073E: 64 6F 20 69  	db	$64,$6F,$20,$69,$74,$21,$00,$6B,$5F,$67,
                    $75,$69,$5F,$67,$65
       00:0742: 74 21 00 6B 
       00:0746: 5F 67 75 69 
       00:074A: 5F 67 65 
  7608 00:074D: 74 5F 70 69  	db	$74,$5F,$70,$69,$78,$65,$6C,$5F,$6F,$66,
                    $66,$73,$65,$74,$3A
       00:0751: 78 65 6C 5F 
       00:0755: 6F 66 66 73 
       00:0759: 65 74 3A 
  7609 00:075C: 00 44 65 73  	db	$00,$44,$65,$73,$6B,$74,$6F,$70,$57,$69,
                    $6E,$64,$6F,$77,$50
       00:0760: 6B 74 6F 70 
       00:0764: 57 69 6E 64 
       00:0768: 6F 77 50 
  7610 00:076B: 72 6F 63 3A  	db	$72,$6F,$63,$3A,$3A,$46,$58,$5F,$4B,$45,
                    $59,$5F,$53,$43,$41
       00:076F: 3A 46 58 5F 
       00:0773: 4B 45 59 5F 
       00:0777: 53 43 41 
  7611 00:077A: 4E 43 4F 44  	db	$4E,$43,$4F,$44,$45,$3A,$00,$44,$65,$73,
                    $6B,$74,$6F,$70,$57
       00:077E: 45 3A 00 44 
       00:0782: 65 73 6B 74 
       00:0786: 6F 70 57 
  7612 00:0789: 69 6E 64 6F  	db	$69,$6E,$64,$6F,$77,$50,$72,$6F,$63,$3A,
                    $3A,$46,$58,$5F,$4B
       00:078D: 77 50 72 6F 
       00:0791: 63 3A 3A 46 
       00:0795: 58 5F 4B 
  7613 00:0798: 45 59 5F 53  	db	$45,$59,$5F,$53,$43,$41,$4E,$43,$4F,$44,
                    $45,$20,$45,$58,$54
       00:079C: 43 41 4E 43 
       00:07A0: 4F 44 45 20 
       00:07A4: 45 58 54 
  7614 00:07A7: 3A 00 44 65  	db	$3A,$00,$44,$65,$73,$6B,$74,$6F,$70,$57,
                    $69,$6E,$64,$6F,$77
       00:07AB: 73 6B 74 6F 
  Mon Sep 27 2021  9:39                                                Page 155


       00:07AF: 70 57 69 6E 
       00:07B3: 64 6F 77 
  7615 00:07B6: 50 72 6F 63  	db	$50,$72,$6F,$63,$3A,$3A,$46,$58,$5F,$4B,
                    $45,$59,$5F,$55,$50
       00:07BA: 3A 3A 46 58 
       00:07BE: 5F 4B 45 59 
       00:07C2: 5F 55 50 
  7616 00:07C5: 20 53 43 41  	db	$20,$53,$43,$41,$4E,$43,$4F,$44,$45,$3A,
                    $00,$44,$65,$73,$6B
       00:07C9: 4E 43 4F 44 
       00:07CD: 45 3A 00 44 
       00:07D1: 65 73 6B 
  7617 00:07D4: 74 6F 70 57  	db	$74,$6F,$70,$57,$69,$6E,$64,$6F,$77,$50,
                    $72,$6F,$63,$3A,$3A
       00:07D8: 69 6E 64 6F 
       00:07DC: 77 50 72 6F 
       00:07E0: 63 3A 3A 
  7618 00:07E3: 46 58 5F 4B  	db	$46,$58,$5F,$4B,$45,$59,$5F,$55,$50,$20,
                    $43,$48,$41,$52,$3A
       00:07E7: 45 59 5F 55 
       00:07EB: 50 20 43 48 
       00:07EF: 41 52 3A 
  7619 00:07F2: 00 44 65 73  	db	$00,$44,$65,$73,$6B,$74,$6F,$70,$57,$69,
                    $6E,$64,$6F,$77,$50
       00:07F6: 6B 74 6F 70 
       00:07FA: 57 69 6E 64 
       00:07FE: 6F 77 50 
  7620 00:0801: 72 6F 63 3A  	db	$72,$6F,$63,$3A,$3A,$46,$58,$5F,$4B,$45,
                    $59,$5F,$44,$4F,$57
       00:0805: 3A 46 58 5F 
       00:0809: 4B 45 59 5F 
       00:080D: 44 4F 57 
  7621 00:0810: 4E 20 53 43  	db	$4E,$20,$53,$43,$41,$4E,$43,$4F,$44,$45,
                    $3A,$00,$44,$65,$73
       00:0814: 41 4E 43 4F 
       00:0818: 44 45 3A 00 
       00:081C: 44 65 73 
  7622 00:081F: 6B 74 6F 70  	db	$6B,$74,$6F,$70,$57,$69,$6E,$64,$6F,$77,
                    $50,$72,$6F,$63,$3A
       00:0823: 57 69 6E 64 
       00:0827: 6F 77 50 72 
       00:082B: 6F 63 3A 
  7623 00:082E: 3A 46 58 5F  	db	$3A,$46,$58,$5F,$4B,$45,$59,$5F,$44,$4F,
                    $57,$4E,$20,$43,$48
       00:0832: 4B 45 59 5F 
       00:0836: 44 4F 57 4E 
       00:083A: 20 43 48 
  7624 00:083D: 41 52 3A 00  	db	$41,$52,$3A,$00,$44,$65,$73,$6B,$74,$6F,
                    $70,$57,$69,$6E,$64
       00:0841: 44 65 73 6B 
       00:0845: 74 6F 70 57 
       00:0849: 69 6E 64 
  7625 00:084C: 6F 77 50 72  	db	$6F,$77,$50,$72,$6F,$63,$3A,$3A,$5F,$6B,
                    $5F,$64,$65,$73,$6B
       00:0850: 6F 63 3A 3A 
       00:0854: 5F 6B 5F 64 
       00:0858: 65 73 6B 
  7626 00:085B: 74 6F 70 4D  	db	$74,$6F,$70,$4D,$65,$6E,$75,$53,$74,$61,
  Mon Sep 27 2021  9:39                                                Page 156


                    $74,$65,$2E,$76,$69
       00:085F: 65 6E 75 53 
       00:0863: 74 61 74 65 
       00:0867: 2E 76 69 
  7627 00:086A: 73 69 62 6C  	db	$73,$69,$62,$6C,$65,$28,$43,$4C,$4F,$53,
                    $45,$29,$3A,$00,$44
       00:086E: 65 28 43 4C 
       00:0872: 4F 53 45 29 
       00:0876: 3A 00 44 
  7628 00:0879: 65 73 6B 74  	db	$65,$73,$6B,$74,$6F,$70,$57,$69,$6E,$64,
                    $6F,$77,$50,$72,$6F
       00:087D: 6F 70 57 69 
       00:0881: 6E 64 6F 77 
       00:0885: 50 72 6F 
  7629 00:0888: 63 3A 3A 5F  	db	$63,$3A,$3A,$5F,$6B,$5F,$64,$65,$73,$6B,
                    $74,$6F,$70,$4D,$65
       00:088C: 6B 5F 64 65 
       00:0890: 73 6B 74 6F 
       00:0894: 70 4D 65 
  7630 00:0897: 6E 75 53 74  	db	$6E,$75,$53,$74,$61,$74,$65,$2E,$76,$69,
                    $73,$69,$62,$6C,$65
       00:089B: 61 74 65 2E 
       00:089F: 76 69 73 69 
       00:08A3: 62 6C 65 
  7631 00:08A6: 28 4F 50 45  	db	$28,$4F,$50,$45,$4E,$29,$3A,$00,$44,$65,
                    $73,$6B,$74,$6F,$70
       00:08AA: 4E 29 3A 00 
       00:08AE: 44 65 73 6B 
       00:08B2: 74 6F 70 
  7632 00:08B5: 57 69 6E 64  	db	$57,$69,$6E,$64,$6F,$77,$50,$72,$6F,$63,
                    $3A,$3A,$46,$58,$5F
       00:08B9: 6F 77 50 72 
       00:08BD: 6F 63 3A 3A 
       00:08C1: 46 58 5F 
  7633 00:08C4: 4B 45 59 5F  	db	$4B,$45,$59,$5F,$44,$4F,$57,$4E,$3A,$00,
                    $44,$65,$73,$6B,$74
       00:08C8: 44 4F 57 4E 
       00:08CC: 3A 00 44 65 
       00:08D0: 73 6B 74 
  7634 00:08D3: 6F 70 57 69  	db	$6F,$70,$57,$69,$6E,$64,$6F,$77,$50,$72,
                    $6F,$63,$3A,$3A,$43
       00:08D7: 6E 64 6F 77 
       00:08DB: 50 72 6F 63 
       00:08DF: 3A 3A 43 
  7635 00:08E2: 61 6C 6C 69  	db	$61,$6C,$6C,$69,$6E,$67,$20,$6B,$5F,$75,
                    $73,$65,$72,$5F,$53
       00:08E6: 6E 67 20 6B 
       00:08EA: 5F 75 73 65 
       00:08EE: 72 5F 53 
  7636 00:08F1: 65 6E 64 4D  	db	$65,$6E,$64,$4D,$65,$6E,$75,$41,$63,$63,
                    $65,$6C,$65,$72,$61
       00:08F5: 65 6E 75 41 
       00:08F9: 63 63 65 6C 
       00:08FD: 65 72 61 
  7637 00:0900: 74 6F 72 3A  	db	$74,$6F,$72,$3A,$00,$44,$65,$73,$6B,$74,
                    $6F,$70,$57,$69,$6E
       00:0904: 00 44 65 73 
       00:0908: 6B 74 6F 70 
  Mon Sep 27 2021  9:39                                                Page 157


       00:090C: 57 69 6E 
  7638 00:090F: 64 6F 77 50  	db	$64,$6F,$77,$50,$72,$6F,$63,$3A,$3A,$43,
                    $61,$6C,$6C,$69,$6E
       00:0913: 72 6F 63 3A 
       00:0917: 3A 43 61 6C 
       00:091B: 6C 69 6E 
  7639 00:091E: 67 20 6B 5F  	db	$67,$20,$6B,$5F,$75,$73,$65,$72,$5F,$48,
                    $69,$67,$68,$6C,$69
       00:0922: 75 73 65 72 
       00:0926: 5F 48 69 67 
       00:092A: 68 6C 69 
  7640 00:092D: 67 68 74 4D  	db	$67,$68,$74,$4D,$65,$6E,$75,$3A,$00,$55,
                    $50,$00,$44,$65,$73
       00:0931: 65 6E 75 3A 
       00:0935: 00 55 50 00 
       00:0939: 44 65 73 
  7641 00:093C: 6B 74 6F 70  	db	$6B,$74,$6F,$70,$57,$69,$6E,$64,$6F,$77,
                    $50,$72,$6F,$63,$3A
       00:0940: 57 69 6E 64 
       00:0944: 6F 77 50 72 
       00:0948: 6F 63 3A 
  7642 00:094B: 3A 43 61 6C  	db	$3A,$43,$61,$6C,$6C,$69,$6E,$67,$20,$6B,
                    $5F,$75,$73,$65,$72
       00:094F: 6C 69 6E 67 
       00:0953: 20 6B 5F 75 
       00:0957: 73 65 72 
  7643 00:095A: 5F 48 69 67  	db	$5F,$48,$69,$67,$68,$6C,$69,$67,$68,$74,
                    $4D,$65,$6E,$75,$3A
       00:095E: 68 6C 69 67 
       00:0962: 68 74 4D 65 
       00:0966: 6E 75 3A 
  7644 00:0969: 00 44 4F 57  	db	$00,$44,$4F,$57,$4E,$00,$44,$65,$73,$6B,
                    $74,$6F,$70,$57,$69
       00:096D: 4E 00 44 65 
       00:0971: 73 6B 74 6F 
       00:0975: 70 57 69 
  7645 00:0978: 6E 64 6F 77  	db	$6E,$64,$6F,$77,$50,$72,$6F,$63,$3A,$3A,
                    $5F,$6B,$5F,$64,$65
       00:097C: 50 72 6F 63 
       00:0980: 3A 3A 5F 6B 
       00:0984: 5F 64 65 
  7646 00:0987: 73 6B 74 6F  	db	$73,$6B,$74,$6F,$70,$4D,$65,$6E,$75,$53,
                    $74,$61,$74,$65,$2E
       00:098B: 70 4D 65 6E 
       00:098F: 75 53 74 61 
       00:0993: 74 65 2E 
  7647 00:0996: 70 4D 65 6E  	db	$70,$4D,$65,$6E,$75,$3A,$00,$44,$65,$73,
                    $6B,$74,$6F,$70,$57
       00:099A: 75 3A 00 44 
       00:099E: 65 73 6B 74 
       00:09A2: 6F 70 57 
  7648 00:09A5: 69 6E 64 6F  	db	$69,$6E,$64,$6F,$77,$50,$72,$6F,$63,$3A,
                    $3A,$43,$61,$6C,$6C
       00:09A9: 77 50 72 6F 
       00:09AD: 63 3A 3A 43 
       00:09B1: 61 6C 6C 
  7649 00:09B4: 69 6E 67 20  	db	$69,$6E,$67,$20,$6B,$5F,$75,$73,$65,$72,
                    $5F,$53,$65,$6C,$65
  Mon Sep 27 2021  9:39                                                Page 158


       00:09B8: 6B 5F 75 73 
       00:09BC: 65 72 5F 53 
       00:09C0: 65 6C 65 
  7650 00:09C3: 63 74 4D 65  	db	$63,$74,$4D,$65,$6E,$75,$3A,$00,$45,$4E,
                    $54,$45,$52,$00,$44
       00:09C7: 6E 75 3A 00 
       00:09CB: 45 4E 54 45 
       00:09CF: 52 00 44 
  7651 00:09D2: 65 73 6B 74  	db	$65,$73,$6B,$74,$6F,$70,$57,$69,$6E,$64,
                    $6F,$77,$50,$72,$6F
       00:09D6: 6F 70 57 69 
       00:09DA: 6E 64 6F 77 
       00:09DE: 50 72 6F 
  7652 00:09E1: 63 3A 3A 5F  	db	$63,$3A,$3A,$5F,$6B,$5F,$64,$65,$73,$6B,
                    $74,$6F,$70,$4D,$65
       00:09E5: 6B 5F 64 65 
       00:09E9: 73 6B 74 6F 
       00:09ED: 70 4D 65 
  7653 00:09F0: 6E 75 53 74  	db	$6E,$75,$53,$74,$61,$74,$65,$2E,$70,$4D,
                    $65,$6E,$75,$3A,$00
       00:09F4: 61 74 65 2E 
       00:09F8: 70 4D 65 6E 
       00:09FC: 75 3A 00 
  7654 00:09FF: 44 65 73 6B  	db	$44,$65,$73,$6B,$74,$6F,$70,$57,$69,$6E,
                    $64,$6F,$77,$50,$72
       00:0A03: 74 6F 70 57 
       00:0A07: 69 6E 64 6F 
       00:0A0B: 77 50 72 
  7655 00:0A0E: 6F 63 3A 3A  	db	$6F,$63,$3A,$3A,$43,$61,$6C,$6C,$69,$6E,
                    $67,$20,$6B,$5F,$75
       00:0A12: 43 61 6C 6C 
       00:0A16: 69 6E 67 20 
       00:0A1A: 6B 5F 75 
  7656 00:0A1D: 73 65 72 5F  	db	$73,$65,$72,$5F,$53,$65,$6C,$65,$63,$74,
                    $4D,$65,$6E,$75,$3A
       00:0A21: 53 65 6C 65 
       00:0A25: 63 74 4D 65 
       00:0A29: 6E 75 3A 
  7657 00:0A2C: 00 45 4E 54  	db	$00,$45,$4E,$54,$45,$52,$00,$44,$65,$73,
                    $6B,$74,$6F,$70,$57
       00:0A30: 45 52 00 44 
       00:0A34: 65 73 6B 74 
       00:0A38: 6F 70 57 
  7658 00:0A3B: 69 6E 64 6F  	db	$69,$6E,$64,$6F,$77,$50,$72,$6F,$63,$3A,
                    $3A,$44,$49,$53,$4B
       00:0A3F: 77 50 72 6F 
       00:0A43: 63 3A 3A 44 
       00:0A47: 49 53 4B 
  7659 00:0A4A: 2D 49 4E 53  	db	$2D,$49,$4E,$53,$45,$52,$54,$3A,$00,$4E,
                    $55,$4C,$4C,$00,$0D
       00:0A4E: 45 52 54 3A 
       00:0A52: 00 4E 55 4C 
       00:0A56: 4C 00 0D 
  7660 00:0A59: 0A 00 44 65  	db	$0A,$00,$44,$65,$73,$6B,$74,$6F,$70,$57,
                    $69,$6E,$64,$6F,$77
       00:0A5D: 73 6B 74 6F 
       00:0A61: 70 57 69 6E 
       00:0A65: 64 6F 77 
  Mon Sep 27 2021  9:39                                                Page 159


  7661 00:0A68: 50 72 6F 63  	db	$50,$72,$6F,$63,$3A,$3A,$44,$49,$53,$4B,
                    $2D,$49,$4E,$53,$45
       00:0A6C: 3A 3A 44 49 
       00:0A70: 53 4B 2D 49 
       00:0A74: 4E 53 45 
  7662 00:0A77: 52 54 3A 4E  	db	$52,$54,$3A,$4E,$4F,$2D,$43,$48,$41,$4E,
                    $47,$45,$0D,$0A,$00
       00:0A7B: 4F 2D 43 48 
       00:0A7F: 41 4E 47 45 
       00:0A83: 0D 0A 00 
  7663 00:0A86: 64 69 73 6B  	db	$64,$69,$73,$6B,$00,$69,$63,$6F,$6E,$00,
                    $44,$65,$73,$6B,$74
       00:0A8A: 00 69 63 6F 
       00:0A8E: 6E 00 44 65 
       00:0A92: 73 6B 74 
  7664 00:0A95: 6F 70 57 69  	db	$6F,$70,$57,$69,$6E,$64,$6F,$77,$50,$72,
                    $6F,$63,$3A,$3A,$44
       00:0A99: 6E 64 6F 77 
       00:0A9D: 50 72 6F 63 
       00:0AA1: 3A 3A 44 
  7665 00:0AA4: 49 53 4B 2D  	db	$49,$53,$4B,$2D,$49,$4E,$53,$45,$52,$54,
                    $3A,$44,$49,$53,$4B
       00:0AA8: 49 4E 53 45 
       00:0AAC: 52 54 3A 44 
       00:0AB0: 49 53 4B 
  7666 00:0AB3: 3A 00 44 65  	db	$3A,$00,$44,$65,$73,$6B,$74,$6F,$70,$57,
                    $69,$6E,$64,$6F,$77
       00:0AB7: 73 6B 74 6F 
       00:0ABB: 70 57 69 6E 
       00:0ABF: 64 6F 77 
  7667 00:0AC2: 50 72 6F 63  	db	$50,$72,$6F,$63,$3A,$3A,$44,$49,$53,$4B,
                    $2D,$52,$45,$4D,$4F
       00:0AC6: 3A 3A 44 49 
       00:0ACA: 53 4B 2D 52 
       00:0ACE: 45 4D 4F 
  7668 00:0AD1: 56 45 0D 0A  	db	$56,$45,$0D,$0A,$00,$44,$65,$73,$6B,$74,
                    $6F,$70,$57,$69,$6E
       00:0AD5: 00 44 65 73 
       00:0AD9: 6B 74 6F 70 
       00:0ADD: 57 69 6E 
  7669 00:0AE0: 64 6F 77 50  	db	$64,$6F,$77,$50,$72,$6F,$63,$3A,$3A,$44,
                    $49,$53,$4B,$2D,$52
       00:0AE4: 72 6F 63 3A 
       00:0AE8: 3A 44 49 53 
       00:0AEC: 4B 2D 52 
  7670 00:0AEF: 45 4D 4F 56  	db	$45,$4D,$4F,$56,$45,$3A,$44,$49,$53,$4B,
                    $3A,$00,$44,$65,$73
       00:0AF3: 45 3A 44 49 
       00:0AF7: 53 4B 3A 00 
       00:0AFB: 44 65 73 
  7671 00:0AFE: 6B 74 6F 70  	db	$6B,$74,$6F,$70,$57,$69,$6E,$64,$6F,$77,
                    $50,$72,$6F,$63,$3A
       00:0B02: 57 69 6E 64 
       00:0B06: 6F 77 50 72 
       00:0B0A: 6F 63 3A 
  7672 00:0B0D: 3A 44 49 53  	db	$3A,$44,$49,$53,$4B,$2D,$52,$45,$4D,$4F,
                    $56,$45,$3A,$62,$61
       00:0B11: 4B 2D 52 45 
  Mon Sep 27 2021  9:39                                                Page 160


       00:0B15: 4D 4F 56 45 
       00:0B19: 3A 62 61 
  7673 00:0B1C: 63 6B 67 72  	db	$63,$6B,$67,$72,$6F,$75,$6E,$64,$43,$6F,
                    $6C,$6F,$72,$3A,$00
       00:0B20: 6F 75 6E 64 
       00:0B24: 43 6F 6C 6F 
       00:0B28: 72 3A 00 
  7674 00:0B2B: 44 65 73 6B  	db	$44,$65,$73,$6B,$74,$6F,$70,$57,$69,$6E,
                    $64,$6F,$77,$50,$72
       00:0B2F: 74 6F 70 57 
       00:0B33: 69 6E 64 6F 
       00:0B37: 77 50 72 
  7675 00:0B3A: 6F 63 3A 3A  	db	$6F,$63,$3A,$3A,$46,$58,$5F,$41,$50,$50,
                    $5F,$4D,$45,$53,$53
       00:0B3E: 46 58 5F 41 
       00:0B42: 50 50 5F 4D 
       00:0B46: 45 53 53 
  7676 00:0B49: 41 47 45 0D  	db	$41,$47,$45,$0D,$0A,$00,$44,$65,$73,$6B,
                    $74,$6F,$70,$57,$69
       00:0B4D: 0A 00 44 65 
       00:0B51: 73 6B 74 6F 
       00:0B55: 70 57 69 
  7677 00:0B58: 6E 64 6F 77  	db	$6E,$64,$6F,$77,$50,$72,$6F,$63,$3A,$3A,
                    $46,$58,$5F,$41,$50
       00:0B5C: 50 72 6F 63 
       00:0B60: 3A 3A 46 58 
       00:0B64: 5F 41 50 
  7678 00:0B67: 50 5F 4D 45  	db	$50,$5F,$4D,$45,$53,$53,$41,$47,$45,$3A,
                    $74,$79,$70,$65,$3A
       00:0B6B: 53 53 41 47 
       00:0B6F: 45 3A 74 79 
       00:0B73: 70 65 3A 
  7679 00:0B76: 00 6D 73 67  	db	$00,$6D,$73,$67,$62,$6F,$78,$57,$69,$6E,
                    $64,$6F,$77,$43,$6C
       00:0B7A: 62 6F 78 57 
       00:0B7E: 69 6E 64 6F 
       00:0B82: 77 43 6C 
  7680 00:0B85: 61 73 73 00  	db	$61,$73,$73,$00,$44,$65,$73,$6B,$74,$6F,
                    $70,$57,$69,$6E,$64
       00:0B89: 44 65 73 6B 
       00:0B8D: 74 6F 70 57 
       00:0B91: 69 6E 64 
  7681 00:0B94: 6F 77 50 72  	db	$6F,$77,$50,$72,$6F,$63,$3A,$3A,$46,$58,
                    $5F,$4D,$4F,$55,$53
       00:0B98: 6F 63 3A 3A 
       00:0B9C: 46 58 5F 4D 
       00:0BA0: 4F 55 53 
  7682 00:0BA3: 45 5F 45 4E  	db	$45,$5F,$45,$4E,$54,$45,$52,$3A,$00,$44,
                    $65,$73,$6B,$74,$6F
       00:0BA7: 54 45 52 3A 
       00:0BAB: 00 44 65 73 
       00:0BAF: 6B 74 6F 
  7683 00:0BB2: 70 57 69 6E  	db	$70,$57,$69,$6E,$64,$6F,$77,$50,$72,$6F,
                    $63,$3A,$3A,$46,$58
       00:0BB6: 64 6F 77 50 
       00:0BBA: 72 6F 63 3A 
       00:0BBE: 3A 46 58 
  7684 00:0BC1: 5F 4D 4F 55  	db	$5F,$4D,$4F,$55,$53,$45,$5F,$45,$58,$49,
  Mon Sep 27 2021  9:39                                                Page 161


                    $54,$3A,$00,$44,$65
       00:0BC5: 53 45 5F 45 
       00:0BC9: 58 49 54 3A 
       00:0BCD: 00 44 65 
  7685 00:0BD0: 73 6B 74 6F  	db	$73,$6B,$74,$6F,$70,$57,$69,$6E,$64,$6F,
                    $77,$50,$72,$6F,$63
       00:0BD4: 70 57 69 6E 
       00:0BD8: 64 6F 77 50 
       00:0BDC: 72 6F 63 
  7686 00:0BDF: 3A 3A 46 58  	db	$3A,$3A,$46,$58,$5F,$52,$42,$55,$54,$54,
                    $4F,$4E,$5F,$44,$4F
       00:0BE3: 5F 52 42 55 
       00:0BE7: 54 54 4F 4E 
       00:0BEB: 5F 44 4F 
  7687 00:0BEE: 57 4E 0D 0A  	db	$57,$4E,$0D,$0A,$00,$44,$65,$73,$6B,$74,
                    $6F,$70,$57,$69,$6E
       00:0BF2: 00 44 65 73 
       00:0BF6: 6B 74 6F 70 
       00:0BFA: 57 69 6E 
  7688 00:0BFD: 64 6F 77 50  	db	$64,$6F,$77,$50,$72,$6F,$63,$3A,$3A,$46,
                    $58,$5F,$4C,$42,$55
       00:0C01: 72 6F 63 3A 
       00:0C05: 3A 46 58 5F 
       00:0C09: 4C 42 55 
  7689 00:0C0C: 54 54 4F 4E  	db	$54,$54,$4F,$4E,$5F,$44,$4F,$57,$4E,$0D,
                    $0A,$00,$44,$65,$73
       00:0C10: 5F 44 4F 57 
       00:0C14: 4E 0D 0A 00 
       00:0C18: 44 65 73 
  7690 00:0C1B: 6B 74 6F 70  	db	$6B,$74,$6F,$70,$57,$69,$6E,$64,$6F,$77,
                    $50,$72,$6F,$63,$3A
       00:0C1F: 57 69 6E 64 
       00:0C23: 6F 77 50 72 
       00:0C27: 6F 63 3A 
  7691 00:0C2A: 3A 46 58 5F  	db	$3A,$46,$58,$5F,$4C,$42,$55,$54,$54,$4F,
                    $4E,$5F,$55,$50,$0D
       00:0C2E: 4C 42 55 54 
       00:0C32: 54 4F 4E 5F 
       00:0C36: 55 50 0D 
  7692 00:0C39: 0A 00 44 65  	db	$0A,$00,$44,$65,$73,$6B,$74,$6F,$70,$57,
                    $69,$6E,$64,$6F,$77
       00:0C3D: 73 6B 74 6F 
       00:0C41: 70 57 69 6E 
       00:0C45: 64 6F 77 
  7693 00:0C48: 50 72 6F 63  	db	$50,$72,$6F,$63,$3A,$3A,$44,$45,$42,$55,
                    $47,$5F,$4D,$4F,$55
       00:0C4C: 3A 3A 44 45 
       00:0C50: 42 55 47 5F 
       00:0C54: 4D 4F 55 
  7694 00:0C57: 53 45 5F 42  	db	$53,$45,$5F,$42,$4F,$58,$49,$4E,$47,$3A,
                    $00,$44,$65,$73,$6B
       00:0C5B: 4F 58 49 4E 
       00:0C5F: 47 3A 00 44 
       00:0C63: 65 73 6B 
  7695 00:0C66: 74 6F 70 57  	db	$74,$6F,$70,$57,$69,$6E,$64,$6F,$77,$50,
                    $72,$6F,$63,$3A,$3A
       00:0C6A: 69 6E 64 6F 
       00:0C6E: 77 50 72 6F 
  Mon Sep 27 2021  9:39                                                Page 162


       00:0C72: 63 3A 3A 
  7696 00:0C75: 46 58 5F 4C  	db	$46,$58,$5F,$4C,$42,$55,$54,$54,$4F,$4E,
                    $5F,$44,$52,$41,$47
       00:0C79: 42 55 54 54 
       00:0C7D: 4F 4E 5F 44 
       00:0C81: 52 41 47 
  7697 00:0C84: 0D 0A 00 44  	db	$0D,$0A,$00,$44,$65,$73,$6B,$74,$6F,$70,
                    $57,$69,$6E,$64,$6F
       00:0C88: 65 73 6B 74 
       00:0C8C: 6F 70 57 69 
       00:0C90: 6E 64 6F 
  7698 00:0C93: 77 50 72 6F  	db	$77,$50,$72,$6F,$63,$3A,$3A,$46,$58,$5F,
                    $4C,$42,$55,$54,$54
       00:0C97: 63 3A 3A 46 
       00:0C9B: 58 5F 4C 42 
       00:0C9F: 55 54 54 
  7699 00:0CA2: 4F 4E 5F 44  	db	$4F,$4E,$5F,$44,$42,$4C,$43,$4C,$49,$43,
                    $4B,$0D,$0A,$00,$2A
       00:0CA6: 42 4C 43 4C 
       00:0CAA: 49 43 4B 0D 
       00:0CAE: 0A 00 2A 
  7700 00:0CB1: 2A 2A 2A 2A  	db	$2A,$2A,$2A,$2A,$2A,$2A,$2A,$2A,$2A,$2A,
                    $2A,$2A,$2A,$2A,$2A
       00:0CB5: 2A 2A 2A 2A 
       00:0CB9: 2A 2A 2A 2A 
       00:0CBD: 2A 2A 2A 
  7701 00:0CC0: 2A 2A 2A 2A  	db	$2A,$2A,$2A,$2A,$2A,$2A,$2A,$2A,$2A,$2A,
                    $2A,$2A,$2A,$2A,$2A
       00:0CC4: 2A 2A 2A 2A 
       00:0CC8: 2A 2A 2A 2A 
       00:0CCC: 2A 2A 2A 
  7702 00:0CCF: 2A 2A 0D 0A  	db	$2A,$2A,$0D,$0A,$44,$65,$73,$6B,$74,$6F,
                    $70,$57,$69,$6E,$64
       00:0CD3: 44 65 73 6B 
       00:0CD7: 74 6F 70 57 
       00:0CDB: 69 6E 64 
  7703 00:0CDE: 6F 77 50 72  	db	$6F,$77,$50,$72,$6F,$63,$3A,$3A,$44,$45,
                    $53,$4B,$54,$4F,$50
       00:0CE2: 6F 63 3A 3A 
       00:0CE6: 44 45 53 4B 
       00:0CEA: 54 4F 50 
  7704 00:0CED: 20 48 49 54  	db	$20,$48,$49,$54,$4C,$49,$53,$54,$4B,$0D,
                    $0A,$2A,$2A,$2A,$2A
       00:0CF1: 4C 49 53 54 
       00:0CF5: 4B 0D 0A 2A 
       00:0CF9: 2A 2A 2A 
  7705 00:0CFC: 2A 2A 2A 2A  	db	$2A,$2A,$2A,$2A,$2A,$2A,$2A,$2A,$2A,$2A,
                    $2A,$2A,$2A,$2A,$2A
       00:0D00: 2A 2A 2A 2A 
       00:0D04: 2A 2A 2A 2A 
       00:0D08: 2A 2A 2A 
  7706 00:0D0B: 2A 2A 2A 2A  	db	$2A,$2A,$2A,$2A,$2A,$2A,$2A,$2A,$2A,$2A,
                    $2A,$2A,$2A,$2A,$0D
       00:0D0F: 2A 2A 2A 2A 
       00:0D13: 2A 2A 2A 2A 
       00:0D17: 2A 2A 0D 
  7707 00:0D1A: 0A 00 2A 2A  	db	$0A,$00,$2A,$2A,$2A,$2A,$2A,$2A,$2A,$2A,
                    $2A,$2A,$2A,$2A,$2A
  Mon Sep 27 2021  9:39                                                Page 163


       00:0D1E: 2A 2A 2A 2A 
       00:0D22: 2A 2A 2A 2A 
       00:0D26: 2A 2A 2A 
  7708 00:0D29: 2A 2A 2A 2A  	db	$2A,$2A,$2A,$2A,$2A,$2A,$2A,$2A,$2A,$2A,
                    $2A,$2A,$2A,$2A,$2A
       00:0D2D: 2A 2A 2A 2A 
       00:0D31: 2A 2A 2A 2A 
       00:0D35: 2A 2A 2A 
  7709 00:0D38: 2A 2A 2A 2A  	db	$2A,$2A,$2A,$2A,$2A,$0D,$0A,$44,$65,$73,
                    $6B,$74,$6F,$70,$57
       00:0D3C: 2A 0D 0A 44 
       00:0D40: 65 73 6B 74 
       00:0D44: 6F 70 57 
  7710 00:0D47: 69 6E 64 6F  	db	$69,$6E,$64,$6F,$77,$50,$72,$6F,$63,$3A,
                    $3A,$47,$4C,$4F,$42
       00:0D4B: 77 50 72 6F 
       00:0D4F: 63 3A 3A 47 
       00:0D53: 4C 4F 42 
  7711 00:0D56: 41 4C 20 48  	db	$41,$4C,$20,$48,$49,$54,$4C,$49,$53,$54,
                    $4B,$0D,$0A,$2A,$2A
       00:0D5A: 49 54 4C 49 
       00:0D5E: 53 54 4B 0D 
       00:0D62: 0A 2A 2A 
  7712 00:0D65: 2A 2A 2A 2A  	db	$2A,$2A,$2A,$2A,$2A,$2A,$2A,$2A,$2A,$2A,
                    $2A,$2A,$2A,$2A,$2A
       00:0D69: 2A 2A 2A 2A 
       00:0D6D: 2A 2A 2A 2A 
       00:0D71: 2A 2A 2A 
  7713 00:0D74: 2A 2A 2A 2A  	db	$2A,$2A,$2A,$2A,$2A,$2A,$2A,$2A,$2A,$2A,
                    $2A,$2A,$2A,$2A,$2A
       00:0D78: 2A 2A 2A 2A 
       00:0D7C: 2A 2A 2A 2A 
       00:0D80: 2A 2A 2A 
  7714 00:0D83: 2A 0D 0A 00  	db	$2A,$0D,$0A,$00,$2A,$2A,$2A,$2A,$2A,$2A,
                    $2A,$2A,$2A,$2A,$2A
       00:0D87: 2A 2A 2A 2A 
       00:0D8B: 2A 2A 2A 2A 
       00:0D8F: 2A 2A 2A 
  7715 00:0D92: 2A 2A 2A 2A  	db	$2A,$2A,$2A,$2A,$2A,$2A,$2A,$2A,$2A,$2A,
                    $2A,$2A,$2A,$2A,$2A
       00:0D96: 2A 2A 2A 2A 
       00:0D9A: 2A 2A 2A 2A 
       00:0D9E: 2A 2A 2A 
  7716 00:0DA1: 2A 2A 2A 2A  	db	$2A,$2A,$2A,$2A,$2A,$2A,$2A,$0D,$0A,$44,
                    $65,$73,$6B,$74,$6F
       00:0DA5: 2A 2A 2A 0D 
       00:0DA9: 0A 44 65 73 
       00:0DAD: 6B 74 6F 
  7717 00:0DB0: 70 57 69 6E  	db	$70,$57,$69,$6E,$64,$6F,$77,$50,$72,$6F,
                    $63,$3A,$3A,$44,$45
       00:0DB4: 64 6F 77 50 
       00:0DB8: 72 6F 63 3A 
       00:0DBC: 3A 44 45 
  7718 00:0DBF: 53 4B 54 4F  	db	$53,$4B,$54,$4F,$50,$20,$57,$49,$4E,$44,
                    $4F,$57,$20,$4C,$49
       00:0DC3: 50 20 57 49 
       00:0DC7: 4E 44 4F 57 
       00:0DCB: 20 4C 49 
  Mon Sep 27 2021  9:39                                                Page 164


  7719 00:0DCE: 53 54 0D 0A  	db	$53,$54,$0D,$0A,$2A,$2A,$2A,$2A,$2A,$2A,
                    $2A,$2A,$2A,$2A,$2A
       00:0DD2: 2A 2A 2A 2A 
       00:0DD6: 2A 2A 2A 2A 
       00:0DDA: 2A 2A 2A 
  7720 00:0DDD: 2A 2A 2A 2A  	db	$2A,$2A,$2A,$2A,$2A,$2A,$2A,$2A,$2A,$2A,
                    $2A,$2A,$2A,$2A,$2A
       00:0DE1: 2A 2A 2A 2A 
       00:0DE5: 2A 2A 2A 2A 
       00:0DE9: 2A 2A 2A 
  7721 00:0DEC: 2A 2A 2A 2A  	db	$2A,$2A,$2A,$2A,$2A,$2A,$2A,$0D,$0A,$00,
                    $44,$65,$73,$6B,$74
       00:0DF0: 2A 2A 2A 0D 
       00:0DF4: 0A 00 44 65 
       00:0DF8: 73 6B 74 
  7722 00:0DFB: 6F 70 57 69  	db	$6F,$70,$57,$69,$6E,$64,$6F,$77,$50,$72,
                    $6F,$63,$3A,$3A,$46
       00:0DFF: 6E 64 6F 77 
       00:0E03: 50 72 6F 63 
       00:0E07: 3A 3A 46 
  7723 00:0E0A: 58 5F 57 49  	db	$58,$5F,$57,$49,$4E,$44,$4F,$57,$5F,$54,
                    $4F,$46,$52,$4F,$4E
       00:0E0E: 4E 44 4F 57 
       00:0E12: 5F 54 4F 46 
       00:0E16: 52 4F 4E 
  7724 00:0E19: 54 0D 0A 00  	db	$54,$0D,$0A,$00,$44,$65,$73,$6B,$74,$6F,
                    $70,$57,$69,$6E,$64
       00:0E1D: 44 65 73 6B 
       00:0E21: 74 6F 70 57 
       00:0E25: 69 6E 64 
  7725 00:0E28: 6F 77 50 72  	db	$6F,$77,$50,$72,$6F,$63,$3A,$3A,$46,$58,
                    $5F,$57,$49,$4E,$44
       00:0E2C: 6F 63 3A 3A 
       00:0E30: 46 58 5F 57 
       00:0E34: 49 4E 44 
  7726 00:0E37: 4F 57 5F 54  	db	$4F,$57,$5F,$54,$4F,$42,$41,$43,$4B,$0D,
                    $0A,$00
       00:0E3B: 4F 42 41 43 
       00:0E3F: 4B 0D 0A 00 
  7727 00:0E43:              	ends
  7728                        ;
  7729                        ;BOOL ConsoleWindowProc(PFXOSMESSAGE pMsg)
  7730                        ;{
  7731                        	.line	1308
  7732                        	.line	1309
  7733                        	DTOP
  7734                        	xdef	~~ConsoleWindowProc
  7735                        	func
  7736                        	.function	1309
  7737                        ~~ConsoleWindowProc:
  7738                        	longa	on
  7739                        	longi	on
  7740 09:20FC: 3B           	tsc
  7741 09:20FD: 38           	sec
  7742 09:20FE: E9 46 00     	sbc	#L138
  7743 09:2101: 1B           	tcs
  7744 09:2102: 0B           	phd
  7745 09:2103: 5B           	tcd
  Mon Sep 27 2021  9:39                                                Page 165


  7746             00000004   pMsg_0	set	4
  7747                        	.block	1309
  7748                        ;	PFXPROCESS p = NULL;
  7749                        ;	PWINDOW pWin = NULL;
  7750                        ;	PFXSTRING strTitle = NULL;
  7751                        ;	INT index = 0;
  7752                        ;	RECT winRect;
  7753                        ;	RECT r;
  7754                        ;	CHAR buffer[16];
  7755                        ;
  7756                        ;
  7757                        ;	if(pMsg!=NULL)
  7758             00000000   p_1	set	0
  7759             00000004   pWin_1	set	4
  7760             00000008   strTitle_1	set	8
  7761             0000000C   index_1	set	12
  7762             0000000E   winRect_1	set	14
  7763             0000001C   r_1	set	28
  7764             0000002A   buffer_1	set	42
  7765                        	.sym	p,0,138,1,32,17
  7766                        	.sym	pWin,4,138,1,32,30
  7767                        	.sym	strTitle,8,138,1,32,52
  7768                        	.sym	index,12,5,1,16
  7769                        	.sym	winRect,14,10,1,112,23
  7770                        	.sym	r,28,10,1,112,23
  7771                        	.sym	buffer,42,110,1,0,16
  7772                        	.sym	pMsg,4,138,6,32,13
  7773 09:2104: 64 0D        	stz	<L139+p_1
  7774 09:2106: 64 0F        	stz	<L139+p_1+2
  7775 09:2108: 64 11        	stz	<L139+pWin_1
  7776 09:210A: 64 13        	stz	<L139+pWin_1+2
  7777 09:210C: 64 15        	stz	<L139+strTitle_1
  7778 09:210E: 64 17        	stz	<L139+strTitle_1+2
  7779 09:2110: 64 19        	stz	<L139+index_1
  7780                        	.line	1319
  7781                        ;	{
  7782 09:2112: A5 4A        	lda	<L138+pMsg_0
  7783 09:2114: 05 4C        	ora	<L138+pMsg_0+2
  7784 09:2116: D0 03        	bne	L141
  7785 09:2118: 82 5D 03     	brl	L10143
  7786                        L141:
  7787                        	.line	1320
  7788                        ;		p = k_exec_get_current_process();
  7789                        	.line	1321
  7790 09:211B: 22 xx xx xx  	jsl	~~k_exec_get_current_process
  7791 09:211F: 85 0D        	sta	<L139+p_1
  7792 09:2121: 86 0F        	stx	<L139+p_1+2
  7793                        ;		pWin = (PWINDOW)pMsg->hwnd;
  7794                        	.line	1322
  7795 09:2123: A0 0A 00     	ldy	#$a
  7796 09:2126: B7 4A        	lda	[<L138+pMsg_0],Y
  7797 09:2128: 85 11        	sta	<L139+pWin_1
  7798 09:212A: A0 0C 00     	ldy	#$c
  7799 09:212D: B7 4A        	lda	[<L138+pMsg_0],Y
  7800 09:212F: 85 13        	sta	<L139+pWin_1+2
  7801                        ;		//k_debug_long("consoleWindowProc::Proce
                    ssId:",p->procId);
  7802                        ;
  Mon Sep 27 2021  9:39                                                Page 166


  7803                        ;		switch(pMsg->type)
  7804                        	.line	1325
  7805 09:2131: A0 08 00     	ldy	#$8
  7806 09:2134: B7 4A        	lda	[<L138+pMsg_0],Y
  7807 09:2136: 82 0B 03     	brl	L10144
  7808                        ;		{
  7809                        	.line	1326
  7810                        ;		case FX_CREATE_WINDOW:
  7811                        	.line	1327
  7812                        L10146:
  7813                        ;			if(p)
  7814                        	.line	1328
  7815                        ;			{
  7816 09:2139: A5 0D        	lda	<L139+p_1
  7817 09:213B: 05 0F        	ora	<L139+p_1+2
  7818 09:213D: D0 03        	bne	L142
  7819 09:213F: 82 3F 00     	brl	L10147
  7820                        L142:
  7821                        	.line	1329
  7822                        ;				k_debug_long("testWindow
                    Proc::FX_CREATE_WINDOW:",p->procId);
  7823                        	.line	1330
  7824 09:2142: A0 04 00     	ldy	#$4
  7825 09:2145: B7 0D        	lda	[<L139+p_1],Y
  7826 09:2147: 48           	pha
  7827 09:2148: A0 02 00     	ldy	#$2
  7828 09:214B: B7 0D        	lda	[<L139+p_1],Y
  7829 09:214D: 48           	pha
  7830 09:214E: F4 xx xx     	pea	#^L137
  7831 09:2151: F4 xx xx     	pea	#<L137
  7832 09:2154: 22 xx xx xx  	jsl	~~k_debug_long
  7833                        ;				//k_debug_integer("testW
                    indowProc::MessageId:",pMsg->type);
  7834                        ;
  7835                        ;				pWin->hBackground = COLO
                    RBRUSH(86);
  7836                        	.line	1333
  7837 09:2158: A9 56 00     	lda	#$56
  7838 09:215B: A0 B8 01     	ldy	#$1b8
  7839 09:215E: 97 11        	sta	[<L139+pWin_1],Y
  7840 09:2160: A9 00 00     	lda	#$0
  7841 09:2163: A0 BA 01     	ldy	#$1ba
  7842 09:2166: 97 11        	sta	[<L139+pWin_1],Y
  7843                        ;
  7844                        ;				//k_user_SetWindowData(p
                    Msg->hwnd,4,k_mem_allocate_heap(sizeof(TEXTVIEWDATA)));
  7845                        ;
  7846                        ;				k_user_SetWindowData(pMs
                    g->hwnd,4,NULL);
  7847                        	.line	1337
  7848 09:2168: F4 00 00     	pea	#^$0
  7849 09:216B: F4 00 00     	pea	#<$0
  7850 09:216E: F4 04 00     	pea	#<$4
  7851 09:2171: A0 0C 00     	ldy	#$c
  7852 09:2174: B7 4A        	lda	[<L138+pMsg_0],Y
  7853 09:2176: 48           	pha
  7854 09:2177: A0 0A 00     	ldy	#$a
  7855 09:217A: B7 4A        	lda	[<L138+pMsg_0],Y
  Mon Sep 27 2021  9:39                                                Page 167


  7856 09:217C: 48           	pha
  7857 09:217D: 22 xx xx xx  	jsl	~~k_user_SetWindowData
  7858                        ;
  7859                        ;				/*
  7860                        ;				strTitle = k_fxstring_ne
                    w("View:",32);
  7861                        ;				k_fxstring_add(strTitle,
                    "FILENAME");
  7862                        ;				if(strTitle)
  7863                        ;				{
  7864                        ;					k_user_SetWindow
                    Title(pMsg->hwnd,strTitle->buffer);
  7865                        ;					//k_mem_dealloca
                    te_heap(strTitle);
  7866                        ;
  7867                        ;					k_fxstring_free(
                    strTitle);
  7868                        ;
  7869                        ;					k_debug_strings(
                    "testWindowProc::FX_CREATE_WINDOW:Title:",pWin->win_title);
  7870                        ;					//k_send_window_
                    message(pMsg->hwnd,FX_DRAW_NONCLIENT,NULL,0);
  7871                        ;				}
  7872                        ;				*/
  7873                        ;			}
  7874                        	.line	1353
  7875                        ;			break;
  7876                        L10147:
  7877                        	.line	1354
  7878 09:2181: 82 F4 02     	brl	L10145
  7879                        ;		case FX_DRAW_WINDOW:
  7880                        	.line	1355
  7881                        L10148:
  7882                        ;			//k_debug_rect("testWindowProc::
                    FX_DRAW_WINDOW:",&pWin->clientRect);
  7883                        ;			k_debug_pointer("testWindowProc:
                    :FX_DRAW_WINDOW:",k_user_GetWindowData(pMsg->hwnd,4));
  7884                        	.line	1357
  7885 09:2184: F4 04 00     	pea	#<$4
  7886 09:2187: A0 0C 00     	ldy	#$c
  7887 09:218A: B7 4A        	lda	[<L138+pMsg_0],Y
  7888 09:218C: 48           	pha
  7889 09:218D: A0 0A 00     	ldy	#$a
  7890 09:2190: B7 4A        	lda	[<L138+pMsg_0],Y
  7891 09:2192: 48           	pha
  7892 09:2193: 22 xx xx xx  	jsl	~~k_user_GetWindowData
  7893 09:2197: 85 01        	sta	<R0
  7894 09:2199: 86 03        	stx	<R0+2
  7895 09:219B: DA           	phx
  7896 09:219C: 48           	pha
  7897 09:219D: F4 xx xx     	pea	#^L137+34
  7898 09:21A0: F4 xx xx     	pea	#<L137+34
  7899 09:21A3: 22 xx xx xx  	jsl	~~k_debug_pointer
  7900                        ;
  7901                        ;			//index = (INT)((ULONG)k_user_Ge
                    tWindowData(pMsg->hwnd,4));
  7902                        ;			//k_debug_integer("testWindowPro
                    c::FX_DRAW_WINDOW:index:",index);
  Mon Sep 27 2021  9:39                                                Page 168


  7903                        ;
  7904                        ;			k_vdma_fill_rect_ex(pWin->client
                    Rect.x,
  7905                        	.line	1362
  7906                        ;					            pWin
                    ->clientRect.y,
  7907                        ;					            pWin
                    ->clientRect.width ,
  7908                        ;							
                    	pWin->clientRect.height,
  7909                        ;							
                    	BRUSHCOLOR(pWin->hBackground),
  7910                        ;							
                    	pWin->nBitmapLayer);
  7911 09:21A7: A0 9E 01     	ldy	#$19e
  7912 09:21AA: B7 11        	lda	[<L139+pWin_1],Y
  7913 09:21AC: 48           	pha
  7914 09:21AD: A0 B8 01     	ldy	#$1b8
  7915 09:21B0: B7 11        	lda	[<L139+pWin_1],Y
  7916 09:21B2: 48           	pha
  7917 09:21B3: A0 34 00     	ldy	#$34
  7918 09:21B6: B7 11        	lda	[<L139+pWin_1],Y
  7919 09:21B8: 48           	pha
  7920 09:21B9: A0 32 00     	ldy	#$32
  7921 09:21BC: B7 11        	lda	[<L139+pWin_1],Y
  7922 09:21BE: 48           	pha
  7923 09:21BF: A0 00 00     	ldy	#$0
  7924 09:21C2: 5A           	phy
  7925 09:21C3: A0 2C 00     	ldy	#$2c
  7926 09:21C6: B7 11        	lda	[<L139+pWin_1],Y
  7927 09:21C8: 7A           	ply
  7928 09:21C9: 2A           	rol	A
  7929 09:21CA: 6A           	ror	A
  7930 09:21CB: 10 01        	bpl	L143
  7931 09:21CD: 88           	dey
  7932                        L143:
  7933 09:21CE: 85 01        	sta	<R0
  7934 09:21D0: 84 03        	sty	<R0+2
  7935 09:21D2: D4 03        	pei	<R0+2
  7936 09:21D4: D4 01        	pei	<R0
  7937 09:21D6: A0 00 00     	ldy	#$0
  7938 09:21D9: 5A           	phy
  7939 09:21DA: A0 2A 00     	ldy	#$2a
  7940 09:21DD: B7 11        	lda	[<L139+pWin_1],Y
  7941 09:21DF: 7A           	ply
  7942 09:21E0: 2A           	rol	A
  7943 09:21E1: 6A           	ror	A
  7944 09:21E2: 10 01        	bpl	L144
  7945 09:21E4: 88           	dey
  7946                        L144:
  7947 09:21E5: 85 05        	sta	<R1
  7948 09:21E7: 84 07        	sty	<R1+2
  7949 09:21E9: D4 07        	pei	<R1+2
  7950 09:21EB: D4 05        	pei	<R1
  7951 09:21ED: 22 xx xx xx  	jsl	~~k_vdma_fill_rect_ex
  7952                        ;
  7953                        ;
  7954                        ;			/*
  Mon Sep 27 2021  9:39                                                Page 169


  7955                        ;			r.x = pWin->clientRect.x + 10;
  7956                        ;			r.y = pWin->clientRect.y + 10;
  7957                        ;			r.width = pWin->clientRect.width
                    ;
  7958                        ;			r.height = pWin->clientRect.heig
                    ht;
  7959                        ;
  7960                        ;			k_gui_DrawText ((HWND)pWin,
  7961                        ;							
                    k_string_itoa(dcount,buffer,10) ,
  7962                        ;							
                    k_user_getFontClass("ToshibaLCD8x8"),
  7963                        ;							
                    DTS_LEFTJUSTIFY,// | DTS_NOCLIP,
  7964                        ;							
                    &r,
  7965                        ;							
                    15,
  7966                        ;							
                    pWin->nBitmapLayer);
  7967                        ;
  7968                        ;			dcount++;
  7969                        ;			*/
  7970                        ;
  7971                        ;			if(k_user_GetWindowData(pMsg->hw
                    nd,4) && ((PTEXTVIEWDATA)k_user_GetWindowData(pMsg->hwnd,4))
                    ->contents)
  7972                        	.line	1387
  7973                        ;			{
  7974 09:21F1: F4 04 00     	pea	#<$4
  7975 09:21F4: A0 0C 00     	ldy	#$c
  7976 09:21F7: B7 4A        	lda	[<L138+pMsg_0],Y
  7977 09:21F9: 48           	pha
  7978 09:21FA: A0 0A 00     	ldy	#$a
  7979 09:21FD: B7 4A        	lda	[<L138+pMsg_0],Y
  7980 09:21FF: 48           	pha
  7981 09:2200: 22 xx xx xx  	jsl	~~k_user_GetWindowData
  7982 09:2204: 85 01        	sta	<R0
  7983 09:2206: 86 03        	stx	<R0+2
  7984 09:2208: A5 01        	lda	<R0
  7985 09:220A: 05 03        	ora	<R0+2
  7986 09:220C: D0 03        	bne	L145
  7987 09:220E: 82 AD 00     	brl	L10149
  7988                        L145:
  7989 09:2211: F4 04 00     	pea	#<$4
  7990 09:2214: A0 0C 00     	ldy	#$c
  7991 09:2217: B7 4A        	lda	[<L138+pMsg_0],Y
  7992 09:2219: 48           	pha
  7993 09:221A: A0 0A 00     	ldy	#$a
  7994 09:221D: B7 4A        	lda	[<L138+pMsg_0],Y
  7995 09:221F: 48           	pha
  7996 09:2220: 22 xx xx xx  	jsl	~~k_user_GetWindowData
  7997 09:2224: 85 01        	sta	<R0
  7998 09:2226: 86 03        	stx	<R0+2
  7999 09:2228: A7 01        	lda	[<R0]
  8000 09:222A: A0 02 00     	ldy	#$2
  8001 09:222D: 17 01        	ora	[<R0],Y
  8002 09:222F: D0 03        	bne	L146
  Mon Sep 27 2021  9:39                                                Page 170


  8003 09:2231: 82 8A 00     	brl	L10149
  8004                        L146:
  8005                        	.line	1388
  8006                        ;				r.x = pWin->clientRect.x
                     + 10;
  8007                        	.line	1389
  8008 09:2234: 18           	clc
  8009 09:2235: A9 0A 00     	lda	#$a
  8010 09:2238: A0 2A 00     	ldy	#$2a
  8011 09:223B: 77 11        	adc	[<L139+pWin_1],Y
  8012 09:223D: 85 29        	sta	<L139+r_1
  8013                        ;				r.y = pWin->clientRect.y
                     + 10;
  8014                        	.line	1390
  8015 09:223F: 18           	clc
  8016 09:2240: A9 0A 00     	lda	#$a
  8017 09:2243: A0 2C 00     	ldy	#$2c
  8018 09:2246: 77 11        	adc	[<L139+pWin_1],Y
  8019 09:2248: 85 2B        	sta	<L139+r_1+2
  8020                        ;				r.width = pWin->clientRe
                    ct.width - 20;
  8021                        	.line	1391
  8022 09:224A: 18           	clc
  8023 09:224B: A9 EC FF     	lda	#$ffec
  8024 09:224E: A0 32 00     	ldy	#$32
  8025 09:2251: 77 11        	adc	[<L139+pWin_1],Y
  8026 09:2253: 85 31        	sta	<L139+r_1+8
  8027                        ;				r.height = pWin->clientR
                    ect.height - 42;
  8028                        	.line	1392
  8029 09:2255: 18           	clc
  8030 09:2256: A9 D6 FF     	lda	#$ffd6
  8031 09:2259: A0 34 00     	ldy	#$34
  8032 09:225C: 77 11        	adc	[<L139+pWin_1],Y
  8033 09:225E: 85 33        	sta	<L139+r_1+10
  8034                        ;
  8035                        ;
  8036                        ;				k_gui_DrawText ((HWND)pW
                    in,
  8037                        	.line	1395
  8038                        ;							
                    	((PTEXTVIEWDATA)k_user_GetWindowData(pMsg->hwnd,4))->con
                    tents->buffer,
  8039                        ;							
                    	k_user_getFontClass("ToshibaLCD8x8"),
  8040                        ;							
                    	DTS_LEFTJUSTIFY,// | DTS_NOCLIP,
  8041                        ;							
                    	&r,
  8042                        ;							
                    	15,
  8043                        ;							
                    	pWin->nBitmapLayer);
  8044 09:2260: A0 9E 01     	ldy	#$19e
  8045 09:2263: B7 11        	lda	[<L139+pWin_1],Y
  8046 09:2265: 48           	pha
  8047 09:2266: F4 0F 00     	pea	#<$f
  8048 09:2269: F4 00 00     	pea	#0
  Mon Sep 27 2021  9:39                                                Page 171


  8049 09:226C: 18           	clc
  8050 09:226D: 7B           	tdc
  8051 09:226E: 69 29 00     	adc	#<L139+r_1
  8052 09:2271: 48           	pha
  8053 09:2272: F4 00 00     	pea	#<$0
  8054 09:2275: F4 xx xx     	pea	#^L137+66
  8055 09:2278: F4 xx xx     	pea	#<L137+66
  8056 09:227B: 22 xx xx xx  	jsl	~~k_user_getFontClass
  8057 09:227F: 85 01        	sta	<R0
  8058 09:2281: 86 03        	stx	<R0+2
  8059 09:2283: DA           	phx
  8060 09:2284: 48           	pha
  8061 09:2285: F4 04 00     	pea	#<$4
  8062 09:2288: A0 0C 00     	ldy	#$c
  8063 09:228B: B7 4A        	lda	[<L138+pMsg_0],Y
  8064 09:228D: 48           	pha
  8065 09:228E: A0 0A 00     	ldy	#$a
  8066 09:2291: B7 4A        	lda	[<L138+pMsg_0],Y
  8067 09:2293: 48           	pha
  8068 09:2294: 22 xx xx xx  	jsl	~~k_user_GetWindowData
  8069 09:2298: 85 05        	sta	<R1
  8070 09:229A: 86 07        	stx	<R1+2
  8071 09:229C: A7 05        	lda	[<R1]
  8072 09:229E: 85 09        	sta	<R2
  8073 09:22A0: A0 02 00     	ldy	#$2
  8074 09:22A3: B7 05        	lda	[<R1],Y
  8075 09:22A5: 85 0B        	sta	<R2+2
  8076 09:22A7: A0 06 00     	ldy	#$6
  8077 09:22AA: B7 09        	lda	[<R2],Y
  8078 09:22AC: 48           	pha
  8079 09:22AD: A0 04 00     	ldy	#$4
  8080 09:22B0: B7 09        	lda	[<R2],Y
  8081 09:22B2: 48           	pha
  8082 09:22B3: D4 13        	pei	<L139+pWin_1+2
  8083 09:22B5: D4 11        	pei	<L139+pWin_1
  8084 09:22B7: 22 xx xx xx  	jsl	~~k_gui_DrawText
  8085                        ;
  8086                        ;				/*
  8087                        ;				k_draw_text_point_ex(((P
                    TEXTVIEWDATA)k_user_GetWindowData(pMsg->hwnd,4))->contents->
                    buffer,
  8088                        ;							
                    		 r.x,
  8089                        ;							
                    		 r.y,
  8090                        ;							
                    		 15,
  8091                        ;							
                    		 pWin->nBitmapLayer);*/
  8092                        ;
  8093                        ;			}
  8094                        	.line	1410
  8095                        ;			else
  8096 09:22BB: 82 72 00     	brl	L10150
  8097                        L10149:
  8098                        ;			{
  8099                        	.line	1412
  8100                        ;
  Mon Sep 27 2021  9:39                                                Page 172


  8101                        ;				r.x = pWin->clientRect.x
                     + 10;
  8102                        	.line	1414
  8103 09:22BE: 18           	clc
  8104 09:22BF: A9 0A 00     	lda	#$a
  8105 09:22C2: A0 2A 00     	ldy	#$2a
  8106 09:22C5: 77 11        	adc	[<L139+pWin_1],Y
  8107 09:22C7: 85 29        	sta	<L139+r_1
  8108                        ;				r.y = pWin->clientRect.y
                     + 10;
  8109                        	.line	1415
  8110 09:22C9: 18           	clc
  8111 09:22CA: A9 0A 00     	lda	#$a
  8112 09:22CD: A0 2C 00     	ldy	#$2c
  8113 09:22D0: 77 11        	adc	[<L139+pWin_1],Y
  8114 09:22D2: 85 2B        	sta	<L139+r_1+2
  8115                        ;				r.width = pWin->clientRe
                    ct.width - 20;
  8116                        	.line	1416
  8117 09:22D4: 18           	clc
  8118 09:22D5: A9 EC FF     	lda	#$ffec
  8119 09:22D8: A0 32 00     	ldy	#$32
  8120 09:22DB: 77 11        	adc	[<L139+pWin_1],Y
  8121 09:22DD: 85 31        	sta	<L139+r_1+8
  8122                        ;				r.height = pWin->clientR
                    ect.height - 38;
  8123                        	.line	1417
  8124 09:22DF: 18           	clc
  8125 09:22E0: A9 DA FF     	lda	#$ffda
  8126 09:22E3: A0 34 00     	ldy	#$34
  8127 09:22E6: 77 11        	adc	[<L139+pWin_1],Y
  8128 09:22E8: 85 33        	sta	<L139+r_1+10
  8129                        ;
  8130                        ;				k_debug_pointer("testWin
                    dowProc::FX_DRAW_WINDOW:NO-CONTENT:",&r);
  8131                        	.line	1419
  8132 09:22EA: F4 00 00     	pea	#0
  8133 09:22ED: 18           	clc
  8134 09:22EE: 7B           	tdc
  8135 09:22EF: 69 29 00     	adc	#<L139+r_1
  8136 09:22F2: 48           	pha
  8137 09:22F3: F4 xx xx     	pea	#^L137+80
  8138 09:22F6: F4 xx xx     	pea	#<L137+80
  8139 09:22F9: 22 xx xx xx  	jsl	~~k_debug_pointer
  8140                        ;
  8141                        ;
  8142                        ;				k_gui_DrawText ((HWND)pW
                    in,
  8143                        	.line	1422
  8144                        ;							
                    	"No Content",
  8145                        ;							
                    	k_user_getFontClass("ToshibaLCD8x8"),
  8146                        ;							
                    	DTS_LEFTJUSTIFY,// | DTS_NOCLIP,
  8147                        ;							
                    	&r,
  8148                        ;							
  Mon Sep 27 2021  9:39                                                Page 173


                    	15,
  8149                        ;							
                    	pWin->nBitmapLayer);
  8150 09:22FD: A0 9E 01     	ldy	#$19e
  8151 09:2300: B7 11        	lda	[<L139+pWin_1],Y
  8152 09:2302: 48           	pha
  8153 09:2303: F4 0F 00     	pea	#<$f
  8154 09:2306: F4 00 00     	pea	#0
  8155 09:2309: 18           	clc
  8156 09:230A: 7B           	tdc
  8157 09:230B: 69 29 00     	adc	#<L139+r_1
  8158 09:230E: 48           	pha
  8159 09:230F: F4 00 00     	pea	#<$0
  8160 09:2312: F4 xx xx     	pea	#^L137+134
  8161 09:2315: F4 xx xx     	pea	#<L137+134
  8162 09:2318: 22 xx xx xx  	jsl	~~k_user_getFontClass
  8163 09:231C: 85 01        	sta	<R0
  8164 09:231E: 86 03        	stx	<R0+2
  8165 09:2320: DA           	phx
  8166 09:2321: 48           	pha
  8167 09:2322: F4 xx xx     	pea	#^L137+123
  8168 09:2325: F4 xx xx     	pea	#<L137+123
  8169 09:2328: D4 13        	pei	<L139+pWin_1+2
  8170 09:232A: D4 11        	pei	<L139+pWin_1
  8171 09:232C: 22 xx xx xx  	jsl	~~k_gui_DrawText
  8172                        ;
  8173                        ;
  8174                        ;				/*
  8175                        ;				k_draw_text_point_ex("No
                     Content",
  8176                        ;							
                    		 r.x,
  8177                        ;							
                    		 r.y,
  8178                        ;							
                    		 15,
  8179                        ;							
                    		 pWin->nBitmapLayer);
  8180                        ;				*/
  8181                        ;			}
  8182                        	.line	1438
  8183                        L10150:
  8184                        ;
  8185                        ;
  8186                        ;			break;
  8187                        	.line	1441
  8188 09:2330: 82 45 01     	brl	L10145
  8189                        ;		case FX_MOUSE_MOVE:
  8190                        	.line	1442
  8191                        L10151:
  8192                        ;			//k_debug_string("testWindowProc
                    ::FX_MOUSE_MOVE\r\n");
  8193                        ;			break;
  8194                        	.line	1444
  8195 09:2333: 82 42 01     	brl	L10145
  8196                        ;		//case FX_NC_MOUSE_MOVE:
  8197                        ;		//	k_debug_string("testWindowProc::
                    FX_NC_MOUSE_MOVE\r\n");
  Mon Sep 27 2021  9:39                                                Page 174


  8198                        ;		//	break;
  8199                        ;
  8200                        ;		case FX_LBUTTON_DRAG:
  8201                        	.line	1449
  8202                        L10152:
  8203                        ;			k_debug_string("testWindowProc::
                    FX_LBUTTON_DRAG\r\n");
  8204                        	.line	1450
  8205 09:2336: F4 xx xx     	pea	#^L137+148
  8206 09:2339: F4 xx xx     	pea	#<L137+148
  8207 09:233C: 22 xx xx xx  	jsl	~~k_debug_string
  8208                        ;			break;
  8209                        	.line	1451
  8210 09:2340: 82 35 01     	brl	L10145
  8211                        ;
  8212                        ;
  8213                        ;		case FX_LBUTTON_DBLCLICK:
  8214                        	.line	1454
  8215                        L10153:
  8216                        ;
  8217                        ;			//k_getWindowRect(pMsg->hwnd,&wi
                    nRect);
  8218                        ;			//k_vdma_copy_address_ex((LPVOID
                    )(0x100000 | k_gui_get_pixel_offset(20,20)),(LPVOID)(k_gui_g
                    et_pixel_offset(winRect.x,winRect.y)),winRect.width,winRect.
                    height);
  8219                        ;
  8220                        ;			//k_switch_window_page(pMsg->hwn
                    d,BITMAP_BACK,BITMAP_FRONT,TRUE);
  8221                        ;			//k_switch_window_page(pMsg->hwn
                    d,BITMAP_BACK,BITMAP_FRONT,FALSE);
  8222                        ;
  8223                        ;			pWin = k_getWindowFromHandle(pMs
                    g->hwnd);
  8224                        	.line	1462
  8225 09:2343: A0 0C 00     	ldy	#$c
  8226 09:2346: B7 4A        	lda	[<L138+pMsg_0],Y
  8227 09:2348: 48           	pha
  8228 09:2349: A0 0A 00     	ldy	#$a
  8229 09:234C: B7 4A        	lda	[<L138+pMsg_0],Y
  8230 09:234E: 48           	pha
  8231 09:234F: 22 xx xx xx  	jsl	~~k_getWindowFromHandle
  8232 09:2353: 85 11        	sta	<L139+pWin_1
  8233 09:2355: 86 13        	stx	<L139+pWin_1+2
  8234                        ;
  8235                        ;			for(index = 0;index<8;index++)
  8236                        	.line	1464
  8237 09:2357: 64 19        	stz	<L139+index_1
  8238                        L10156:
  8239                        ;			{
  8240                        	.line	1465
  8241                        ;				k_debug_rect("testWindow
                    Proc::nonclientGadgets:rect:",&pWin->nonclientGadgets[index]
                    .area);
  8242                        	.line	1466
  8243 09:2359: A0 00 00     	ldy	#$0
  8244 09:235C: A5 19        	lda	<L139+index_1
  8245 09:235E: 10 01        	bpl	L147
  Mon Sep 27 2021  9:39                                                Page 175


  8246 09:2360: 88           	dey
  8247                        L147:
  8248 09:2361: 85 01        	sta	<R0
  8249 09:2363: 84 03        	sty	<R0+2
  8250 09:2365: F4 00 00     	pea	#^$11
  8251 09:2368: F4 11 00     	pea	#<$11
  8252 09:236B: D4 03        	pei	<R0+2
  8253 09:236D: D4 01        	pei	<R0
  8254                        	xref	~~~lmul
  8255 09:236F: 22 xx xx xx  	jsl	~~~lmul
  8256 09:2373: 85 01        	sta	<R0
  8257 09:2375: 86 03        	stx	<R0+2
  8258 09:2377: 18           	clc
  8259 09:2378: A9 38 00     	lda	#$38
  8260 09:237B: 65 01        	adc	<R0
  8261 09:237D: 85 05        	sta	<R1
  8262 09:237F: A9 00 00     	lda	#$0
  8263 09:2382: 65 03        	adc	<R0+2
  8264 09:2384: 85 07        	sta	<R1+2
  8265 09:2386: 18           	clc
  8266 09:2387: A5 11        	lda	<L139+pWin_1
  8267 09:2389: 65 05        	adc	<R1
  8268 09:238B: 85 01        	sta	<R0
  8269 09:238D: A5 13        	lda	<L139+pWin_1+2
  8270 09:238F: 65 07        	adc	<R1+2
  8271 09:2391: 85 03        	sta	<R0+2
  8272 09:2393: D4 03        	pei	<R0+2
  8273 09:2395: D4 01        	pei	<R0
  8274 09:2397: F4 xx xx     	pea	#^L137+182
  8275 09:239A: F4 xx xx     	pea	#<L137+182
  8276 09:239D: 22 xx xx xx  	jsl	~~k_debug_rect
  8277                        ;			}
  8278                        	.line	1467
  8279                        L10154:
  8280 09:23A1: E6 19        	inc	<L139+index_1
  8281 09:23A3: 38           	sec
  8282 09:23A4: A5 19        	lda	<L139+index_1
  8283 09:23A6: E9 08 00     	sbc	#<$8
  8284 09:23A9: 70 03        	bvs	L148
  8285 09:23AB: 49 00 80     	eor	#$8000
  8286                        L148:
  8287 09:23AE: 30 03        	bmi	L149
  8288 09:23B0: 82 A6 FF     	brl	L10156
  8289                        L149:
  8290                        L10155:
  8291                        ;
  8292                        ;
  8293                        ;			break;
  8294                        	.line	1470
  8295 09:23B3: 82 C2 00     	brl	L10145
  8296                        ;		case FX_MBUTTON_DOWN:
  8297                        	.line	1471
  8298                        L10157:
  8299                        ;			if(pMsg->type!=FX_PROCESS)
  8300                        	.line	1472
  8301                        ;			{
  8302 09:23B6: A0 08 00     	ldy	#$8
  8303 09:23B9: B7 4A        	lda	[<L138+pMsg_0],Y
  Mon Sep 27 2021  9:39                                                Page 176


  8304 09:23BB: C9 00 FF     	cmp	#<$ff00
  8305 09:23BE: D0 03        	bne	L150
  8306 09:23C0: 82 0A 00     	brl	L10158
  8307                        L150:
  8308                        	.line	1473
  8309                        ;				//k_debug_integer("conso
                    leWindowProc::ProcessId:",p->procId);
  8310                        ;				k_debug_string("testWind
                    owProc::FX_MBUTTON_DOWN\r\n");
  8311                        	.line	1475
  8312 09:23C3: F4 xx xx     	pea	#^L137+221
  8313 09:23C6: F4 xx xx     	pea	#<L137+221
  8314 09:23C9: 22 xx xx xx  	jsl	~~k_debug_string
  8315                        ;			}
  8316                        	.line	1476
  8317                        ;
  8318                        ;			break;
  8319                        L10158:
  8320                        	.line	1478
  8321 09:23CD: 82 A8 00     	brl	L10145
  8322                        ;		case FX_LBUTTON_DOWN:
  8323                        	.line	1479
  8324                        L10159:
  8325                        ;			k_debug_string("testWindowProc::
                    FX_LBUTTON_DOWN\r\n");
  8326                        	.line	1480
  8327 09:23D0: F4 xx xx     	pea	#^L137+255
  8328 09:23D3: F4 xx xx     	pea	#<L137+255
  8329 09:23D6: 22 xx xx xx  	jsl	~~k_debug_string
  8330                        ;
  8331                        ;			//index = (INT)((ULONG)k_user_Ge
                    tWindowData(pMsg->hwnd,4));
  8332                        ;			//k_user_SetWindowData(pMsg->hwn
                    d,4,(LPVOID)(index - 1));
  8333                        ;
  8334                        ;			break;
  8335                        	.line	1485
  8336 09:23DA: 82 9B 00     	brl	L10145
  8337                        ;
  8338                        ;		case FX_LBUTTON_UP:
  8339                        	.line	1487
  8340                        L10160:
  8341                        ;			k_debug_string("testWindowProc::
                    FX_LBUTTON_UP\r\n");
  8342                        	.line	1488
  8343 09:23DD: F4 xx xx     	pea	#^L137+289
  8344 09:23E0: F4 xx xx     	pea	#<L137+289
  8345 09:23E3: 22 xx xx xx  	jsl	~~k_debug_string
  8346                        ;			k_send_window_message(pMsg->hwnd
                    ,FX_DRAW_WINDOW,NULL,0);
  8347                        	.line	1489
  8348 09:23E7: F4 00 00     	pea	#<$0
  8349 09:23EA: F4 00 00     	pea	#^$0
  8350 09:23ED: F4 00 00     	pea	#<$0
  8351 09:23F0: F4 00 FB     	pea	#<$fb00
  8352 09:23F3: A0 0C 00     	ldy	#$c
  8353 09:23F6: B7 4A        	lda	[<L138+pMsg_0],Y
  8354 09:23F8: 48           	pha
  Mon Sep 27 2021  9:39                                                Page 177


  8355 09:23F9: A0 0A 00     	ldy	#$a
  8356 09:23FC: B7 4A        	lda	[<L138+pMsg_0],Y
  8357 09:23FE: 48           	pha
  8358 09:23FF: 22 xx xx xx  	jsl	~~k_send_window_message
  8359                        ;			break;
  8360                        	.line	1490
  8361 09:2403: 82 72 00     	brl	L10145
  8362                        ;			//case FX_NC_LBUTTON_DOWN:
  8363                        ;		//	k_debug_string("testWindowProc::
                    FX_NC_LBUTTON_DOWN\r\n");
  8364                        ;		//	k_event_lock_focus(pMsg->hwnd);
  8365                        ;		//	break;
  8366                        ;		//case FX_RBUTTON_DOWN:
  8367                        ;		//case FX_NC_RBUTTON_DOWN:
  8368                        ;		//	k_debug_string("testWindowProc::
                    FX_RBUTTON_DOWN or FX_NC_RBUTTON_DOWN\r\n");
  8369                        ;		//	k_event_unlock_focus();
  8370                        ;		//	break;
  8371                        ;		case FX_MIN_WINDOW:
  8372                        	.line	1500
  8373                        L10161:
  8374                        ;			k_switch_window_page(pMsg->hwnd,
                    BITMAP_BACK,BITMAP_FRONT,TRUE);
  8375                        	.line	1501
  8376 09:2406: F4 01 00     	pea	#<$1
  8377 09:2409: F4 00 00     	pea	#<$0
  8378 09:240C: F4 08 00     	pea	#<$8
  8379 09:240F: A0 0C 00     	ldy	#$c
  8380 09:2412: B7 4A        	lda	[<L138+pMsg_0],Y
  8381 09:2414: 48           	pha
  8382 09:2415: A0 0A 00     	ldy	#$a
  8383 09:2418: B7 4A        	lda	[<L138+pMsg_0],Y
  8384 09:241A: 48           	pha
  8385 09:241B: 22 xx xx xx  	jsl	~~k_switch_window_page
  8386                        ;			break;
  8387                        	.line	1502
  8388 09:241F: 82 56 00     	brl	L10145
  8389                        ;		case FX_MAX_WINDOW:
  8390                        	.line	1503
  8391                        L10162:
  8392                        ;			k_switch_window_page(pMsg->hwnd,
                    BITMAP_FRONT,BITMAP_BACK,FALSE);
  8393                        	.line	1504
  8394 09:2422: F4 00 00     	pea	#<$0
  8395 09:2425: F4 08 00     	pea	#<$8
  8396 09:2428: F4 00 00     	pea	#<$0
  8397 09:242B: A0 0C 00     	ldy	#$c
  8398 09:242E: B7 4A        	lda	[<L138+pMsg_0],Y
  8399 09:2430: 48           	pha
  8400 09:2431: A0 0A 00     	ldy	#$a
  8401 09:2434: B7 4A        	lda	[<L138+pMsg_0],Y
  8402 09:2436: 48           	pha
  8403 09:2437: 22 xx xx xx  	jsl	~~k_switch_window_page
  8404                        ;			break;
  8405                        	.line	1505
  8406 09:243B: 82 3A 00     	brl	L10145
  8407                        ;			/*
  8408                        ;		case FX_WINDOW_CLOSE:
  Mon Sep 27 2021  9:39                                                Page 178


  8409                        ;			pWin = k_getWindowFromHandle(pMs
                    g->hwnd);
  8410                        ;			k_vdma_fill_rect_ex(pWin->win_x,
                    pWin->win_y, pWin->win_width, pWin->win_height,
  8411                        ;					            FILL
                    COLOR_TRANSPARENT,BITMAP_FRONT);
  8412                        ;			k_vdma_fill_rect_ex(pWin->win_x,
                    pWin->win_y, pWin->win_width, pWin->win_height,
  8413                        ;							
                    	k_getUIBackgroundColor(),BITMAP_BACK);
  8414                        ;			return FALSE;
  8415                        ;			*/
  8416                        ;		case FX_PROCESS_TIMER:
  8417                        	.line	1515
  8418                        L10163:
  8419                        ;			//k_send_window_message(pMsg->hw
                    nd,FX_DRAW_WINDOW,NULL,0);
  8420                        ;			break;
  8421                        	.line	1517
  8422 09:243E: 82 37 00     	brl	L10145
  8423                        ;		default:
  8424                        	.line	1518
  8425                        L10164:
  8426                        ;			break;
  8427                        	.line	1519
  8428 09:2441: 82 34 00     	brl	L10145
  8429                        ;		}
  8430                        	.line	1520
  8431                        L10144:
  8432                        	xref	~~~swt
  8433 09:2444: 22 xx xx xx  	jsl	~~~swt
  8434 09:2448: 0B 00        	dw	11
  8435 09:244A: 03 0F        	dw	3843
  8436 09:244C: 32 23        	dw	L10151-1
  8437 09:244E: 04 0F        	dw	3844
  8438 09:2450: CF 23        	dw	L10159-1
  8439 09:2452: 05 0F        	dw	3845
  8440 09:2454: 35 23        	dw	L10152-1
  8441 09:2456: 06 0F        	dw	3846
  8442 09:2458: DC 23        	dw	L10160-1
  8443 09:245A: 07 0F        	dw	3847
  8444 09:245C: 42 23        	dw	L10153-1
  8445 09:245E: 0C 0F        	dw	3852
  8446 09:2460: B5 23        	dw	L10157-1
  8447 09:2462: 00 FB        	dw	64256
  8448 09:2464: 83 21        	dw	L10148-1
  8449 09:2466: 09 FB        	dw	64265
  8450 09:2468: 05 24        	dw	L10161-1
  8451 09:246A: 0A FB        	dw	64266
  8452 09:246C: 21 24        	dw	L10162-1
  8453 09:246E: 03 FF        	dw	65283
  8454 09:2470: 38 21        	dw	L10146-1
  8455 09:2472: F1 FF        	dw	65521
  8456 09:2474: 3D 24        	dw	L10163-1
  8457 09:2476: 40 24        	dw	L10164-1
  8458                        L10145:
  8459                        ;	}
  8460                        	.line	1521
  Mon Sep 27 2021  9:39                                                Page 179


  8461                        ;
  8462                        ;	return DefWindowProc(pMsg);
  8463                        L10143:
  8464                        	.line	1523
  8465 09:2478: D4 4C        	pei	<L138+pMsg_0+2
  8466 09:247A: D4 4A        	pei	<L138+pMsg_0
  8467 09:247C: 22 xx xx xx  	jsl	~~DefWindowProc
  8468 09:2480: E2 20        	sep	#$20
  8469                        	longa	off
  8470 09:2482: 85 01        	sta	<R0
  8471 09:2484: C2 20        	rep	#$20
  8472                        	longa	on
  8473 09:2486: A5 01        	lda	<R0
  8474 09:2488: 29 FF 00     	and	#$ff
  8475                        L151:
  8476 09:248B: A8           	tay
  8477 09:248C: A5 48        	lda	<L138+2
  8478 09:248E: 85 4C        	sta	<L138+2+4
  8479 09:2490: A5 47        	lda	<L138+1
  8480 09:2492: 85 4B        	sta	<L138+1+4
  8481 09:2494: 2B           	pld
  8482 09:2495: 3B           	tsc
  8483 09:2496: 18           	clc
  8484 09:2497: 69 4A 00     	adc	#L138+4
  8485 09:249A: 1B           	tcs
  8486 09:249B: 98           	tya
  8487 09:249C: 6B           	rtl
  8488                        ;}
  8489                        	.line	1524
  8490                        	.endblock	1524
  8491             00000046   L138	equ	70
  8492             0000000D   L139	equ	13
  8493 09:249D:              	ends
  8494                        	efunc
  8495                        	.endfunc	1524,13,70
  8496                        	.line	1524
  8497                        	data
  8498                        L137:
  8499 00:0E43: 74 65 73 74  	db	$74,$65,$73,$74,$57,$69,$6E,$64,$6F,$77,
                    $50,$72,$6F,$63,$3A
       00:0E47: 57 69 6E 64 
       00:0E4B: 6F 77 50 72 
       00:0E4F: 6F 63 3A 
  8500 00:0E52: 3A 46 58 5F  	db	$3A,$46,$58,$5F,$43,$52,$45,$41,$54,$45,
                    $5F,$57,$49,$4E,$44
       00:0E56: 43 52 45 41 
       00:0E5A: 54 45 5F 57 
       00:0E5E: 49 4E 44 
  8501 00:0E61: 4F 57 3A 00  	db	$4F,$57,$3A,$00,$74,$65,$73,$74,$57,$69,
                    $6E,$64,$6F,$77,$50
       00:0E65: 74 65 73 74 
       00:0E69: 57 69 6E 64 
       00:0E6D: 6F 77 50 
  8502 00:0E70: 72 6F 63 3A  	db	$72,$6F,$63,$3A,$3A,$46,$58,$5F,$44,$52,
                    $41,$57,$5F,$57,$49
       00:0E74: 3A 46 58 5F 
       00:0E78: 44 52 41 57 
       00:0E7C: 5F 57 49 
  Mon Sep 27 2021  9:39                                                Page 180


  8503 00:0E7F: 4E 44 4F 57  	db	$4E,$44,$4F,$57,$3A,$00,$54,$6F,$73,$68,
                    $69,$62,$61,$4C,$43
       00:0E83: 3A 00 54 6F 
       00:0E87: 73 68 69 62 
       00:0E8B: 61 4C 43 
  8504 00:0E8E: 44 38 78 38  	db	$44,$38,$78,$38,$00,$74,$65,$73,$74,$57,
                    $69,$6E,$64,$6F,$77
       00:0E92: 00 74 65 73 
       00:0E96: 74 57 69 6E 
       00:0E9A: 64 6F 77 
  8505 00:0E9D: 50 72 6F 63  	db	$50,$72,$6F,$63,$3A,$3A,$46,$58,$5F,$44,
                    $52,$41,$57,$5F,$57
       00:0EA1: 3A 3A 46 58 
       00:0EA5: 5F 44 52 41 
       00:0EA9: 57 5F 57 
  8506 00:0EAC: 49 4E 44 4F  	db	$49,$4E,$44,$4F,$57,$3A,$4E,$4F,$2D,$43,
                    $4F,$4E,$54,$45,$4E
       00:0EB0: 57 3A 4E 4F 
       00:0EB4: 2D 43 4F 4E 
       00:0EB8: 54 45 4E 
  8507 00:0EBB: 54 3A 00 4E  	db	$54,$3A,$00,$4E,$6F,$20,$43,$6F,$6E,$74,
                    $65,$6E,$74,$00,$54
       00:0EBF: 6F 20 43 6F 
       00:0EC3: 6E 74 65 6E 
       00:0EC7: 74 00 54 
  8508 00:0ECA: 6F 73 68 69  	db	$6F,$73,$68,$69,$62,$61,$4C,$43,$44,$38,
                    $78,$38,$00,$74,$65
       00:0ECE: 62 61 4C 43 
       00:0ED2: 44 38 78 38 
       00:0ED6: 00 74 65 
  8509 00:0ED9: 73 74 57 69  	db	$73,$74,$57,$69,$6E,$64,$6F,$77,$50,$72,
                    $6F,$63,$3A,$3A,$46
       00:0EDD: 6E 64 6F 77 
       00:0EE1: 50 72 6F 63 
       00:0EE5: 3A 3A 46 
  8510 00:0EE8: 58 5F 4C 42  	db	$58,$5F,$4C,$42,$55,$54,$54,$4F,$4E,$5F,
                    $44,$52,$41,$47,$0D
       00:0EEC: 55 54 54 4F 
       00:0EF0: 4E 5F 44 52 
       00:0EF4: 41 47 0D 
  8511 00:0EF7: 0A 00 74 65  	db	$0A,$00,$74,$65,$73,$74,$57,$69,$6E,$64,
                    $6F,$77,$50,$72,$6F
       00:0EFB: 73 74 57 69 
       00:0EFF: 6E 64 6F 77 
       00:0F03: 50 72 6F 
  8512 00:0F06: 63 3A 3A 6E  	db	$63,$3A,$3A,$6E,$6F,$6E,$63,$6C,$69,$65,
                    $6E,$74,$47,$61,$64
       00:0F0A: 6F 6E 63 6C 
       00:0F0E: 69 65 6E 74 
       00:0F12: 47 61 64 
  8513 00:0F15: 67 65 74 73  	db	$67,$65,$74,$73,$3A,$72,$65,$63,$74,$3A,
                    $00,$74,$65,$73,$74
       00:0F19: 3A 72 65 63 
       00:0F1D: 74 3A 00 74 
       00:0F21: 65 73 74 
  8514 00:0F24: 57 69 6E 64  	db	$57,$69,$6E,$64,$6F,$77,$50,$72,$6F,$63,
                    $3A,$3A,$46,$58,$5F
       00:0F28: 6F 77 50 72 
  Mon Sep 27 2021  9:39                                                Page 181


       00:0F2C: 6F 63 3A 3A 
       00:0F30: 46 58 5F 
  8515 00:0F33: 4D 42 55 54  	db	$4D,$42,$55,$54,$54,$4F,$4E,$5F,$44,$4F,
                    $57,$4E,$0D,$0A,$00
       00:0F37: 54 4F 4E 5F 
       00:0F3B: 44 4F 57 4E 
       00:0F3F: 0D 0A 00 
  8516 00:0F42: 74 65 73 74  	db	$74,$65,$73,$74,$57,$69,$6E,$64,$6F,$77,
                    $50,$72,$6F,$63,$3A
       00:0F46: 57 69 6E 64 
       00:0F4A: 6F 77 50 72 
       00:0F4E: 6F 63 3A 
  8517 00:0F51: 3A 46 58 5F  	db	$3A,$46,$58,$5F,$4C,$42,$55,$54,$54,$4F,
                    $4E,$5F,$44,$4F,$57
       00:0F55: 4C 42 55 54 
       00:0F59: 54 4F 4E 5F 
       00:0F5D: 44 4F 57 
  8518 00:0F60: 4E 0D 0A 00  	db	$4E,$0D,$0A,$00,$74,$65,$73,$74,$57,$69,
                    $6E,$64,$6F,$77,$50
       00:0F64: 74 65 73 74 
       00:0F68: 57 69 6E 64 
       00:0F6C: 6F 77 50 
  8519 00:0F6F: 72 6F 63 3A  	db	$72,$6F,$63,$3A,$3A,$46,$58,$5F,$4C,$42,
                    $55,$54,$54,$4F,$4E
       00:0F73: 3A 46 58 5F 
       00:0F77: 4C 42 55 54 
       00:0F7B: 54 4F 4E 
  8520 00:0F7E: 5F 55 50 0D  	db	$5F,$55,$50,$0D,$0A,$00
       00:0F82: 0A 00 
  8521 00:0F84:              	ends
  8522                        ;
  8523                        ;
  8524                        ;BOOL TextWindowProc(PFXOSMESSAGE pMsg)
  8525                        ;{
  8526                        	.line	1527
  8527                        	.line	1528
  8528                        	DTOP
  8529                        	xdef	~~TextWindowProc
  8530                        	func
  8531                        	.function	1528
  8532                        ~~TextWindowProc:
  8533                        	longa	on
  8534                        	longi	on
  8535 09:249D: 3B           	tsc
  8536 09:249E: 38           	sec
  8537 09:249F: E9 46 00     	sbc	#L153
  8538 09:24A2: 1B           	tcs
  8539 09:24A3: 0B           	phd
  8540 09:24A4: 5B           	tcd
  8541             00000004   pMsg_0	set	4
  8542                        	.block	1528
  8543                        ;	PFXPROCESS p = NULL;
  8544                        ;	PWINDOW pWin = NULL;
  8545                        ;	PFXSTRING strTitle = NULL;
  8546                        ;	INT index = 0;
  8547                        ;	RECT winRect;
  8548                        ;	RECT r;
  8549                        ;	CHAR buffer[16];
  Mon Sep 27 2021  9:39                                                Page 182


  8550                        ;
  8551                        ;
  8552                        ;	if(pMsg!=NULL)
  8553             00000000   p_1	set	0
  8554             00000004   pWin_1	set	4
  8555             00000008   strTitle_1	set	8
  8556             0000000C   index_1	set	12
  8557             0000000E   winRect_1	set	14
  8558             0000001C   r_1	set	28
  8559             0000002A   buffer_1	set	42
  8560                        	.sym	p,0,138,1,32,17
  8561                        	.sym	pWin,4,138,1,32,30
  8562                        	.sym	strTitle,8,138,1,32,52
  8563                        	.sym	index,12,5,1,16
  8564                        	.sym	winRect,14,10,1,112,23
  8565                        	.sym	r,28,10,1,112,23
  8566                        	.sym	buffer,42,110,1,0,16
  8567                        	.sym	pMsg,4,138,6,32,13
  8568 09:24A5: 64 0D        	stz	<L154+p_1
  8569 09:24A7: 64 0F        	stz	<L154+p_1+2
  8570 09:24A9: 64 11        	stz	<L154+pWin_1
  8571 09:24AB: 64 13        	stz	<L154+pWin_1+2
  8572 09:24AD: 64 15        	stz	<L154+strTitle_1
  8573 09:24AF: 64 17        	stz	<L154+strTitle_1+2
  8574 09:24B1: 64 19        	stz	<L154+index_1
  8575                        	.line	1538
  8576                        ;	{
  8577 09:24B3: A5 4A        	lda	<L153+pMsg_0
  8578 09:24B5: 05 4C        	ora	<L153+pMsg_0+2
  8579 09:24B7: D0 03        	bne	L156
  8580 09:24B9: 82 5D 03     	brl	L10165
  8581                        L156:
  8582                        	.line	1539
  8583                        ;		p = k_exec_get_current_process();
  8584                        	.line	1540
  8585 09:24BC: 22 xx xx xx  	jsl	~~k_exec_get_current_process
  8586 09:24C0: 85 0D        	sta	<L154+p_1
  8587 09:24C2: 86 0F        	stx	<L154+p_1+2
  8588                        ;		pWin = (PWINDOW)pMsg->hwnd;
  8589                        	.line	1541
  8590 09:24C4: A0 0A 00     	ldy	#$a
  8591 09:24C7: B7 4A        	lda	[<L153+pMsg_0],Y
  8592 09:24C9: 85 11        	sta	<L154+pWin_1
  8593 09:24CB: A0 0C 00     	ldy	#$c
  8594 09:24CE: B7 4A        	lda	[<L153+pMsg_0],Y
  8595 09:24D0: 85 13        	sta	<L154+pWin_1+2
  8596                        ;		//k_debug_long("consoleWindowProc::Proce
                    ssId:",p->procId);
  8597                        ;
  8598                        ;		switch(pMsg->type)
  8599                        	.line	1544
  8600 09:24D2: A0 08 00     	ldy	#$8
  8601 09:24D5: B7 4A        	lda	[<L153+pMsg_0],Y
  8602 09:24D7: 82 0B 03     	brl	L10166
  8603                        ;		{
  8604                        	.line	1545
  8605                        ;		case FX_CREATE_WINDOW:
  8606                        	.line	1546
  Mon Sep 27 2021  9:39                                                Page 183


  8607                        L10168:
  8608                        ;			if(p)
  8609                        	.line	1547
  8610                        ;			{
  8611 09:24DA: A5 0D        	lda	<L154+p_1
  8612 09:24DC: 05 0F        	ora	<L154+p_1+2
  8613 09:24DE: D0 03        	bne	L157
  8614 09:24E0: 82 3F 00     	brl	L10169
  8615                        L157:
  8616                        	.line	1548
  8617                        ;				k_debug_long("testWindow
                    Proc::FX_CREATE_WINDOW:",p->procId);
  8618                        	.line	1549
  8619 09:24E3: A0 04 00     	ldy	#$4
  8620 09:24E6: B7 0D        	lda	[<L154+p_1],Y
  8621 09:24E8: 48           	pha
  8622 09:24E9: A0 02 00     	ldy	#$2
  8623 09:24EC: B7 0D        	lda	[<L154+p_1],Y
  8624 09:24EE: 48           	pha
  8625 09:24EF: F4 xx xx     	pea	#^L152
  8626 09:24F2: F4 xx xx     	pea	#<L152
  8627 09:24F5: 22 xx xx xx  	jsl	~~k_debug_long
  8628                        ;				//k_debug_integer("testW
                    indowProc::MessageId:",pMsg->type);
  8629                        ;
  8630                        ;				pWin->hBackground = COLO
                    RBRUSH(86);
  8631                        	.line	1552
  8632 09:24F9: A9 56 00     	lda	#$56
  8633 09:24FC: A0 B8 01     	ldy	#$1b8
  8634 09:24FF: 97 11        	sta	[<L154+pWin_1],Y
  8635 09:2501: A9 00 00     	lda	#$0
  8636 09:2504: A0 BA 01     	ldy	#$1ba
  8637 09:2507: 97 11        	sta	[<L154+pWin_1],Y
  8638                        ;
  8639                        ;				//k_user_SetWindowData(p
                    Msg->hwnd,4,k_mem_allocate_heap(sizeof(TEXTVIEWDATA)));
  8640                        ;
  8641                        ;				k_user_SetWindowData(pMs
                    g->hwnd,4,NULL);
  8642                        	.line	1556
  8643 09:2509: F4 00 00     	pea	#^$0
  8644 09:250C: F4 00 00     	pea	#<$0
  8645 09:250F: F4 04 00     	pea	#<$4
  8646 09:2512: A0 0C 00     	ldy	#$c
  8647 09:2515: B7 4A        	lda	[<L153+pMsg_0],Y
  8648 09:2517: 48           	pha
  8649 09:2518: A0 0A 00     	ldy	#$a
  8650 09:251B: B7 4A        	lda	[<L153+pMsg_0],Y
  8651 09:251D: 48           	pha
  8652 09:251E: 22 xx xx xx  	jsl	~~k_user_SetWindowData
  8653                        ;
  8654                        ;				/*
  8655                        ;				strTitle = k_fxstring_ne
                    w("View:",32);
  8656                        ;				k_fxstring_add(strTitle,
                    "FILENAME");
  8657                        ;				if(strTitle)
  Mon Sep 27 2021  9:39                                                Page 184


  8658                        ;				{
  8659                        ;					k_user_SetWindow
                    Title(pMsg->hwnd,strTitle->buffer);
  8660                        ;					//k_mem_dealloca
                    te_heap(strTitle);
  8661                        ;
  8662                        ;					k_fxstring_free(
                    strTitle);
  8663                        ;
  8664                        ;					k_debug_strings(
                    "testWindowProc::FX_CREATE_WINDOW:Title:",pWin->win_title);
  8665                        ;					//k_send_window_
                    message(pMsg->hwnd,FX_DRAW_NONCLIENT,NULL,0);
  8666                        ;				}
  8667                        ;				*/
  8668                        ;			}
  8669                        	.line	1572
  8670                        ;			break;
  8671                        L10169:
  8672                        	.line	1573
  8673 09:2522: 82 F4 02     	brl	L10167
  8674                        ;		case FX_DRAW_WINDOW:
  8675                        	.line	1574
  8676                        L10170:
  8677                        ;			//k_debug_rect("testWindowProc::
                    FX_DRAW_WINDOW:",&pWin->clientRect);
  8678                        ;			k_debug_pointer("testWindowProc:
                    :FX_DRAW_WINDOW:",k_user_GetWindowData(pMsg->hwnd,4));
  8679                        	.line	1576
  8680 09:2525: F4 04 00     	pea	#<$4
  8681 09:2528: A0 0C 00     	ldy	#$c
  8682 09:252B: B7 4A        	lda	[<L153+pMsg_0],Y
  8683 09:252D: 48           	pha
  8684 09:252E: A0 0A 00     	ldy	#$a
  8685 09:2531: B7 4A        	lda	[<L153+pMsg_0],Y
  8686 09:2533: 48           	pha
  8687 09:2534: 22 xx xx xx  	jsl	~~k_user_GetWindowData
  8688 09:2538: 85 01        	sta	<R0
  8689 09:253A: 86 03        	stx	<R0+2
  8690 09:253C: DA           	phx
  8691 09:253D: 48           	pha
  8692 09:253E: F4 xx xx     	pea	#^L152+34
  8693 09:2541: F4 xx xx     	pea	#<L152+34
  8694 09:2544: 22 xx xx xx  	jsl	~~k_debug_pointer
  8695                        ;
  8696                        ;			//index = (INT)((ULONG)k_user_Ge
                    tWindowData(pMsg->hwnd,4));
  8697                        ;			//k_debug_integer("testWindowPro
                    c::FX_DRAW_WINDOW:index:",index);
  8698                        ;
  8699                        ;			k_vdma_fill_rect_ex(pWin->client
                    Rect.x,
  8700                        	.line	1581
  8701                        ;					            pWin
                    ->clientRect.y,
  8702                        ;					            pWin
                    ->clientRect.width ,
  8703                        ;							
  Mon Sep 27 2021  9:39                                                Page 185


                    	pWin->clientRect.height,
  8704                        ;							
                    	BRUSHCOLOR(pWin->hBackground),
  8705                        ;							
                    	pWin->nBitmapLayer);
  8706 09:2548: A0 9E 01     	ldy	#$19e
  8707 09:254B: B7 11        	lda	[<L154+pWin_1],Y
  8708 09:254D: 48           	pha
  8709 09:254E: A0 B8 01     	ldy	#$1b8
  8710 09:2551: B7 11        	lda	[<L154+pWin_1],Y
  8711 09:2553: 48           	pha
  8712 09:2554: A0 34 00     	ldy	#$34
  8713 09:2557: B7 11        	lda	[<L154+pWin_1],Y
  8714 09:2559: 48           	pha
  8715 09:255A: A0 32 00     	ldy	#$32
  8716 09:255D: B7 11        	lda	[<L154+pWin_1],Y
  8717 09:255F: 48           	pha
  8718 09:2560: A0 00 00     	ldy	#$0
  8719 09:2563: 5A           	phy
  8720 09:2564: A0 2C 00     	ldy	#$2c
  8721 09:2567: B7 11        	lda	[<L154+pWin_1],Y
  8722 09:2569: 7A           	ply
  8723 09:256A: 2A           	rol	A
  8724 09:256B: 6A           	ror	A
  8725 09:256C: 10 01        	bpl	L158
  8726 09:256E: 88           	dey
  8727                        L158:
  8728 09:256F: 85 01        	sta	<R0
  8729 09:2571: 84 03        	sty	<R0+2
  8730 09:2573: D4 03        	pei	<R0+2
  8731 09:2575: D4 01        	pei	<R0
  8732 09:2577: A0 00 00     	ldy	#$0
  8733 09:257A: 5A           	phy
  8734 09:257B: A0 2A 00     	ldy	#$2a
  8735 09:257E: B7 11        	lda	[<L154+pWin_1],Y
  8736 09:2580: 7A           	ply
  8737 09:2581: 2A           	rol	A
  8738 09:2582: 6A           	ror	A
  8739 09:2583: 10 01        	bpl	L159
  8740 09:2585: 88           	dey
  8741                        L159:
  8742 09:2586: 85 05        	sta	<R1
  8743 09:2588: 84 07        	sty	<R1+2
  8744 09:258A: D4 07        	pei	<R1+2
  8745 09:258C: D4 05        	pei	<R1
  8746 09:258E: 22 xx xx xx  	jsl	~~k_vdma_fill_rect_ex
  8747                        ;
  8748                        ;
  8749                        ;			/*
  8750                        ;			r.x = pWin->clientRect.x + 10;
  8751                        ;			r.y = pWin->clientRect.y + 10;
  8752                        ;			r.width = pWin->clientRect.width
                    ;
  8753                        ;			r.height = pWin->clientRect.heig
                    ht;
  8754                        ;
  8755                        ;			k_gui_DrawText ((HWND)pWin,
  8756                        ;							
  Mon Sep 27 2021  9:39                                                Page 186


                    k_string_itoa(dcount,buffer,10) ,
  8757                        ;							
                    k_user_getFontClass("ToshibaLCD8x8"),
  8758                        ;							
                    DTS_LEFTJUSTIFY,// | DTS_NOCLIP,
  8759                        ;							
                    &r,
  8760                        ;							
                    15,
  8761                        ;							
                    pWin->nBitmapLayer);
  8762                        ;
  8763                        ;			dcount++;
  8764                        ;			*/
  8765                        ;
  8766                        ;			if(k_user_GetWindowData(pMsg->hw
                    nd,4) && ((PTEXTVIEWDATA)k_user_GetWindowData(pMsg->hwnd,4))
                    ->contents)
  8767                        	.line	1606
  8768                        ;			{
  8769 09:2592: F4 04 00     	pea	#<$4
  8770 09:2595: A0 0C 00     	ldy	#$c
  8771 09:2598: B7 4A        	lda	[<L153+pMsg_0],Y
  8772 09:259A: 48           	pha
  8773 09:259B: A0 0A 00     	ldy	#$a
  8774 09:259E: B7 4A        	lda	[<L153+pMsg_0],Y
  8775 09:25A0: 48           	pha
  8776 09:25A1: 22 xx xx xx  	jsl	~~k_user_GetWindowData
  8777 09:25A5: 85 01        	sta	<R0
  8778 09:25A7: 86 03        	stx	<R0+2
  8779 09:25A9: A5 01        	lda	<R0
  8780 09:25AB: 05 03        	ora	<R0+2
  8781 09:25AD: D0 03        	bne	L160
  8782 09:25AF: 82 AD 00     	brl	L10171
  8783                        L160:
  8784 09:25B2: F4 04 00     	pea	#<$4
  8785 09:25B5: A0 0C 00     	ldy	#$c
  8786 09:25B8: B7 4A        	lda	[<L153+pMsg_0],Y
  8787 09:25BA: 48           	pha
  8788 09:25BB: A0 0A 00     	ldy	#$a
  8789 09:25BE: B7 4A        	lda	[<L153+pMsg_0],Y
  8790 09:25C0: 48           	pha
  8791 09:25C1: 22 xx xx xx  	jsl	~~k_user_GetWindowData
  8792 09:25C5: 85 01        	sta	<R0
  8793 09:25C7: 86 03        	stx	<R0+2
  8794 09:25C9: A7 01        	lda	[<R0]
  8795 09:25CB: A0 02 00     	ldy	#$2
  8796 09:25CE: 17 01        	ora	[<R0],Y
  8797 09:25D0: D0 03        	bne	L161
  8798 09:25D2: 82 8A 00     	brl	L10171
  8799                        L161:
  8800                        	.line	1607
  8801                        ;				r.x = pWin->clientRect.x
                     + 10;
  8802                        	.line	1608
  8803 09:25D5: 18           	clc
  8804 09:25D6: A9 0A 00     	lda	#$a
  8805 09:25D9: A0 2A 00     	ldy	#$2a
  Mon Sep 27 2021  9:39                                                Page 187


  8806 09:25DC: 77 11        	adc	[<L154+pWin_1],Y
  8807 09:25DE: 85 29        	sta	<L154+r_1
  8808                        ;				r.y = pWin->clientRect.y
                     + 10;
  8809                        	.line	1609
  8810 09:25E0: 18           	clc
  8811 09:25E1: A9 0A 00     	lda	#$a
  8812 09:25E4: A0 2C 00     	ldy	#$2c
  8813 09:25E7: 77 11        	adc	[<L154+pWin_1],Y
  8814 09:25E9: 85 2B        	sta	<L154+r_1+2
  8815                        ;				r.width = pWin->clientRe
                    ct.width - 20;
  8816                        	.line	1610
  8817 09:25EB: 18           	clc
  8818 09:25EC: A9 EC FF     	lda	#$ffec
  8819 09:25EF: A0 32 00     	ldy	#$32
  8820 09:25F2: 77 11        	adc	[<L154+pWin_1],Y
  8821 09:25F4: 85 31        	sta	<L154+r_1+8
  8822                        ;				r.height = pWin->clientR
                    ect.height - 42;
  8823                        	.line	1611
  8824 09:25F6: 18           	clc
  8825 09:25F7: A9 D6 FF     	lda	#$ffd6
  8826 09:25FA: A0 34 00     	ldy	#$34
  8827 09:25FD: 77 11        	adc	[<L154+pWin_1],Y
  8828 09:25FF: 85 33        	sta	<L154+r_1+10
  8829                        ;
  8830                        ;
  8831                        ;				k_gui_DrawText ((HWND)pW
                    in,
  8832                        	.line	1614
  8833                        ;							
                    	((PTEXTVIEWDATA)k_user_GetWindowData(pMsg->hwnd,4))->con
                    tents->buffer,
  8834                        ;							
                    	k_user_getFontClass("ToshibaLCD8x8"),
  8835                        ;							
                    	DTS_LEFTJUSTIFY,// | DTS_NOCLIP,
  8836                        ;							
                    	&r,
  8837                        ;							
                    	15,
  8838                        ;							
                    	pWin->nBitmapLayer);
  8839 09:2601: A0 9E 01     	ldy	#$19e
  8840 09:2604: B7 11        	lda	[<L154+pWin_1],Y
  8841 09:2606: 48           	pha
  8842 09:2607: F4 0F 00     	pea	#<$f
  8843 09:260A: F4 00 00     	pea	#0
  8844 09:260D: 18           	clc
  8845 09:260E: 7B           	tdc
  8846 09:260F: 69 29 00     	adc	#<L154+r_1
  8847 09:2612: 48           	pha
  8848 09:2613: F4 00 00     	pea	#<$0
  8849 09:2616: F4 xx xx     	pea	#^L152+66
  8850 09:2619: F4 xx xx     	pea	#<L152+66
  8851 09:261C: 22 xx xx xx  	jsl	~~k_user_getFontClass
  8852 09:2620: 85 01        	sta	<R0
  Mon Sep 27 2021  9:39                                                Page 188


  8853 09:2622: 86 03        	stx	<R0+2
  8854 09:2624: DA           	phx
  8855 09:2625: 48           	pha
  8856 09:2626: F4 04 00     	pea	#<$4
  8857 09:2629: A0 0C 00     	ldy	#$c
  8858 09:262C: B7 4A        	lda	[<L153+pMsg_0],Y
  8859 09:262E: 48           	pha
  8860 09:262F: A0 0A 00     	ldy	#$a
  8861 09:2632: B7 4A        	lda	[<L153+pMsg_0],Y
  8862 09:2634: 48           	pha
  8863 09:2635: 22 xx xx xx  	jsl	~~k_user_GetWindowData
  8864 09:2639: 85 05        	sta	<R1
  8865 09:263B: 86 07        	stx	<R1+2
  8866 09:263D: A7 05        	lda	[<R1]
  8867 09:263F: 85 09        	sta	<R2
  8868 09:2641: A0 02 00     	ldy	#$2
  8869 09:2644: B7 05        	lda	[<R1],Y
  8870 09:2646: 85 0B        	sta	<R2+2
  8871 09:2648: A0 06 00     	ldy	#$6
  8872 09:264B: B7 09        	lda	[<R2],Y
  8873 09:264D: 48           	pha
  8874 09:264E: A0 04 00     	ldy	#$4
  8875 09:2651: B7 09        	lda	[<R2],Y
  8876 09:2653: 48           	pha
  8877 09:2654: D4 13        	pei	<L154+pWin_1+2
  8878 09:2656: D4 11        	pei	<L154+pWin_1
  8879 09:2658: 22 xx xx xx  	jsl	~~k_gui_DrawText
  8880                        ;
  8881                        ;				/*
  8882                        ;				k_draw_text_point_ex(((P
                    TEXTVIEWDATA)k_user_GetWindowData(pMsg->hwnd,4))->contents->
                    buffer,
  8883                        ;							
                    		 r.x,
  8884                        ;							
                    		 r.y,
  8885                        ;							
                    		 15,
  8886                        ;							
                    		 pWin->nBitmapLayer);*/
  8887                        ;
  8888                        ;			}
  8889                        	.line	1629
  8890                        ;			else
  8891 09:265C: 82 72 00     	brl	L10172
  8892                        L10171:
  8893                        ;			{
  8894                        	.line	1631
  8895                        ;
  8896                        ;				r.x = pWin->clientRect.x
                     + 10;
  8897                        	.line	1633
  8898 09:265F: 18           	clc
  8899 09:2660: A9 0A 00     	lda	#$a
  8900 09:2663: A0 2A 00     	ldy	#$2a
  8901 09:2666: 77 11        	adc	[<L154+pWin_1],Y
  8902 09:2668: 85 29        	sta	<L154+r_1
  8903                        ;				r.y = pWin->clientRect.y
  Mon Sep 27 2021  9:39                                                Page 189


                     + 10;
  8904                        	.line	1634
  8905 09:266A: 18           	clc
  8906 09:266B: A9 0A 00     	lda	#$a
  8907 09:266E: A0 2C 00     	ldy	#$2c
  8908 09:2671: 77 11        	adc	[<L154+pWin_1],Y
  8909 09:2673: 85 2B        	sta	<L154+r_1+2
  8910                        ;				r.width = pWin->clientRe
                    ct.width - 20;
  8911                        	.line	1635
  8912 09:2675: 18           	clc
  8913 09:2676: A9 EC FF     	lda	#$ffec
  8914 09:2679: A0 32 00     	ldy	#$32
  8915 09:267C: 77 11        	adc	[<L154+pWin_1],Y
  8916 09:267E: 85 31        	sta	<L154+r_1+8
  8917                        ;				r.height = pWin->clientR
                    ect.height - 38;
  8918                        	.line	1636
  8919 09:2680: 18           	clc
  8920 09:2681: A9 DA FF     	lda	#$ffda
  8921 09:2684: A0 34 00     	ldy	#$34
  8922 09:2687: 77 11        	adc	[<L154+pWin_1],Y
  8923 09:2689: 85 33        	sta	<L154+r_1+10
  8924                        ;
  8925                        ;				k_debug_pointer("testWin
                    dowProc::FX_DRAW_WINDOW:NO-CONTENT:",&r);
  8926                        	.line	1638
  8927 09:268B: F4 00 00     	pea	#0
  8928 09:268E: 18           	clc
  8929 09:268F: 7B           	tdc
  8930 09:2690: 69 29 00     	adc	#<L154+r_1
  8931 09:2693: 48           	pha
  8932 09:2694: F4 xx xx     	pea	#^L152+80
  8933 09:2697: F4 xx xx     	pea	#<L152+80
  8934 09:269A: 22 xx xx xx  	jsl	~~k_debug_pointer
  8935                        ;
  8936                        ;
  8937                        ;				k_gui_DrawText ((HWND)pW
                    in,
  8938                        	.line	1641
  8939                        ;							
                    	"No Content",
  8940                        ;							
                    	k_user_getFontClass("ToshibaLCD8x8"),
  8941                        ;							
                    	DTS_LEFTJUSTIFY,// | DTS_NOCLIP,
  8942                        ;							
                    	&r,
  8943                        ;							
                    	15,
  8944                        ;							
                    	pWin->nBitmapLayer);
  8945 09:269E: A0 9E 01     	ldy	#$19e
  8946 09:26A1: B7 11        	lda	[<L154+pWin_1],Y
  8947 09:26A3: 48           	pha
  8948 09:26A4: F4 0F 00     	pea	#<$f
  8949 09:26A7: F4 00 00     	pea	#0
  8950 09:26AA: 18           	clc
  Mon Sep 27 2021  9:39                                                Page 190


  8951 09:26AB: 7B           	tdc
  8952 09:26AC: 69 29 00     	adc	#<L154+r_1
  8953 09:26AF: 48           	pha
  8954 09:26B0: F4 00 00     	pea	#<$0
  8955 09:26B3: F4 xx xx     	pea	#^L152+134
  8956 09:26B6: F4 xx xx     	pea	#<L152+134
  8957 09:26B9: 22 xx xx xx  	jsl	~~k_user_getFontClass
  8958 09:26BD: 85 01        	sta	<R0
  8959 09:26BF: 86 03        	stx	<R0+2
  8960 09:26C1: DA           	phx
  8961 09:26C2: 48           	pha
  8962 09:26C3: F4 xx xx     	pea	#^L152+123
  8963 09:26C6: F4 xx xx     	pea	#<L152+123
  8964 09:26C9: D4 13        	pei	<L154+pWin_1+2
  8965 09:26CB: D4 11        	pei	<L154+pWin_1
  8966 09:26CD: 22 xx xx xx  	jsl	~~k_gui_DrawText
  8967                        ;
  8968                        ;
  8969                        ;				/*
  8970                        ;				k_draw_text_point_ex("No
                     Content",
  8971                        ;							
                    		 r.x,
  8972                        ;							
                    		 r.y,
  8973                        ;							
                    		 15,
  8974                        ;							
                    		 pWin->nBitmapLayer);
  8975                        ;				*/
  8976                        ;			}
  8977                        	.line	1657
  8978                        L10172:
  8979                        ;
  8980                        ;
  8981                        ;			break;
  8982                        	.line	1660
  8983 09:26D1: 82 45 01     	brl	L10167
  8984                        ;		case FX_MOUSE_MOVE:
  8985                        	.line	1661
  8986                        L10173:
  8987                        ;			//k_debug_string("testWindowProc
                    ::FX_MOUSE_MOVE\r\n");
  8988                        ;			break;
  8989                        	.line	1663
  8990 09:26D4: 82 42 01     	brl	L10167
  8991                        ;		//case FX_NC_MOUSE_MOVE:
  8992                        ;		//	k_debug_string("testWindowProc::
                    FX_NC_MOUSE_MOVE\r\n");
  8993                        ;		//	break;
  8994                        ;
  8995                        ;		case FX_LBUTTON_DRAG:
  8996                        	.line	1668
  8997                        L10174:
  8998                        ;			k_debug_string("testWindowProc::
                    FX_LBUTTON_DRAG\r\n");
  8999                        	.line	1669
  9000 09:26D7: F4 xx xx     	pea	#^L152+148
  Mon Sep 27 2021  9:39                                                Page 191


  9001 09:26DA: F4 xx xx     	pea	#<L152+148
  9002 09:26DD: 22 xx xx xx  	jsl	~~k_debug_string
  9003                        ;			break;
  9004                        	.line	1670
  9005 09:26E1: 82 35 01     	brl	L10167
  9006                        ;
  9007                        ;
  9008                        ;		case FX_LBUTTON_DBLCLICK:
  9009                        	.line	1673
  9010                        L10175:
  9011                        ;
  9012                        ;			//k_getWindowRect(pMsg->hwnd,&wi
                    nRect);
  9013                        ;			//k_vdma_copy_address_ex((LPVOID
                    )(0x100000 | k_gui_get_pixel_offset(20,20)),(LPVOID)(k_gui_g
                    et_pixel_offset(winRect.x,winRect.y)),winRect.width,winRect.
                    height);
  9014                        ;
  9015                        ;			//k_switch_window_page(pMsg->hwn
                    d,BITMAP_BACK,BITMAP_FRONT,TRUE);
  9016                        ;			//k_switch_window_page(pMsg->hwn
                    d,BITMAP_BACK,BITMAP_FRONT,FALSE);
  9017                        ;
  9018                        ;			pWin = k_getWindowFromHandle(pMs
                    g->hwnd);
  9019                        	.line	1681
  9020 09:26E4: A0 0C 00     	ldy	#$c
  9021 09:26E7: B7 4A        	lda	[<L153+pMsg_0],Y
  9022 09:26E9: 48           	pha
  9023 09:26EA: A0 0A 00     	ldy	#$a
  9024 09:26ED: B7 4A        	lda	[<L153+pMsg_0],Y
  9025 09:26EF: 48           	pha
  9026 09:26F0: 22 xx xx xx  	jsl	~~k_getWindowFromHandle
  9027 09:26F4: 85 11        	sta	<L154+pWin_1
  9028 09:26F6: 86 13        	stx	<L154+pWin_1+2
  9029                        ;
  9030                        ;			for(index = 0;index<8;index++)
  9031                        	.line	1683
  9032 09:26F8: 64 19        	stz	<L154+index_1
  9033                        L10178:
  9034                        ;			{
  9035                        	.line	1684
  9036                        ;				k_debug_rect("testWindow
                    Proc::nonclientGadgets:rect:",&pWin->nonclientGadgets[index]
                    .area);
  9037                        	.line	1685
  9038 09:26FA: A0 00 00     	ldy	#$0
  9039 09:26FD: A5 19        	lda	<L154+index_1
  9040 09:26FF: 10 01        	bpl	L162
  9041 09:2701: 88           	dey
  9042                        L162:
  9043 09:2702: 85 01        	sta	<R0
  9044 09:2704: 84 03        	sty	<R0+2
  9045 09:2706: F4 00 00     	pea	#^$11
  9046 09:2709: F4 11 00     	pea	#<$11
  9047 09:270C: D4 03        	pei	<R0+2
  9048 09:270E: D4 01        	pei	<R0
  9049                        	xref	~~~lmul
  Mon Sep 27 2021  9:39                                                Page 192


  9050 09:2710: 22 xx xx xx  	jsl	~~~lmul
  9051 09:2714: 85 01        	sta	<R0
  9052 09:2716: 86 03        	stx	<R0+2
  9053 09:2718: 18           	clc
  9054 09:2719: A9 38 00     	lda	#$38
  9055 09:271C: 65 01        	adc	<R0
  9056 09:271E: 85 05        	sta	<R1
  9057 09:2720: A9 00 00     	lda	#$0
  9058 09:2723: 65 03        	adc	<R0+2
  9059 09:2725: 85 07        	sta	<R1+2
  9060 09:2727: 18           	clc
  9061 09:2728: A5 11        	lda	<L154+pWin_1
  9062 09:272A: 65 05        	adc	<R1
  9063 09:272C: 85 01        	sta	<R0
  9064 09:272E: A5 13        	lda	<L154+pWin_1+2
  9065 09:2730: 65 07        	adc	<R1+2
  9066 09:2732: 85 03        	sta	<R0+2
  9067 09:2734: D4 03        	pei	<R0+2
  9068 09:2736: D4 01        	pei	<R0
  9069 09:2738: F4 xx xx     	pea	#^L152+182
  9070 09:273B: F4 xx xx     	pea	#<L152+182
  9071 09:273E: 22 xx xx xx  	jsl	~~k_debug_rect
  9072                        ;			}
  9073                        	.line	1686
  9074                        L10176:
  9075 09:2742: E6 19        	inc	<L154+index_1
  9076 09:2744: 38           	sec
  9077 09:2745: A5 19        	lda	<L154+index_1
  9078 09:2747: E9 08 00     	sbc	#<$8
  9079 09:274A: 70 03        	bvs	L163
  9080 09:274C: 49 00 80     	eor	#$8000
  9081                        L163:
  9082 09:274F: 30 03        	bmi	L164
  9083 09:2751: 82 A6 FF     	brl	L10178
  9084                        L164:
  9085                        L10177:
  9086                        ;
  9087                        ;
  9088                        ;			break;
  9089                        	.line	1689
  9090 09:2754: 82 C2 00     	brl	L10167
  9091                        ;		case FX_MBUTTON_DOWN:
  9092                        	.line	1690
  9093                        L10179:
  9094                        ;			if(pMsg->type!=FX_PROCESS)
  9095                        	.line	1691
  9096                        ;			{
  9097 09:2757: A0 08 00     	ldy	#$8
  9098 09:275A: B7 4A        	lda	[<L153+pMsg_0],Y
  9099 09:275C: C9 00 FF     	cmp	#<$ff00
  9100 09:275F: D0 03        	bne	L165
  9101 09:2761: 82 0A 00     	brl	L10180
  9102                        L165:
  9103                        	.line	1692
  9104                        ;				//k_debug_integer("conso
                    leWindowProc::ProcessId:",p->procId);
  9105                        ;				k_debug_string("testWind
                    owProc::FX_MBUTTON_DOWN\r\n");
  Mon Sep 27 2021  9:39                                                Page 193


  9106                        	.line	1694
  9107 09:2764: F4 xx xx     	pea	#^L152+221
  9108 09:2767: F4 xx xx     	pea	#<L152+221
  9109 09:276A: 22 xx xx xx  	jsl	~~k_debug_string
  9110                        ;			}
  9111                        	.line	1695
  9112                        ;
  9113                        ;			break;
  9114                        L10180:
  9115                        	.line	1697
  9116 09:276E: 82 A8 00     	brl	L10167
  9117                        ;		case FX_LBUTTON_DOWN:
  9118                        	.line	1698
  9119                        L10181:
  9120                        ;			k_debug_string("testWindowProc::
                    FX_LBUTTON_DOWN\r\n");
  9121                        	.line	1699
  9122 09:2771: F4 xx xx     	pea	#^L152+255
  9123 09:2774: F4 xx xx     	pea	#<L152+255
  9124 09:2777: 22 xx xx xx  	jsl	~~k_debug_string
  9125                        ;
  9126                        ;			//index = (INT)((ULONG)k_user_Ge
                    tWindowData(pMsg->hwnd,4));
  9127                        ;			//k_user_SetWindowData(pMsg->hwn
                    d,4,(LPVOID)(index - 1));
  9128                        ;
  9129                        ;			break;
  9130                        	.line	1704
  9131 09:277B: 82 9B 00     	brl	L10167
  9132                        ;
  9133                        ;		case FX_LBUTTON_UP:
  9134                        	.line	1706
  9135                        L10182:
  9136                        ;			k_debug_string("testWindowProc::
                    FX_LBUTTON_UP\r\n");
  9137                        	.line	1707
  9138 09:277E: F4 xx xx     	pea	#^L152+289
  9139 09:2781: F4 xx xx     	pea	#<L152+289
  9140 09:2784: 22 xx xx xx  	jsl	~~k_debug_string
  9141                        ;			k_send_window_message(pMsg->hwnd
                    ,FX_DRAW_WINDOW,NULL,0);
  9142                        	.line	1708
  9143 09:2788: F4 00 00     	pea	#<$0
  9144 09:278B: F4 00 00     	pea	#^$0
  9145 09:278E: F4 00 00     	pea	#<$0
  9146 09:2791: F4 00 FB     	pea	#<$fb00
  9147 09:2794: A0 0C 00     	ldy	#$c
  9148 09:2797: B7 4A        	lda	[<L153+pMsg_0],Y
  9149 09:2799: 48           	pha
  9150 09:279A: A0 0A 00     	ldy	#$a
  9151 09:279D: B7 4A        	lda	[<L153+pMsg_0],Y
  9152 09:279F: 48           	pha
  9153 09:27A0: 22 xx xx xx  	jsl	~~k_send_window_message
  9154                        ;			break;
  9155                        	.line	1709
  9156 09:27A4: 82 72 00     	brl	L10167
  9157                        ;			//case FX_NC_LBUTTON_DOWN:
  9158                        ;		//	k_debug_string("testWindowProc::
  Mon Sep 27 2021  9:39                                                Page 194


                    FX_NC_LBUTTON_DOWN\r\n");
  9159                        ;		//	k_event_lock_focus(pMsg->hwnd);
  9160                        ;		//	break;
  9161                        ;		//case FX_RBUTTON_DOWN:
  9162                        ;		//case FX_NC_RBUTTON_DOWN:
  9163                        ;		//	k_debug_string("testWindowProc::
                    FX_RBUTTON_DOWN or FX_NC_RBUTTON_DOWN\r\n");
  9164                        ;		//	k_event_unlock_focus();
  9165                        ;		//	break;
  9166                        ;		case FX_MIN_WINDOW:
  9167                        	.line	1719
  9168                        L10183:
  9169                        ;			k_switch_window_page(pMsg->hwnd,
                    BITMAP_BACK,BITMAP_FRONT,TRUE);
  9170                        	.line	1720
  9171 09:27A7: F4 01 00     	pea	#<$1
  9172 09:27AA: F4 00 00     	pea	#<$0
  9173 09:27AD: F4 08 00     	pea	#<$8
  9174 09:27B0: A0 0C 00     	ldy	#$c
  9175 09:27B3: B7 4A        	lda	[<L153+pMsg_0],Y
  9176 09:27B5: 48           	pha
  9177 09:27B6: A0 0A 00     	ldy	#$a
  9178 09:27B9: B7 4A        	lda	[<L153+pMsg_0],Y
  9179 09:27BB: 48           	pha
  9180 09:27BC: 22 xx xx xx  	jsl	~~k_switch_window_page
  9181                        ;			break;
  9182                        	.line	1721
  9183 09:27C0: 82 56 00     	brl	L10167
  9184                        ;		case FX_MAX_WINDOW:
  9185                        	.line	1722
  9186                        L10184:
  9187                        ;			k_switch_window_page(pMsg->hwnd,
                    BITMAP_FRONT,BITMAP_BACK,FALSE);
  9188                        	.line	1723
  9189 09:27C3: F4 00 00     	pea	#<$0
  9190 09:27C6: F4 08 00     	pea	#<$8
  9191 09:27C9: F4 00 00     	pea	#<$0
  9192 09:27CC: A0 0C 00     	ldy	#$c
  9193 09:27CF: B7 4A        	lda	[<L153+pMsg_0],Y
  9194 09:27D1: 48           	pha
  9195 09:27D2: A0 0A 00     	ldy	#$a
  9196 09:27D5: B7 4A        	lda	[<L153+pMsg_0],Y
  9197 09:27D7: 48           	pha
  9198 09:27D8: 22 xx xx xx  	jsl	~~k_switch_window_page
  9199                        ;			break;
  9200                        	.line	1724
  9201 09:27DC: 82 3A 00     	brl	L10167
  9202                        ;			/*
  9203                        ;		case FX_WINDOW_CLOSE:
  9204                        ;			pWin = k_getWindowFromHandle(pMs
                    g->hwnd);
  9205                        ;			k_vdma_fill_rect_ex(pWin->win_x,
                    pWin->win_y, pWin->win_width, pWin->win_height,
  9206                        ;					            FILL
                    COLOR_TRANSPARENT,BITMAP_FRONT);
  9207                        ;			k_vdma_fill_rect_ex(pWin->win_x,
                    pWin->win_y, pWin->win_width, pWin->win_height,
  9208                        ;							
  Mon Sep 27 2021  9:39                                                Page 195


                    	k_getUIBackgroundColor(),BITMAP_BACK);
  9209                        ;			return FALSE;
  9210                        ;			*/
  9211                        ;		case FX_PROCESS_TIMER:
  9212                        	.line	1734
  9213                        L10185:
  9214                        ;			//k_send_window_message(pMsg->hw
                    nd,FX_DRAW_WINDOW,NULL,0);
  9215                        ;			break;
  9216                        	.line	1736
  9217 09:27DF: 82 37 00     	brl	L10167
  9218                        ;		default:
  9219                        	.line	1737
  9220                        L10186:
  9221                        ;			break;
  9222                        	.line	1738
  9223 09:27E2: 82 34 00     	brl	L10167
  9224                        ;		}
  9225                        	.line	1739
  9226                        L10166:
  9227                        	xref	~~~swt
  9228 09:27E5: 22 xx xx xx  	jsl	~~~swt
  9229 09:27E9: 0B 00        	dw	11
  9230 09:27EB: 03 0F        	dw	3843
  9231 09:27ED: D3 26        	dw	L10173-1
  9232 09:27EF: 04 0F        	dw	3844
  9233 09:27F1: 70 27        	dw	L10181-1
  9234 09:27F3: 05 0F        	dw	3845
  9235 09:27F5: D6 26        	dw	L10174-1
  9236 09:27F7: 06 0F        	dw	3846
  9237 09:27F9: 7D 27        	dw	L10182-1
  9238 09:27FB: 07 0F        	dw	3847
  9239 09:27FD: E3 26        	dw	L10175-1
  9240 09:27FF: 0C 0F        	dw	3852
  9241 09:2801: 56 27        	dw	L10179-1
  9242 09:2803: 00 FB        	dw	64256
  9243 09:2805: 24 25        	dw	L10170-1
  9244 09:2807: 09 FB        	dw	64265
  9245 09:2809: A6 27        	dw	L10183-1
  9246 09:280B: 0A FB        	dw	64266
  9247 09:280D: C2 27        	dw	L10184-1
  9248 09:280F: 03 FF        	dw	65283
  9249 09:2811: D9 24        	dw	L10168-1
  9250 09:2813: F1 FF        	dw	65521
  9251 09:2815: DE 27        	dw	L10185-1
  9252 09:2817: E1 27        	dw	L10186-1
  9253                        L10167:
  9254                        ;	}
  9255                        	.line	1740
  9256                        ;
  9257                        ;	return DefWindowProc(pMsg);
  9258                        L10165:
  9259                        	.line	1742
  9260 09:2819: D4 4C        	pei	<L153+pMsg_0+2
  9261 09:281B: D4 4A        	pei	<L153+pMsg_0
  9262 09:281D: 22 xx xx xx  	jsl	~~DefWindowProc
  9263 09:2821: E2 20        	sep	#$20
  9264                        	longa	off
  Mon Sep 27 2021  9:39                                                Page 196


  9265 09:2823: 85 01        	sta	<R0
  9266 09:2825: C2 20        	rep	#$20
  9267                        	longa	on
  9268 09:2827: A5 01        	lda	<R0
  9269 09:2829: 29 FF 00     	and	#$ff
  9270                        L166:
  9271 09:282C: A8           	tay
  9272 09:282D: A5 48        	lda	<L153+2
  9273 09:282F: 85 4C        	sta	<L153+2+4
  9274 09:2831: A5 47        	lda	<L153+1
  9275 09:2833: 85 4B        	sta	<L153+1+4
  9276 09:2835: 2B           	pld
  9277 09:2836: 3B           	tsc
  9278 09:2837: 18           	clc
  9279 09:2838: 69 4A 00     	adc	#L153+4
  9280 09:283B: 1B           	tcs
  9281 09:283C: 98           	tya
  9282 09:283D: 6B           	rtl
  9283                        ;}
  9284                        	.line	1743
  9285                        	.endblock	1743
  9286             00000046   L153	equ	70
  9287             0000000D   L154	equ	13
  9288 09:283E:              	ends
  9289                        	efunc
  9290                        	.endfunc	1743,13,70
  9291                        	.line	1743
  9292                        	data
  9293                        L152:
  9294 00:0F84: 74 65 73 74  	db	$74,$65,$73,$74,$57,$69,$6E,$64,$6F,$77,
                    $50,$72,$6F,$63,$3A
       00:0F88: 57 69 6E 64 
       00:0F8C: 6F 77 50 72 
       00:0F90: 6F 63 3A 
  9295 00:0F93: 3A 46 58 5F  	db	$3A,$46,$58,$5F,$43,$52,$45,$41,$54,$45,
                    $5F,$57,$49,$4E,$44
       00:0F97: 43 52 45 41 
       00:0F9B: 54 45 5F 57 
       00:0F9F: 49 4E 44 
  9296 00:0FA2: 4F 57 3A 00  	db	$4F,$57,$3A,$00,$74,$65,$73,$74,$57,$69,
                    $6E,$64,$6F,$77,$50
       00:0FA6: 74 65 73 74 
       00:0FAA: 57 69 6E 64 
       00:0FAE: 6F 77 50 
  9297 00:0FB1: 72 6F 63 3A  	db	$72,$6F,$63,$3A,$3A,$46,$58,$5F,$44,$52,
                    $41,$57,$5F,$57,$49
       00:0FB5: 3A 46 58 5F 
       00:0FB9: 44 52 41 57 
       00:0FBD: 5F 57 49 
  9298 00:0FC0: 4E 44 4F 57  	db	$4E,$44,$4F,$57,$3A,$00,$54,$6F,$73,$68,
                    $69,$62,$61,$4C,$43
       00:0FC4: 3A 00 54 6F 
       00:0FC8: 73 68 69 62 
       00:0FCC: 61 4C 43 
  9299 00:0FCF: 44 38 78 38  	db	$44,$38,$78,$38,$00,$74,$65,$73,$74,$57,
                    $69,$6E,$64,$6F,$77
       00:0FD3: 00 74 65 73 
       00:0FD7: 74 57 69 6E 
  Mon Sep 27 2021  9:39                                                Page 197


       00:0FDB: 64 6F 77 
  9300 00:0FDE: 50 72 6F 63  	db	$50,$72,$6F,$63,$3A,$3A,$46,$58,$5F,$44,
                    $52,$41,$57,$5F,$57
       00:0FE2: 3A 3A 46 58 
       00:0FE6: 5F 44 52 41 
       00:0FEA: 57 5F 57 
  9301 00:0FED: 49 4E 44 4F  	db	$49,$4E,$44,$4F,$57,$3A,$4E,$4F,$2D,$43,
                    $4F,$4E,$54,$45,$4E
       00:0FF1: 57 3A 4E 4F 
       00:0FF5: 2D 43 4F 4E 
       00:0FF9: 54 45 4E 
  9302 00:0FFC: 54 3A 00 4E  	db	$54,$3A,$00,$4E,$6F,$20,$43,$6F,$6E,$74,
                    $65,$6E,$74,$00,$54
       00:1000: 6F 20 43 6F 
       00:1004: 6E 74 65 6E 
       00:1008: 74 00 54 
  9303 00:100B: 6F 73 68 69  	db	$6F,$73,$68,$69,$62,$61,$4C,$43,$44,$38,
                    $78,$38,$00,$74,$65
       00:100F: 62 61 4C 43 
       00:1013: 44 38 78 38 
       00:1017: 00 74 65 
  9304 00:101A: 73 74 57 69  	db	$73,$74,$57,$69,$6E,$64,$6F,$77,$50,$72,
                    $6F,$63,$3A,$3A,$46
       00:101E: 6E 64 6F 77 
       00:1022: 50 72 6F 63 
       00:1026: 3A 3A 46 
  9305 00:1029: 58 5F 4C 42  	db	$58,$5F,$4C,$42,$55,$54,$54,$4F,$4E,$5F,
                    $44,$52,$41,$47,$0D
       00:102D: 55 54 54 4F 
       00:1031: 4E 5F 44 52 
       00:1035: 41 47 0D 
  9306 00:1038: 0A 00 74 65  	db	$0A,$00,$74,$65,$73,$74,$57,$69,$6E,$64,
                    $6F,$77,$50,$72,$6F
       00:103C: 73 74 57 69 
       00:1040: 6E 64 6F 77 
       00:1044: 50 72 6F 
  9307 00:1047: 63 3A 3A 6E  	db	$63,$3A,$3A,$6E,$6F,$6E,$63,$6C,$69,$65,
                    $6E,$74,$47,$61,$64
       00:104B: 6F 6E 63 6C 
       00:104F: 69 65 6E 74 
       00:1053: 47 61 64 
  9308 00:1056: 67 65 74 73  	db	$67,$65,$74,$73,$3A,$72,$65,$63,$74,$3A,
                    $00,$74,$65,$73,$74
       00:105A: 3A 72 65 63 
       00:105E: 74 3A 00 74 
       00:1062: 65 73 74 
  9309 00:1065: 57 69 6E 64  	db	$57,$69,$6E,$64,$6F,$77,$50,$72,$6F,$63,
                    $3A,$3A,$46,$58,$5F
       00:1069: 6F 77 50 72 
       00:106D: 6F 63 3A 3A 
       00:1071: 46 58 5F 
  9310 00:1074: 4D 42 55 54  	db	$4D,$42,$55,$54,$54,$4F,$4E,$5F,$44,$4F,
                    $57,$4E,$0D,$0A,$00
       00:1078: 54 4F 4E 5F 
       00:107C: 44 4F 57 4E 
       00:1080: 0D 0A 00 
  9311 00:1083: 74 65 73 74  	db	$74,$65,$73,$74,$57,$69,$6E,$64,$6F,$77,
                    $50,$72,$6F,$63,$3A
  Mon Sep 27 2021  9:39                                                Page 198


       00:1087: 57 69 6E 64 
       00:108B: 6F 77 50 72 
       00:108F: 6F 63 3A 
  9312 00:1092: 3A 46 58 5F  	db	$3A,$46,$58,$5F,$4C,$42,$55,$54,$54,$4F,
                    $4E,$5F,$44,$4F,$57
       00:1096: 4C 42 55 54 
       00:109A: 54 4F 4E 5F 
       00:109E: 44 4F 57 
  9313 00:10A1: 4E 0D 0A 00  	db	$4E,$0D,$0A,$00,$74,$65,$73,$74,$57,$69,
                    $6E,$64,$6F,$77,$50
       00:10A5: 74 65 73 74 
       00:10A9: 57 69 6E 64 
       00:10AD: 6F 77 50 
  9314 00:10B0: 72 6F 63 3A  	db	$72,$6F,$63,$3A,$3A,$46,$58,$5F,$4C,$42,
                    $55,$54,$54,$4F,$4E
       00:10B4: 3A 46 58 5F 
       00:10B8: 4C 42 55 54 
       00:10BC: 54 4F 4E 
  9315 00:10BF: 5F 55 50 0D  	db	$5F,$55,$50,$0D,$0A,$00
       00:10C3: 0A 00 
  9316 00:10C5:              	ends
  9317                        ;
  9318                        ;
  9319                        ;
  9320                        ;
  9321                        ;
  9322                        ;
  9323                        ;BOOL preferencesWindowProc(PFXOSMESSAGE pMsg)
  9324                        ;{
  9325                        	.line	1750
  9326                        	.line	1751
  9327                        	DTOP
  9328                        	xdef	~~preferencesWindowProc
  9329                        	func
  9330                        	.function	1751
  9331                        ~~preferencesWindowProc:
  9332                        	longa	on
  9333                        	longi	on
  9334 09:283E: 3B           	tsc
  9335 09:283F: 38           	sec
  9336 09:2840: E9 36 00     	sbc	#L168
  9337 09:2843: 1B           	tcs
  9338 09:2844: 0B           	phd
  9339 09:2845: 5B           	tcd
  9340             00000004   pMsg_0	set	4
  9341                        	.block	1751
  9342                        ;	PFXPROCESS p = NULL;
  9343                        ;	PPOINT ppoint;
  9344                        ;	PWINDOW pWin = NULL;
  9345                        ;	RECT r;
  9346                        ;	UCHAR buffer[16];
  9347                        ;
  9348                        ;	if(pMsg!=NULL)
  9349             00000000   p_1	set	0
  9350             00000004   ppoint_1	set	4
  9351             00000008   pWin_1	set	8
  9352             0000000C   r_1	set	12
  9353             0000001A   buffer_1	set	26
  Mon Sep 27 2021  9:39                                                Page 199


  9354                        	.sym	p,0,138,1,32,17
  9355                        	.sym	ppoint,4,138,1,32,22
  9356                        	.sym	pWin,8,138,1,32,30
  9357                        	.sym	r,12,10,1,112,23
  9358                        	.sym	buffer,26,110,1,0,16
  9359                        	.sym	pMsg,4,138,6,32,13
  9360 09:2846: 64 0D        	stz	<L169+p_1
  9361 09:2848: 64 0F        	stz	<L169+p_1+2
  9362 09:284A: 64 15        	stz	<L169+pWin_1
  9363 09:284C: 64 17        	stz	<L169+pWin_1+2
  9364                        	.line	1758
  9365                        ;	{
  9366 09:284E: A5 3A        	lda	<L168+pMsg_0
  9367 09:2850: 05 3C        	ora	<L168+pMsg_0+2
  9368 09:2852: D0 03        	bne	L171
  9369 09:2854: 82 41 02     	brl	L10187
  9370                        L171:
  9371                        	.line	1759
  9372                        ;		p = k_exec_get_current_process();
  9373                        	.line	1760
  9374 09:2857: 22 xx xx xx  	jsl	~~k_exec_get_current_process
  9375 09:285B: 85 0D        	sta	<L169+p_1
  9376 09:285D: 86 0F        	stx	<L169+p_1+2
  9377                        ;		pWin =  k_getWindowFromHandle(pMsg->hwnd
                    );
  9378                        	.line	1761
  9379 09:285F: A0 0C 00     	ldy	#$c
  9380 09:2862: B7 3A        	lda	[<L168+pMsg_0],Y
  9381 09:2864: 48           	pha
  9382 09:2865: A0 0A 00     	ldy	#$a
  9383 09:2868: B7 3A        	lda	[<L168+pMsg_0],Y
  9384 09:286A: 48           	pha
  9385 09:286B: 22 xx xx xx  	jsl	~~k_getWindowFromHandle
  9386 09:286F: 85 15        	sta	<L169+pWin_1
  9387 09:2871: 86 17        	stx	<L169+pWin_1+2
  9388                        ;		//k_debug_long("consoleWindowProc::Proce
                    ssId:",p->procId);
  9389                        ;
  9390                        ;		switch(pMsg->type)
  9391                        	.line	1764
  9392 09:2873: A0 08 00     	ldy	#$8
  9393 09:2876: B7 3A        	lda	[<L168+pMsg_0],Y
  9394 09:2878: 82 F5 01     	brl	L10188
  9395                        ;		{
  9396                        	.line	1765
  9397                        ;		case FX_CREATE_WINDOW:
  9398                        	.line	1766
  9399                        L10190:
  9400                        ;			if(p)
  9401                        	.line	1767
  9402                        ;			{
  9403 09:287B: A5 0D        	lda	<L169+p_1
  9404 09:287D: 05 0F        	ora	<L169+p_1+2
  9405 09:287F: D0 03        	bne	L172
  9406 09:2881: 82 27 00     	brl	L10191
  9407                        L172:
  9408                        	.line	1768
  9409                        ;				k_debug_long("preference
  Mon Sep 27 2021  9:39                                                Page 200


                    sWindowProc::FX_CREATE_WINDOW:",p->procId);
  9410                        	.line	1769
  9411 09:2884: A0 04 00     	ldy	#$4
  9412 09:2887: B7 0D        	lda	[<L169+p_1],Y
  9413 09:2889: 48           	pha
  9414 09:288A: A0 02 00     	ldy	#$2
  9415 09:288D: B7 0D        	lda	[<L169+p_1],Y
  9416 09:288F: 48           	pha
  9417 09:2890: F4 xx xx     	pea	#^L167
  9418 09:2893: F4 xx xx     	pea	#<L167
  9419 09:2896: 22 xx xx xx  	jsl	~~k_debug_long
  9420                        ;				//k_user_SetWindowData(p
                    Msg->hwnd,0,k_user_CreateButton(pMsg->hwnd,"Test",0x8801,10,
                    10,20,10));
  9421                        ;				//k_debug_integer("testW
                    indowProc::MessageId:",pMsg->type);
  9422                        ;
  9423                        ;
  9424                        ;				//k_user_CreateHorizonta
                    lScrollbar(pWin,"",1);
  9425                        ;				k_user_CreateVerticalScr
                    ollBar(pWin,"",1);
  9426                        	.line	1775
  9427 09:289A: F4 01 00     	pea	#<$1
  9428 09:289D: F4 xx xx     	pea	#^L167+41
  9429 09:28A0: F4 xx xx     	pea	#<L167+41
  9430 09:28A3: D4 17        	pei	<L169+pWin_1+2
  9431 09:28A5: D4 15        	pei	<L169+pWin_1
  9432 09:28A7: 22 xx xx xx  	jsl	~~k_user_CreateVerticalScrollBar
  9433                        ;
  9434                        ;			}
  9435                        	.line	1777
  9436                        ;			break;
  9437                        L10191:
  9438                        	.line	1778
  9439 09:28AB: 82 EA 01     	brl	L10189
  9440                        ;
  9441                        ;		case FX_PROCESS_TIMER:
  9442                        	.line	1780
  9443                        L10192:
  9444                        ;			//k_debug_string("preferencesWin
                    dowProc::FX_PROCESS_TIMER\r\n");
  9445                        ;
  9446                        ;			/*
  9447                        ;			p->desktopCtl->cursorState=!p->d
                    esktopCtl->cursorState;
  9448                        ;
  9449                        ;			r.x = 0;
  9450                        ;			r.y = 20;
  9451                        ;
  9452                        ;			if(p->desktopCtl->cursorState)
  9453                        ;				k_user_DrawWindowTextToP
                    ointWithFont(k_getHandleFromWindow(k_user_getFocusWindow()),
                    "\xAF",k_getUIBackgroundColor(),&r,(LPCSTR)k_user_getFontCla
                    ss("FXOS8x8"));
  9454                        ;			else
  9455                        ;				k_user_DrawWindowTextToP
                    ointWithFont(k_getHandleFromWindow(k_user_getFocusWindow()),
  Mon Sep 27 2021  9:39                                                Page 201


                    "\xAE",k_getUIMenuColor(),&r,(LPCSTR)k_user_getFontClass("FX
                    OS8x8"));
  9456                        ;
  9457                        ;			*/
  9458                        ;
  9459                        ;
  9460                        ;			break;
  9461                        	.line	1797
  9462 09:28AE: 82 E7 01     	brl	L10189
  9463                        ;		case FX_DRAW_WINDOW:
  9464                        	.line	1798
  9465                        L10193:
  9466                        ;			k_debug_string("preferencesWindo
                    wProc::FX_DRAW_WINDOW\r\n");
  9467                        	.line	1799
  9468 09:28B1: F4 xx xx     	pea	#^L167+42
  9469 09:28B4: F4 xx xx     	pea	#<L167+42
  9470 09:28B7: 22 xx xx xx  	jsl	~~k_debug_string
  9471                        ;
  9472                        ;			ppoint = ((PEACHCHILD_MSG)pMsg)-
                    >msgData;
  9473                        	.line	1801
  9474 09:28BB: A0 02 00     	ldy	#$2
  9475 09:28BE: B7 3A        	lda	[<L168+pMsg_0],Y
  9476 09:28C0: 85 11        	sta	<L169+ppoint_1
  9477 09:28C2: A0 04 00     	ldy	#$4
  9478 09:28C5: B7 3A        	lda	[<L168+pMsg_0],Y
  9479 09:28C7: 85 13        	sta	<L169+ppoint_1+2
  9480                        ;
  9481                        ;			/*
  9482                        ;			k_vdma_fill_rect(pWin->clientRec
                    t.x + ppoint->x,
  9483                        ;							
                     pWin->clientRect.y + ppoint->y,
  9484                        ;							
                     pWin->win_width,pWin->win_height,
  9485                        ;							
                     128);
  9486                        ;			*/
  9487                        ;			//k_user_FillClientRect(pMsg->hw
                    nd,128);
  9488                        ;
  9489                        ;			ppoint = (PPOINT)k_mem_allocate_
                    heap(sizeof(POINT));
  9490                        	.line	1811
  9491 09:28C9: F4 00 00     	pea	#^$4
  9492 09:28CC: F4 04 00     	pea	#<$4
  9493 09:28CF: 22 xx xx xx  	jsl	~~k_mem_allocate_heap
  9494 09:28D3: 85 11        	sta	<L169+ppoint_1
  9495 09:28D5: 86 13        	stx	<L169+ppoint_1+2
  9496                        ;			ppoint->x = pWin->win_x + ppoint
                    ->x;
  9497                        	.line	1812
  9498 09:28D7: 18           	clc
  9499 09:28D8: A0 0C 00     	ldy	#$c
  9500 09:28DB: B7 15        	lda	[<L169+pWin_1],Y
  9501 09:28DD: 67 11        	adc	[<L169+ppoint_1]
  9502 09:28DF: 87 11        	sta	[<L169+ppoint_1]
  Mon Sep 27 2021  9:39                                                Page 202


  9503                        ;			ppoint->y = pWin->win_y + ppoint
                    ->y;
  9504                        	.line	1813
  9505 09:28E1: 18           	clc
  9506 09:28E2: A0 0E 00     	ldy	#$e
  9507 09:28E5: B7 15        	lda	[<L169+pWin_1],Y
  9508 09:28E7: A0 02 00     	ldy	#$2
  9509 09:28EA: 77 11        	adc	[<L169+ppoint_1],Y
  9510 09:28EC: A0 02 00     	ldy	#$2
  9511 09:28EF: 97 11        	sta	[<L169+ppoint_1],Y
  9512                        ;
  9513                        ;
  9514                        ;			_k_user_send_child_message(pMsg-
                    >hwnd,FX_DRAW_WINDOW,ppoint,sizeof(POINT));
  9515                        	.line	1816
  9516 09:28F1: F4 04 00     	pea	#<$4
  9517 09:28F4: D4 13        	pei	<L169+ppoint_1+2
  9518 09:28F6: D4 11        	pei	<L169+ppoint_1
  9519 09:28F8: F4 00 FB     	pea	#<$fb00
  9520 09:28FB: A0 0C 00     	ldy	#$c
  9521 09:28FE: B7 3A        	lda	[<L168+pMsg_0],Y
  9522 09:2900: 48           	pha
  9523 09:2901: A0 0A 00     	ldy	#$a
  9524 09:2904: B7 3A        	lda	[<L168+pMsg_0],Y
  9525 09:2906: 48           	pha
  9526 09:2907: 22 xx xx xx  	jsl	~~_k_user_send_child_message
  9527                        ;			break;
  9528                        	.line	1817
  9529 09:290B: 82 8A 01     	brl	L10189
  9530                        ;		case FX_MBUTTON_DOWN:
  9531                        	.line	1818
  9532                        L10194:
  9533                        ;			if(pMsg->type!=FX_PROCESS)
  9534                        	.line	1819
  9535                        ;			{
  9536 09:290E: A0 08 00     	ldy	#$8
  9537 09:2911: B7 3A        	lda	[<L168+pMsg_0],Y
  9538 09:2913: C9 00 FF     	cmp	#<$ff00
  9539 09:2916: D0 03        	bne	L173
  9540 09:2918: 82 0A 00     	brl	L10195
  9541                        L173:
  9542                        	.line	1820
  9543                        ;				//k_debug_integer("conso
                    leWindowProc::ProcessId:",p->procId);
  9544                        ;				k_debug_string("preferen
                    cesWindowProc::FX_MBUTTON_DOWN\r\n");
  9545                        	.line	1822
  9546 09:291B: F4 xx xx     	pea	#^L167+82
  9547 09:291E: F4 xx xx     	pea	#<L167+82
  9548 09:2921: 22 xx xx xx  	jsl	~~k_debug_string
  9549                        ;			}
  9550                        	.line	1823
  9551                        ;			break;
  9552                        L10195:
  9553                        	.line	1824
  9554 09:2925: 82 70 01     	brl	L10189
  9555                        ;		case FX_LBUTTON_DOWN:
  9556                        	.line	1825
  Mon Sep 27 2021  9:39                                                Page 203


  9557                        L10196:
  9558                        ;			if(pMsg->type!=FX_PROCESS)
  9559                        	.line	1826
  9560                        ;			{
  9561 09:2928: A0 08 00     	ldy	#$8
  9562 09:292B: B7 3A        	lda	[<L168+pMsg_0],Y
  9563 09:292D: C9 00 FF     	cmp	#<$ff00
  9564 09:2930: D0 03        	bne	L174
  9565 09:2932: 82 0A 00     	brl	L10197
  9566                        L174:
  9567                        	.line	1827
  9568                        ;				//k_debug_integer("conso
                    leWindowProc::ProcessId:",p->procId);
  9569                        ;				k_debug_string("preferen
                    cesWindowProc::FX_LBUTTON_DOWN\r\n");
  9570                        	.line	1829
  9571 09:2935: F4 xx xx     	pea	#^L167+123
  9572 09:2938: F4 xx xx     	pea	#<L167+123
  9573 09:293B: 22 xx xx xx  	jsl	~~k_debug_string
  9574                        ;			}
  9575                        	.line	1830
  9576                        ;
  9577                        ;			break;
  9578                        L10197:
  9579                        	.line	1832
  9580 09:293F: 82 56 01     	brl	L10189
  9581                        ;		case FX_MOUSE_ENTER:
  9582                        	.line	1833
  9583                        L10198:
  9584                        ;			k_debug_strings("preferencesWind
                    owProc::FX_MOUSE_ENTER:",pWin->win_title);
  9585                        	.line	1834
  9586 09:2942: 18           	clc
  9587 09:2943: A9 4C 01     	lda	#$14c
  9588 09:2946: 65 15        	adc	<L169+pWin_1
  9589 09:2948: 85 01        	sta	<R0
  9590 09:294A: A9 00 00     	lda	#$0
  9591 09:294D: 65 17        	adc	<L169+pWin_1+2
  9592 09:294F: 85 03        	sta	<R0+2
  9593 09:2951: D4 03        	pei	<R0+2
  9594 09:2953: D4 01        	pei	<R0
  9595 09:2955: F4 xx xx     	pea	#^L167+164
  9596 09:2958: F4 xx xx     	pea	#<L167+164
  9597 09:295B: 22 xx xx xx  	jsl	~~k_debug_strings
  9598                        ;			break;
  9599                        	.line	1835
  9600 09:295F: 82 36 01     	brl	L10189
  9601                        ;		case FX_MOUSE_EXIT:
  9602                        	.line	1836
  9603                        L10199:
  9604                        ;			k_debug_strings("preferencesWind
                    owProc::FX_MOUSE_EXIT:",pWin->win_title);
  9605                        	.line	1837
  9606 09:2962: 18           	clc
  9607 09:2963: A9 4C 01     	lda	#$14c
  9608 09:2966: 65 15        	adc	<L169+pWin_1
  9609 09:2968: 85 01        	sta	<R0
  9610 09:296A: A9 00 00     	lda	#$0
  Mon Sep 27 2021  9:39                                                Page 204


  9611 09:296D: 65 17        	adc	<L169+pWin_1+2
  9612 09:296F: 85 03        	sta	<R0+2
  9613 09:2971: D4 03        	pei	<R0+2
  9614 09:2973: D4 01        	pei	<R0
  9615 09:2975: F4 xx xx     	pea	#^L167+203
  9616 09:2978: F4 xx xx     	pea	#<L167+203
  9617 09:297B: 22 xx xx xx  	jsl	~~k_debug_strings
  9618                        ;			break;
  9619                        	.line	1838
  9620 09:297F: 82 16 01     	brl	L10189
  9621                        ;		case FX_SCROLLBAR_COMMAND:
  9622                        	.line	1839
  9623                        L10200:
  9624                        ;			k_debug_integer("preferencesWind
                    owProc::FX_SCROLLBAR_COMMAND:", ((PFXCMDMESSAGE)pMsg)->cmdCI
                    d );
  9625                        	.line	1840
  9626 09:2982: A0 16 00     	ldy	#$16
  9627 09:2985: B7 3A        	lda	[<L168+pMsg_0],Y
  9628 09:2987: 48           	pha
  9629 09:2988: F4 xx xx     	pea	#^L167+241
  9630 09:298B: F4 xx xx     	pea	#<L167+241
  9631 09:298E: 22 xx xx xx  	jsl	~~k_debug_integer
  9632                        ;			if(((PFXCMDMESSAGE)pMsg)->cmdCId
                     == CTL_HORZ_SCROLL )
  9633                        	.line	1841
  9634                        ;			{
  9635 09:2992: A0 16 00     	ldy	#$16
  9636 09:2995: B7 3A        	lda	[<L168+pMsg_0],Y
  9637 09:2997: C9 02 00     	cmp	#<$2
  9638 09:299A: F0 03        	beq	L175
  9639 09:299C: 82 A9 00     	brl	L10201
  9640                        L175:
  9641                        	.line	1842
  9642                        ;				k_debug_integer("prefere
                    ncesWindowProc::FX_SCROLLBAR_COMMAND:LOCATION:", ((PFXCMDMES
                    SAGE)pMsg)->cmdMId );
  9643                        	.line	1843
  9644 09:299F: A0 18 00     	ldy	#$18
  9645 09:29A2: B7 3A        	lda	[<L168+pMsg_0],Y
  9646 09:29A4: 48           	pha
  9647 09:29A5: F4 xx xx     	pea	#^L167+286
  9648 09:29A8: F4 xx xx     	pea	#<L167+286
  9649 09:29AB: 22 xx xx xx  	jsl	~~k_debug_integer
  9650                        ;				k_debug_integer("prefere
                    ncesWindowProc::FX_SCROLLBAR_COMMAND:VALUE:", ((PFXCMDMESSAG
                    E)pMsg)->parameter1);
  9651                        	.line	1844
  9652 09:29AF: A0 1A 00     	ldy	#$1a
  9653 09:29B2: B7 3A        	lda	[<L168+pMsg_0],Y
  9654 09:29B4: 48           	pha
  9655 09:29B5: F4 xx xx     	pea	#^L167+340
  9656 09:29B8: F4 xx xx     	pea	#<L167+340
  9657 09:29BB: 22 xx xx xx  	jsl	~~k_debug_integer
  9658                        ;
  9659                        ;				r.x = 0;
  9660                        	.line	1846
  9661 09:29BF: 64 19        	stz	<L169+r_1
  Mon Sep 27 2021  9:39                                                Page 205


  9662                        ;				r.y = 0;
  9663                        	.line	1847
  9664 09:29C1: 64 1B        	stz	<L169+r_1+2
  9665                        ;
  9666                        ;				k_user_DrawWindowTextToP
                    ointWithFont(k_getHandleFromWindow(pWin),
  9667                        	.line	1849
  9668                        ;							
                    						 "\xDB\xDB\xDB\x
                    DB\xDB\xDB\xDB\xDB\xDB\xDB",
  9669                        ;						        
                                         k_getUIBackgroundColor(),
  9670                        ;							
                    						 &r,
  9671                        ;							
                    						 (LPCSTR)k_user_
                    getFontClass("TINYTYPE8x8"));
  9672 09:29C3: F4 xx xx     	pea	#^L167+402
  9673 09:29C6: F4 xx xx     	pea	#<L167+402
  9674 09:29C9: 22 xx xx xx  	jsl	~~k_user_getFontClass
  9675 09:29CD: 85 01        	sta	<R0
  9676 09:29CF: 86 03        	stx	<R0+2
  9677 09:29D1: DA           	phx
  9678 09:29D2: 48           	pha
  9679 09:29D3: F4 00 00     	pea	#0
  9680 09:29D6: 18           	clc
  9681 09:29D7: 7B           	tdc
  9682 09:29D8: 69 19 00     	adc	#<L169+r_1
  9683 09:29DB: 48           	pha
  9684 09:29DC: 22 xx xx xx  	jsl	~~k_getUIBackgroundColor
  9685 09:29E0: 48           	pha
  9686 09:29E1: F4 xx xx     	pea	#^L167+391
  9687 09:29E4: F4 xx xx     	pea	#<L167+391
  9688 09:29E7: D4 17        	pei	<L169+pWin_1+2
  9689 09:29E9: D4 15        	pei	<L169+pWin_1
  9690 09:29EB: 22 xx xx xx  	jsl	~~k_getHandleFromWindow
  9691 09:29EF: 85 05        	sta	<R1
  9692 09:29F1: 86 07        	stx	<R1+2
  9693 09:29F3: DA           	phx
  9694 09:29F4: 48           	pha
  9695 09:29F5: 22 xx xx xx  	jsl	~~k_user_DrawWindowTextToPointWithFont
  9696                        ;
  9697                        ;				k_user_DrawWindowTextToP
                    ointWithFont(k_getHandleFromWindow(pWin),
  9698                        	.line	1855
  9699                        ;							
                    						 k_longtodec(((P
                    FXCMDMESSAGE)pMsg)->parameter1,buffer),
  9700                        ;						        
                                         k_getUIMenuColor(),
  9701                        ;							
                    						 &r,
  9702                        ;							
                    						 (LPCSTR)k_user_
                    getFontClass("TINYTYPE8x8"));
  9703 09:29F9: F4 xx xx     	pea	#^L167+414
  9704 09:29FC: F4 xx xx     	pea	#<L167+414
  9705 09:29FF: 22 xx xx xx  	jsl	~~k_user_getFontClass
  Mon Sep 27 2021  9:39                                                Page 206


  9706 09:2A03: 85 01        	sta	<R0
  9707 09:2A05: 86 03        	stx	<R0+2
  9708 09:2A07: DA           	phx
  9709 09:2A08: 48           	pha
  9710 09:2A09: F4 00 00     	pea	#0
  9711 09:2A0C: 18           	clc
  9712 09:2A0D: 7B           	tdc
  9713 09:2A0E: 69 19 00     	adc	#<L169+r_1
  9714 09:2A11: 48           	pha
  9715 09:2A12: 22 xx xx xx  	jsl	~~k_getUIMenuColor
  9716 09:2A16: 48           	pha
  9717 09:2A17: F4 00 00     	pea	#0
  9718 09:2A1A: 18           	clc
  9719 09:2A1B: 7B           	tdc
  9720 09:2A1C: 69 27 00     	adc	#<L169+buffer_1
  9721 09:2A1F: 48           	pha
  9722 09:2A20: A0 1C 00     	ldy	#$1c
  9723 09:2A23: B7 3A        	lda	[<L168+pMsg_0],Y
  9724 09:2A25: 48           	pha
  9725 09:2A26: A0 1A 00     	ldy	#$1a
  9726 09:2A29: B7 3A        	lda	[<L168+pMsg_0],Y
  9727 09:2A2B: 48           	pha
  9728 09:2A2C: 22 xx xx xx  	jsl	~~k_longtodec
  9729 09:2A30: 85 05        	sta	<R1
  9730 09:2A32: 86 07        	stx	<R1+2
  9731 09:2A34: DA           	phx
  9732 09:2A35: 48           	pha
  9733 09:2A36: D4 17        	pei	<L169+pWin_1+2
  9734 09:2A38: D4 15        	pei	<L169+pWin_1
  9735 09:2A3A: 22 xx xx xx  	jsl	~~k_getHandleFromWindow
  9736 09:2A3E: 85 09        	sta	<R2
  9737 09:2A40: 86 0B        	stx	<R2+2
  9738 09:2A42: DA           	phx
  9739 09:2A43: 48           	pha
  9740 09:2A44: 22 xx xx xx  	jsl	~~k_user_DrawWindowTextToPointWithFont
  9741                        ;
  9742                        ;			}
  9743                        	.line	1861
  9744                        ;			break;
  9745                        L10201:
  9746                        	.line	1862
  9747 09:2A48: 82 4D 00     	brl	L10189
  9748                        ;
  9749                        ;		default:
  9750                        	.line	1864
  9751                        L10202:
  9752                        ;			return DefWindowProc(pMsg);
  9753                        	.line	1865
  9754 09:2A4B: D4 3C        	pei	<L168+pMsg_0+2
  9755 09:2A4D: D4 3A        	pei	<L168+pMsg_0
  9756 09:2A4F: 22 xx xx xx  	jsl	~~DefWindowProc
  9757 09:2A53: E2 20        	sep	#$20
  9758                        	longa	off
  9759 09:2A55: 85 01        	sta	<R0
  9760 09:2A57: C2 20        	rep	#$20
  9761                        	longa	on
  9762 09:2A59: A5 01        	lda	<R0
  9763 09:2A5B: 29 FF 00     	and	#$ff
  Mon Sep 27 2021  9:39                                                Page 207


  9764                        L176:
  9765 09:2A5E: A8           	tay
  9766 09:2A5F: A5 38        	lda	<L168+2
  9767 09:2A61: 85 3C        	sta	<L168+2+4
  9768 09:2A63: A5 37        	lda	<L168+1
  9769 09:2A65: 85 3B        	sta	<L168+1+4
  9770 09:2A67: 2B           	pld
  9771 09:2A68: 3B           	tsc
  9772 09:2A69: 18           	clc
  9773 09:2A6A: 69 3A 00     	adc	#L168+4
  9774 09:2A6D: 1B           	tcs
  9775 09:2A6E: 98           	tya
  9776 09:2A6F: 6B           	rtl
  9777                        ;			break;
  9778                        	.line	1866
  9779                        ;		}
  9780                        	.line	1867
  9781                        L10188:
  9782                        	xref	~~~swt
  9783 09:2A70: 22 xx xx xx  	jsl	~~~swt
  9784 09:2A74: 08 00        	dw	8
  9785 09:2A76: 01 0F        	dw	3841
  9786 09:2A78: 41 29        	dw	L10198-1
  9787 09:2A7A: 02 0F        	dw	3842
  9788 09:2A7C: 61 29        	dw	L10199-1
  9789 09:2A7E: 04 0F        	dw	3844
  9790 09:2A80: 27 29        	dw	L10196-1
  9791 09:2A82: 0C 0F        	dw	3852
  9792 09:2A84: 0D 29        	dw	L10194-1
  9793 09:2A86: 02 FA        	dw	64002
  9794 09:2A88: 81 29        	dw	L10200-1
  9795 09:2A8A: 00 FB        	dw	64256
  9796 09:2A8C: B0 28        	dw	L10193-1
  9797 09:2A8E: 03 FF        	dw	65283
  9798 09:2A90: 7A 28        	dw	L10190-1
  9799 09:2A92: F1 FF        	dw	65521
  9800 09:2A94: AD 28        	dw	L10192-1
  9801 09:2A96: 4A 2A        	dw	L10202-1
  9802                        L10189:
  9803                        ;	}
  9804                        	.line	1868
  9805                        ;
  9806                        ;	return TRUE;
  9807                        L10187:
  9808                        	.line	1870
  9809 09:2A98: A9 01 00     	lda	#$1
  9810 09:2A9B: 82 C0 FF     	brl	L176
  9811                        ;}
  9812                        	.line	1871
  9813                        	.endblock	1871
  9814             00000036   L168	equ	54
  9815             0000000D   L169	equ	13
  9816 09:2A9E:              	ends
  9817                        	efunc
  9818                        	.endfunc	1871,13,54
  9819                        	.line	1871
  9820                        	data
  9821                        L167:
  Mon Sep 27 2021  9:39                                                Page 208


  9822 00:10C5: 70 72 65 66  	db	$70,$72,$65,$66,$65,$72,$65,$6E,$63,$65,
                    $73,$57,$69,$6E,$64
       00:10C9: 65 72 65 6E 
       00:10CD: 63 65 73 57 
       00:10D1: 69 6E 64 
  9823 00:10D4: 6F 77 50 72  	db	$6F,$77,$50,$72,$6F,$63,$3A,$3A,$46,$58,
                    $5F,$43,$52,$45,$41
       00:10D8: 6F 63 3A 3A 
       00:10DC: 46 58 5F 43 
       00:10E0: 52 45 41 
  9824 00:10E3: 54 45 5F 57  	db	$54,$45,$5F,$57,$49,$4E,$44,$4F,$57,$3A,
                    $00,$00,$70,$72,$65
       00:10E7: 49 4E 44 4F 
       00:10EB: 57 3A 00 00 
       00:10EF: 70 72 65 
  9825 00:10F2: 66 65 72 65  	db	$66,$65,$72,$65,$6E,$63,$65,$73,$57,$69,
                    $6E,$64,$6F,$77,$50
       00:10F6: 6E 63 65 73 
       00:10FA: 57 69 6E 64 
       00:10FE: 6F 77 50 
  9826 00:1101: 72 6F 63 3A  	db	$72,$6F,$63,$3A,$3A,$46,$58,$5F,$44,$52,
                    $41,$57,$5F,$57,$49
       00:1105: 3A 46 58 5F 
       00:1109: 44 52 41 57 
       00:110D: 5F 57 49 
  9827 00:1110: 4E 44 4F 57  	db	$4E,$44,$4F,$57,$0D,$0A,$00,$70,$72,$65,
                    $66,$65,$72,$65,$6E
       00:1114: 0D 0A 00 70 
       00:1118: 72 65 66 65 
       00:111C: 72 65 6E 
  9828 00:111F: 63 65 73 57  	db	$63,$65,$73,$57,$69,$6E,$64,$6F,$77,$50,
                    $72,$6F,$63,$3A,$3A
       00:1123: 69 6E 64 6F 
       00:1127: 77 50 72 6F 
       00:112B: 63 3A 3A 
  9829 00:112E: 46 58 5F 4D  	db	$46,$58,$5F,$4D,$42,$55,$54,$54,$4F,$4E,
                    $5F,$44,$4F,$57,$4E
       00:1132: 42 55 54 54 
       00:1136: 4F 4E 5F 44 
       00:113A: 4F 57 4E 
  9830 00:113D: 0D 0A 00 70  	db	$0D,$0A,$00,$70,$72,$65,$66,$65,$72,$65,
                    $6E,$63,$65,$73,$57
       00:1141: 72 65 66 65 
       00:1145: 72 65 6E 63 
       00:1149: 65 73 57 
  9831 00:114C: 69 6E 64 6F  	db	$69,$6E,$64,$6F,$77,$50,$72,$6F,$63,$3A,
                    $3A,$46,$58,$5F,$4C
       00:1150: 77 50 72 6F 
       00:1154: 63 3A 3A 46 
       00:1158: 58 5F 4C 
  9832 00:115B: 42 55 54 54  	db	$42,$55,$54,$54,$4F,$4E,$5F,$44,$4F,$57,
                    $4E,$0D,$0A,$00,$70
       00:115F: 4F 4E 5F 44 
       00:1163: 4F 57 4E 0D 
       00:1167: 0A 00 70 
  9833 00:116A: 72 65 66 65  	db	$72,$65,$66,$65,$72,$65,$6E,$63,$65,$73,
                    $57,$69,$6E,$64,$6F
       00:116E: 72 65 6E 63 
  Mon Sep 27 2021  9:39                                                Page 209


       00:1172: 65 73 57 69 
       00:1176: 6E 64 6F 
  9834 00:1179: 77 50 72 6F  	db	$77,$50,$72,$6F,$63,$3A,$3A,$46,$58,$5F,
                    $4D,$4F,$55,$53,$45
       00:117D: 63 3A 3A 46 
       00:1181: 58 5F 4D 4F 
       00:1185: 55 53 45 
  9835 00:1188: 5F 45 4E 54  	db	$5F,$45,$4E,$54,$45,$52,$3A,$00,$70,$72,
                    $65,$66,$65,$72,$65
       00:118C: 45 52 3A 00 
       00:1190: 70 72 65 66 
       00:1194: 65 72 65 
  9836 00:1197: 6E 63 65 73  	db	$6E,$63,$65,$73,$57,$69,$6E,$64,$6F,$77,
                    $50,$72,$6F,$63,$3A
       00:119B: 57 69 6E 64 
       00:119F: 6F 77 50 72 
       00:11A3: 6F 63 3A 
  9837 00:11A6: 3A 46 58 5F  	db	$3A,$46,$58,$5F,$4D,$4F,$55,$53,$45,$5F,
                    $45,$58,$49,$54,$3A
       00:11AA: 4D 4F 55 53 
       00:11AE: 45 5F 45 58 
       00:11B2: 49 54 3A 
  9838 00:11B5: 00 70 72 65  	db	$00,$70,$72,$65,$66,$65,$72,$65,$6E,$63,
                    $65,$73,$57,$69,$6E
       00:11B9: 66 65 72 65 
       00:11BD: 6E 63 65 73 
       00:11C1: 57 69 6E 
  9839 00:11C4: 64 6F 77 50  	db	$64,$6F,$77,$50,$72,$6F,$63,$3A,$3A,$46,
                    $58,$5F,$53,$43,$52
       00:11C8: 72 6F 63 3A 
       00:11CC: 3A 46 58 5F 
       00:11D0: 53 43 52 
  9840 00:11D3: 4F 4C 4C 42  	db	$4F,$4C,$4C,$42,$41,$52,$5F,$43,$4F,$4D,
                    $4D,$41,$4E,$44,$3A
       00:11D7: 41 52 5F 43 
       00:11DB: 4F 4D 4D 41 
       00:11DF: 4E 44 3A 
  9841 00:11E2: 00 70 72 65  	db	$00,$70,$72,$65,$66,$65,$72,$65,$6E,$63,
                    $65,$73,$57,$69,$6E
       00:11E6: 66 65 72 65 
       00:11EA: 6E 63 65 73 
       00:11EE: 57 69 6E 
  9842 00:11F1: 64 6F 77 50  	db	$64,$6F,$77,$50,$72,$6F,$63,$3A,$3A,$46,
                    $58,$5F,$53,$43,$52
       00:11F5: 72 6F 63 3A 
       00:11F9: 3A 46 58 5F 
       00:11FD: 53 43 52 
  9843 00:1200: 4F 4C 4C 42  	db	$4F,$4C,$4C,$42,$41,$52,$5F,$43,$4F,$4D,
                    $4D,$41,$4E,$44,$3A
       00:1204: 41 52 5F 43 
       00:1208: 4F 4D 4D 41 
       00:120C: 4E 44 3A 
  9844 00:120F: 4C 4F 43 41  	db	$4C,$4F,$43,$41,$54,$49,$4F,$4E,$3A,$00,
                    $70,$72,$65,$66,$65
       00:1213: 54 49 4F 4E 
       00:1217: 3A 00 70 72 
       00:121B: 65 66 65 
  9845 00:121E: 72 65 6E 63  	db	$72,$65,$6E,$63,$65,$73,$57,$69,$6E,$64,
  Mon Sep 27 2021  9:39                                                Page 210


                    $6F,$77,$50,$72,$6F
       00:1222: 65 73 57 69 
       00:1226: 6E 64 6F 77 
       00:122A: 50 72 6F 
  9846 00:122D: 63 3A 3A 46  	db	$63,$3A,$3A,$46,$58,$5F,$53,$43,$52,$4F,
                    $4C,$4C,$42,$41,$52
       00:1231: 58 5F 53 43 
       00:1235: 52 4F 4C 4C 
       00:1239: 42 41 52 
  9847 00:123C: 5F 43 4F 4D  	db	$5F,$43,$4F,$4D,$4D,$41,$4E,$44,$3A,$56,
                    $41,$4C,$55,$45,$3A
       00:1240: 4D 41 4E 44 
       00:1244: 3A 56 41 4C 
       00:1248: 55 45 3A 
  9848 00:124B: 00 DB DB DB  	db	$00,$FFFFFFDB,$FFFFFFDB,$FFFFFFDB,$FFFFF
                    FDB,$FFFFFFDB,$FFFFFFDB,$FFFFFFDB,$FFFFFFDB,$FFFFFFDB,$FFFFF
                    FDB,$00,$54,$49,$4E
       00:124F: DB DB DB DB 
       00:1253: DB DB DB 00 
       00:1257: 54 49 4E 
  9849 00:125A: 59 54 59 50  	db	$59,$54,$59,$50,$45,$38,$78,$38,$00,$54,
                    $49,$4E,$59,$54,$59
       00:125E: 45 38 78 38 
       00:1262: 00 54 49 4E 
       00:1266: 59 54 59 
  9850 00:1269: 50 45 38 78  	db	$50,$45,$38,$78,$38,$00
       00:126D: 38 00 
  9851 00:126F:              	ends
  9852                        ;/*
  9853                        ;void drawImage(int color)
  9854                        ;{
  9855                        ;	int px,py,i,j,k,x,y;
  9856                        ;	float newx = 0.0;
  9857                        ;	UINT seed;
  9858                        ;
  9859                        ;	x = 0;
  9860                        ;	y = 0;
  9861                        ;
  9862                        ;	seed = k_get_rtc_second();
  9863                        ;	srand(seed);
  9864                        ;
  9865                        ;	k_debug_integer("drawImage::seed:", seed );
  9866                        ;
  9867                        ;	for(i=1;i<30000;i++)
  9868                        ;	{
  9869                        ;		j = rand();
  9870                        ;		k = (j<p[0]) ? 0 : ( (j<p[1]) ? 1 : ((j<
                    p[2]) ? 2 : 3));
  9871                        ;
  9872                        ;		newx = (a[k] * x + b[k] * y + e[k]);
  9873                        ;		y    = (c[k] * x + d[k] * y + f[k]);
  9874                        ;		x    = (int)newx;
  9875                        ;		px   = x*xscale + xoffset;
  9876                        ;		//py   = (350 - y*yscale + yoffset);
  9877                        ;		py   = (350 - y*yscale + yoffset);
  9878                        ;
  9879                        ;		//k_debug_integer("drawImage::px:", px )
                    ;
  Mon Sep 27 2021  9:39                                                Page 211


  9880                        ;		//k_debug_integer("drawImage::py:", py )
                    ;
  9881                        ;
  9882                        ;		if((px>=0) && (px<640) && (py>=0) && (py
                    <480))
  9883                        ;		{
  9884                        ;			//k_debug_integer("drawImage::px
                    :", px );
  9885                        ;			//k_debug_integer("drawImage::py
                    :", py );
  9886                        ;			k_draw_pixel(px,py,color);
  9887                        ;		}
  9888                        ;	}
  9889                        ;}
  9890                        ;
  9891                        ;void drawMandelbrot(void)
  9892                        ;{
  9893                        ;
  9894                        ;	// fern
  9895                        ;
  9896                        ;	//a[0]=0    ;a[1]=.20 ;a[2]=-.15;a[3]=.85;
  9897                        ;	//b[0]=0    ;b[1]=-.26;b[2]=.28 ;b[3]=.04;
  9898                        ;	//c[0]=0    ;c[1]=.23 ;c[2]=.26 ;c[3]=-.04;
  9899                        ;	//d[0]=1.6  ;d[1]=.22 ;d[2]=.24 ;d[3]=.85;
  9900                        ;	//e[0]=0    ;e[1]=0   ;e[2]=0   ;e[3]=0;
  9901                        ;	//f[0]=0    ;f[1]=1.60;f[2]=.44 ;f[3]=1.6;
  9902                        ;	//p[0]=328  ;p[1]=2621;p[2]=4915;p[3]=32767;
  9903                        ;
  9904                        ;
  9905                        ;	// triangle
  9906                        ;	a[0]=0.5    ;a[1]=0.5 ;a[2]=0.5;a[3]=0;
  9907                        ;	b[0]=0    ;b[1]=0;b[2]=0;b[3]=0;
  9908                        ;	c[0]=0    ;c[1]=0 ;c[2]=0 ;c[3]=0;
  9909                        ;	d[0]=0.5  ;d[1]=0.5 ;d[2]=0.5 ;d[3]=0;
  9910                        ;	e[0]=0    ;e[1]=1.0   ;e[2]=0.5   ;e[3]=0;
  9911                        ;	f[0]=0    ;f[1]=0;f[2]=0.5 ;f[3]=0;
  9912                        ;	p[0]=10813  ;p[1]=21626;p[2]=32767;p[3]=32767;
  9913                        ;
  9914                        ;
  9915                        ;	xscale  = 10;
  9916                        ;	yscale  = 10;
  9917                        ;	xoffset = 320;
  9918                        ;	yoffset = 0;
  9919                        ;
  9920                        ;	k_debug_integer("drawMandelbrot:", xoffset );
  9921                        ;
  9922                        ;	drawImage(15);
  9923                        ;
  9924                        ;}
  9925                        ;*/
  9926                        ;#include "fxos_desktop_vols.c"
  9927                        	.file	"G:\devprojects\c256Foenix\fxos\FXOSWork
                    space\FXOS-Beta\src\fxos_desktop_vols.c",0
  9928                        	.file	"G:\devprojects\c256Foenix\fxos\FXOSWork
                    space\FXOS-Beta\src\fxwindowmanager.h",0
  9929                        	.line	594
  9930                        	.file	"G:\devprojects\c256Foenix\fxos\FXOSWork
                    space\FXOS-Beta\src\fxos_desktop_vols.c",7
  Mon Sep 27 2021  9:39                                                Page 212


  9931                        	.file	"G:\devprojects\c256Foenix\fxos\FXOSWork
                    space\FXOS-Beta\src\fxos_desktop_proc.h",0
  9932                        	.line	92
  9933                        	.file	"G:\devprojects\c256Foenix\fxos\FXOSWork
                    space\FXOS-Beta\src\fxos_desktop_vols.c",8
  9934                        	.file	"G:\devprojects\c256Foenix\fxos\FXOSWork
                    space\FXOS-Beta\src\fxfont.h",0
  9935                        	.line	74
  9936                        	.file	"G:\devprojects\c256Foenix\fxos\FXOSWork
                    space\FXOS-Beta\src\fxos_desktop_vols.c",9
  9937                        	.file	"G:\devprojects\c256Foenix\fxos\FXOSWork
                    space\FXOS-Beta\src\fxdos.h",0
  9938                        	.line	812
  9939                        	.file	"G:\devprojects\c256Foenix\fxos\FXOSWork
                    space\FXOS-Beta\src\fxos_desktop_vols.c",10
  9940                        	.file	"G:\devprojects\c256Foenix\fxos\FXOSWork
                    space\FXOS-Beta\src\fxos_desktop_vols.c",41
  9941                        	.line	42
  9942                        	DTOP
  9943                        	xdef	~~k_user_DisplayVolWindow
  9944                        	func
  9945                        	.function	42
  9946                        ~~k_user_DisplayVolWindow:
  9947                        	longa	on
  9948                        	longi	on
  9949 09:2A9E: 3B           	tsc
  9950 09:2A9F: 38           	sec
  9951 09:2AA0: E9 00 00     	sbc	#L178
  9952 09:2AA3: 1B           	tcs
  9953 09:2AA4: 0B           	phd
  9954 09:2AA5: 5B           	tcd
  9955             00000004   hDesktop_0	set	4
  9956                        	.block	42
  9957                        	.sym	hDesktop,4,129,6,32
  9958                        	.line	43
  9959 09:2AA6: F4 00 00     	pea	#^$0
  9960 09:2AA9: F4 00 00     	pea	#<$0
  9961 09:2AAC: F4 00 00     	pea	#^$0
  9962 09:2AAF: F4 00 00     	pea	#<$0
  9963 09:2AB2: D4 06        	pei	<L178+hDesktop_0+2
  9964 09:2AB4: D4 04        	pei	<L178+hDesktop_0
  9965 09:2AB6: F4 2C 01     	pea	#<$12c
  9966 09:2AB9: F4 90 01     	pea	#<$190
  9967 09:2ABC: F4 64 00     	pea	#<$64
  9968 09:2ABF: F4 64 00     	pea	#<$64
  9969 09:2AC2: F4 xx xx     	pea	#^L177+23
  9970 09:2AC5: F4 xx xx     	pea	#<L177+23
  9971 09:2AC8: F4 xx xx     	pea	#^L177
  9972 09:2ACB: F4 xx xx     	pea	#<L177
  9973 09:2ACE: F4 22 00     	pea	#^$22013d
  9974 09:2AD1: F4 3D 01     	pea	#<$22013d
  9975 09:2AD4: 22 xx xx xx  	jsl	~~k_user_CreateWindow
  9976                        	.line	51
  9977                        L181:
  9978 09:2AD8: A5 02        	lda	<L178+2
  9979 09:2ADA: 85 06        	sta	<L178+2+4
  9980 09:2ADC: A5 01        	lda	<L178+1
  9981 09:2ADE: 85 05        	sta	<L178+1+4
  Mon Sep 27 2021  9:39                                                Page 213


  9982 09:2AE0: 2B           	pld
  9983 09:2AE1: 3B           	tsc
  9984 09:2AE2: 18           	clc
  9985 09:2AE3: 69 04 00     	adc	#L178+4
  9986 09:2AE6: 1B           	tcs
  9987 09:2AE7: 6B           	rtl
  9988                        	.endblock	51
  9989             00000000   L178	equ	0
  9990             00000001   L179	equ	1
  9991 09:2AE8:              	ends
  9992                        	efunc
  9993                        	.endfunc	51,1,0
  9994                        	.line	51
  9995                        	data
  9996                        L177:
  9997 00:126F: 64 65 73 6B  	db	$64,$65,$73,$6B,$74,$6F,$70,$56,$6F,$6C,
                    $73,$57,$69,$6E,$64
       00:1273: 74 6F 70 56 
       00:1277: 6F 6C 73 57 
       00:127B: 69 6E 64 
  9998 00:127E: 6F 77 43 6C  	db	$6F,$77,$43,$6C,$61,$73,$73,$00,$56,$6F,
                    $6C,$75,$6D,$65,$73
       00:1282: 61 73 73 00 
       00:1286: 56 6F 6C 75 
       00:128A: 6D 65 73 
  9999 00:128D: 00           	db	$00
 10000 00:128E:              	ends
 10001                        	.stag	fake133_,320,133
 10002                        	.member	size,0,16,8,16
 10003                        	.member	cx,16,5,8,16
 10004                        	.member	cy,32,5,8,16
 10005                        	.member	length,48,5,8,16
 10006                        	.member	currentRow,64,5,8,16
 10007                        	.member	renderCount,80,5,8,16
 10008                        	.member	volumeName,96,142,8,32
 10009                        	.member	serialNumber,128,18,8,32
 10010                        	.member	volContent,160,138,8,32,3
 10011                        	.member	pCurrentTop,192,138,8,32,2
 10012                        	.member	f,224,138,8,32,68
 10013                        	.member	fs,256,138,8,32,66
 10014                        	.member	fbuffer,288,129,8,32
 10015                        	.eos
 10016                        	data
 10017                        	xdef	~~selectionChanged
 10018                        ~~selectionChanged:
 10019 00:128E: 00           	db	$0
 10020 00:128F:              	ends
 10021                        	.line	76
 10022                        	.line	77
 10023                        	DTOP
 10024                        	xdef	~~foreach_file
 10025                        	func
 10026                        	.function	77
 10027                        ~~foreach_file:
 10028                        	longa	on
 10029                        	longi	on
 10030 09:2AE8: 3B           	tsc
 10031 09:2AE9: 38           	sec
  Mon Sep 27 2021  9:39                                                Page 214


 10032 09:2AEA: E9 12 00     	sbc	#L183
 10033 09:2AED: 1B           	tcs
 10034 09:2AEE: 0B           	phd
 10035 09:2AEF: 5B           	tcd
 10036             00000004   ctx_0	set	4
 10037             00000008   data_0	set	8
 10038                        	.block	77
 10039             00000000   pWin_1	set	0
 10040             00000004   pCon_1	set	4
 10041             00000008   pinfo_1	set	8
 10042             0000000C   c_1	set	12
 10043                        	.sym	pWin,0,138,1,32,30
 10044                        	.sym	pCon,4,138,1,32,133
 10045                        	.sym	pinfo,8,138,1,32,70
 10046                        	.sym	c,12,5,1,16
 10047                        	.sym	ctx,4,129,6,32
 10048                        	.sym	data,8,129,6,32
 10049 09:2AF0: A5 16        	lda	<L183+ctx_0
 10050 09:2AF2: 85 05        	sta	<L184+pWin_1
 10051 09:2AF4: A5 18        	lda	<L183+ctx_0+2
 10052 09:2AF6: 85 07        	sta	<L184+pWin_1+2
 10053 09:2AF8: 64 09        	stz	<L184+pCon_1
 10054 09:2AFA: 64 0B        	stz	<L184+pCon_1+2
 10055 09:2AFC: 64 0D        	stz	<L184+pinfo_1
 10056 09:2AFE: 64 0F        	stz	<L184+pinfo_1+2
 10057 09:2B00: 64 11        	stz	<L184+c_1
 10058                        	.line	83
 10059 09:2B02: A5 05        	lda	<L184+pWin_1
 10060 09:2B04: 05 07        	ora	<L184+pWin_1+2
 10061 09:2B06: D0 03        	bne	L186
 10062 09:2B08: 82 AD 00     	brl	L10203
 10063                        L186:
 10064                        	.line	84
 10065                        	.line	85
 10066 09:2B0B: A0 C5 01     	ldy	#$1c5
 10067 09:2B0E: B7 05        	lda	[<L184+pWin_1],Y
 10068 09:2B10: 85 09        	sta	<L184+pCon_1
 10069 09:2B12: A0 C7 01     	ldy	#$1c7
 10070 09:2B15: B7 05        	lda	[<L184+pWin_1],Y
 10071 09:2B17: 85 0B        	sta	<L184+pCon_1+2
 10072                        	.line	86
 10073 09:2B19: A5 09        	lda	<L184+pCon_1
 10074 09:2B1B: 05 0B        	ora	<L184+pCon_1+2
 10075 09:2B1D: D0 03        	bne	L187
 10076 09:2B1F: 82 96 00     	brl	L10204
 10077                        L187:
 10078                        	.line	87
 10079                        	.line	88
 10080 09:2B22: A0 C5 01     	ldy	#$1c5
 10081 09:2B25: B7 05        	lda	[<L184+pWin_1],Y
 10082 09:2B27: 85 01        	sta	<R0
 10083 09:2B29: A0 C7 01     	ldy	#$1c7
 10084 09:2B2C: B7 05        	lda	[<L184+pWin_1],Y
 10085 09:2B2E: 85 03        	sta	<R0+2
 10086 09:2B30: A0 0A 00     	ldy	#$a
 10087 09:2B33: B7 01        	lda	[<R0],Y
 10088 09:2B35: 1A           	ina
 10089 09:2B36: A0 0A 00     	ldy	#$a
  Mon Sep 27 2021  9:39                                                Page 215


 10090 09:2B39: 97 01        	sta	[<R0],Y
 10091                        	.line	90
 10092 09:2B3B: A5 1A        	lda	<L183+data_0
 10093 09:2B3D: 85 0D        	sta	<L184+pinfo_1
 10094 09:2B3F: A5 1C        	lda	<L183+data_0+2
 10095 09:2B41: 85 0F        	sta	<L184+pinfo_1+2
 10096                        	.line	92
 10097 09:2B43: 18           	clc
 10098 09:2B44: A9 16 00     	lda	#$16
 10099 09:2B47: 65 0D        	adc	<L184+pinfo_1
 10100 09:2B49: 85 01        	sta	<R0
 10101 09:2B4B: A9 00 00     	lda	#$0
 10102 09:2B4E: 65 0F        	adc	<L184+pinfo_1+2
 10103 09:2B50: 85 03        	sta	<R0+2
 10104 09:2B52: D4 03        	pei	<R0+2
 10105 09:2B54: D4 01        	pei	<R0
 10106 09:2B56: 22 xx xx xx  	jsl	~~strlen
 10107 09:2B5A: 85 11        	sta	<L184+c_1
 10108                        	.line	94
 10109 09:2B5C: 38           	sec
 10110 09:2B5D: A0 06 00     	ldy	#$6
 10111 09:2B60: B7 09        	lda	[<L184+pCon_1],Y
 10112 09:2B62: E5 11        	sbc	<L184+c_1
 10113 09:2B64: 70 03        	bvs	L188
 10114 09:2B66: 49 00 80     	eor	#$8000
 10115                        L188:
 10116 09:2B69: 10 03        	bpl	L189
 10117 09:2B6B: 82 07 00     	brl	L10205
 10118                        L189:
 10119                        	.line	95
 10120                        	.line	96
 10121 09:2B6E: A5 11        	lda	<L184+c_1
 10122 09:2B70: A0 06 00     	ldy	#$6
 10123 09:2B73: 97 09        	sta	[<L184+pCon_1],Y
 10124                        	.line	97
 10125                        L10205:
 10126                        	.line	100
 10127 09:2B75: E2 20        	sep	#$20
 10128                        	longa	off
 10129 09:2B77: A0 08 00     	ldy	#$8
 10130 09:2B7A: B7 0D        	lda	[<L184+pinfo_1],Y
 10131 09:2B7C: 29 08        	and	#<$8
 10132 09:2B7E: C2 20        	rep	#$20
 10133                        	longa	on
 10134 09:2B80: D0 03        	bne	L190
 10135 09:2B82: 82 33 00     	brl	L10206
 10136                        L190:
 10137                        	.line	101
 10138                        	.line	102
 10139 09:2B85: E2 20        	sep	#$20
 10140                        	longa	off
 10141 09:2B87: A0 08 00     	ldy	#$8
 10142 09:2B8A: B7 0D        	lda	[<L184+pinfo_1],Y
 10143 09:2B8C: C9 0F        	cmp	#<$f
 10144 09:2B8E: C2 20        	rep	#$20
 10145                        	longa	on
 10146 09:2B90: D0 03        	bne	L191
 10147 09:2B92: 82 23 00     	brl	L10207
  Mon Sep 27 2021  9:39                                                Page 216


 10148                        L191:
 10149                        	.line	103
 10150                        	.line	104
 10151 09:2B95: 18           	clc
 10152 09:2B96: A9 16 00     	lda	#$16
 10153 09:2B99: 65 0D        	adc	<L184+pinfo_1
 10154 09:2B9B: 85 01        	sta	<R0
 10155 09:2B9D: A9 00 00     	lda	#$0
 10156 09:2BA0: 65 0F        	adc	<L184+pinfo_1+2
 10157 09:2BA2: 85 03        	sta	<R0+2
 10158 09:2BA4: D4 03        	pei	<R0+2
 10159 09:2BA6: D4 01        	pei	<R0
 10160 09:2BA8: A0 0E 00     	ldy	#$e
 10161 09:2BAB: B7 09        	lda	[<L184+pCon_1],Y
 10162 09:2BAD: 48           	pha
 10163 09:2BAE: A0 0C 00     	ldy	#$c
 10164 09:2BB1: B7 09        	lda	[<L184+pCon_1],Y
 10165 09:2BB3: 48           	pha
 10166 09:2BB4: 22 xx xx xx  	jsl	~~strcpy
 10167                        	.line	106
 10168                        L10207:
 10169                        	.line	107
 10170                        L10206:
 10171                        	.line	109
 10172                        L10204:
 10173                        	.line	111
 10174                        L10203:
 10175                        	.line	113
 10176                        L192:
 10177 09:2BB8: A5 14        	lda	<L183+2
 10178 09:2BBA: 85 1C        	sta	<L183+2+8
 10179 09:2BBC: A5 13        	lda	<L183+1
 10180 09:2BBE: 85 1B        	sta	<L183+1+8
 10181 09:2BC0: 2B           	pld
 10182 09:2BC1: 3B           	tsc
 10183 09:2BC2: 18           	clc
 10184 09:2BC3: 69 1A 00     	adc	#L183+8
 10185 09:2BC6: 1B           	tcs
 10186 09:2BC7: 6B           	rtl
 10187                        	.endblock	113
 10188             00000012   L183	equ	18
 10189             00000005   L184	equ	5
 10190 09:2BC8:              	ends
 10191                        	efunc
 10192                        	.endfunc	113,5,18
 10193                        	.line	113
 10194                        	.line	115
 10195                        	.line	116
 10196                        	DTOP
 10197                        	xdef	~~foreach_render_file
 10198                        	func
 10199                        	.function	116
 10200                        ~~foreach_render_file:
 10201                        	longa	on
 10202                        	longi	on
 10203 09:2BC8: 3B           	tsc
 10204 09:2BC9: 38           	sec
 10205 09:2BCA: E9 54 00     	sbc	#L193
  Mon Sep 27 2021  9:39                                                Page 217


 10206 09:2BCD: 1B           	tcs
 10207 09:2BCE: 0B           	phd
 10208 09:2BCF: 5B           	tcd
 10209             00000004   ctx_0	set	4
 10210             00000008   data_0	set	8
 10211                        	.block	116
 10212             00000000   pWin_1	set	0
 10213             00000004   pInfo_1	set	4
 10214             00000008   pCon_1	set	8
 10215             0000000C   pAttrFile_1	set	12
 10216             00000010   pAttrDir_1	set	16
 10217             00000014   pAttr_1	set	20
 10218             00000018   attrs_1	set	24
 10219             00000020   icon_1	set	32
 10220             00000022   ic_1	set	34
 10221             00000024   r_1	set	36
 10222             00000032   row_1	set	50
 10223             00000036   longBuffer_1	set	54
 10224             00000046   color_1	set	70
 10225                        	.sym	pWin,0,138,1,32,30
 10226                        	.sym	pInfo,4,138,1,32,70
 10227                        	.sym	pCon,8,138,1,32,133
 10228                        	.sym	pAttrFile,12,142,1,32
 10229                        	.sym	pAttrDir,16,142,1,32
 10230                        	.sym	pAttr,20,142,1,32
 10231                        	.sym	attrs,24,110,1,0,8
 10232                        	.sym	icon,32,5,1,16
 10233                        	.sym	ic,34,5,1,16
 10234                        	.sym	r,36,10,1,112,23
 10235                        	.sym	row,50,129,1,32
 10236                        	.sym	longBuffer,54,110,1,0,16
 10237                        	.sym	color,70,5,1,16
 10238                        	.sym	ctx,4,129,6,32
 10239                        	.sym	data,8,129,6,32
 10240 09:2BD0: A5 58        	lda	<L193+ctx_0
 10241 09:2BD2: 85 0D        	sta	<L194+pWin_1
 10242 09:2BD4: A5 5A        	lda	<L193+ctx_0+2
 10243 09:2BD6: 85 0F        	sta	<L194+pWin_1+2
 10244 09:2BD8: 64 11        	stz	<L194+pInfo_1
 10245 09:2BDA: 64 13        	stz	<L194+pInfo_1+2
 10246 09:2BDC: 64 15        	stz	<L194+pCon_1
 10247 09:2BDE: 64 17        	stz	<L194+pCon_1+2
 10248 09:2BE0: A9 xx xx     	lda	#<L182
 10249 09:2BE3: 85 19        	sta	<L194+pAttrFile_1
 10250 09:2BE5: A9 xx xx     	lda	#^L182
 10251 09:2BE8: 85 1B        	sta	<L194+pAttrFile_1+2
 10252 09:2BEA: A9 xx xx     	lda	#<L182+5
 10253 09:2BED: 85 1D        	sta	<L194+pAttrDir_1
 10254 09:2BEF: A9 xx xx     	lda	#^L182+5
 10255 09:2BF2: 85 1F        	sta	<L194+pAttrDir_1+2
 10256 09:2BF4: A5 19        	lda	<L194+pAttrFile_1
 10257 09:2BF6: 85 21        	sta	<L194+pAttr_1
 10258 09:2BF8: A5 1B        	lda	<L194+pAttrFile_1+2
 10259 09:2BFA: 85 23        	sta	<L194+pAttr_1+2
 10260 09:2BFC: A9 0A 00     	lda	#$a
 10261 09:2BFF: 85 2D        	sta	<L194+icon_1
 10262 09:2C01: 22 xx xx xx  	jsl	~~k_getUIGadgetColor
 10263 09:2C05: 85 2F        	sta	<L194+ic_1
  Mon Sep 27 2021  9:39                                                Page 218


 10264 09:2C07: 22 xx xx xx  	jsl	~~k_getUIGadgetColor
 10265 09:2C0B: 85 53        	sta	<L194+color_1
 10266                        	.line	132
 10267 09:2C0D: A5 0D        	lda	<L194+pWin_1
 10268 09:2C0F: 05 0F        	ora	<L194+pWin_1+2
 10269 09:2C11: D0 03        	bne	L196
 10270 09:2C13: 82 73 03     	brl	L10208
 10271                        L196:
 10272                        	.line	133
 10273                        	.line	134
 10274 09:2C16: A0 C5 01     	ldy	#$1c5
 10275 09:2C19: B7 0D        	lda	[<L194+pWin_1],Y
 10276 09:2C1B: 85 15        	sta	<L194+pCon_1
 10277 09:2C1D: A0 C7 01     	ldy	#$1c7
 10278 09:2C20: B7 0D        	lda	[<L194+pWin_1],Y
 10279 09:2C22: 85 17        	sta	<L194+pCon_1+2
 10280                        	.line	136
 10281 09:2C24: F4 04 00     	pea	#<$4
 10282 09:2C27: D4 0F        	pei	<L194+pWin_1+2
 10283 09:2C29: D4 0D        	pei	<L194+pWin_1
 10284 09:2C2B: 22 xx xx xx  	jsl	~~k_user_GetWindowData
 10285 09:2C2F: 85 3F        	sta	<L194+row_1
 10286 09:2C31: 86 41        	stx	<L194+row_1+2
 10287                        	.line	139
 10288 09:2C33: A5 5C        	lda	<L193+data_0
 10289 09:2C35: 85 11        	sta	<L194+pInfo_1
 10290 09:2C37: A5 5E        	lda	<L193+data_0+2
 10291 09:2C39: 85 13        	sta	<L194+pInfo_1+2
 10292                        	.line	142
 10293 09:2C3B: E2 20        	sep	#$20
 10294                        	longa	off
 10295 09:2C3D: A0 08 00     	ldy	#$8
 10296 09:2C40: B7 11        	lda	[<L194+pInfo_1],Y
 10297 09:2C42: 29 08        	and	#<$8
 10298 09:2C44: C2 20        	rep	#$20
 10299                        	longa	on
 10300 09:2C46: D0 03        	bne	L197
 10301 09:2C48: 82 20 00     	brl	L10209
 10302                        L197:
 10303                        	.line	143
 10304                        	.line	144
 10305 09:2C4B: E2 20        	sep	#$20
 10306                        	longa	off
 10307 09:2C4D: A0 08 00     	ldy	#$8
 10308 09:2C50: B7 11        	lda	[<L194+pInfo_1],Y
 10309 09:2C52: C9 0F        	cmp	#<$f
 10310 09:2C54: C2 20        	rep	#$20
 10311                        	longa	on
 10312 09:2C56: D0 03        	bne	L198
 10313 09:2C58: 82 10 00     	brl	L10210
 10314                        L198:
 10315                        	.line	145
 10316                        	.line	146
 10317                        L199:
 10318 09:2C5B: A5 56        	lda	<L193+2
 10319 09:2C5D: 85 5E        	sta	<L193+2+8
 10320 09:2C5F: A5 55        	lda	<L193+1
 10321 09:2C61: 85 5D        	sta	<L193+1+8
  Mon Sep 27 2021  9:39                                                Page 219


 10322 09:2C63: 2B           	pld
 10323 09:2C64: 3B           	tsc
 10324 09:2C65: 18           	clc
 10325 09:2C66: 69 5C 00     	adc	#L193+8
 10326 09:2C69: 1B           	tcs
 10327 09:2C6A: 6B           	rtl
 10328                        	.line	147
 10329                        L10210:
 10330                        	.line	148
 10331                        L10209:
 10332                        	.line	150
 10333 09:2C6B: A5 19        	lda	<L194+pAttrFile_1
 10334 09:2C6D: 85 21        	sta	<L194+pAttr_1
 10335 09:2C6F: A5 1B        	lda	<L194+pAttrFile_1+2
 10336 09:2C71: 85 23        	sta	<L194+pAttr_1+2
 10337                        	.line	151
 10338 09:2C73: F4 xx xx     	pea	#^L182+12
 10339 09:2C76: F4 xx xx     	pea	#<L182+12
 10340 09:2C79: F4 00 00     	pea	#0
 10341 09:2C7C: 18           	clc
 10342 09:2C7D: 7B           	tdc
 10343 09:2C7E: 69 25 00     	adc	#<L194+attrs_1
 10344 09:2C81: 48           	pha
 10345 09:2C82: 22 xx xx xx  	jsl	~~strcpy
 10346                        	.line	153
 10347 09:2C86: E2 20        	sep	#$20
 10348                        	longa	off
 10349 09:2C88: A0 08 00     	ldy	#$8
 10350 09:2C8B: B7 11        	lda	[<L194+pInfo_1],Y
 10351 09:2C8D: 29 20        	and	#<$20
 10352 09:2C8F: C2 20        	rep	#$20
 10353                        	longa	on
 10354 09:2C91: D0 03        	bne	L200
 10355 09:2C93: 82 13 00     	brl	L10211
 10356                        L200:
 10357                        	.line	154
 10358                        	.line	155
 10359 09:2C96: F4 xx xx     	pea	#^L182+13
 10360 09:2C99: F4 xx xx     	pea	#<L182+13
 10361 09:2C9C: F4 00 00     	pea	#0
 10362 09:2C9F: 18           	clc
 10363 09:2CA0: 7B           	tdc
 10364 09:2CA1: 69 25 00     	adc	#<L194+attrs_1
 10365 09:2CA4: 48           	pha
 10366 09:2CA5: 22 xx xx xx  	jsl	~~strcat
 10367                        	.line	156
 10368                        L10211:
 10369                        	.line	157
 10370 09:2CA9: E2 20        	sep	#$20
 10371                        	longa	off
 10372 09:2CAB: A0 08 00     	ldy	#$8
 10373 09:2CAE: B7 11        	lda	[<L194+pInfo_1],Y
 10374 09:2CB0: 29 04        	and	#<$4
 10375 09:2CB2: C2 20        	rep	#$20
 10376                        	longa	on
 10377 09:2CB4: D0 03        	bne	L201
 10378 09:2CB6: 82 13 00     	brl	L10212
 10379                        L201:
  Mon Sep 27 2021  9:39                                                Page 220


 10380                        	.line	158
 10381                        	.line	159
 10382 09:2CB9: F4 xx xx     	pea	#^L182+15
 10383 09:2CBC: F4 xx xx     	pea	#<L182+15
 10384 09:2CBF: F4 00 00     	pea	#0
 10385 09:2CC2: 18           	clc
 10386 09:2CC3: 7B           	tdc
 10387 09:2CC4: 69 25 00     	adc	#<L194+attrs_1
 10388 09:2CC7: 48           	pha
 10389 09:2CC8: 22 xx xx xx  	jsl	~~strcat
 10390                        	.line	160
 10391                        L10212:
 10392                        	.line	161
 10393 09:2CCC: E2 20        	sep	#$20
 10394                        	longa	off
 10395 09:2CCE: A0 08 00     	ldy	#$8
 10396 09:2CD1: B7 11        	lda	[<L194+pInfo_1],Y
 10397 09:2CD3: 29 02        	and	#<$2
 10398 09:2CD5: C2 20        	rep	#$20
 10399                        	longa	on
 10400 09:2CD7: D0 03        	bne	L202
 10401 09:2CD9: 82 13 00     	brl	L10213
 10402                        L202:
 10403                        	.line	162
 10404                        	.line	163
 10405 09:2CDC: F4 xx xx     	pea	#^L182+17
 10406 09:2CDF: F4 xx xx     	pea	#<L182+17
 10407 09:2CE2: F4 00 00     	pea	#0
 10408 09:2CE5: 18           	clc
 10409 09:2CE6: 7B           	tdc
 10410 09:2CE7: 69 25 00     	adc	#<L194+attrs_1
 10411 09:2CEA: 48           	pha
 10412 09:2CEB: 22 xx xx xx  	jsl	~~strcat
 10413                        	.line	164
 10414                        L10213:
 10415                        	.line	165
 10416 09:2CEF: E2 20        	sep	#$20
 10417                        	longa	off
 10418 09:2CF1: A0 08 00     	ldy	#$8
 10419 09:2CF4: B7 11        	lda	[<L194+pInfo_1],Y
 10420 09:2CF6: 29 01        	and	#<$1
 10421 09:2CF8: C2 20        	rep	#$20
 10422                        	longa	on
 10423 09:2CFA: D0 03        	bne	L203
 10424 09:2CFC: 82 13 00     	brl	L10214
 10425                        L203:
 10426                        	.line	166
 10427                        	.line	167
 10428 09:2CFF: F4 xx xx     	pea	#^L182+19
 10429 09:2D02: F4 xx xx     	pea	#<L182+19
 10430 09:2D05: F4 00 00     	pea	#0
 10431 09:2D08: 18           	clc
 10432 09:2D09: 7B           	tdc
 10433 09:2D0A: 69 25 00     	adc	#<L194+attrs_1
 10434 09:2D0D: 48           	pha
 10435 09:2D0E: 22 xx xx xx  	jsl	~~strcat
 10436                        	.line	168
 10437                        L10214:
  Mon Sep 27 2021  9:39                                                Page 221


 10438                        	.line	175
 10439 09:2D12: E2 20        	sep	#$20
 10440                        	longa	off
 10441 09:2D14: A0 08 00     	ldy	#$8
 10442 09:2D17: B7 11        	lda	[<L194+pInfo_1],Y
 10443 09:2D19: 29 10        	and	#<$10
 10444 09:2D1B: C2 20        	rep	#$20
 10445                        	longa	on
 10446 09:2D1D: D0 03        	bne	L204
 10447 09:2D1F: 82 05 00     	brl	L10215
 10448                        L204:
 10449                        	.line	176
 10450                        	.line	178
 10451 09:2D22: A9 0B 00     	lda	#$b
 10452 09:2D25: 85 2D        	sta	<L194+icon_1
 10453                        	.line	180
 10454                        L10215:
 10455                        	.line	183
 10456 09:2D27: 18           	clc
 10457 09:2D28: A0 2A 00     	ldy	#$2a
 10458 09:2D2B: B7 0D        	lda	[<L194+pWin_1],Y
 10459 09:2D2D: A0 02 00     	ldy	#$2
 10460 09:2D30: 77 15        	adc	[<L194+pCon_1],Y
 10461 09:2D32: 85 31        	sta	<L194+r_1
 10462                        	.line	184
 10463 09:2D34: 18           	clc
 10464 09:2D35: A0 2C 00     	ldy	#$2c
 10465 09:2D38: B7 0D        	lda	[<L194+pWin_1],Y
 10466 09:2D3A: A0 04 00     	ldy	#$4
 10467 09:2D3D: 77 15        	adc	[<L194+pCon_1],Y
 10468 09:2D3F: 85 33        	sta	<L194+r_1+2
 10469                        	.line	185
 10470 09:2D41: A9 08 00     	lda	#$8
 10471 09:2D44: 85 39        	sta	<L194+r_1+8
 10472                        	.line	186
 10473 09:2D46: A9 08 00     	lda	#$8
 10474 09:2D49: 85 3B        	sta	<L194+r_1+10
 10475                        	.line	188
 10476 09:2D4B: 18           	clc
 10477 09:2D4C: A9 02 00     	lda	#$2
 10478 09:2D4F: 65 15        	adc	<L194+pCon_1
 10479 09:2D51: 85 01        	sta	<R0
 10480 09:2D53: A9 00 00     	lda	#$0
 10481 09:2D56: 65 17        	adc	<L194+pCon_1+2
 10482 09:2D58: 85 03        	sta	<R0+2
 10483 09:2D5A: A0 9E 01     	ldy	#$19e
 10484 09:2D5D: B7 0D        	lda	[<L194+pWin_1],Y
 10485 09:2D5F: 48           	pha
 10486 09:2D60: D4 2F        	pei	<L194+ic_1
 10487 09:2D62: F4 00 00     	pea	#0
 10488 09:2D65: 18           	clc
 10489 09:2D66: 7B           	tdc
 10490 09:2D67: 69 31 00     	adc	#<L194+r_1
 10491 09:2D6A: 48           	pha
 10492 09:2D6B: D4 2D        	pei	<L194+icon_1
 10493 09:2D6D: D4 0F        	pei	<L194+pWin_1+2
 10494 09:2D6F: D4 0D        	pei	<L194+pWin_1
 10495 09:2D71: 22 xx xx xx  	jsl	~~k_gui_DrawWidget
  Mon Sep 27 2021  9:39                                                Page 222


 10496 09:2D75: 85 05        	sta	<R1
 10497 09:2D77: 18           	clc
 10498 09:2D78: A5 05        	lda	<R1
 10499 09:2D7A: 67 01        	adc	[<R0]
 10500 09:2D7C: 87 01        	sta	[<R0]
 10501                        	.line	190
 10502 09:2D7E: 18           	clc
 10503 09:2D7F: A9 02 00     	lda	#$2
 10504 09:2D82: 65 15        	adc	<L194+pCon_1
 10505 09:2D84: 85 01        	sta	<R0
 10506 09:2D86: A9 00 00     	lda	#$0
 10507 09:2D89: 65 17        	adc	<L194+pCon_1+2
 10508 09:2D8B: 85 03        	sta	<R0+2
 10509 09:2D8D: 18           	clc
 10510 09:2D8E: A9 02 00     	lda	#$2
 10511 09:2D91: 67 01        	adc	[<R0]
 10512 09:2D93: 87 01        	sta	[<R0]
 10513                        	.line	193
 10514 09:2D95: 18           	clc
 10515 09:2D96: A0 2A 00     	ldy	#$2a
 10516 09:2D99: B7 0D        	lda	[<L194+pWin_1],Y
 10517 09:2D9B: A0 02 00     	ldy	#$2
 10518 09:2D9E: 77 15        	adc	[<L194+pCon_1],Y
 10519 09:2DA0: 85 31        	sta	<L194+r_1
 10520                        	.line	194
 10521 09:2DA2: 18           	clc
 10522 09:2DA3: A0 2C 00     	ldy	#$2c
 10523 09:2DA6: B7 0D        	lda	[<L194+pWin_1],Y
 10524 09:2DA8: A0 04 00     	ldy	#$4
 10525 09:2DAB: 77 15        	adc	[<L194+pCon_1],Y
 10526 09:2DAD: 85 33        	sta	<L194+r_1+2
 10527                        	.line	195
 10528 09:2DAF: A9 C8 00     	lda	#$c8
 10529 09:2DB2: 85 39        	sta	<L194+r_1+8
 10530                        	.line	196
 10531 09:2DB4: A9 08 00     	lda	#$8
 10532 09:2DB7: 85 3B        	sta	<L194+r_1+10
 10533                        	.line	198
 10534 09:2DB9: A5 3F        	lda	<L194+row_1
 10535 09:2DBB: C5 5C        	cmp	<L193+data_0
 10536 09:2DBD: D0 04        	bne	L205
 10537 09:2DBF: A5 41        	lda	<L194+row_1+2
 10538 09:2DC1: C5 5E        	cmp	<L193+data_0+2
 10539                        L205:
 10540 09:2DC3: F0 03        	beq	L206
 10541 09:2DC5: 82 36 00     	brl	L10216
 10542                        L206:
 10543                        	.line	199
 10544                        	.line	200
 10545 09:2DC8: A9 0F 00     	lda	#$f
 10546 09:2DCB: 85 53        	sta	<L194+color_1
 10547                        	.line	201
 10548 09:2DCD: A0 9E 01     	ldy	#$19e
 10549 09:2DD0: B7 0D        	lda	[<L194+pWin_1],Y
 10550 09:2DD2: 48           	pha
 10551 09:2DD3: F4 0B 00     	pea	#<$b
 10552 09:2DD6: D4 3B        	pei	<L194+r_1+10
 10553 09:2DD8: D4 39        	pei	<L194+r_1+8
  Mon Sep 27 2021  9:39                                                Page 223


 10554 09:2DDA: A0 00 00     	ldy	#$0
 10555 09:2DDD: A5 33        	lda	<L194+r_1+2
 10556 09:2DDF: 10 01        	bpl	L207
 10557 09:2DE1: 88           	dey
 10558                        L207:
 10559 09:2DE2: 85 01        	sta	<R0
 10560 09:2DE4: 84 03        	sty	<R0+2
 10561 09:2DE6: D4 03        	pei	<R0+2
 10562 09:2DE8: D4 01        	pei	<R0
 10563 09:2DEA: A0 00 00     	ldy	#$0
 10564 09:2DED: A5 31        	lda	<L194+r_1
 10565 09:2DEF: 10 01        	bpl	L208
 10566 09:2DF1: 88           	dey
 10567                        L208:
 10568 09:2DF2: 85 05        	sta	<R1
 10569 09:2DF4: 84 07        	sty	<R1+2
 10570 09:2DF6: D4 07        	pei	<R1+2
 10571 09:2DF8: D4 05        	pei	<R1
 10572 09:2DFA: 22 xx xx xx  	jsl	~~k_vdma_fill_rect_ex
 10573                        	.line	207
 10574                        L10216:
 10575                        	.line	209
 10576 09:2DFE: A0 9E 01     	ldy	#$19e
 10577 09:2E01: B7 0D        	lda	[<L194+pWin_1],Y
 10578 09:2E03: 48           	pha
 10579 09:2E04: D4 53        	pei	<L194+color_1
 10580 09:2E06: F4 00 00     	pea	#0
 10581 09:2E09: 18           	clc
 10582 09:2E0A: 7B           	tdc
 10583 09:2E0B: 69 31 00     	adc	#<L194+r_1
 10584 09:2E0E: 48           	pha
 10585 09:2E0F: F4 00 00     	pea	#<$0
 10586 09:2E12: F4 xx xx     	pea	#^L182+21
 10587 09:2E15: F4 xx xx     	pea	#<L182+21
 10588 09:2E18: 22 xx xx xx  	jsl	~~k_user_getFontClass
 10589 09:2E1C: 85 01        	sta	<R0
 10590 09:2E1E: 86 03        	stx	<R0+2
 10591 09:2E20: DA           	phx
 10592 09:2E21: 48           	pha
 10593 09:2E22: 18           	clc
 10594 09:2E23: A9 16 00     	lda	#$16
 10595 09:2E26: 65 11        	adc	<L194+pInfo_1
 10596 09:2E28: 85 05        	sta	<R1
 10597 09:2E2A: A9 00 00     	lda	#$0
 10598 09:2E2D: 65 13        	adc	<L194+pInfo_1+2
 10599 09:2E2F: 85 07        	sta	<R1+2
 10600 09:2E31: D4 07        	pei	<R1+2
 10601 09:2E33: D4 05        	pei	<R1
 10602 09:2E35: D4 0F        	pei	<L194+pWin_1+2
 10603 09:2E37: D4 0D        	pei	<L194+pWin_1
 10604 09:2E39: 22 xx xx xx  	jsl	~~k_gui_DrawText
 10605                        	.line	218
 10606 09:2E3D: 18           	clc
 10607 09:2E3E: A9 08 00     	lda	#$8
 10608 09:2E41: A0 06 00     	ldy	#$6
 10609 09:2E44: 77 15        	adc	[<L194+pCon_1],Y
 10610 09:2E46: 85 01        	sta	<R0
 10611 09:2E48: 22 xx xx xx  	jsl	~~k_font_getFontWidth
  Mon Sep 27 2021  9:39                                                Page 224


 10612 09:2E4C: 85 05        	sta	<R1
 10613 09:2E4E: A5 05        	lda	<R1
 10614 09:2E50: A6 01        	ldx	<R0
 10615                        	xref	~~~mul
 10616 09:2E52: 22 xx xx xx  	jsl	~~~mul
 10617 09:2E56: 85 01        	sta	<R0
 10618 09:2E58: 18           	clc
 10619 09:2E59: A5 01        	lda	<R0
 10620 09:2E5B: A0 2A 00     	ldy	#$2a
 10621 09:2E5E: 77 0D        	adc	[<L194+pWin_1],Y
 10622 09:2E60: 85 05        	sta	<R1
 10623 09:2E62: 18           	clc
 10624 09:2E63: A5 05        	lda	<R1
 10625 09:2E65: A0 02 00     	ldy	#$2
 10626 09:2E68: 77 15        	adc	[<L194+pCon_1],Y
 10627 09:2E6A: 85 31        	sta	<L194+r_1
 10628                        	.line	219
 10629 09:2E6C: 18           	clc
 10630 09:2E6D: A0 2C 00     	ldy	#$2c
 10631 09:2E70: B7 0D        	lda	[<L194+pWin_1],Y
 10632 09:2E72: A0 04 00     	ldy	#$4
 10633 09:2E75: 77 15        	adc	[<L194+pCon_1],Y
 10634 09:2E77: 85 33        	sta	<L194+r_1+2
 10635                        	.line	220
 10636 09:2E79: A9 32 00     	lda	#$32
 10637 09:2E7C: 85 39        	sta	<L194+r_1+8
 10638                        	.line	221
 10639 09:2E7E: A9 08 00     	lda	#$8
 10640 09:2E81: 85 3B        	sta	<L194+r_1+10
 10641                        	.line	223
 10642 09:2E83: A0 9E 01     	ldy	#$19e
 10643 09:2E86: B7 0D        	lda	[<L194+pWin_1],Y
 10644 09:2E88: 48           	pha
 10645 09:2E89: 22 xx xx xx  	jsl	~~k_getUIGadgetColor
 10646 09:2E8D: 48           	pha
 10647 09:2E8E: F4 00 00     	pea	#0
 10648 09:2E91: 18           	clc
 10649 09:2E92: 7B           	tdc
 10650 09:2E93: 69 31 00     	adc	#<L194+r_1
 10651 09:2E96: 48           	pha
 10652 09:2E97: F4 00 00     	pea	#<$0
 10653 09:2E9A: F4 xx xx     	pea	#^L182+33
 10654 09:2E9D: F4 xx xx     	pea	#<L182+33
 10655 09:2EA0: 22 xx xx xx  	jsl	~~k_user_getFontClass
 10656 09:2EA4: 85 01        	sta	<R0
 10657 09:2EA6: 86 03        	stx	<R0+2
 10658 09:2EA8: DA           	phx
 10659 09:2EA9: 48           	pha
 10660 09:2EAA: F4 00 00     	pea	#0
 10661 09:2EAD: 18           	clc
 10662 09:2EAE: 7B           	tdc
 10663 09:2EAF: 69 25 00     	adc	#<L194+attrs_1
 10664 09:2EB2: 48           	pha
 10665 09:2EB3: D4 0F        	pei	<L194+pWin_1+2
 10666 09:2EB5: D4 0D        	pei	<L194+pWin_1
 10667 09:2EB7: 22 xx xx xx  	jsl	~~k_gui_DrawText
 10668                        	.line	231
 10669 09:2EBB: 18           	clc
  Mon Sep 27 2021  9:39                                                Page 225


 10670 09:2EBC: A9 08 00     	lda	#$8
 10671 09:2EBF: A0 06 00     	ldy	#$6
 10672 09:2EC2: 77 15        	adc	[<L194+pCon_1],Y
 10673 09:2EC4: 85 01        	sta	<R0
 10674 09:2EC6: 22 xx xx xx  	jsl	~~k_font_getFontWidth
 10675 09:2ECA: 85 05        	sta	<R1
 10676 09:2ECC: A5 05        	lda	<R1
 10677 09:2ECE: A6 01        	ldx	<R0
 10678                        	xref	~~~mul
 10679 09:2ED0: 22 xx xx xx  	jsl	~~~mul
 10680 09:2ED4: 85 01        	sta	<R0
 10681 09:2ED6: 18           	clc
 10682 09:2ED7: A5 01        	lda	<R0
 10683 09:2ED9: A0 2A 00     	ldy	#$2a
 10684 09:2EDC: 77 0D        	adc	[<L194+pWin_1],Y
 10685 09:2EDE: 85 05        	sta	<R1
 10686 09:2EE0: 18           	clc
 10687 09:2EE1: A5 05        	lda	<R1
 10688 09:2EE3: A0 02 00     	ldy	#$2
 10689 09:2EE6: 77 15        	adc	[<L194+pCon_1],Y
 10690 09:2EE8: 85 31        	sta	<L194+r_1
 10691                        	.line	232
 10692 09:2EEA: 18           	clc
 10693 09:2EEB: A0 2C 00     	ldy	#$2c
 10694 09:2EEE: B7 0D        	lda	[<L194+pWin_1],Y
 10695 09:2EF0: A0 04 00     	ldy	#$4
 10696 09:2EF3: 77 15        	adc	[<L194+pCon_1],Y
 10697 09:2EF5: 85 33        	sta	<L194+r_1+2
 10698                        	.line	233
 10699 09:2EF7: A9 64 00     	lda	#$64
 10700 09:2EFA: 85 39        	sta	<L194+r_1+8
 10701                        	.line	234
 10702 09:2EFC: A9 08 00     	lda	#$8
 10703 09:2EFF: 85 3B        	sta	<L194+r_1+10
 10704                        	.line	236
 10705 09:2F01: A0 9E 01     	ldy	#$19e
 10706 09:2F04: B7 0D        	lda	[<L194+pWin_1],Y
 10707 09:2F06: 48           	pha
 10708 09:2F07: 22 xx xx xx  	jsl	~~k_getUIGadgetColor
 10709 09:2F0B: 48           	pha
 10710 09:2F0C: F4 00 00     	pea	#0
 10711 09:2F0F: 18           	clc
 10712 09:2F10: 7B           	tdc
 10713 09:2F11: 69 31 00     	adc	#<L194+r_1
 10714 09:2F14: 48           	pha
 10715 09:2F15: F4 00 00     	pea	#<$0
 10716 09:2F18: F4 xx xx     	pea	#^L182+45
 10717 09:2F1B: F4 xx xx     	pea	#<L182+45
 10718 09:2F1E: 22 xx xx xx  	jsl	~~k_user_getFontClass
 10719 09:2F22: 85 01        	sta	<R0
 10720 09:2F24: 86 03        	stx	<R0+2
 10721 09:2F26: DA           	phx
 10722 09:2F27: 48           	pha
 10723 09:2F28: F4 20 00     	pea	#<$20
 10724 09:2F2B: F4 00 00     	pea	#0
 10725 09:2F2E: 18           	clc
 10726 09:2F2F: 7B           	tdc
 10727 09:2F30: 69 43 00     	adc	#<L194+longBuffer_1
  Mon Sep 27 2021  9:39                                                Page 226


 10728 09:2F33: 48           	pha
 10729 09:2F34: F4 00 00     	pea	#<$0
 10730 09:2F37: A0 02 00     	ldy	#$2
 10731 09:2F3A: B7 11        	lda	[<L194+pInfo_1],Y
 10732 09:2F3C: 48           	pha
 10733 09:2F3D: A7 11        	lda	[<L194+pInfo_1]
 10734 09:2F3F: 48           	pha
 10735 09:2F40: 22 xx xx xx  	jsl	~~k_longtosize
 10736 09:2F44: 85 05        	sta	<R1
 10737 09:2F46: 86 07        	stx	<R1+2
 10738 09:2F48: DA           	phx
 10739 09:2F49: 48           	pha
 10740 09:2F4A: 22 xx xx xx  	jsl	~~k_replace_padding_until
 10741 09:2F4E: 85 09        	sta	<R2
 10742 09:2F50: 86 0B        	stx	<R2+2
 10743 09:2F52: DA           	phx
 10744 09:2F53: 48           	pha
 10745 09:2F54: D4 0F        	pei	<L194+pWin_1+2
 10746 09:2F56: D4 0D        	pei	<L194+pWin_1
 10747 09:2F58: 22 xx xx xx  	jsl	~~k_gui_DrawText
 10748                        	.line	244
 10749 09:2F5C: 18           	clc
 10750 09:2F5D: A9 04 00     	lda	#$4
 10751 09:2F60: 65 15        	adc	<L194+pCon_1
 10752 09:2F62: 85 01        	sta	<R0
 10753 09:2F64: A9 00 00     	lda	#$0
 10754 09:2F67: 65 17        	adc	<L194+pCon_1+2
 10755 09:2F69: 85 03        	sta	<R0+2
 10756 09:2F6B: 22 xx xx xx  	jsl	~~k_font_getFontHeight
 10757 09:2F6F: 85 05        	sta	<R1
 10758 09:2F71: 18           	clc
 10759 09:2F72: A5 05        	lda	<R1
 10760 09:2F74: 67 01        	adc	[<R0]
 10761 09:2F76: 85 09        	sta	<R2
 10762 09:2F78: 18           	clc
 10763 09:2F79: A9 02 00     	lda	#$2
 10764 09:2F7C: 65 09        	adc	<R2
 10765 09:2F7E: 87 01        	sta	[<R0]
 10766                        	.line	245
 10767 09:2F80: 22 xx xx xx  	jsl	~~k_font_getFontWidth
 10768 09:2F84: A0 02 00     	ldy	#$2
 10769 09:2F87: 97 15        	sta	[<L194+pCon_1],Y
 10770                        	.line	247
 10771                        L10208:
 10772                        	.line	250
 10773 09:2F89: 82 CF FC     	brl	L199
 10774                        	.endblock	250
 10775             00000054   L193	equ	84
 10776             0000000D   L194	equ	13
 10777 09:2F8C:              	ends
 10778                        	efunc
 10779                        	.endfunc	250,13,84
 10780                        	.line	250
 10781                        	data
 10782                        L182:
 10783 00:128F: 46 69 6C 65  	db	$46,$69,$6C,$65,$00,$46,$6F,$6C,$64,$65,
                    $72,$00,$00,$41,$00
       00:1293: 00 46 6F 6C 
  Mon Sep 27 2021  9:39                                                Page 227


       00:1297: 64 65 72 00 
       00:129B: 00 41 00 
 10784 00:129E: 53 00 48 00  	db	$53,$00,$48,$00,$52,$00,$54,$49,$4E,$59,
                    $54,$59,$50,$45,$38
       00:12A2: 52 00 54 49 
       00:12A6: 4E 59 54 59 
       00:12AA: 50 45 38 
 10785 00:12AD: 78 38 00 54  	db	$78,$38,$00,$54,$49,$4E,$59,$54,$59,$50,
                    $45,$38,$78,$38,$00
       00:12B1: 49 4E 59 54 
       00:12B5: 59 50 45 38 
       00:12B9: 78 38 00 
 10786 00:12BC: 54 49 4E 59  	db	$54,$49,$4E,$59,$54,$59,$50,$45,$38,$78,
                    $38,$00
       00:12C0: 54 59 50 45 
       00:12C4: 38 78 38 00 
 10787 00:12C8:              	ends
 10788                        	.line	252
 10789                        	.line	253
 10790                        	DTOP
 10791                        	xdef	~~desktopVolsWindowProc
 10792                        	func
 10793                        	.function	253
 10794                        ~~desktopVolsWindowProc:
 10795                        	longa	on
 10796                        	longi	on
 10797 09:2F8C: 3B           	tsc
 10798 09:2F8D: 38           	sec
 10799 09:2F8E: E9 5D 00     	sbc	#L210
 10800 09:2F91: 1B           	tcs
 10801 09:2F92: 0B           	phd
 10802 09:2F93: 5B           	tcd
 10803             00000004   pMsg_0	set	4
 10804                        	.block	253
 10805             00000000   p_1	set	0
 10806             00000004   pWin_1	set	4
 10807             00000008   pWinTemp_1	set	8
 10808             0000000C   pnode_1	set	12
 10809             00000010   point_1	set	16
 10810             00000014   pdata_1	set	20
 10811             00000018   pdd_1	set	24
 10812             0000001C   br_1	set	28
 10813             0000001E   row_1	set	30
 10814             00000020   path_1	set	32
 10815             00000024   fr_1	set	36
 10816             00000026   dp_1	set	38
 10817             0000002A   finfo_1	set	42
 10818             0000002E   testMsg_1	set	46
 10819                        	.sym	p,0,138,1,32,17
 10820                        	.sym	pWin,4,138,1,32,30
 10821                        	.sym	pWinTemp,8,138,1,32,30
 10822                        	.sym	pnode,12,138,1,32,2
 10823                        	.sym	point,16,10,1,32,22
 10824                        	.sym	pdata,20,129,1,32
 10825                        	.sym	pdd,24,138,1,32,128
 10826                        	.sym	br,28,16,1,16
 10827                        	.sym	row,30,5,1,16
 10828                        	.sym	path,32,138,1,32,52
  Mon Sep 27 2021  9:39                                                Page 228


 10829                        	.sym	fr,36,5,1,16
 10830                        	.sym	dp,38,138,1,32,69
 10831                        	.sym	finfo,42,138,1,32,70
 10832                        	.sym	testMsg,46,10,1,312,13
 10833                        	.sym	pMsg,4,138,6,32,13
 10834 09:2F94: 64 09        	stz	<L211+p_1
 10835 09:2F96: 64 0B        	stz	<L211+p_1+2
 10836 09:2F98: 64 0D        	stz	<L211+pWin_1
 10837 09:2F9A: 64 0F        	stz	<L211+pWin_1+2
 10838 09:2F9C: 64 11        	stz	<L211+pWinTemp_1
 10839 09:2F9E: 64 13        	stz	<L211+pWinTemp_1+2
 10840 09:2FA0: 64 27        	stz	<L211+row_1
 10841 09:2FA2: 64 29        	stz	<L211+path_1
 10842 09:2FA4: 64 2B        	stz	<L211+path_1+2
 10843 09:2FA6: 64 2F        	stz	<L211+dp_1
 10844 09:2FA8: 64 31        	stz	<L211+dp_1+2
 10845                        	.line	274
 10846 09:2FAA: A5 61        	lda	<L210+pMsg_0
 10847 09:2FAC: 05 63        	ora	<L210+pMsg_0+2
 10848 09:2FAE: D0 03        	bne	L213
 10849 09:2FB0: 82 62 0E     	brl	L10217
 10850                        L213:
 10851                        	.line	275
 10852                        	.line	276
 10853 09:2FB3: 22 xx xx xx  	jsl	~~k_exec_get_current_process
 10854 09:2FB7: 85 09        	sta	<L211+p_1
 10855 09:2FB9: 86 0B        	stx	<L211+p_1+2
 10856                        	.line	278
 10857 09:2FBB: A0 08 00     	ldy	#$8
 10858 09:2FBE: B7 61        	lda	[<L210+pMsg_0],Y
 10859 09:2FC0: 82 26 0E     	brl	L10218
 10860                        	.line	279
 10861                        	.line	280
 10862                        L10220:
 10863                        	.line	281
 10864 09:2FC3: A0 C5 01     	ldy	#$1c5
 10865 09:2FC6: B7 0D        	lda	[<L211+pWin_1],Y
 10866 09:2FC8: A0 C7 01     	ldy	#$1c7
 10867 09:2FCB: 17 0D        	ora	[<L211+pWin_1],Y
 10868 09:2FCD: D0 03        	bne	L214
 10869 09:2FCF: 82 3B 00     	brl	L10221
 10870                        L214:
 10871                        	.line	282
 10872                        	.line	283
 10873 09:2FD2: A0 C5 01     	ldy	#$1c5
 10874 09:2FD5: B7 0D        	lda	[<L211+pWin_1],Y
 10875 09:2FD7: 85 01        	sta	<R0
 10876 09:2FD9: A0 C7 01     	ldy	#$1c7
 10877 09:2FDC: B7 0D        	lda	[<L211+pWin_1],Y
 10878 09:2FDE: 85 03        	sta	<R0+2
 10879 09:2FE0: A0 14 00     	ldy	#$14
 10880 09:2FE3: B7 01        	lda	[<R0],Y
 10881 09:2FE5: A0 16 00     	ldy	#$16
 10882 09:2FE8: 17 01        	ora	[<R0],Y
 10883 09:2FEA: D0 03        	bne	L215
 10884 09:2FEC: 82 1E 00     	brl	L10222
 10885                        L215:
 10886                        	.line	284
  Mon Sep 27 2021  9:39                                                Page 229


 10887 09:2FEF: A0 C5 01     	ldy	#$1c5
 10888 09:2FF2: B7 0D        	lda	[<L211+pWin_1],Y
 10889 09:2FF4: 85 01        	sta	<R0
 10890 09:2FF6: A0 C7 01     	ldy	#$1c7
 10891 09:2FF9: B7 0D        	lda	[<L211+pWin_1],Y
 10892 09:2FFB: 85 03        	sta	<R0+2
 10893 09:2FFD: A0 16 00     	ldy	#$16
 10894 09:3000: B7 01        	lda	[<R0],Y
 10895 09:3002: 48           	pha
 10896 09:3003: A0 14 00     	ldy	#$14
 10897 09:3006: B7 01        	lda	[<R0],Y
 10898 09:3008: 48           	pha
 10899 09:3009: 22 xx xx xx  	jsl	~~k_nodelist_deallocate_list
 10900                        L10222:
 10901                        	.line	287
 10902                        L10221:
 10903                        	.line	288
 10904 09:300D: 82 05 0E     	brl	L10219
 10905                        	.line	289
 10906                        L10223:
 10907                        	.line	290
 10908 09:3010: A5 09        	lda	<L211+p_1
 10909 09:3012: 05 0B        	ora	<L211+p_1+2
 10910 09:3014: D0 03        	bne	L216
 10911 09:3016: 82 35 03     	brl	L10224
 10912                        L216:
 10913                        	.line	291
 10914                        	.line	292
 10915 09:3019: A0 04 00     	ldy	#$4
 10916 09:301C: B7 09        	lda	[<L211+p_1],Y
 10917 09:301E: 48           	pha
 10918 09:301F: A0 02 00     	ldy	#$2
 10919 09:3022: B7 09        	lda	[<L211+p_1],Y
 10920 09:3024: 48           	pha
 10921 09:3025: F4 xx xx     	pea	#^L209
 10922 09:3028: F4 xx xx     	pea	#<L209
 10923 09:302B: 22 xx xx xx  	jsl	~~k_debug_long
 10924                        	.line	293
 10925 09:302F: A0 0C 00     	ldy	#$c
 10926 09:3032: B7 61        	lda	[<L210+pMsg_0],Y
 10927 09:3034: 48           	pha
 10928 09:3035: A0 0A 00     	ldy	#$a
 10929 09:3038: B7 61        	lda	[<L210+pMsg_0],Y
 10930 09:303A: 48           	pha
 10931 09:303B: 22 xx xx xx  	jsl	~~k_getWindowFromHandle
 10932 09:303F: 85 0D        	sta	<L211+pWin_1
 10933 09:3041: 86 0F        	stx	<L211+pWin_1+2
 10934                        	.line	294
 10935 09:3043: A5 0D        	lda	<L211+pWin_1
 10936 09:3045: 05 0F        	ora	<L211+pWin_1+2
 10937 09:3047: D0 03        	bne	L217
 10938 09:3049: 82 02 03     	brl	L10225
 10939                        L217:
 10940                        	.line	295
 10941                        	.line	297
 10942 09:304C: F4 00 00     	pea	#^$0
 10943 09:304F: F4 00 00     	pea	#<$0
 10944 09:3052: F4 04 00     	pea	#<$4
  Mon Sep 27 2021  9:39                                                Page 230


 10945 09:3055: A0 0C 00     	ldy	#$c
 10946 09:3058: B7 61        	lda	[<L210+pMsg_0],Y
 10947 09:305A: 48           	pha
 10948 09:305B: A0 0A 00     	ldy	#$a
 10949 09:305E: B7 61        	lda	[<L210+pMsg_0],Y
 10950 09:3060: 48           	pha
 10951 09:3061: 22 xx xx xx  	jsl	~~k_user_SetWindowData
 10952                        	.line	299
 10953 09:3065: A9 0F 00     	lda	#$f
 10954 09:3068: A0 B8 01     	ldy	#$1b8
 10955 09:306B: 97 0D        	sta	[<L211+pWin_1],Y
 10956 09:306D: A9 00 00     	lda	#$0
 10957 09:3070: A0 BA 01     	ldy	#$1ba
 10958 09:3073: 97 0D        	sta	[<L211+pWin_1],Y
 10959                        	.line	301
 10960 09:3075: F4 00 00     	pea	#^$28
 10961 09:3078: F4 28 00     	pea	#<$28
 10962 09:307B: 22 xx xx xx  	jsl	~~k_mem_allocate_heap
 10963 09:307F: 85 01        	sta	<R0
 10964 09:3081: 86 03        	stx	<R0+2
 10965 09:3083: A5 01        	lda	<R0
 10966 09:3085: A0 C5 01     	ldy	#$1c5
 10967 09:3088: 97 0D        	sta	[<L211+pWin_1],Y
 10968 09:308A: A5 03        	lda	<R0+2
 10969 09:308C: A0 C7 01     	ldy	#$1c7
 10970 09:308F: 97 0D        	sta	[<L211+pWin_1],Y
 10971                        	.line	302
 10972 09:3091: A0 C5 01     	ldy	#$1c5
 10973 09:3094: B7 0D        	lda	[<L211+pWin_1],Y
 10974 09:3096: A0 C7 01     	ldy	#$1c7
 10975 09:3099: 17 0D        	ora	[<L211+pWin_1],Y
 10976 09:309B: D0 03        	bne	L218
 10977 09:309D: 82 98 02     	brl	L10226
 10978                        L218:
 10979                        	.line	303
 10980                        	.line	307
 10981 09:30A0: A0 C5 01     	ldy	#$1c5
 10982 09:30A3: B7 0D        	lda	[<L211+pWin_1],Y
 10983 09:30A5: 85 01        	sta	<R0
 10984 09:30A7: A0 C7 01     	ldy	#$1c7
 10985 09:30AA: B7 0D        	lda	[<L211+pWin_1],Y
 10986 09:30AC: 85 03        	sta	<R0+2
 10987 09:30AE: A9 00 00     	lda	#$0
 10988 09:30B1: A0 14 00     	ldy	#$14
 10989 09:30B4: 97 01        	sta	[<R0],Y
 10990 09:30B6: A9 00 00     	lda	#$0
 10991 09:30B9: A0 16 00     	ldy	#$16
 10992 09:30BC: 97 01        	sta	[<R0],Y
 10993                        	.line	309
 10994 09:30BE: F4 00 00     	pea	#^$34
 10995 09:30C1: F4 34 00     	pea	#<$34
 10996 09:30C4: 22 xx xx xx  	jsl	~~k_mem_allocate_heap
 10997 09:30C8: 85 2F        	sta	<L211+dp_1
 10998 09:30CA: 86 31        	stx	<L211+dp_1+2
 10999                        	.line	310
 11000 09:30CC: F4 00 00     	pea	#^$116
 11001 09:30CF: F4 16 01     	pea	#<$116
 11002 09:30D2: 22 xx xx xx  	jsl	~~k_mem_allocate_heap
  Mon Sep 27 2021  9:39                                                Page 231


 11003 09:30D6: 85 33        	sta	<L211+finfo_1
 11004 09:30D8: 86 35        	stx	<L211+finfo_1+2
 11005                        	.line	314
 11006 09:30DA: A0 C5 01     	ldy	#$1c5
 11007 09:30DD: B7 0D        	lda	[<L211+pWin_1],Y
 11008 09:30DF: 85 01        	sta	<R0
 11009 09:30E1: A0 C7 01     	ldy	#$1c7
 11010 09:30E4: B7 0D        	lda	[<L211+pWin_1],Y
 11011 09:30E6: 85 03        	sta	<R0+2
 11012 09:30E8: F4 00 00     	pea	#^$100
 11013 09:30EB: F4 00 01     	pea	#<$100
 11014 09:30EE: 22 xx xx xx  	jsl	~~k_mem_allocate_heap
 11015 09:30F2: 85 05        	sta	<R1
 11016 09:30F4: 86 07        	stx	<R1+2
 11017 09:30F6: A5 05        	lda	<R1
 11018 09:30F8: A0 0C 00     	ldy	#$c
 11019 09:30FB: 97 01        	sta	[<R0],Y
 11020 09:30FD: A5 07        	lda	<R1+2
 11021 09:30FF: A0 0E 00     	ldy	#$e
 11022 09:3102: 97 01        	sta	[<R0],Y
 11023                        	.line	315
 11024 09:3104: F4 00 01     	pea	#<$100
 11025 09:3107: F4 00 00     	pea	#<$0
 11026 09:310A: A0 C5 01     	ldy	#$1c5
 11027 09:310D: B7 0D        	lda	[<L211+pWin_1],Y
 11028 09:310F: 85 01        	sta	<R0
 11029 09:3111: A0 C7 01     	ldy	#$1c7
 11030 09:3114: B7 0D        	lda	[<L211+pWin_1],Y
 11031 09:3116: 85 03        	sta	<R0+2
 11032 09:3118: A0 0E 00     	ldy	#$e
 11033 09:311B: B7 01        	lda	[<R0],Y
 11034 09:311D: 48           	pha
 11035 09:311E: A0 0C 00     	ldy	#$c
 11036 09:3121: B7 01        	lda	[<R0],Y
 11037 09:3123: 48           	pha
 11038 09:3124: 22 xx xx xx  	jsl	~~memset
 11039                        	.line	317
 11040 09:3128: A0 C5 01     	ldy	#$1c5
 11041 09:312B: B7 0D        	lda	[<L211+pWin_1],Y
 11042 09:312D: 85 01        	sta	<R0
 11043 09:312F: A0 C7 01     	ldy	#$1c7
 11044 09:3132: B7 0D        	lda	[<L211+pWin_1],Y
 11045 09:3134: 85 03        	sta	<R0+2
 11046 09:3136: F4 00 00     	pea	#^$233
 11047 09:3139: F4 33 02     	pea	#<$233
 11048 09:313C: 22 xx xx xx  	jsl	~~k_mem_allocate_heap
 11049 09:3140: 85 05        	sta	<R1
 11050 09:3142: 86 07        	stx	<R1+2
 11051 09:3144: A5 05        	lda	<R1
 11052 09:3146: A0 20 00     	ldy	#$20
 11053 09:3149: 97 01        	sta	[<R0],Y
 11054 09:314B: A5 07        	lda	<R1+2
 11055 09:314D: A0 22 00     	ldy	#$22
 11056 09:3150: 97 01        	sta	[<R0],Y
 11057                        	.line	319
 11058 09:3152: F4 01 00     	pea	#<$1
 11059 09:3155: F4 xx xx     	pea	#^L209+41
 11060 09:3158: F4 xx xx     	pea	#<L209+41
  Mon Sep 27 2021  9:39                                                Page 232


 11061 09:315B: F4 00 00     	pea	#^$0
 11062 09:315E: F4 00 00     	pea	#<$0
 11063 09:3161: 22 xx xx xx  	jsl	~~f_mount
 11064                        	.line	320
 11065 09:3165: F4 01 00     	pea	#<$1
 11066 09:3168: F4 xx xx     	pea	#^L209+45
 11067 09:316B: F4 xx xx     	pea	#<L209+45
 11068 09:316E: A0 C5 01     	ldy	#$1c5
 11069 09:3171: B7 0D        	lda	[<L211+pWin_1],Y
 11070 09:3173: 85 01        	sta	<R0
 11071 09:3175: A0 C7 01     	ldy	#$1c7
 11072 09:3178: B7 0D        	lda	[<L211+pWin_1],Y
 11073 09:317A: 85 03        	sta	<R0+2
 11074 09:317C: A0 22 00     	ldy	#$22
 11075 09:317F: B7 01        	lda	[<R0],Y
 11076 09:3181: 48           	pha
 11077 09:3182: A0 20 00     	ldy	#$20
 11078 09:3185: B7 01        	lda	[<R0],Y
 11079 09:3187: 48           	pha
 11080 09:3188: 22 xx xx xx  	jsl	~~f_mount
 11081                        	.line	322
 11082 09:318C: 18           	clc
 11083 09:318D: A9 10 00     	lda	#$10
 11084 09:3190: A0 C5 01     	ldy	#$1c5
 11085 09:3193: 77 0D        	adc	[<L211+pWin_1],Y
 11086 09:3195: 85 01        	sta	<R0
 11087 09:3197: A9 00 00     	lda	#$0
 11088 09:319A: A0 C7 01     	ldy	#$1c7
 11089 09:319D: 77 0D        	adc	[<L211+pWin_1],Y
 11090 09:319F: 85 03        	sta	<R0+2
 11091 09:31A1: D4 03        	pei	<R0+2
 11092 09:31A3: D4 01        	pei	<R0
 11093 09:31A5: A0 C5 01     	ldy	#$1c5
 11094 09:31A8: B7 0D        	lda	[<L211+pWin_1],Y
 11095 09:31AA: 85 05        	sta	<R1
 11096 09:31AC: A0 C7 01     	ldy	#$1c7
 11097 09:31AF: B7 0D        	lda	[<L211+pWin_1],Y
 11098 09:31B1: 85 07        	sta	<R1+2
 11099 09:31B3: A0 0E 00     	ldy	#$e
 11100 09:31B6: B7 05        	lda	[<R1],Y
 11101 09:31B8: 48           	pha
 11102 09:31B9: A0 0C 00     	ldy	#$c
 11103 09:31BC: B7 05        	lda	[<R1],Y
 11104 09:31BE: 48           	pha
 11105 09:31BF: F4 xx xx     	pea	#^L209+49
 11106 09:31C2: F4 xx xx     	pea	#<L209+49
 11107 09:31C5: 22 xx xx xx  	jsl	~~f_getlabel
 11108                        	.line	323
 11109 09:31C9: F4 20 00     	pea	#<$20
 11110 09:31CC: A0 C5 01     	ldy	#$1c5
 11111 09:31CF: B7 0D        	lda	[<L211+pWin_1],Y
 11112 09:31D1: 85 01        	sta	<R0
 11113 09:31D3: A0 C7 01     	ldy	#$1c7
 11114 09:31D6: B7 0D        	lda	[<L211+pWin_1],Y
 11115 09:31D8: 85 03        	sta	<R0+2
 11116 09:31DA: A0 0E 00     	ldy	#$e
 11117 09:31DD: B7 01        	lda	[<R0],Y
 11118 09:31DF: 48           	pha
  Mon Sep 27 2021  9:39                                                Page 233


 11119 09:31E0: A0 0C 00     	ldy	#$c
 11120 09:31E3: B7 01        	lda	[<R0],Y
 11121 09:31E5: 48           	pha
 11122 09:31E6: F4 xx xx     	pea	#^L209+53
 11123 09:31E9: F4 xx xx     	pea	#<L209+53
 11124 09:31EC: 22 xx xx xx  	jsl	~~k_debug_nstrings
 11125                        	.line	325
 11126 09:31F0: A0 C5 01     	ldy	#$1c5
 11127 09:31F3: B7 0D        	lda	[<L211+pWin_1],Y
 11128 09:31F5: 85 01        	sta	<R0
 11129 09:31F7: A0 C7 01     	ldy	#$1c7
 11130 09:31FA: B7 0D        	lda	[<L211+pWin_1],Y
 11131 09:31FC: 85 03        	sta	<R0+2
 11132 09:31FE: A0 0C 00     	ldy	#$c
 11133 09:3201: B7 01        	lda	[<R0],Y
 11134 09:3203: 85 05        	sta	<R1
 11135 09:3205: A0 0E 00     	ldy	#$e
 11136 09:3208: B7 01        	lda	[<R0],Y
 11137 09:320A: 85 07        	sta	<R1+2
 11138 09:320C: A7 05        	lda	[<R1]
 11139 09:320E: 29 FF 00     	and	#$ff
 11140 09:3211: D0 03        	bne	L219
 11141 09:3213: 82 31 00     	brl	L10227
 11142                        L219:
 11143                        	.line	326
 11144                        	.line	327
 11145 09:3216: A0 C5 01     	ldy	#$1c5
 11146 09:3219: B7 0D        	lda	[<L211+pWin_1],Y
 11147 09:321B: 85 01        	sta	<R0
 11148 09:321D: A0 C7 01     	ldy	#$1c7
 11149 09:3220: B7 0D        	lda	[<L211+pWin_1],Y
 11150 09:3222: 85 03        	sta	<R0+2
 11151 09:3224: A0 0E 00     	ldy	#$e
 11152 09:3227: B7 01        	lda	[<R0],Y
 11153 09:3229: 48           	pha
 11154 09:322A: A0 0C 00     	ldy	#$c
 11155 09:322D: B7 01        	lda	[<R0],Y
 11156 09:322F: 48           	pha
 11157 09:3230: 18           	clc
 11158 09:3231: A9 4C 01     	lda	#$14c
 11159 09:3234: 65 0D        	adc	<L211+pWin_1
 11160 09:3236: 85 01        	sta	<R0
 11161 09:3238: A9 00 00     	lda	#$0
 11162 09:323B: 65 0F        	adc	<L211+pWin_1+2
 11163 09:323D: 85 03        	sta	<R0+2
 11164 09:323F: D4 03        	pei	<R0+2
 11165 09:3241: D4 01        	pei	<R0
 11166 09:3243: 22 xx xx xx  	jsl	~~strcpy
 11167                        	.line	328
 11168                        L10227:
 11169                        	.line	330
 11170 09:3247: A0 C5 01     	ldy	#$1c5
 11171 09:324A: B7 0D        	lda	[<L211+pWin_1],Y
 11172 09:324C: 85 01        	sta	<R0
 11173 09:324E: A0 C7 01     	ldy	#$1c7
 11174 09:3251: B7 0D        	lda	[<L211+pWin_1],Y
 11175 09:3253: 85 03        	sta	<R0+2
 11176 09:3255: A9 00 00     	lda	#$0
  Mon Sep 27 2021  9:39                                                Page 234


 11177 09:3258: A0 0A 00     	ldy	#$a
 11178 09:325B: 97 01        	sta	[<R0],Y
 11179                        	.line	331
 11180 09:325D: A0 C5 01     	ldy	#$1c5
 11181 09:3260: B7 0D        	lda	[<L211+pWin_1],Y
 11182 09:3262: 85 01        	sta	<R0
 11183 09:3264: A0 C7 01     	ldy	#$1c7
 11184 09:3267: B7 0D        	lda	[<L211+pWin_1],Y
 11185 09:3269: 85 03        	sta	<R0+2
 11186 09:326B: F4 xx xx     	pea	#^L209+70
 11187 09:326E: F4 xx xx     	pea	#<L209+70
 11188 09:3271: 22 xx xx xx  	jsl	~~k_dos_findfiles_to_nodes
 11189 09:3275: 85 05        	sta	<R1
 11190 09:3277: 86 07        	stx	<R1+2
 11191 09:3279: A5 05        	lda	<R1
 11192 09:327B: A0 14 00     	ldy	#$14
 11193 09:327E: 97 01        	sta	[<R0],Y
 11194 09:3280: A5 07        	lda	<R1+2
 11195 09:3282: A0 16 00     	ldy	#$16
 11196 09:3285: 97 01        	sta	[<R0],Y
 11197                        	.line	333
 11198 09:3287: A0 C5 01     	ldy	#$1c5
 11199 09:328A: B7 0D        	lda	[<L211+pWin_1],Y
 11200 09:328C: 85 01        	sta	<R0
 11201 09:328E: A0 C7 01     	ldy	#$1c7
 11202 09:3291: B7 0D        	lda	[<L211+pWin_1],Y
 11203 09:3293: 85 03        	sta	<R0+2
 11204 09:3295: A0 14 00     	ldy	#$14
 11205 09:3298: B7 01        	lda	[<R0],Y
 11206 09:329A: A0 16 00     	ldy	#$16
 11207 09:329D: 17 01        	ora	[<R0],Y
 11208 09:329F: D0 03        	bne	L220
 11209 09:32A1: 82 28 00     	brl	L10228
 11210                        L220:
 11211                        	.line	334
 11212                        	.line	335
 11213 09:32A4: F4 09 00     	pea	#^~~foreach_file
 11214 09:32A7: F4 E8 2A     	pea	#<~~foreach_file
 11215 09:32AA: D4 0F        	pei	<L211+pWin_1+2
 11216 09:32AC: D4 0D        	pei	<L211+pWin_1
 11217 09:32AE: A0 C5 01     	ldy	#$1c5
 11218 09:32B1: B7 0D        	lda	[<L211+pWin_1],Y
 11219 09:32B3: 85 01        	sta	<R0
 11220 09:32B5: A0 C7 01     	ldy	#$1c7
 11221 09:32B8: B7 0D        	lda	[<L211+pWin_1],Y
 11222 09:32BA: 85 03        	sta	<R0+2
 11223 09:32BC: A0 16 00     	ldy	#$16
 11224 09:32BF: B7 01        	lda	[<R0],Y
 11225 09:32C1: 48           	pha
 11226 09:32C2: A0 14 00     	ldy	#$14
 11227 09:32C5: B7 01        	lda	[<R0],Y
 11228 09:32C7: 48           	pha
 11229 09:32C8: 22 xx xx xx  	jsl	~~k_nodelist_foreach_listdata
 11230                        	.line	336
 11231                        L10228:
 11232                        	.line	351
 11233 09:32CC: D4 35        	pei	<L211+finfo_1+2
 11234 09:32CE: D4 33        	pei	<L211+finfo_1
  Mon Sep 27 2021  9:39                                                Page 235


 11235 09:32D0: 22 xx xx xx  	jsl	~~k_mem_deallocate_heap
 11236                        	.line	352
 11237 09:32D4: D4 31        	pei	<L211+dp_1+2
 11238 09:32D6: D4 2F        	pei	<L211+dp_1
 11239 09:32D8: 22 xx xx xx  	jsl	~~k_mem_deallocate_heap
 11240                        	.line	383
 11241 09:32DC: A0 C5 01     	ldy	#$1c5
 11242 09:32DF: B7 0D        	lda	[<L211+pWin_1],Y
 11243 09:32E1: 85 01        	sta	<R0
 11244 09:32E3: A0 C7 01     	ldy	#$1c7
 11245 09:32E6: B7 0D        	lda	[<L211+pWin_1],Y
 11246 09:32E8: 85 03        	sta	<R0+2
 11247 09:32EA: A9 01 00     	lda	#$1
 11248 09:32ED: A0 08 00     	ldy	#$8
 11249 09:32F0: 97 01        	sta	[<R0],Y
 11250                        	.line	384
 11251 09:32F2: A0 C5 01     	ldy	#$1c5
 11252 09:32F5: B7 0D        	lda	[<L211+pWin_1],Y
 11253 09:32F7: 85 01        	sta	<R0
 11254 09:32F9: A0 C7 01     	ldy	#$1c7
 11255 09:32FC: B7 0D        	lda	[<L211+pWin_1],Y
 11256 09:32FE: 85 03        	sta	<R0+2
 11257 09:3300: A0 08 00     	ldy	#$8
 11258 09:3303: B7 01        	lda	[<R0],Y
 11259 09:3305: 48           	pha
 11260 09:3306: F4 xx xx     	pea	#^L209+75
 11261 09:3309: F4 xx xx     	pea	#<L209+75
 11262 09:330C: 22 xx xx xx  	jsl	~~k_debug_integer
 11263                        	.line	386
 11264 09:3310: A0 C5 01     	ldy	#$1c5
 11265 09:3313: B7 0D        	lda	[<L211+pWin_1],Y
 11266 09:3315: 85 01        	sta	<R0
 11267 09:3317: A0 C7 01     	ldy	#$1c7
 11268 09:331A: B7 0D        	lda	[<L211+pWin_1],Y
 11269 09:331C: 85 03        	sta	<R0+2
 11270 09:331E: A0 08 00     	ldy	#$8
 11271 09:3321: B7 01        	lda	[<R0],Y
 11272 09:3323: 48           	pha
 11273 09:3324: D4 0F        	pei	<L211+pWin_1+2
 11274 09:3326: D4 0D        	pei	<L211+pWin_1
 11275 09:3328: A0 0C 00     	ldy	#$c
 11276 09:332B: B7 61        	lda	[<L210+pMsg_0],Y
 11277 09:332D: 48           	pha
 11278 09:332E: A0 0A 00     	ldy	#$a
 11279 09:3331: B7 61        	lda	[<L210+pMsg_0],Y
 11280 09:3333: 48           	pha
 11281 09:3334: 22 E3 3E 09  	jsl	~~highlightRow
 11282                        	.line	388
 11283                        L10226:
 11284                        	.line	390
 11285 09:3338: A0 04 00     	ldy	#$4
 11286 09:333B: B7 09        	lda	[<L211+p_1],Y
 11287 09:333D: 48           	pha
 11288 09:333E: A0 02 00     	ldy	#$2
 11289 09:3341: B7 09        	lda	[<L211+p_1],Y
 11290 09:3343: 48           	pha
 11291 09:3344: F4 xx xx     	pea	#^L209+120
 11292 09:3347: F4 xx xx     	pea	#<L209+120
  Mon Sep 27 2021  9:39                                                Page 236


 11293 09:334A: 22 xx xx xx  	jsl	~~k_debug_long
 11294                        	.line	391
 11295                        L10225:
 11296                        	.line	392
 11297                        L10224:
 11298                        	.line	393
 11299 09:334E: A9 01 00     	lda	#$1
 11300                        L221:
 11301 09:3351: A8           	tay
 11302 09:3352: A5 5F        	lda	<L210+2
 11303 09:3354: 85 63        	sta	<L210+2+4
 11304 09:3356: A5 5E        	lda	<L210+1
 11305 09:3358: 85 62        	sta	<L210+1+4
 11306 09:335A: 2B           	pld
 11307 09:335B: 3B           	tsc
 11308 09:335C: 18           	clc
 11309 09:335D: 69 61 00     	adc	#L210+4
 11310 09:3360: 1B           	tcs
 11311 09:3361: 98           	tya
 11312 09:3362: 6B           	rtl
 11313                        	.line	394
 11314                        	.line	395
 11315                        L10229:
 11316                        	.line	396
 11317 09:3363: A0 0C 00     	ldy	#$c
 11318 09:3366: B7 61        	lda	[<L210+pMsg_0],Y
 11319 09:3368: 48           	pha
 11320 09:3369: A0 0A 00     	ldy	#$a
 11321 09:336C: B7 61        	lda	[<L210+pMsg_0],Y
 11322 09:336E: 48           	pha
 11323 09:336F: 22 xx xx xx  	jsl	~~k_getWindowFromHandle
 11324 09:3373: 85 0D        	sta	<L211+pWin_1
 11325 09:3375: 86 0F        	stx	<L211+pWin_1+2
 11326                        	.line	397
 11327 09:3377: A5 0D        	lda	<L211+pWin_1
 11328 09:3379: 05 0F        	ora	<L211+pWin_1+2
 11329 09:337B: D0 03        	bne	L222
 11330 09:337D: 82 DB 00     	brl	L10230
 11331                        L222:
 11332                        	.line	398
 11333                        	.line	399
 11334 09:3380: 22 xx xx xx  	jsl	~~k_font_getFontWidth
 11335 09:3384: 48           	pha
 11336 09:3385: F4 xx xx     	pea	#^L209+166
 11337 09:3388: F4 xx xx     	pea	#<L209+166
 11338 09:338B: 22 xx xx xx  	jsl	~~k_debug_integer
 11339                        	.line	401
 11340 09:338F: A0 9E 01     	ldy	#$19e
 11341 09:3392: B7 0D        	lda	[<L211+pWin_1],Y
 11342 09:3394: 48           	pha
 11343 09:3395: A0 B8 01     	ldy	#$1b8
 11344 09:3398: B7 0D        	lda	[<L211+pWin_1],Y
 11345 09:339A: 48           	pha
 11346 09:339B: A0 34 00     	ldy	#$34
 11347 09:339E: B7 0D        	lda	[<L211+pWin_1],Y
 11348 09:33A0: 48           	pha
 11349 09:33A1: A0 32 00     	ldy	#$32
 11350 09:33A4: B7 0D        	lda	[<L211+pWin_1],Y
  Mon Sep 27 2021  9:39                                                Page 237


 11351 09:33A6: 48           	pha
 11352 09:33A7: A0 00 00     	ldy	#$0
 11353 09:33AA: 5A           	phy
 11354 09:33AB: A0 2C 00     	ldy	#$2c
 11355 09:33AE: B7 0D        	lda	[<L211+pWin_1],Y
 11356 09:33B0: 7A           	ply
 11357 09:33B1: 2A           	rol	A
 11358 09:33B2: 6A           	ror	A
 11359 09:33B3: 10 01        	bpl	L223
 11360 09:33B5: 88           	dey
 11361                        L223:
 11362 09:33B6: 85 01        	sta	<R0
 11363 09:33B8: 84 03        	sty	<R0+2
 11364 09:33BA: D4 03        	pei	<R0+2
 11365 09:33BC: D4 01        	pei	<R0
 11366 09:33BE: A0 00 00     	ldy	#$0
 11367 09:33C1: 5A           	phy
 11368 09:33C2: A0 2A 00     	ldy	#$2a
 11369 09:33C5: B7 0D        	lda	[<L211+pWin_1],Y
 11370 09:33C7: 7A           	ply
 11371 09:33C8: 2A           	rol	A
 11372 09:33C9: 6A           	ror	A
 11373 09:33CA: 10 01        	bpl	L224
 11374 09:33CC: 88           	dey
 11375                        L224:
 11376 09:33CD: 85 05        	sta	<R1
 11377 09:33CF: 84 07        	sty	<R1+2
 11378 09:33D1: D4 07        	pei	<R1+2
 11379 09:33D3: D4 05        	pei	<R1
 11380 09:33D5: 22 xx xx xx  	jsl	~~k_vdma_fill_rect_ex
 11381                        	.line	409
 11382 09:33D9: A0 C5 01     	ldy	#$1c5
 11383 09:33DC: B7 0D        	lda	[<L211+pWin_1],Y
 11384 09:33DE: 85 01        	sta	<R0
 11385 09:33E0: A0 C7 01     	ldy	#$1c7
 11386 09:33E3: B7 0D        	lda	[<L211+pWin_1],Y
 11387 09:33E5: 85 03        	sta	<R0+2
 11388 09:33E7: 22 xx xx xx  	jsl	~~k_font_getFontWidth
 11389 09:33EB: A0 02 00     	ldy	#$2
 11390 09:33EE: 97 01        	sta	[<R0],Y
 11391                        	.line	410
 11392 09:33F0: A0 C5 01     	ldy	#$1c5
 11393 09:33F3: B7 0D        	lda	[<L211+pWin_1],Y
 11394 09:33F5: 85 01        	sta	<R0
 11395 09:33F7: A0 C7 01     	ldy	#$1c7
 11396 09:33FA: B7 0D        	lda	[<L211+pWin_1],Y
 11397 09:33FC: 85 03        	sta	<R0+2
 11398 09:33FE: 22 xx xx xx  	jsl	~~k_font_getFontHeight
 11399 09:3402: A0 04 00     	ldy	#$4
 11400 09:3405: 97 01        	sta	[<R0],Y
 11401                        	.line	413
 11402 09:3407: A0 C5 01     	ldy	#$1c5
 11403 09:340A: B7 0D        	lda	[<L211+pWin_1],Y
 11404 09:340C: 85 01        	sta	<R0
 11405 09:340E: A0 C7 01     	ldy	#$1c7
 11406 09:3411: B7 0D        	lda	[<L211+pWin_1],Y
 11407 09:3413: 85 03        	sta	<R0+2
 11408 09:3415: A0 14 00     	ldy	#$14
  Mon Sep 27 2021  9:39                                                Page 238


 11409 09:3418: B7 01        	lda	[<R0],Y
 11410 09:341A: A0 16 00     	ldy	#$16
 11411 09:341D: 17 01        	ora	[<R0],Y
 11412 09:341F: D0 03        	bne	L225
 11413 09:3421: 82 28 00     	brl	L10231
 11414                        L225:
 11415                        	.line	414
 11416 09:3424: F4 09 00     	pea	#^~~foreach_render_file
 11417 09:3427: F4 C8 2B     	pea	#<~~foreach_render_file
 11418 09:342A: D4 0F        	pei	<L211+pWin_1+2
 11419 09:342C: D4 0D        	pei	<L211+pWin_1
 11420 09:342E: A0 C5 01     	ldy	#$1c5
 11421 09:3431: B7 0D        	lda	[<L211+pWin_1],Y
 11422 09:3433: 85 01        	sta	<R0
 11423 09:3435: A0 C7 01     	ldy	#$1c7
 11424 09:3438: B7 0D        	lda	[<L211+pWin_1],Y
 11425 09:343A: 85 03        	sta	<R0+2
 11426 09:343C: A0 16 00     	ldy	#$16
 11427 09:343F: B7 01        	lda	[<R0],Y
 11428 09:3441: 48           	pha
 11429 09:3442: A0 14 00     	ldy	#$14
 11430 09:3445: B7 01        	lda	[<R0],Y
 11431 09:3447: 48           	pha
 11432 09:3448: 22 xx xx xx  	jsl	~~k_nodelist_foreach_listdata
 11433                        L10231:
 11434                        	.line	418
 11435 09:344C: 22 xx xx xx  	jsl	~~k_font_getFontWidth
 11436 09:3450: 48           	pha
 11437 09:3451: F4 xx xx     	pea	#^L209+205
 11438 09:3454: F4 xx xx     	pea	#<L209+205
 11439 09:3457: 22 xx xx xx  	jsl	~~k_debug_integer
 11440                        	.line	419
 11441                        L10230:
 11442                        	.line	420
 11443 09:345B: A9 01 00     	lda	#$1
 11444 09:345E: 82 F0 FE     	brl	L221
 11445                        	.line	421
 11446                        	.line	422
 11447                        L10232:
 11448                        	.line	424
 11449 09:3461: A0 0C 00     	ldy	#$c
 11450 09:3464: B7 61        	lda	[<L210+pMsg_0],Y
 11451 09:3466: 48           	pha
 11452 09:3467: A0 0A 00     	ldy	#$a
 11453 09:346A: B7 61        	lda	[<L210+pMsg_0],Y
 11454 09:346C: 48           	pha
 11455 09:346D: 22 xx xx xx  	jsl	~~k_getWindowFromHandle
 11456 09:3471: 85 0D        	sta	<L211+pWin_1
 11457 09:3473: 86 0F        	stx	<L211+pWin_1+2
 11458                        	.line	425
 11459 09:3475: A5 0D        	lda	<L211+pWin_1
 11460 09:3477: 05 0F        	ora	<L211+pWin_1+2
 11461 09:3479: D0 03        	bne	L226
 11462 09:347B: 82 45 00     	brl	L10233
 11463                        L226:
 11464                        	.line	426
 11465                        	.line	427
 11466 09:347E: A0 16 00     	ldy	#$16
  Mon Sep 27 2021  9:39                                                Page 239


 11467 09:3481: B7 61        	lda	[<L210+pMsg_0],Y
 11468 09:3483: C9 02 00     	cmp	#<$2
 11469 09:3486: F0 03        	beq	L227
 11470 09:3488: 82 38 00     	brl	L10234
 11471                        L227:
 11472                        	.line	428
 11473                        	.line	429
 11474 09:348B: E2 20        	sep	#$20
 11475                        	longa	off
 11476 09:348D: A9 00        	lda	#$0
 11477 09:348F: A0 C4 01     	ldy	#$1c4
 11478 09:3492: 97 0D        	sta	[<L211+pWin_1],Y
 11479 09:3494: C2 20        	rep	#$20
 11480                        	longa	on
 11481                        	.line	430
 11482 09:3496: A0 18 00     	ldy	#$18
 11483 09:3499: B7 61        	lda	[<L210+pMsg_0],Y
 11484 09:349B: C9 01 88     	cmp	#<$8801
 11485 09:349E: F0 03        	beq	L228
 11486 09:34A0: 82 20 00     	brl	L10235
 11487                        L228:
 11488                        	.line	431
 11489                        	.line	432
 11490 09:34A3: A0 18 00     	ldy	#$18
 11491 09:34A6: B7 61        	lda	[<L210+pMsg_0],Y
 11492 09:34A8: 48           	pha
 11493 09:34A9: F4 xx xx     	pea	#^L209+249
 11494 09:34AC: F4 xx xx     	pea	#<L209+249
 11495 09:34AF: 22 xx xx xx  	jsl	~~k_debug_integer
 11496                        	.line	433
 11497 09:34B3: A0 0C 00     	ldy	#$c
 11498 09:34B6: B7 61        	lda	[<L210+pMsg_0],Y
 11499 09:34B8: 48           	pha
 11500 09:34B9: A0 0A 00     	ldy	#$a
 11501 09:34BC: B7 61        	lda	[<L210+pMsg_0],Y
 11502 09:34BE: 48           	pha
 11503 09:34BF: 22 xx xx xx  	jsl	~~k_user_CloseWindow
 11504                        	.line	434
 11505                        L10235:
 11506                        	.line	435
 11507                        L10234:
 11508                        	.line	436
 11509                        L10233:
 11510                        	.line	437
 11511 09:34C3: A9 01 00     	lda	#$1
 11512 09:34C6: 82 88 FE     	brl	L221
 11513                        	.line	439
 11514                        	.line	440
 11515                        L10236:
 11516                        	.line	441
 11517 09:34C9: A0 16 00     	ldy	#$16
 11518 09:34CC: B7 61        	lda	[<L210+pMsg_0],Y
 11519 09:34CE: 48           	pha
 11520 09:34CF: F4 xx xx     	pea	#^L209+286
 11521 09:34D2: F4 xx xx     	pea	#<L209+286
 11522 09:34D5: 22 xx xx xx  	jsl	~~k_debug_hex
 11523                        	.line	442
 11524 09:34D9: A0 1D 00     	ldy	#$1d
  Mon Sep 27 2021  9:39                                                Page 240


 11525 09:34DC: B7 61        	lda	[<L210+pMsg_0],Y
 11526 09:34DE: 48           	pha
 11527 09:34DF: F4 xx xx     	pea	#^L209+331
 11528 09:34E2: F4 xx xx     	pea	#<L209+331
 11529 09:34E5: 22 xx xx xx  	jsl	~~k_debug_char
 11530                        	.line	444
 11531 09:34E9: A0 0C 00     	ldy	#$c
 11532 09:34EC: B7 61        	lda	[<L210+pMsg_0],Y
 11533 09:34EE: 48           	pha
 11534 09:34EF: A0 0A 00     	ldy	#$a
 11535 09:34F2: B7 61        	lda	[<L210+pMsg_0],Y
 11536 09:34F4: 48           	pha
 11537 09:34F5: 22 xx xx xx  	jsl	~~k_getWindowFromHandle
 11538 09:34F9: 85 0D        	sta	<L211+pWin_1
 11539 09:34FB: 86 0F        	stx	<L211+pWin_1+2
 11540                        	.line	445
 11541 09:34FD: E2 20        	sep	#$20
 11542                        	longa	off
 11543 09:34FF: A0 16 00     	ldy	#$16
 11544 09:3502: B7 61        	lda	[<L210+pMsg_0],Y
 11545 09:3504: C9 01        	cmp	#<$1
 11546 09:3506: C2 20        	rep	#$20
 11547                        	longa	on
 11548 09:3508: F0 03        	beq	L229
 11549 09:350A: 82 0B 00     	brl	L10237
 11550                        L229:
 11551                        	.line	446
 11552                        	.line	447
 11553 09:350D: D4 0F        	pei	<L211+pWin_1+2
 11554 09:350F: D4 0D        	pei	<L211+pWin_1
 11555 09:3511: 22 xx xx xx  	jsl	~~k_user_DestroyWindow
 11556                        	.line	448
 11557 09:3515: 82 2E 02     	brl	L10238
 11558                        L10237:
 11559                        	.line	450
 11560                        	.line	451
 11561 09:3518: A5 0D        	lda	<L211+pWin_1
 11562 09:351A: 05 0F        	ora	<L211+pWin_1+2
 11563 09:351C: D0 03        	bne	L230
 11564 09:351E: 82 25 02     	brl	L10239
 11565                        L230:
 11566                        	.line	452
 11567                        	.line	453
 11568 09:3521: E2 20        	sep	#$20
 11569                        	longa	off
 11570 09:3523: A0 16 00     	ldy	#$16
 11571 09:3526: B7 61        	lda	[<L210+pMsg_0],Y
 11572 09:3528: C9 48        	cmp	#<$48
 11573 09:352A: C2 20        	rep	#$20
 11574                        	longa	on
 11575 09:352C: D0 03        	bne	L232
 11576 09:352E: 82 10 00     	brl	L231
 11577                        L232:
 11578 09:3531: E2 20        	sep	#$20
 11579                        	longa	off
 11580 09:3533: A0 16 00     	ldy	#$16
 11581 09:3536: B7 61        	lda	[<L210+pMsg_0],Y
 11582 09:3538: C9 D5        	cmp	#<$d5
  Mon Sep 27 2021  9:39                                                Page 241


 11583 09:353A: C2 20        	rep	#$20
 11584                        	longa	on
 11585 09:353C: F0 03        	beq	L233
 11586 09:353E: 82 B4 00     	brl	L10240
 11587                        L233:
 11588                        L231:
 11589                        	.line	454
 11590                        	.line	455
 11591 09:3541: F4 xx xx     	pea	#^L209+425
 11592 09:3544: F4 xx xx     	pea	#<L209+425
 11593 09:3547: F4 xx xx     	pea	#^L209+372
 11594 09:354A: F4 xx xx     	pea	#<L209+372
 11595 09:354D: 22 xx xx xx  	jsl	~~k_debug_strings
 11596                        	.line	457
 11597 09:3551: A0 C5 01     	ldy	#$1c5
 11598 09:3554: B7 0D        	lda	[<L211+pWin_1],Y
 11599 09:3556: 85 01        	sta	<R0
 11600 09:3558: A0 C7 01     	ldy	#$1c7
 11601 09:355B: B7 0D        	lda	[<L211+pWin_1],Y
 11602 09:355D: 85 03        	sta	<R0+2
 11603 09:355F: A0 C5 01     	ldy	#$1c5
 11604 09:3562: B7 0D        	lda	[<L211+pWin_1],Y
 11605 09:3564: 85 05        	sta	<R1
 11606 09:3566: A0 C7 01     	ldy	#$1c7
 11607 09:3569: B7 0D        	lda	[<L211+pWin_1],Y
 11608 09:356B: 85 07        	sta	<R1+2
 11609 09:356D: 18           	clc
 11610 09:356E: A9 FF FF     	lda	#$ffff
 11611 09:3571: A0 08 00     	ldy	#$8
 11612 09:3574: 77 05        	adc	[<R1],Y
 11613 09:3576: A0 08 00     	ldy	#$8
 11614 09:3579: 97 01        	sta	[<R0],Y
 11615                        	.line	459
 11616 09:357B: A0 C5 01     	ldy	#$1c5
 11617 09:357E: B7 0D        	lda	[<L211+pWin_1],Y
 11618 09:3580: 85 01        	sta	<R0
 11619 09:3582: A0 C7 01     	ldy	#$1c7
 11620 09:3585: B7 0D        	lda	[<L211+pWin_1],Y
 11621 09:3587: 85 03        	sta	<R0+2
 11622 09:3589: A0 08 00     	ldy	#$8
 11623 09:358C: B7 01        	lda	[<R0],Y
 11624 09:358E: 30 06        	bmi	L234
 11625 09:3590: 3A           	dea
 11626 09:3591: 30 03        	bmi	L234
 11627 09:3593: 82 16 00     	brl	L10241
 11628                        L234:
 11629                        	.line	460
 11630 09:3596: A0 C5 01     	ldy	#$1c5
 11631 09:3599: B7 0D        	lda	[<L211+pWin_1],Y
 11632 09:359B: 85 01        	sta	<R0
 11633 09:359D: A0 C7 01     	ldy	#$1c7
 11634 09:35A0: B7 0D        	lda	[<L211+pWin_1],Y
 11635 09:35A2: 85 03        	sta	<R0+2
 11636 09:35A4: A9 01 00     	lda	#$1
 11637 09:35A7: A0 08 00     	ldy	#$8
 11638 09:35AA: 97 01        	sta	[<R0],Y
 11639                        L10241:
 11640                        	.line	462
  Mon Sep 27 2021  9:39                                                Page 242


 11641 09:35AC: A0 C5 01     	ldy	#$1c5
 11642 09:35AF: B7 0D        	lda	[<L211+pWin_1],Y
 11643 09:35B1: 85 01        	sta	<R0
 11644 09:35B3: A0 C7 01     	ldy	#$1c7
 11645 09:35B6: B7 0D        	lda	[<L211+pWin_1],Y
 11646 09:35B8: 85 03        	sta	<R0+2
 11647 09:35BA: A0 08 00     	ldy	#$8
 11648 09:35BD: B7 01        	lda	[<R0],Y
 11649 09:35BF: 48           	pha
 11650 09:35C0: F4 xx xx     	pea	#^L209+428
 11651 09:35C3: F4 xx xx     	pea	#<L209+428
 11652 09:35C6: 22 xx xx xx  	jsl	~~k_debug_integer
 11653                        	.line	463
 11654 09:35CA: A0 C5 01     	ldy	#$1c5
 11655 09:35CD: B7 0D        	lda	[<L211+pWin_1],Y
 11656 09:35CF: 85 01        	sta	<R0
 11657 09:35D1: A0 C7 01     	ldy	#$1c7
 11658 09:35D4: B7 0D        	lda	[<L211+pWin_1],Y
 11659 09:35D6: 85 03        	sta	<R0+2
 11660 09:35D8: A0 08 00     	ldy	#$8
 11661 09:35DB: B7 01        	lda	[<R0],Y
 11662 09:35DD: 48           	pha
 11663 09:35DE: D4 0F        	pei	<L211+pWin_1+2
 11664 09:35E0: D4 0D        	pei	<L211+pWin_1
 11665 09:35E2: A0 0C 00     	ldy	#$c
 11666 09:35E5: B7 61        	lda	[<L210+pMsg_0],Y
 11667 09:35E7: 48           	pha
 11668 09:35E8: A0 0A 00     	ldy	#$a
 11669 09:35EB: B7 61        	lda	[<L210+pMsg_0],Y
 11670 09:35ED: 48           	pha
 11671 09:35EE: 22 E3 3E 09  	jsl	~~highlightRow
 11672                        	.line	465
 11673 09:35F2: 82 51 01     	brl	L10242
 11674                        L10240:
 11675                        	.line	466
 11676 09:35F5: E2 20        	sep	#$20
 11677                        	longa	off
 11678 09:35F7: A0 16 00     	ldy	#$16
 11679 09:35FA: B7 61        	lda	[<L210+pMsg_0],Y
 11680 09:35FC: C9 50        	cmp	#<$50
 11681 09:35FE: C2 20        	rep	#$20
 11682                        	longa	on
 11683 09:3600: D0 03        	bne	L236
 11684 09:3602: 82 10 00     	brl	L235
 11685                        L236:
 11686 09:3605: E2 20        	sep	#$20
 11687                        	longa	off
 11688 09:3607: A0 16 00     	ldy	#$16
 11689 09:360A: B7 61        	lda	[<L210+pMsg_0],Y
 11690 09:360C: C9 C9        	cmp	#<$c9
 11691 09:360E: C2 20        	rep	#$20
 11692                        	longa	on
 11693 09:3610: F0 03        	beq	L237
 11694 09:3612: 82 F5 00     	brl	L10243
 11695                        L237:
 11696                        L235:
 11697                        	.line	467
 11698                        	.line	468
  Mon Sep 27 2021  9:39                                                Page 243


 11699 09:3615: F4 xx xx     	pea	#^L209+521
 11700 09:3618: F4 xx xx     	pea	#<L209+521
 11701 09:361B: F4 xx xx     	pea	#^L209+468
 11702 09:361E: F4 xx xx     	pea	#<L209+468
 11703 09:3621: 22 xx xx xx  	jsl	~~k_debug_strings
 11704                        	.line	469
 11705 09:3625: A0 C5 01     	ldy	#$1c5
 11706 09:3628: B7 0D        	lda	[<L211+pWin_1],Y
 11707 09:362A: 85 01        	sta	<R0
 11708 09:362C: A0 C7 01     	ldy	#$1c7
 11709 09:362F: B7 0D        	lda	[<L211+pWin_1],Y
 11710 09:3631: 85 03        	sta	<R0+2
 11711 09:3633: A0 0A 00     	ldy	#$a
 11712 09:3636: B7 01        	lda	[<R0],Y
 11713 09:3638: 48           	pha
 11714 09:3639: F4 xx xx     	pea	#^L209+526
 11715 09:363C: F4 xx xx     	pea	#<L209+526
 11716 09:363F: 22 xx xx xx  	jsl	~~k_debug_integer
 11717                        	.line	471
 11718 09:3643: A0 C5 01     	ldy	#$1c5
 11719 09:3646: B7 0D        	lda	[<L211+pWin_1],Y
 11720 09:3648: 85 01        	sta	<R0
 11721 09:364A: A0 C7 01     	ldy	#$1c7
 11722 09:364D: B7 0D        	lda	[<L211+pWin_1],Y
 11723 09:364F: 85 03        	sta	<R0+2
 11724 09:3651: A0 C5 01     	ldy	#$1c5
 11725 09:3654: B7 0D        	lda	[<L211+pWin_1],Y
 11726 09:3656: 85 05        	sta	<R1
 11727 09:3658: A0 C7 01     	ldy	#$1c7
 11728 09:365B: B7 0D        	lda	[<L211+pWin_1],Y
 11729 09:365D: 85 07        	sta	<R1+2
 11730 09:365F: A0 08 00     	ldy	#$8
 11731 09:3662: B7 05        	lda	[<R1],Y
 11732 09:3664: 1A           	ina
 11733 09:3665: A0 08 00     	ldy	#$8
 11734 09:3668: 97 01        	sta	[<R0],Y
 11735                        	.line	473
 11736 09:366A: A0 C5 01     	ldy	#$1c5
 11737 09:366D: B7 0D        	lda	[<L211+pWin_1],Y
 11738 09:366F: 85 01        	sta	<R0
 11739 09:3671: A0 C7 01     	ldy	#$1c7
 11740 09:3674: B7 0D        	lda	[<L211+pWin_1],Y
 11741 09:3676: 85 03        	sta	<R0+2
 11742 09:3678: A0 C5 01     	ldy	#$1c5
 11743 09:367B: B7 0D        	lda	[<L211+pWin_1],Y
 11744 09:367D: 85 05        	sta	<R1
 11745 09:367F: A0 C7 01     	ldy	#$1c7
 11746 09:3682: B7 0D        	lda	[<L211+pWin_1],Y
 11747 09:3684: 85 07        	sta	<R1+2
 11748 09:3686: 38           	sec
 11749 09:3687: A0 0A 00     	ldy	#$a
 11750 09:368A: B7 01        	lda	[<R0],Y
 11751 09:368C: A0 08 00     	ldy	#$8
 11752 09:368F: F7 05        	sbc	[<R1],Y
 11753 09:3691: 70 03        	bvs	L238
 11754 09:3693: 49 00 80     	eor	#$8000
 11755                        L238:
 11756 09:3696: 10 03        	bpl	L239
  Mon Sep 27 2021  9:39                                                Page 244


 11757 09:3698: 82 26 00     	brl	L10244
 11758                        L239:
 11759                        	.line	474
 11760 09:369B: A0 C5 01     	ldy	#$1c5
 11761 09:369E: B7 0D        	lda	[<L211+pWin_1],Y
 11762 09:36A0: 85 01        	sta	<R0
 11763 09:36A2: A0 C7 01     	ldy	#$1c7
 11764 09:36A5: B7 0D        	lda	[<L211+pWin_1],Y
 11765 09:36A7: 85 03        	sta	<R0+2
 11766 09:36A9: A0 C5 01     	ldy	#$1c5
 11767 09:36AC: B7 0D        	lda	[<L211+pWin_1],Y
 11768 09:36AE: 85 05        	sta	<R1
 11769 09:36B0: A0 C7 01     	ldy	#$1c7
 11770 09:36B3: B7 0D        	lda	[<L211+pWin_1],Y
 11771 09:36B5: 85 07        	sta	<R1+2
 11772 09:36B7: A0 0A 00     	ldy	#$a
 11773 09:36BA: B7 05        	lda	[<R1],Y
 11774 09:36BC: A0 08 00     	ldy	#$8
 11775 09:36BF: 97 01        	sta	[<R0],Y
 11776                        L10244:
 11777                        	.line	477
 11778 09:36C1: A0 C5 01     	ldy	#$1c5
 11779 09:36C4: B7 0D        	lda	[<L211+pWin_1],Y
 11780 09:36C6: 85 01        	sta	<R0
 11781 09:36C8: A0 C7 01     	ldy	#$1c7
 11782 09:36CB: B7 0D        	lda	[<L211+pWin_1],Y
 11783 09:36CD: 85 03        	sta	<R0+2
 11784 09:36CF: A0 08 00     	ldy	#$8
 11785 09:36D2: B7 01        	lda	[<R0],Y
 11786 09:36D4: 48           	pha
 11787 09:36D5: F4 xx xx     	pea	#^L209+570
 11788 09:36D8: F4 xx xx     	pea	#<L209+570
 11789 09:36DB: 22 xx xx xx  	jsl	~~k_debug_integer
 11790                        	.line	478
 11791 09:36DF: A0 C5 01     	ldy	#$1c5
 11792 09:36E2: B7 0D        	lda	[<L211+pWin_1],Y
 11793 09:36E4: 85 01        	sta	<R0
 11794 09:36E6: A0 C7 01     	ldy	#$1c7
 11795 09:36E9: B7 0D        	lda	[<L211+pWin_1],Y
 11796 09:36EB: 85 03        	sta	<R0+2
 11797 09:36ED: A0 08 00     	ldy	#$8
 11798 09:36F0: B7 01        	lda	[<R0],Y
 11799 09:36F2: 48           	pha
 11800 09:36F3: D4 0F        	pei	<L211+pWin_1+2
 11801 09:36F5: D4 0D        	pei	<L211+pWin_1
 11802 09:36F7: A0 0C 00     	ldy	#$c
 11803 09:36FA: B7 61        	lda	[<L210+pMsg_0],Y
 11804 09:36FC: 48           	pha
 11805 09:36FD: A0 0A 00     	ldy	#$a
 11806 09:3700: B7 61        	lda	[<L210+pMsg_0],Y
 11807 09:3702: 48           	pha
 11808 09:3703: 22 E3 3E 09  	jsl	~~highlightRow
 11809                        	.line	479
 11810 09:3707: 82 3C 00     	brl	L10245
 11811                        L10243:
 11812                        	.line	480
 11813 09:370A: E2 20        	sep	#$20
 11814                        	longa	off
  Mon Sep 27 2021  9:39                                                Page 245


 11815 09:370C: A0 16 00     	ldy	#$16
 11816 09:370F: B7 61        	lda	[<L210+pMsg_0],Y
 11817 09:3711: C9 1C        	cmp	#<$1c
 11818 09:3713: C2 20        	rep	#$20
 11819                        	longa	on
 11820 09:3715: F0 03        	beq	L240
 11821 09:3717: 82 2C 00     	brl	L10246
 11822                        L240:
 11823                        	.line	481
 11824                        	.line	482
 11825 09:371A: F4 xx xx     	pea	#^L209+660
 11826 09:371D: F4 xx xx     	pea	#<L209+660
 11827 09:3720: F4 xx xx     	pea	#^L209+610
 11828 09:3723: F4 xx xx     	pea	#<L209+610
 11829 09:3726: 22 xx xx xx  	jsl	~~k_debug_strings
 11830                        	.line	485
 11831 09:372A: A0 C5 01     	ldy	#$1c5
 11832 09:372D: B7 0D        	lda	[<L211+pWin_1],Y
 11833 09:372F: 85 01        	sta	<R0
 11834 09:3731: A0 C7 01     	ldy	#$1c7
 11835 09:3734: B7 0D        	lda	[<L211+pWin_1],Y
 11836 09:3736: 85 03        	sta	<R0+2
 11837 09:3738: A0 08 00     	ldy	#$8
 11838 09:373B: B7 01        	lda	[<R0],Y
 11839 09:373D: 48           	pha
 11840 09:373E: D4 0F        	pei	<L211+pWin_1+2
 11841 09:3740: D4 0D        	pei	<L211+pWin_1
 11842 09:3742: 22 2B 3E 09  	jsl	~~selectRow
 11843                        	.line	486
 11844                        L10246:
 11845                        L10245:
 11846                        L10242:
 11847                        	.line	488
 11848                        L10239:
 11849                        	.line	489
 11850                        L10238:
 11851                        	.line	491
 11852 09:3746: 82 CC 06     	brl	L10219
 11853                        	.line	492
 11854                        L10247:
 11855                        	.line	494
 11856 09:3749: A0 0C 00     	ldy	#$c
 11857 09:374C: B7 61        	lda	[<L210+pMsg_0],Y
 11858 09:374E: 48           	pha
 11859 09:374F: A0 0A 00     	ldy	#$a
 11860 09:3752: B7 61        	lda	[<L210+pMsg_0],Y
 11861 09:3754: 48           	pha
 11862 09:3755: 22 xx xx xx  	jsl	~~k_getWindowFromHandle
 11863 09:3759: 85 0D        	sta	<L211+pWin_1
 11864 09:375B: 86 0F        	stx	<L211+pWin_1+2
 11865                        	.line	495
 11866 09:375D: A5 0D        	lda	<L211+pWin_1
 11867 09:375F: 05 0F        	ora	<L211+pWin_1+2
 11868 09:3761: D0 03        	bne	L241
 11869 09:3763: 82 29 00     	brl	L10248
 11870                        L241:
 11871                        	.line	496
 11872                        	.line	497
  Mon Sep 27 2021  9:39                                                Page 246


 11873 09:3766: F4 00 00     	pea	#0
 11874 09:3769: 18           	clc
 11875 09:376A: 7B           	tdc
 11876 09:376B: 69 19 00     	adc	#<L211+point_1
 11877 09:376E: 48           	pha
 11878 09:376F: D4 63        	pei	<L210+pMsg_0+2
 11879 09:3771: D4 61        	pei	<L210+pMsg_0
 11880 09:3773: 22 xx xx xx  	jsl	~~k_user_GetMouseClientPoint
 11881                        	.line	498
 11882 09:3777: D4 19        	pei	<L211+point_1
 11883 09:3779: F4 xx xx     	pea	#^L209+666
 11884 09:377C: F4 xx xx     	pea	#<L209+666
 11885 09:377F: 22 xx xx xx  	jsl	~~k_debug_integer
 11886                        	.line	499
 11887 09:3783: D4 1B        	pei	<L211+point_1+2
 11888 09:3785: F4 xx xx     	pea	#^L209+707
 11889 09:3788: F4 xx xx     	pea	#<L209+707
 11890 09:378B: 22 xx xx xx  	jsl	~~k_debug_integer
 11891                        	.line	507
 11892                        L10248:
 11893                        	.line	508
 11894 09:378F: 82 83 06     	brl	L10219
 11895                        	.line	509
 11896                        L10249:
 11897                        	.line	510
 11898 09:3792: F4 xx xx     	pea	#^L209+748
 11899 09:3795: F4 xx xx     	pea	#<L209+748
 11900 09:3798: 22 xx xx xx  	jsl	~~k_debug_string
 11901                        	.line	513
 11902 09:379C: A0 0C 00     	ldy	#$c
 11903 09:379F: B7 61        	lda	[<L210+pMsg_0],Y
 11904 09:37A1: 48           	pha
 11905 09:37A2: A0 0A 00     	ldy	#$a
 11906 09:37A5: B7 61        	lda	[<L210+pMsg_0],Y
 11907 09:37A7: 48           	pha
 11908 09:37A8: 22 xx xx xx  	jsl	~~k_getWindowFromHandle
 11909 09:37AC: 85 0D        	sta	<L211+pWin_1
 11910 09:37AE: 86 0F        	stx	<L211+pWin_1+2
 11911                        	.line	514
 11912 09:37B0: A5 0D        	lda	<L211+pWin_1
 11913 09:37B2: 05 0F        	ora	<L211+pWin_1+2
 11914 09:37B4: D0 03        	bne	L242
 11915 09:37B6: 82 1C 00     	brl	L10250
 11916                        L242:
 11917                        	.line	515
 11918                        	.line	516
 11919 09:37B9: A0 C5 01     	ldy	#$1c5
 11920 09:37BC: B7 0D        	lda	[<L211+pWin_1],Y
 11921 09:37BE: 85 01        	sta	<R0
 11922 09:37C0: A0 C7 01     	ldy	#$1c7
 11923 09:37C3: B7 0D        	lda	[<L211+pWin_1],Y
 11924 09:37C5: 85 03        	sta	<R0+2
 11925 09:37C7: A0 08 00     	ldy	#$8
 11926 09:37CA: B7 01        	lda	[<R0],Y
 11927 09:37CC: 48           	pha
 11928 09:37CD: D4 0F        	pei	<L211+pWin_1+2
 11929 09:37CF: D4 0D        	pei	<L211+pWin_1
 11930 09:37D1: 22 2B 3E 09  	jsl	~~selectRow
  Mon Sep 27 2021  9:39                                                Page 247


 11931                        	.line	517
 11932                        L10250:
 11933                        	.line	519
 11934 09:37D5: A0 0C 00     	ldy	#$c
 11935 09:37D8: B7 61        	lda	[<L210+pMsg_0],Y
 11936 09:37DA: 48           	pha
 11937 09:37DB: A0 0A 00     	ldy	#$a
 11938 09:37DE: B7 61        	lda	[<L210+pMsg_0],Y
 11939 09:37E0: 48           	pha
 11940 09:37E1: 22 xx xx xx  	jsl	~~k_getWindowFromHandle
 11941 09:37E5: 85 0D        	sta	<L211+pWin_1
 11942 09:37E7: 86 0F        	stx	<L211+pWin_1+2
 11943                        	.line	521
 11944 09:37E9: 82 3D 05     	brl	L10251
 11945                        	.line	522
 11946                        	.line	523
 11947 09:37EC: A0 C5 01     	ldy	#$1c5
 11948 09:37EF: B7 0D        	lda	[<L211+pWin_1],Y
 11949 09:37F1: 85 01        	sta	<R0
 11950 09:37F3: A0 C7 01     	ldy	#$1c7
 11951 09:37F6: B7 0D        	lda	[<L211+pWin_1],Y
 11952 09:37F8: 85 03        	sta	<R0+2
 11953 09:37FA: A0 08 00     	ldy	#$8
 11954 09:37FD: B7 01        	lda	[<R0],Y
 11955 09:37FF: 48           	pha
 11956 09:3800: D4 0F        	pei	<L211+pWin_1+2
 11957 09:3802: D4 0D        	pei	<L211+pWin_1
 11958 09:3804: 22 2B 3E 09  	jsl	~~selectRow
 11959                        	.line	526
 11960 09:3808: F4 00 00     	pea	#0
 11961 09:380B: 18           	clc
 11962 09:380C: 7B           	tdc
 11963 09:380D: 69 19 00     	adc	#<L211+point_1
 11964 09:3810: 48           	pha
 11965 09:3811: D4 63        	pei	<L210+pMsg_0+2
 11966 09:3813: D4 61        	pei	<L210+pMsg_0
 11967 09:3815: 22 xx xx xx  	jsl	~~k_user_GetMouseClientPoint
 11968                        	.line	527
 11969 09:3819: 22 xx xx xx  	jsl	~~k_font_getFontHeight
 11970 09:381D: 85 01        	sta	<R0
 11971 09:381F: 18           	clc
 11972 09:3820: A9 02 00     	lda	#$2
 11973 09:3823: 65 01        	adc	<R0
 11974 09:3825: 85 05        	sta	<R1
 11975 09:3827: A5 1B        	lda	<L211+point_1+2
 11976 09:3829: A6 05        	ldx	<R1
 11977                        	xref	~~~udv
 11978 09:382B: 22 xx xx xx  	jsl	~~~udv
 11979 09:382F: 85 01        	sta	<R0
 11980 09:3831: A5 01        	lda	<R0
 11981 09:3833: 1A           	ina
 11982 09:3834: 85 27        	sta	<L211+row_1
 11983                        	.line	531
 11984 09:3836: D4 27        	pei	<L211+row_1
 11985 09:3838: A0 C5 01     	ldy	#$1c5
 11986 09:383B: B7 0D        	lda	[<L211+pWin_1],Y
 11987 09:383D: 85 01        	sta	<R0
 11988 09:383F: A0 C7 01     	ldy	#$1c7
  Mon Sep 27 2021  9:39                                                Page 248


 11989 09:3842: B7 0D        	lda	[<L211+pWin_1],Y
 11990 09:3844: 85 03        	sta	<R0+2
 11991 09:3846: A0 16 00     	ldy	#$16
 11992 09:3849: B7 01        	lda	[<R0],Y
 11993 09:384B: 48           	pha
 11994 09:384C: A0 14 00     	ldy	#$14
 11995 09:384F: B7 01        	lda	[<R0],Y
 11996 09:3851: 48           	pha
 11997 09:3852: 22 xx xx xx  	jsl	~~k_nodelist_getfirstnode
 11998 09:3856: 85 01        	sta	<R0
 11999 09:3858: 86 03        	stx	<R0+2
 12000 09:385A: DA           	phx
 12001 09:385B: 48           	pha
 12002 09:385C: 22 xx xx xx  	jsl	~~k_nodelist_get
 12003 09:3860: 85 15        	sta	<L211+pnode_1
 12004 09:3862: 86 17        	stx	<L211+pnode_1+2
 12005                        	.line	532
 12006 09:3864: A5 15        	lda	<L211+pnode_1
 12007 09:3866: 05 17        	ora	<L211+pnode_1+2
 12008 09:3868: D0 03        	bne	L243
 12009 09:386A: 82 BC 04     	brl	L10252
 12010                        L243:
 12011                        	.line	533
 12012                        	.line	538
 12013 09:386D: A0 C5 01     	ldy	#$1c5
 12014 09:3870: B7 0D        	lda	[<L211+pWin_1],Y
 12015 09:3872: 85 01        	sta	<R0
 12016 09:3874: A0 C7 01     	ldy	#$1c7
 12017 09:3877: B7 0D        	lda	[<L211+pWin_1],Y
 12018 09:3879: 85 03        	sta	<R0+2
 12019 09:387B: A0 20 00     	ldy	#$20
 12020 09:387E: B7 01        	lda	[<R0],Y
 12021 09:3880: 85 05        	sta	<R1
 12022 09:3882: A0 22 00     	ldy	#$22
 12023 09:3885: B7 01        	lda	[<R0],Y
 12024 09:3887: 85 07        	sta	<R1+2
 12025 09:3889: E2 20        	sep	#$20
 12026                        	longa	off
 12027 09:388B: A9 00        	lda	#$0
 12028 09:388D: 87 05        	sta	[<R1]
 12029 09:388F: C2 20        	rep	#$20
 12030                        	longa	on
 12031                        	.line	540
 12032 09:3891: F4 01 00     	pea	#<$1
 12033 09:3894: F4 xx xx     	pea	#^L209+793
 12034 09:3897: F4 xx xx     	pea	#<L209+793
 12035 09:389A: A0 C5 01     	ldy	#$1c5
 12036 09:389D: B7 0D        	lda	[<L211+pWin_1],Y
 12037 09:389F: 85 01        	sta	<R0
 12038 09:38A1: A0 C7 01     	ldy	#$1c7
 12039 09:38A4: B7 0D        	lda	[<L211+pWin_1],Y
 12040 09:38A6: 85 03        	sta	<R0+2
 12041 09:38A8: A0 22 00     	ldy	#$22
 12042 09:38AB: B7 01        	lda	[<R0],Y
 12043 09:38AD: 48           	pha
 12044 09:38AE: A0 20 00     	ldy	#$20
 12045 09:38B1: B7 01        	lda	[<R0],Y
 12046 09:38B3: 48           	pha
  Mon Sep 27 2021  9:39                                                Page 249


 12047 09:38B4: 22 xx xx xx  	jsl	~~f_mount
 12048                        	.line	544
 12049 09:38B8: F4 40 00     	pea	#<$40
 12050 09:38BB: F4 xx xx     	pea	#^L209+797
 12051 09:38BE: F4 xx xx     	pea	#<L209+797
 12052 09:38C1: 22 xx xx xx  	jsl	~~k_fxstring_new
 12053 09:38C5: 85 29        	sta	<L211+path_1
 12054 09:38C7: 86 2B        	stx	<L211+path_1+2
 12055                        	.line	546
 12056 09:38C9: A0 02 00     	ldy	#$2
 12057 09:38CC: B7 15        	lda	[<L211+pnode_1],Y
 12058 09:38CE: 85 01        	sta	<R0
 12059 09:38D0: A0 04 00     	ldy	#$4
 12060 09:38D3: B7 15        	lda	[<L211+pnode_1],Y
 12061 09:38D5: 85 03        	sta	<R0+2
 12062 09:38D7: A0 22 00     	ldy	#$22
 12063 09:38DA: B7 01        	lda	[<R0],Y
 12064 09:38DC: 48           	pha
 12065 09:38DD: A0 20 00     	ldy	#$20
 12066 09:38E0: B7 01        	lda	[<R0],Y
 12067 09:38E2: 48           	pha
 12068 09:38E3: D4 2B        	pei	<L211+path_1+2
 12069 09:38E5: D4 29        	pei	<L211+path_1
 12070 09:38E7: 22 xx xx xx  	jsl	~~k_fxstring_add
 12071                        	.line	548
 12072 09:38EB: A0 06 00     	ldy	#$6
 12073 09:38EE: B7 29        	lda	[<L211+path_1],Y
 12074 09:38F0: 48           	pha
 12075 09:38F1: A0 04 00     	ldy	#$4
 12076 09:38F4: B7 29        	lda	[<L211+path_1],Y
 12077 09:38F6: 48           	pha
 12078 09:38F7: F4 xx xx     	pea	#^L209+802
 12079 09:38FA: F4 xx xx     	pea	#<L209+802
 12080 09:38FD: 22 xx xx xx  	jsl	~~k_debug_strings
 12081                        	.line	550
 12082 09:3901: F4 01 00     	pea	#<$1
 12083 09:3904: A0 06 00     	ldy	#$6
 12084 09:3907: B7 29        	lda	[<L211+path_1],Y
 12085 09:3909: 48           	pha
 12086 09:390A: A0 04 00     	ldy	#$4
 12087 09:390D: B7 29        	lda	[<L211+path_1],Y
 12088 09:390F: 48           	pha
 12089 09:3910: A0 C5 01     	ldy	#$1c5
 12090 09:3913: B7 0D        	lda	[<L211+pWin_1],Y
 12091 09:3915: 85 01        	sta	<R0
 12092 09:3917: A0 C7 01     	ldy	#$1c7
 12093 09:391A: B7 0D        	lda	[<L211+pWin_1],Y
 12094 09:391C: 85 03        	sta	<R0+2
 12095 09:391E: A0 1E 00     	ldy	#$1e
 12096 09:3921: B7 01        	lda	[<R0],Y
 12097 09:3923: 48           	pha
 12098 09:3924: A0 1C 00     	ldy	#$1c
 12099 09:3927: B7 01        	lda	[<R0],Y
 12100 09:3929: 48           	pha
 12101 09:392A: 22 xx xx xx  	jsl	~~f_open
 12102 09:392E: AA           	tax
 12103 09:392F: F0 03        	beq	L244
 12104 09:3931: 82 CE 03     	brl	L10253
  Mon Sep 27 2021  9:39                                                Page 250


 12105                        L244:
 12106                        	.line	551
 12107                        	.line	554
 12108 09:3934: F4 xx xx     	pea	#^L209+830
 12109 09:3937: F4 xx xx     	pea	#<L209+830
 12110 09:393A: D4 2B        	pei	<L211+path_1+2
 12111 09:393C: D4 29        	pei	<L211+path_1
 12112 09:393E: 22 xx xx xx  	jsl	~~k_fxstring_ends_with
 12113 09:3942: 29 FF 00     	and	#$ff
 12114 09:3945: D0 03        	bne	L245
 12115 09:3947: 82 8B 00     	brl	L10254
 12116                        L245:
 12117                        	.line	555
 12118                        	.line	556
 12119 09:394A: F4 xx xx     	pea	#^L209+834
 12120 09:394D: F4 xx xx     	pea	#<L209+834
 12121 09:3950: 22 xx xx xx  	jsl	~~k_debug_string
 12122                        	.line	558
 12123 09:3954: F4 00 00     	pea	#0
 12124 09:3957: 18           	clc
 12125 09:3958: 7B           	tdc
 12126 09:3959: 69 25 00     	adc	#<L211+br_1
 12127 09:395C: 48           	pha
 12128 09:395D: F4 00 08     	pea	#<$800
 12129 09:3960: F4 09 00     	pea	#^$90000
 12130 09:3963: F4 00 00     	pea	#<$90000
 12131 09:3966: A0 C5 01     	ldy	#$1c5
 12132 09:3969: B7 0D        	lda	[<L211+pWin_1],Y
 12133 09:396B: 85 01        	sta	<R0
 12134 09:396D: A0 C7 01     	ldy	#$1c7
 12135 09:3970: B7 0D        	lda	[<L211+pWin_1],Y
 12136 09:3972: 85 03        	sta	<R0+2
 12137 09:3974: A0 1E 00     	ldy	#$1e
 12138 09:3977: B7 01        	lda	[<R0],Y
 12139 09:3979: 48           	pha
 12140 09:397A: A0 1C 00     	ldy	#$1c
 12141 09:397D: B7 01        	lda	[<R0],Y
 12142 09:397F: 48           	pha
 12143 09:3980: 22 xx xx xx  	jsl	~~f_read
 12144 09:3984: 85 2D        	sta	<L211+fr_1
 12145                        	.line	559
 12146 09:3986: D4 2D        	pei	<L211+fr_1
 12147 09:3988: F4 xx xx     	pea	#^L209+872
 12148 09:398B: F4 xx xx     	pea	#<L209+872
 12149 09:398E: 22 xx xx xx  	jsl	~~k_debug_integer
 12150                        	.line	560
 12151 09:3992: D4 25        	pei	<L211+br_1
 12152 09:3994: F4 xx xx     	pea	#^L209+905
 12153 09:3997: F4 xx xx     	pea	#<L209+905
 12154 09:399A: 22 xx xx xx  	jsl	~~k_debug_integer
 12155                        	.line	561
 12156 09:399E: A5 25        	lda	<L211+br_1
 12157 09:39A0: D0 03        	bne	L246
 12158 09:39A2: 82 2D 00     	brl	L10255
 12159                        L246:
 12160                        	.line	562
 12161                        	.line	564
 12162 09:39A5: F4 xx xx     	pea	#^L209+943
  Mon Sep 27 2021  9:39                                                Page 251


 12163 09:39A8: F4 xx xx     	pea	#<L209+943
 12164 09:39AB: 22 xx xx xx  	jsl	~~k_debug_string
 12165                        	.line	565
 12166 09:39AF: AF 00 00 09  	lda	>589824
 12167 09:39B3: 48           	pha
 12168 09:39B4: F4 xx xx     	pea	#^L209+981
 12169 09:39B7: F4 xx xx     	pea	#<L209+981
 12170 09:39BA: 22 xx xx xx  	jsl	~~k_debug_hex
 12171                        	.line	567
 12172 09:39BE: F4 xx xx     	pea	#^L209+995
 12173 09:39C1: F4 xx xx     	pea	#<L209+995
 12174 09:39C4: 22 xx xx xx  	jsl	~~k_debug_string
 12175                        	.line	570
 12176 09:39C8: F4 xx xx     	pea	#^L209+1046
 12177 09:39CB: F4 xx xx     	pea	#<L209+1046
 12178 09:39CE: 22 xx xx xx  	jsl	~~k_user_CreateProcess
 12179                        	.line	572
 12180                        L10255:
 12181                        	.line	573
 12182 09:39D2: 82 0F 03     	brl	L10256
 12183                        L10254:
 12184                        	.line	574
 12185 09:39D5: F4 xx xx     	pea	#^L209+1048
 12186 09:39D8: F4 xx xx     	pea	#<L209+1048
 12187 09:39DB: D4 2B        	pei	<L211+path_1+2
 12188 09:39DD: D4 29        	pei	<L211+path_1
 12189 09:39DF: 22 xx xx xx  	jsl	~~k_fxstring_ends_with
 12190 09:39E3: 29 FF 00     	and	#$ff
 12191 09:39E6: D0 03        	bne	L247
 12192 09:39E8: 82 7E 01     	brl	L10257
 12193                        L247:
 12194                        	.line	575
 12195                        	.line	576
 12196 09:39EB: F4 xx xx     	pea	#^L209+1052
 12197 09:39EE: F4 xx xx     	pea	#<L209+1052
 12198 09:39F1: 22 xx xx xx  	jsl	~~k_debug_string
 12199                        	.line	578
 12200 09:39F5: F4 00 00     	pea	#0
 12201 09:39F8: 18           	clc
 12202 09:39F9: 7B           	tdc
 12203 09:39FA: 69 25 00     	adc	#<L211+br_1
 12204 09:39FD: 48           	pha
 12205 09:39FE: F4 14 00     	pea	#<$14
 12206 09:3A01: A9 xx xx     	lda	#<~~_k_loadmodule
 12207 09:3A04: 85 01        	sta	<R0
 12208                        	xref	_BEG_DATA
 12209 09:3A06: A9 xx xx     	lda	#_BEG_DATA>>16
 12210 09:3A09: 85 03        	sta	<R0+2
 12211 09:3A0B: D4 03        	pei	<R0+2
 12212 09:3A0D: D4 01        	pei	<R0
 12213 09:3A0F: A0 C5 01     	ldy	#$1c5
 12214 09:3A12: B7 0D        	lda	[<L211+pWin_1],Y
 12215 09:3A14: 85 05        	sta	<R1
 12216 09:3A16: A0 C7 01     	ldy	#$1c7
 12217 09:3A19: B7 0D        	lda	[<L211+pWin_1],Y
 12218 09:3A1B: 85 07        	sta	<R1+2
 12219 09:3A1D: A0 1E 00     	ldy	#$1e
 12220 09:3A20: B7 05        	lda	[<R1],Y
  Mon Sep 27 2021  9:39                                                Page 252


 12221 09:3A22: 48           	pha
 12222 09:3A23: A0 1C 00     	ldy	#$1c
 12223 09:3A26: B7 05        	lda	[<R1],Y
 12224 09:3A28: 48           	pha
 12225 09:3A29: 22 xx xx xx  	jsl	~~f_read
 12226 09:3A2D: 85 2D        	sta	<L211+fr_1
 12227                        	.line	579
 12228 09:3A2F: D4 2D        	pei	<L211+fr_1
 12229 09:3A31: F4 xx xx     	pea	#^L209+1090
 12230 09:3A34: F4 xx xx     	pea	#<L209+1090
 12231 09:3A37: 22 xx xx xx  	jsl	~~k_debug_integer
 12232                        	.line	580
 12233 09:3A3B: D4 25        	pei	<L211+br_1
 12234 09:3A3D: F4 xx xx     	pea	#^L209+1123
 12235 09:3A40: F4 xx xx     	pea	#<L209+1123
 12236 09:3A43: 22 xx xx xx  	jsl	~~k_debug_integer
 12237                        	.line	581
 12238 09:3A47: A5 25        	lda	<L211+br_1
 12239 09:3A49: D0 03        	bne	L248
 12240 09:3A4B: 82 74 00     	brl	L10258
 12241                        L248:
 12242                        	.line	582
 12243                        	.line	583
 12244 09:3A4E: AD xx xx     	lda	|~~_k_loadmodule
 12245 09:3A51: 29 FF 00     	and	#$ff
 12246 09:3A54: 48           	pha
 12247 09:3A55: F4 xx xx     	pea	#^L209+1163
 12248 09:3A58: F4 xx xx     	pea	#<L209+1163
 12249 09:3A5B: 22 xx xx xx  	jsl	~~k_debug_integer
 12250                        	.line	584
 12251 09:3A5F: AD xx xx     	lda	|~~_k_loadmodule+1
 12252 09:3A62: 29 FF 00     	and	#$ff
 12253 09:3A65: 48           	pha
 12254 09:3A66: F4 xx xx     	pea	#^L209+1186
 12255 09:3A69: F4 xx xx     	pea	#<L209+1186
 12256 09:3A6C: 22 xx xx xx  	jsl	~~k_debug_integer
 12257                        	.line	585
 12258 09:3A70: AD xx xx     	lda	|~~_k_loadmodule+2
 12259 09:3A73: 48           	pha
 12260 09:3A74: F4 xx xx     	pea	#^L209+1209
 12261 09:3A77: F4 xx xx     	pea	#<L209+1209
 12262 09:3A7A: 22 xx xx xx  	jsl	~~k_debug_integer
 12263                        	.line	586
 12264 09:3A7E: AD xx xx     	lda	|~~_k_loadmodule+4+2
 12265 09:3A81: 48           	pha
 12266 09:3A82: AD xx xx     	lda	|~~_k_loadmodule+4
 12267 09:3A85: 48           	pha
 12268 09:3A86: F4 xx xx     	pea	#^L209+1232
 12269 09:3A89: F4 xx xx     	pea	#<L209+1232
 12270 09:3A8C: 22 xx xx xx  	jsl	~~k_debug_pointer
 12271                        	.line	587
 12272 09:3A90: AD xx xx     	lda	|~~_k_loadmodule+8+2
 12273 09:3A93: 48           	pha
 12274 09:3A94: AD xx xx     	lda	|~~_k_loadmodule+8
 12275 09:3A97: 48           	pha
 12276 09:3A98: F4 xx xx     	pea	#^L209+1255
 12277 09:3A9B: F4 xx xx     	pea	#<L209+1255
 12278 09:3A9E: 22 xx xx xx  	jsl	~~k_debug_pointer
  Mon Sep 27 2021  9:39                                                Page 253


 12279                        	.line	588
 12280 09:3AA2: AD xx xx     	lda	|~~_k_loadmodule+12
 12281 09:3AA5: 48           	pha
 12282 09:3AA6: F4 xx xx     	pea	#^L209+1278
 12283 09:3AA9: F4 xx xx     	pea	#<L209+1278
 12284 09:3AAC: 22 xx xx xx  	jsl	~~k_debug_integer
 12285                        	.line	589
 12286 09:3AB0: AD xx xx     	lda	|~~_k_loadmodule+16+2
 12287 09:3AB3: 48           	pha
 12288 09:3AB4: AD xx xx     	lda	|~~_k_loadmodule+16
 12289 09:3AB7: 48           	pha
 12290 09:3AB8: F4 xx xx     	pea	#^L209+1301
 12291 09:3ABB: F4 xx xx     	pea	#<L209+1301
 12292 09:3ABE: 22 xx xx xx  	jsl	~~k_debug_pointer
 12293                        	.line	591
 12294                        L10258:
 12295                        	.line	593
 12296 09:3AC2: AD xx xx     	lda	|~~_k_loadmodule+2
 12297 09:3AC5: 1A           	ina
 12298 09:3AC6: 85 01        	sta	<R0
 12299 09:3AC8: A0 00 00     	ldy	#$0
 12300 09:3ACB: A5 01        	lda	<R0
 12301 09:3ACD: 10 01        	bpl	L249
 12302 09:3ACF: 88           	dey
 12303                        L249:
 12304 09:3AD0: 85 01        	sta	<R0
 12305 09:3AD2: 84 03        	sty	<R0+2
 12306 09:3AD4: D4 03        	pei	<R0+2
 12307 09:3AD6: D4 01        	pei	<R0
 12308 09:3AD8: A0 C5 01     	ldy	#$1c5
 12309 09:3ADB: B7 0D        	lda	[<L211+pWin_1],Y
 12310 09:3ADD: 85 05        	sta	<R1
 12311 09:3ADF: A0 C7 01     	ldy	#$1c7
 12312 09:3AE2: B7 0D        	lda	[<L211+pWin_1],Y
 12313 09:3AE4: 85 07        	sta	<R1+2
 12314 09:3AE6: A0 1E 00     	ldy	#$1e
 12315 09:3AE9: B7 05        	lda	[<R1],Y
 12316 09:3AEB: 48           	pha
 12317 09:3AEC: A0 1C 00     	ldy	#$1c
 12318 09:3AEF: B7 05        	lda	[<R1],Y
 12319 09:3AF1: 48           	pha
 12320 09:3AF2: 22 xx xx xx  	jsl	~~f_lseek
 12321 09:3AF6: 85 2D        	sta	<L211+fr_1
 12322                        	.line	594
 12323 09:3AF8: D4 2D        	pei	<L211+fr_1
 12324 09:3AFA: F4 xx xx     	pea	#^L209+1324
 12325 09:3AFD: F4 xx xx     	pea	#<L209+1324
 12326 09:3B00: 22 xx xx xx  	jsl	~~k_debug_integer
 12327                        	.line	596
 12328 09:3B04: F4 00 00     	pea	#0
 12329 09:3B07: 18           	clc
 12330 09:3B08: 7B           	tdc
 12331 09:3B09: 69 25 00     	adc	#<L211+br_1
 12332 09:3B0C: 48           	pha
 12333 09:3B0D: F4 04 00     	pea	#<$4
 12334 09:3B10: F4 00 00     	pea	#0
 12335 09:3B13: 18           	clc
 12336 09:3B14: 7B           	tdc
  Mon Sep 27 2021  9:39                                                Page 254


 12337 09:3B15: 69 1D 00     	adc	#<L211+pdata_1
 12338 09:3B18: 48           	pha
 12339 09:3B19: A0 C5 01     	ldy	#$1c5
 12340 09:3B1C: B7 0D        	lda	[<L211+pWin_1],Y
 12341 09:3B1E: 85 01        	sta	<R0
 12342 09:3B20: A0 C7 01     	ldy	#$1c7
 12343 09:3B23: B7 0D        	lda	[<L211+pWin_1],Y
 12344 09:3B25: 85 03        	sta	<R0+2
 12345 09:3B27: A0 1E 00     	ldy	#$1e
 12346 09:3B2A: B7 01        	lda	[<R0],Y
 12347 09:3B2C: 48           	pha
 12348 09:3B2D: A0 1C 00     	ldy	#$1c
 12349 09:3B30: B7 01        	lda	[<R0],Y
 12350 09:3B32: 48           	pha
 12351 09:3B33: 22 xx xx xx  	jsl	~~f_read
 12352 09:3B37: 85 2D        	sta	<L211+fr_1
 12353                        	.line	597
 12354 09:3B39: D4 2D        	pei	<L211+fr_1
 12355 09:3B3B: F4 xx xx     	pea	#^L209+1361
 12356 09:3B3E: F4 xx xx     	pea	#<L209+1361
 12357 09:3B41: 22 xx xx xx  	jsl	~~k_debug_integer
 12358                        	.line	598
 12359 09:3B45: D4 25        	pei	<L211+br_1
 12360 09:3B47: F4 xx xx     	pea	#^L209+1394
 12361 09:3B4A: F4 xx xx     	pea	#<L209+1394
 12362 09:3B4D: 22 xx xx xx  	jsl	~~k_debug_integer
 12363                        	.line	599
 12364 09:3B51: A5 25        	lda	<L211+br_1
 12365 09:3B53: D0 03        	bne	L250
 12366 09:3B55: 82 0E 00     	brl	L10259
 12367                        L250:
 12368                        	.line	600
 12369                        	.line	601
 12370 09:3B58: D4 1F        	pei	<L211+pdata_1+2
 12371 09:3B5A: D4 1D        	pei	<L211+pdata_1
 12372 09:3B5C: F4 xx xx     	pea	#^L209+1437
 12373 09:3B5F: F4 xx xx     	pea	#<L209+1437
 12374 09:3B62: 22 xx xx xx  	jsl	~~k_debug_pointer
 12375                        	.line	602
 12376                        L10259:
 12377                        	.line	604
 12378 09:3B66: 82 7B 01     	brl	L10260
 12379                        L10257:
 12380                        	.line	605
 12381 09:3B69: F4 xx xx     	pea	#^L209+1456
 12382 09:3B6C: F4 xx xx     	pea	#<L209+1456
 12383 09:3B6F: D4 2B        	pei	<L211+path_1+2
 12384 09:3B71: D4 29        	pei	<L211+path_1
 12385 09:3B73: 22 xx xx xx  	jsl	~~k_fxstring_ends_with
 12386 09:3B77: 29 FF 00     	and	#$ff
 12387 09:3B7A: D0 03        	bne	L251
 12388 09:3B7C: 82 1D 00     	brl	L10261
 12389                        L251:
 12390                        	.line	606
 12391                        	.line	607
 12392 09:3B7F: F4 xx xx     	pea	#^L209+1460
 12393 09:3B82: F4 xx xx     	pea	#<L209+1460
 12394 09:3B85: 22 xx xx xx  	jsl	~~k_debug_string
  Mon Sep 27 2021  9:39                                                Page 255


 12395                        	.line	610
 12396 09:3B89: A0 06 00     	ldy	#$6
 12397 09:3B8C: B7 29        	lda	[<L211+path_1],Y
 12398 09:3B8E: 48           	pha
 12399 09:3B8F: A0 04 00     	ldy	#$4
 12400 09:3B92: B7 29        	lda	[<L211+path_1],Y
 12401 09:3B94: 48           	pha
 12402 09:3B95: 22 xx xx xx  	jsl	~~k_user_CreateProcess
 12403                        	.line	651
 12404 09:3B99: 82 48 01     	brl	L10262
 12405                        L10261:
 12406                        	.line	653
 12407                        	.line	654
 12408 09:3B9C: A0 C5 01     	ldy	#$1c5
 12409 09:3B9F: B7 0D        	lda	[<L211+pWin_1],Y
 12410 09:3BA1: 85 01        	sta	<R0
 12411 09:3BA3: A0 C7 01     	ldy	#$1c7
 12412 09:3BA6: B7 0D        	lda	[<L211+pWin_1],Y
 12413 09:3BA8: 85 03        	sta	<R0+2
 12414 09:3BAA: F4 00 00     	pea	#^$800
 12415 09:3BAD: F4 00 08     	pea	#<$800
 12416 09:3BB0: 22 xx xx xx  	jsl	~~k_mem_allocate_heap
 12417 09:3BB4: 85 05        	sta	<R1
 12418 09:3BB6: 86 07        	stx	<R1+2
 12419 09:3BB8: A5 05        	lda	<R1
 12420 09:3BBA: A0 24 00     	ldy	#$24
 12421 09:3BBD: 97 01        	sta	[<R0],Y
 12422 09:3BBF: A5 07        	lda	<R1+2
 12423 09:3BC1: A0 26 00     	ldy	#$26
 12424 09:3BC4: 97 01        	sta	[<R0],Y
 12425                        	.line	655
 12426 09:3BC6: F4 00 00     	pea	#0
 12427 09:3BC9: 18           	clc
 12428 09:3BCA: 7B           	tdc
 12429 09:3BCB: 69 25 00     	adc	#<L211+br_1
 12430 09:3BCE: 48           	pha
 12431 09:3BCF: F4 00 08     	pea	#<$800
 12432 09:3BD2: A0 C5 01     	ldy	#$1c5
 12433 09:3BD5: B7 0D        	lda	[<L211+pWin_1],Y
 12434 09:3BD7: 85 01        	sta	<R0
 12435 09:3BD9: A0 C7 01     	ldy	#$1c7
 12436 09:3BDC: B7 0D        	lda	[<L211+pWin_1],Y
 12437 09:3BDE: 85 03        	sta	<R0+2
 12438 09:3BE0: A0 26 00     	ldy	#$26
 12439 09:3BE3: B7 01        	lda	[<R0],Y
 12440 09:3BE5: 48           	pha
 12441 09:3BE6: A0 24 00     	ldy	#$24
 12442 09:3BE9: B7 01        	lda	[<R0],Y
 12443 09:3BEB: 48           	pha
 12444 09:3BEC: A0 C5 01     	ldy	#$1c5
 12445 09:3BEF: B7 0D        	lda	[<L211+pWin_1],Y
 12446 09:3BF1: 85 01        	sta	<R0
 12447 09:3BF3: A0 C7 01     	ldy	#$1c7
 12448 09:3BF6: B7 0D        	lda	[<L211+pWin_1],Y
 12449 09:3BF8: 85 03        	sta	<R0+2
 12450 09:3BFA: A0 1E 00     	ldy	#$1e
 12451 09:3BFD: B7 01        	lda	[<R0],Y
 12452 09:3BFF: 48           	pha
  Mon Sep 27 2021  9:39                                                Page 256


 12453 09:3C00: A0 1C 00     	ldy	#$1c
 12454 09:3C03: B7 01        	lda	[<R0],Y
 12455 09:3C05: 48           	pha
 12456 09:3C06: 22 xx xx xx  	jsl	~~f_read
 12457 09:3C0A: 85 2D        	sta	<L211+fr_1
 12458                        	.line	660
 12459 09:3C0C: A5 25        	lda	<L211+br_1
 12460 09:3C0E: D0 03        	bne	L252
 12461 09:3C10: 82 B3 00     	brl	L10263
 12462                        L252:
 12463                        	.line	661
 12464                        	.line	665
 12465 09:3C13: F4 00 00     	pea	#^$0
 12466 09:3C16: F4 00 00     	pea	#<$0
 12467 09:3C19: F4 00 00     	pea	#^$0
 12468 09:3C1C: F4 00 00     	pea	#<$0
 12469 09:3C1F: 22 xx xx xx  	jsl	~~k_user_getDesktopWindow
 12470 09:3C23: 85 01        	sta	<R0
 12471 09:3C25: 86 03        	stx	<R0+2
 12472 09:3C27: DA           	phx
 12473 09:3C28: 48           	pha
 12474 09:3C29: F4 2C 01     	pea	#<$12c
 12475 09:3C2C: F4 90 01     	pea	#<$190
 12476 09:3C2F: F4 14 00     	pea	#<$14
 12477 09:3C32: F4 05 00     	pea	#<$5
 12478 09:3C35: A0 02 00     	ldy	#$2
 12479 09:3C38: B7 15        	lda	[<L211+pnode_1],Y
 12480 09:3C3A: 85 05        	sta	<R1
 12481 09:3C3C: A0 04 00     	ldy	#$4
 12482 09:3C3F: B7 15        	lda	[<L211+pnode_1],Y
 12483 09:3C41: 85 07        	sta	<R1+2
 12484 09:3C43: A0 22 00     	ldy	#$22
 12485 09:3C46: B7 05        	lda	[<R1],Y
 12486 09:3C48: 48           	pha
 12487 09:3C49: A0 20 00     	ldy	#$20
 12488 09:3C4C: B7 05        	lda	[<R1],Y
 12489 09:3C4E: 48           	pha
 12490 09:3C4F: F4 xx xx     	pea	#^L209+1498
 12491 09:3C52: F4 xx xx     	pea	#<L209+1498
 12492 09:3C55: F4 22 00     	pea	#^$22013d
 12493 09:3C58: F4 3D 01     	pea	#<$22013d
 12494 09:3C5B: 22 xx xx xx  	jsl	~~k_user_CreateWindow
 12495 09:3C5F: 85 11        	sta	<L211+pWinTemp_1
 12496 09:3C61: 86 13        	stx	<L211+pWinTemp_1+2
 12497                        	.line	674
 12498 09:3C63: A5 11        	lda	<L211+pWinTemp_1
 12499 09:3C65: 05 13        	ora	<L211+pWinTemp_1+2
 12500 09:3C67: D0 03        	bne	L253
 12501 09:3C69: 82 5A 00     	brl	L10264
 12502                        L253:
 12503                        	.line	675
 12504                        	.line	676
 12505 09:3C6C: F4 00 00     	pea	#^$4
 12506 09:3C6F: F4 04 00     	pea	#<$4
 12507 09:3C72: 22 xx xx xx  	jsl	~~k_mem_allocate_heap
 12508 09:3C76: 85 01        	sta	<R0
 12509 09:3C78: 86 03        	stx	<R0+2
 12510 09:3C7A: DA           	phx
  Mon Sep 27 2021  9:39                                                Page 257


 12511 09:3C7B: 48           	pha
 12512 09:3C7C: F4 04 00     	pea	#<$4
 12513 09:3C7F: D4 13        	pei	<L211+pWinTemp_1+2
 12514 09:3C81: D4 11        	pei	<L211+pWinTemp_1
 12515 09:3C83: 22 xx xx xx  	jsl	~~k_user_SetWindowData
 12516                        	.line	678
 12517 09:3C87: F4 04 00     	pea	#<$4
 12518 09:3C8A: D4 13        	pei	<L211+pWinTemp_1+2
 12519 09:3C8C: D4 11        	pei	<L211+pWinTemp_1
 12520 09:3C8E: 22 xx xx xx  	jsl	~~k_user_GetWindowData
 12521 09:3C92: 85 01        	sta	<R0
 12522 09:3C94: 86 03        	stx	<R0+2
 12523 09:3C96: F4 00 08     	pea	#<$800
 12524 09:3C99: A0 C5 01     	ldy	#$1c5
 12525 09:3C9C: B7 0D        	lda	[<L211+pWin_1],Y
 12526 09:3C9E: 85 05        	sta	<R1
 12527 09:3CA0: A0 C7 01     	ldy	#$1c7
 12528 09:3CA3: B7 0D        	lda	[<L211+pWin_1],Y
 12529 09:3CA5: 85 07        	sta	<R1+2
 12530 09:3CA7: A0 26 00     	ldy	#$26
 12531 09:3CAA: B7 05        	lda	[<R1],Y
 12532 09:3CAC: 48           	pha
 12533 09:3CAD: A0 24 00     	ldy	#$24
 12534 09:3CB0: B7 05        	lda	[<R1],Y
 12535 09:3CB2: 48           	pha
 12536 09:3CB3: 22 xx xx xx  	jsl	~~k_fxstring_new
 12537 09:3CB7: 85 05        	sta	<R1
 12538 09:3CB9: 86 07        	stx	<R1+2
 12539 09:3CBB: A5 05        	lda	<R1
 12540 09:3CBD: 87 01        	sta	[<R0]
 12541 09:3CBF: A5 07        	lda	<R1+2
 12542 09:3CC1: A0 02 00     	ldy	#$2
 12543 09:3CC4: 97 01        	sta	[<R0],Y
 12544                        	.line	682
 12545                        L10264:
 12546                        	.line	683
 12547                        L10263:
 12548                        	.line	684
 12549 09:3CC6: A0 C5 01     	ldy	#$1c5
 12550 09:3CC9: B7 0D        	lda	[<L211+pWin_1],Y
 12551 09:3CCB: 85 01        	sta	<R0
 12552 09:3CCD: A0 C7 01     	ldy	#$1c7
 12553 09:3CD0: B7 0D        	lda	[<L211+pWin_1],Y
 12554 09:3CD2: 85 03        	sta	<R0+2
 12555 09:3CD4: A0 26 00     	ldy	#$26
 12556 09:3CD7: B7 01        	lda	[<R0],Y
 12557 09:3CD9: 48           	pha
 12558 09:3CDA: A0 24 00     	ldy	#$24
 12559 09:3CDD: B7 01        	lda	[<R0],Y
 12560 09:3CDF: 48           	pha
 12561 09:3CE0: 22 xx xx xx  	jsl	~~k_mem_deallocate_heap
 12562                        	.line	685
 12563                        L10262:
 12564                        L10260:
 12565                        L10256:
 12566                        	.line	687
 12567 09:3CE4: A0 C5 01     	ldy	#$1c5
 12568 09:3CE7: B7 0D        	lda	[<L211+pWin_1],Y
  Mon Sep 27 2021  9:39                                                Page 258


 12569 09:3CE9: 85 01        	sta	<R0
 12570 09:3CEB: A0 C7 01     	ldy	#$1c7
 12571 09:3CEE: B7 0D        	lda	[<L211+pWin_1],Y
 12572 09:3CF0: 85 03        	sta	<R0+2
 12573 09:3CF2: A0 1E 00     	ldy	#$1e
 12574 09:3CF5: B7 01        	lda	[<R0],Y
 12575 09:3CF7: 48           	pha
 12576 09:3CF8: A0 1C 00     	ldy	#$1c
 12577 09:3CFB: B7 01        	lda	[<R0],Y
 12578 09:3CFD: 48           	pha
 12579 09:3CFE: 22 xx xx xx  	jsl	~~f_close
 12580                        	.line	688
 12581                        L10253:
 12582                        	.line	690
 12583 09:3D02: D4 2B        	pei	<L211+path_1+2
 12584 09:3D04: D4 29        	pei	<L211+path_1
 12585 09:3D06: 22 xx xx xx  	jsl	~~k_fxstring_free
 12586                        	.line	693
 12587 09:3D0A: A0 04 00     	ldy	#$4
 12588 09:3D0D: B7 15        	lda	[<L211+pnode_1],Y
 12589 09:3D0F: 48           	pha
 12590 09:3D10: A0 02 00     	ldy	#$2
 12591 09:3D13: B7 15        	lda	[<L211+pnode_1],Y
 12592 09:3D15: 48           	pha
 12593 09:3D16: F4 04 00     	pea	#<$4
 12594 09:3D19: A0 0C 00     	ldy	#$c
 12595 09:3D1C: B7 61        	lda	[<L210+pMsg_0],Y
 12596 09:3D1E: 48           	pha
 12597 09:3D1F: A0 0A 00     	ldy	#$a
 12598 09:3D22: B7 61        	lda	[<L210+pMsg_0],Y
 12599 09:3D24: 48           	pha
 12600 09:3D25: 22 xx xx xx  	jsl	~~k_user_SetWindowData
 12601                        	.line	699
 12602                        L10252:
 12603                        	.line	700
 12604                        L10251:
 12605                        	.line	702
 12606 09:3D29: 82 E9 00     	brl	L10219
 12607                        	.line	703
 12608                        L10265:
 12609                        	.line	704
 12610 09:3D2C: A0 0C 00     	ldy	#$c
 12611 09:3D2F: B7 61        	lda	[<L210+pMsg_0],Y
 12612 09:3D31: 48           	pha
 12613 09:3D32: A0 0A 00     	ldy	#$a
 12614 09:3D35: B7 61        	lda	[<L210+pMsg_0],Y
 12615 09:3D37: 48           	pha
 12616 09:3D38: 22 xx xx xx  	jsl	~~k_getWindowFromHandle
 12617 09:3D3C: 85 0D        	sta	<L211+pWin_1
 12618 09:3D3E: 86 0F        	stx	<L211+pWin_1+2
 12619                        	.line	705
 12620 09:3D40: A5 0D        	lda	<L211+pWin_1
 12621 09:3D42: 05 0F        	ora	<L211+pWin_1+2
 12622 09:3D44: D0 03        	bne	L254
 12623 09:3D46: 82 66 00     	brl	L10266
 12624                        L254:
 12625                        	.line	706
 12626                        	.line	707
  Mon Sep 27 2021  9:39                                                Page 259


 12627 09:3D49: F4 00 00     	pea	#0
 12628 09:3D4C: 18           	clc
 12629 09:3D4D: 7B           	tdc
 12630 09:3D4E: 69 19 00     	adc	#<L211+point_1
 12631 09:3D51: 48           	pha
 12632 09:3D52: D4 63        	pei	<L210+pMsg_0+2
 12633 09:3D54: D4 61        	pei	<L210+pMsg_0
 12634 09:3D56: 22 xx xx xx  	jsl	~~k_user_GetMouseClientPoint
 12635                        	.line	709
 12636 09:3D5A: 22 xx xx xx  	jsl	~~k_font_getFontHeight
 12637 09:3D5E: 85 01        	sta	<R0
 12638 09:3D60: 18           	clc
 12639 09:3D61: A9 02 00     	lda	#$2
 12640 09:3D64: 65 01        	adc	<R0
 12641 09:3D66: 85 05        	sta	<R1
 12642 09:3D68: A5 1B        	lda	<L211+point_1+2
 12643 09:3D6A: A6 05        	ldx	<R1
 12644                        	xref	~~~udv
 12645 09:3D6C: 22 xx xx xx  	jsl	~~~udv
 12646 09:3D70: 85 27        	sta	<L211+row_1
 12647                        	.line	711
 12648 09:3D72: A0 C5 01     	ldy	#$1c5
 12649 09:3D75: B7 0D        	lda	[<L211+pWin_1],Y
 12650 09:3D77: 85 01        	sta	<R0
 12651 09:3D79: A0 C7 01     	ldy	#$1c7
 12652 09:3D7C: B7 0D        	lda	[<L211+pWin_1],Y
 12653 09:3D7E: 85 03        	sta	<R0+2
 12654 09:3D80: A5 27        	lda	<L211+row_1
 12655 09:3D82: A0 08 00     	ldy	#$8
 12656 09:3D85: 97 01        	sta	[<R0],Y
 12657                        	.line	713
 12658 09:3D87: A0 C5 01     	ldy	#$1c5
 12659 09:3D8A: B7 0D        	lda	[<L211+pWin_1],Y
 12660 09:3D8C: 85 01        	sta	<R0
 12661 09:3D8E: A0 C7 01     	ldy	#$1c7
 12662 09:3D91: B7 0D        	lda	[<L211+pWin_1],Y
 12663 09:3D93: 85 03        	sta	<R0+2
 12664 09:3D95: A0 08 00     	ldy	#$8
 12665 09:3D98: B7 01        	lda	[<R0],Y
 12666 09:3D9A: 48           	pha
 12667 09:3D9B: D4 0F        	pei	<L211+pWin_1+2
 12668 09:3D9D: D4 0D        	pei	<L211+pWin_1
 12669 09:3D9F: A0 0C 00     	ldy	#$c
 12670 09:3DA2: B7 61        	lda	[<L210+pMsg_0],Y
 12671 09:3DA4: 48           	pha
 12672 09:3DA5: A0 0A 00     	ldy	#$a
 12673 09:3DA8: B7 61        	lda	[<L210+pMsg_0],Y
 12674 09:3DAA: 48           	pha
 12675 09:3DAB: 22 E3 3E 09  	jsl	~~highlightRow
 12676                        	.line	745
 12677                        L10266:
 12678                        	.line	747
 12679 09:3DAF: A9 01 00     	lda	#$1
 12680 09:3DB2: 82 9C F5     	brl	L221
 12681                        	.line	749
 12682                        L10267:
 12683                        	.line	751
 12684 09:3DB5: AD xx xx     	lda	|~~selectionChanged
  Mon Sep 27 2021  9:39                                                Page 260


 12685 09:3DB8: 29 FF 00     	and	#$ff
 12686 09:3DBB: D0 03        	bne	L255
 12687 09:3DBD: 82 23 00     	brl	L10268
 12688                        L255:
 12689                        	.line	752
 12690                        	.line	753
 12691 09:3DC0: E2 20        	sep	#$20
 12692                        	longa	off
 12693 09:3DC2: 9C xx xx     	stz	|~~selectionChanged
 12694 09:3DC5: C2 20        	rep	#$20
 12695                        	longa	on
 12696                        	.line	754
 12697 09:3DC7: F4 00 00     	pea	#<$0
 12698 09:3DCA: F4 00 00     	pea	#^$0
 12699 09:3DCD: F4 00 00     	pea	#<$0
 12700 09:3DD0: F4 00 FB     	pea	#<$fb00
 12701 09:3DD3: A0 0C 00     	ldy	#$c
 12702 09:3DD6: B7 61        	lda	[<L210+pMsg_0],Y
 12703 09:3DD8: 48           	pha
 12704 09:3DD9: A0 0A 00     	ldy	#$a
 12705 09:3DDC: B7 61        	lda	[<L210+pMsg_0],Y
 12706 09:3DDE: 48           	pha
 12707 09:3DDF: 22 xx xx xx  	jsl	~~k_send_window_message
 12708                        	.line	755
 12709                        L10268:
 12710                        	.line	757
 12711 09:3DE3: 82 2F 00     	brl	L10219
 12712                        	.line	758
 12713                        L10269:
 12714                        	.line	759
 12715 09:3DE6: 82 2C 00     	brl	L10219
 12716                        	.line	760
 12717                        L10218:
 12718                        	xref	~~~swt
 12719 09:3DE9: 22 xx xx xx  	jsl	~~~swt
 12720 09:3DED: 09 00        	dw	9
 12721 09:3DEF: 03 0F        	dw	3843
 12722 09:3DF1: 48 37        	dw	L10247-1
 12723 09:3DF3: 04 0F        	dw	3844
 12724 09:3DF5: 2B 3D        	dw	L10265-1
 12725 09:3DF7: 07 0F        	dw	3847
 12726 09:3DF9: 91 37        	dw	L10249-1
 12727 09:3DFB: 10 0F        	dw	3856
 12728 09:3DFD: C8 34        	dw	L10236-1
 12729 09:3DFF: 00 FA        	dw	64000
 12730 09:3E01: 60 34        	dw	L10232-1
 12731 09:3E03: 00 FB        	dw	64256
 12732 09:3E05: 62 33        	dw	L10229-1
 12733 09:3E07: FF FB        	dw	64511
 12734 09:3E09: C2 2F        	dw	L10220-1
 12735 09:3E0B: 03 FF        	dw	65283
 12736 09:3E0D: 0F 30        	dw	L10223-1
 12737 09:3E0F: F1 FF        	dw	65521
 12738 09:3E11: B4 3D        	dw	L10267-1
 12739 09:3E13: E5 3D        	dw	L10269-1
 12740                        L10219:
 12741                        	.line	761
 12742                        L10217:
  Mon Sep 27 2021  9:39                                                Page 261


 12743                        	.line	763
 12744 09:3E15: D4 63        	pei	<L210+pMsg_0+2
 12745 09:3E17: D4 61        	pei	<L210+pMsg_0
 12746 09:3E19: 22 xx xx xx  	jsl	~~DefWindowProc
 12747 09:3E1D: E2 20        	sep	#$20
 12748                        	longa	off
 12749 09:3E1F: 85 01        	sta	<R0
 12750 09:3E21: C2 20        	rep	#$20
 12751                        	longa	on
 12752 09:3E23: A5 01        	lda	<R0
 12753 09:3E25: 29 FF 00     	and	#$ff
 12754 09:3E28: 82 26 F5     	brl	L221
 12755                        	.line	764
 12756                        	.endblock	764
 12757             0000005D   L210	equ	93
 12758             00000009   L211	equ	9
 12759 09:3E2B:              	ends
 12760                        	efunc
 12761                        	.endfunc	764,9,93
 12762                        	.line	764
 12763                        	data
 12764                        L209:
 12765 00:12C8: 64 65 73 6B  	db	$64,$65,$73,$6B,$74,$6F,$70,$56,$6F,$6C,
                    $73,$57,$69,$6E,$64
       00:12CC: 74 6F 70 56 
       00:12D0: 6F 6C 73 57 
       00:12D4: 69 6E 64 
 12766 00:12D7: 6F 77 50 72  	db	$6F,$77,$50,$72,$6F,$63,$3A,$3A,$46,$58,
                    $5F,$43,$52,$45,$41
       00:12DB: 6F 63 3A 3A 
       00:12DF: 46 58 5F 43 
       00:12E3: 52 45 41 
 12767 00:12E6: 54 45 5F 57  	db	$54,$45,$5F,$57,$49,$4E,$44,$4F,$57,$3A,
                    $00,$48,$44,$3A,$00
       00:12EA: 49 4E 44 4F 
       00:12EE: 57 3A 00 48 
       00:12F2: 44 3A 00 
 12768 00:12F5: 48 44 3A 00  	db	$48,$44,$3A,$00,$48,$44,$3A,$00,$66,$5F,
                    $67,$65,$74,$6C,$61
       00:12F9: 48 44 3A 00 
       00:12FD: 66 5F 67 65 
       00:1301: 74 6C 61 
 12769 00:1304: 62 65 6C 3A  	db	$62,$65,$6C,$3A,$6E,$61,$6D,$65,$3A,$00,
                    $48,$44,$3A,$5C,$00
       00:1308: 6E 61 6D 65 
       00:130C: 3A 00 48 44 
       00:1310: 3A 5C 00 
 12770 00:1313: 64 65 73 6B  	db	$64,$65,$73,$6B,$74,$6F,$70,$56,$6F,$6C,
                    $73,$57,$69,$6E,$64
       00:1317: 74 6F 70 56 
       00:131B: 6F 6C 73 57 
       00:131F: 69 6E 64 
 12771 00:1322: 6F 77 50 72  	db	$6F,$77,$50,$72,$6F,$63,$3A,$3A,$46,$58,
                    $5F,$43,$52,$45,$41
       00:1326: 6F 63 3A 3A 
       00:132A: 46 58 5F 43 
       00:132E: 52 45 41 
 12772 00:1331: 54 45 5F 57  	db	$54,$45,$5F,$57,$49,$4E,$44,$4F,$57,$3A,
  Mon Sep 27 2021  9:39                                                Page 262


                    $72,$6F,$77,$3A,$00
       00:1335: 49 4E 44 4F 
       00:1339: 57 3A 72 6F 
       00:133D: 77 3A 00 
 12773 00:1340: 64 65 73 6B  	db	$64,$65,$73,$6B,$74,$6F,$70,$56,$6F,$6C,
                    $73,$57,$69,$6E,$64
       00:1344: 74 6F 70 56 
       00:1348: 6F 6C 73 57 
       00:134C: 69 6E 64 
 12774 00:134F: 6F 77 50 72  	db	$6F,$77,$50,$72,$6F,$63,$3A,$3A,$46,$58,
                    $5F,$43,$52,$45,$41
       00:1353: 6F 63 3A 3A 
       00:1357: 46 58 5F 43 
       00:135B: 52 45 41 
 12775 00:135E: 54 45 5F 57  	db	$54,$45,$5F,$57,$49,$4E,$44,$4F,$57,$3A,
                    $45,$78,$69,$74,$3A
       00:1362: 49 4E 44 4F 
       00:1366: 57 3A 45 78 
       00:136A: 69 74 3A 
 12776 00:136D: 00 64 65 73  	db	$00,$64,$65,$73,$6B,$74,$6F,$70,$56,$6F,
                    $6C,$73,$57,$69,$6E
       00:1371: 6B 74 6F 70 
       00:1375: 56 6F 6C 73 
       00:1379: 57 69 6E 
 12777 00:137C: 64 6F 77 50  	db	$64,$6F,$77,$50,$72,$6F,$63,$3A,$3A,$46,
                    $58,$5F,$44,$52,$41
       00:1380: 72 6F 63 3A 
       00:1384: 3A 46 58 5F 
       00:1388: 44 52 41 
 12778 00:138B: 57 5F 57 49  	db	$57,$5F,$57,$49,$4E,$44,$4F,$57,$3A,$00,
                    $64,$65,$73,$6B,$74
       00:138F: 4E 44 4F 57 
       00:1393: 3A 00 64 65 
       00:1397: 73 6B 74 
 12779 00:139A: 6F 70 56 6F  	db	$6F,$70,$56,$6F,$6C,$73,$57,$69,$6E,$64,
                    $6F,$77,$50,$72,$6F
       00:139E: 6C 73 57 69 
       00:13A2: 6E 64 6F 77 
       00:13A6: 50 72 6F 
 12780 00:13A9: 63 3A 3A 46  	db	$63,$3A,$3A,$46,$58,$5F,$44,$52,$41,$57,
                    $5F,$57,$49,$4E,$44
       00:13AD: 58 5F 44 52 
       00:13B1: 41 57 5F 57 
       00:13B5: 49 4E 44 
 12781 00:13B8: 4F 57 3A 45  	db	$4F,$57,$3A,$45,$58,$49,$54,$3A,$00,$64,
                    $65,$73,$6B,$74,$6F
       00:13BC: 58 49 54 3A 
       00:13C0: 00 64 65 73 
       00:13C4: 6B 74 6F 
 12782 00:13C7: 70 56 6F 6C  	db	$70,$56,$6F,$6C,$73,$57,$69,$6E,$64,$6F,
                    $77,$50,$72,$6F,$63
       00:13CB: 73 57 69 6E 
       00:13CF: 64 6F 77 50 
       00:13D3: 72 6F 63 
 12783 00:13D6: 3A 3A 4D 53  	db	$3A,$3A,$4D,$53,$47,$42,$4F,$58,$5F,$43,
                    $4C,$4F,$53,$45,$3A
       00:13DA: 47 42 4F 58 
       00:13DE: 5F 43 4C 4F 
  Mon Sep 27 2021  9:39                                                Page 263


       00:13E2: 53 45 3A 
 12784 00:13E5: 00 64 65 73  	db	$00,$64,$65,$73,$6B,$74,$6F,$70,$56,$6F,
                    $6C,$73,$57,$69,$6E
       00:13E9: 6B 74 6F 70 
       00:13ED: 56 6F 6C 73 
       00:13F1: 57 69 6E 
 12785 00:13F4: 64 6F 77 50  	db	$64,$6F,$77,$50,$72,$6F,$63,$3A,$3A,$46,
                    $58,$5F,$4B,$45,$59
       00:13F8: 72 6F 63 3A 
       00:13FC: 3A 46 58 5F 
       00:1400: 4B 45 59 
 12786 00:1403: 5F 44 4F 57  	db	$5F,$44,$4F,$57,$4E,$20,$53,$43,$41,$4E,
                    $43,$4F,$44,$45,$3A
       00:1407: 4E 20 53 43 
       00:140B: 41 4E 43 4F 
       00:140F: 44 45 3A 
 12787 00:1412: 00 64 65 73  	db	$00,$64,$65,$73,$6B,$74,$6F,$70,$56,$6F,
                    $6C,$73,$57,$69,$6E
       00:1416: 6B 74 6F 70 
       00:141A: 56 6F 6C 73 
       00:141E: 57 69 6E 
 12788 00:1421: 64 6F 77 50  	db	$64,$6F,$77,$50,$72,$6F,$63,$3A,$3A,$46,
                    $58,$5F,$4B,$45,$59
       00:1425: 72 6F 63 3A 
       00:1429: 3A 46 58 5F 
       00:142D: 4B 45 59 
 12789 00:1430: 5F 44 4F 57  	db	$5F,$44,$4F,$57,$4E,$20,$43,$48,$41,$52,
                    $3A,$00,$64,$65,$73
       00:1434: 4E 20 43 48 
       00:1438: 41 52 3A 00 
       00:143C: 64 65 73 
 12790 00:143F: 6B 74 6F 70  	db	$6B,$74,$6F,$70,$56,$6F,$6C,$73,$57,$69,
                    $6E,$64,$6F,$77,$50
       00:1443: 56 6F 6C 73 
       00:1447: 57 69 6E 64 
       00:144B: 6F 77 50 
 12791 00:144E: 72 6F 63 3A  	db	$72,$6F,$63,$3A,$3A,$43,$61,$6C,$6C,$69,
                    $6E,$67,$20,$6B,$5F
       00:1452: 3A 43 61 6C 
       00:1456: 6C 69 6E 67 
       00:145A: 20 6B 5F 
 12792 00:145D: 75 73 65 72  	db	$75,$73,$65,$72,$5F,$48,$69,$67,$68,$6C,
                    $69,$67,$68,$74,$4D
       00:1461: 5F 48 69 67 
       00:1465: 68 6C 69 67 
       00:1469: 68 74 4D 
 12793 00:146C: 65 6E 75 3A  	db	$65,$6E,$75,$3A,$00,$55,$50,$00,$64,$65,
                    $73,$6B,$74,$6F,$70
       00:1470: 00 55 50 00 
       00:1474: 64 65 73 6B 
       00:1478: 74 6F 70 
 12794 00:147B: 56 6F 6C 73  	db	$56,$6F,$6C,$73,$57,$69,$6E,$64,$6F,$77,
                    $50,$72,$6F,$63,$3A
       00:147F: 57 69 6E 64 
       00:1483: 6F 77 50 72 
       00:1487: 6F 63 3A 
 12795 00:148A: 3A 46 58 5F  	db	$3A,$46,$58,$5F,$4B,$45,$59,$5F,$44,$4F,
                    $57,$4E,$3A,$72,$6F
  Mon Sep 27 2021  9:39                                                Page 264


       00:148E: 4B 45 59 5F 
       00:1492: 44 4F 57 4E 
       00:1496: 3A 72 6F 
 12796 00:1499: 77 3A 00 64  	db	$77,$3A,$00,$64,$65,$73,$6B,$74,$6F,$70,
                    $56,$6F,$6C,$73,$57
       00:149D: 65 73 6B 74 
       00:14A1: 6F 70 56 6F 
       00:14A5: 6C 73 57 
 12797 00:14A8: 69 6E 64 6F  	db	$69,$6E,$64,$6F,$77,$50,$72,$6F,$63,$3A,
                    $3A,$43,$61,$6C,$6C
       00:14AC: 77 50 72 6F 
       00:14B0: 63 3A 3A 43 
       00:14B4: 61 6C 6C 
 12798 00:14B7: 69 6E 67 20  	db	$69,$6E,$67,$20,$6B,$5F,$75,$73,$65,$72,
                    $5F,$48,$69,$67,$68
       00:14BB: 6B 5F 75 73 
       00:14BF: 65 72 5F 48 
       00:14C3: 69 67 68 
 12799 00:14C6: 6C 69 67 68  	db	$6C,$69,$67,$68,$74,$4D,$65,$6E,$75,$3A,
                    $00,$44,$4F,$57,$4E
       00:14CA: 74 4D 65 6E 
       00:14CE: 75 3A 00 44 
       00:14D2: 4F 57 4E 
 12800 00:14D5: 00 64 65 73  	db	$00,$64,$65,$73,$6B,$74,$6F,$70,$56,$6F,
                    $6C,$73,$57,$69,$6E
       00:14D9: 6B 74 6F 70 
       00:14DD: 56 6F 6C 73 
       00:14E1: 57 69 6E 
 12801 00:14E4: 64 6F 77 50  	db	$64,$6F,$77,$50,$72,$6F,$63,$3A,$3A,$43,
                    $61,$6C,$6C,$69,$6E
       00:14E8: 72 6F 63 3A 
       00:14EC: 3A 43 61 6C 
       00:14F0: 6C 69 6E 
 12802 00:14F3: 67 20 72 65  	db	$67,$20,$72,$65,$6E,$64,$65,$72,$43,$6F,
                    $75,$6E,$74,$3A,$00
       00:14F7: 6E 64 65 72 
       00:14FB: 43 6F 75 6E 
       00:14FF: 74 3A 00 
 12803 00:1502: 64 65 73 6B  	db	$64,$65,$73,$6B,$74,$6F,$70,$56,$6F,$6C,
                    $73,$57,$69,$6E,$64
       00:1506: 74 6F 70 56 
       00:150A: 6F 6C 73 57 
       00:150E: 69 6E 64 
 12804 00:1511: 6F 77 50 72  	db	$6F,$77,$50,$72,$6F,$63,$3A,$3A,$46,$58,
                    $5F,$4B,$45,$59,$5F
       00:1515: 6F 63 3A 3A 
       00:1519: 46 58 5F 4B 
       00:151D: 45 59 5F 
 12805 00:1520: 44 4F 57 4E  	db	$44,$4F,$57,$4E,$3A,$72,$6F,$77,$3A,$00,
                    $64,$65,$73,$6B,$74
       00:1524: 3A 72 6F 77 
       00:1528: 3A 00 64 65 
       00:152C: 73 6B 74 
 12806 00:152F: 6F 70 56 6F  	db	$6F,$70,$56,$6F,$6C,$73,$57,$69,$6E,$64,
                    $6F,$77,$50,$72,$6F
       00:1533: 6C 73 57 69 
       00:1537: 6E 64 6F 77 
       00:153B: 50 72 6F 
  Mon Sep 27 2021  9:39                                                Page 265


 12807 00:153E: 63 3A 3A 43  	db	$63,$3A,$3A,$43,$61,$6C,$6C,$69,$6E,$67,
                    $20,$6B,$5F,$75,$73
       00:1542: 61 6C 6C 69 
       00:1546: 6E 67 20 6B 
       00:154A: 5F 75 73 
 12808 00:154D: 65 72 5F 53  	db	$65,$72,$5F,$53,$65,$6C,$65,$63,$74,$4D,
                    $65,$6E,$75,$3A,$00
       00:1551: 65 6C 65 63 
       00:1555: 74 4D 65 6E 
       00:1559: 75 3A 00 
 12809 00:155C: 45 4E 54 45  	db	$45,$4E,$54,$45,$52,$00,$64,$65,$73,$6B,
                    $74,$6F,$70,$56,$6F
       00:1560: 52 00 64 65 
       00:1564: 73 6B 74 6F 
       00:1568: 70 56 6F 
 12810 00:156B: 6C 73 57 69  	db	$6C,$73,$57,$69,$6E,$64,$6F,$77,$50,$72,
                    $6F,$63,$3A,$3A,$46
       00:156F: 6E 64 6F 77 
       00:1573: 50 72 6F 63 
       00:1577: 3A 3A 46 
 12811 00:157A: 58 5F 4D 4F  	db	$58,$5F,$4D,$4F,$55,$53,$45,$5F,$4D,$4F,
                    $56,$45,$3A,$63,$78
       00:157E: 55 53 45 5F 
       00:1582: 4D 4F 56 45 
       00:1586: 3A 63 78 
 12812 00:1589: 3A 00 64 65  	db	$3A,$00,$64,$65,$73,$6B,$74,$6F,$70,$56,
                    $6F,$6C,$73,$57,$69
       00:158D: 73 6B 74 6F 
       00:1591: 70 56 6F 6C 
       00:1595: 73 57 69 
 12813 00:1598: 6E 64 6F 77  	db	$6E,$64,$6F,$77,$50,$72,$6F,$63,$3A,$3A,
                    $46,$58,$5F,$4D,$4F
       00:159C: 50 72 6F 63 
       00:15A0: 3A 3A 46 58 
       00:15A4: 5F 4D 4F 
 12814 00:15A7: 55 53 45 5F  	db	$55,$53,$45,$5F,$4D,$4F,$56,$45,$3A,$63,
                    $79,$3A,$00,$64,$65
       00:15AB: 4D 4F 56 45 
       00:15AF: 3A 63 79 3A 
       00:15B3: 00 64 65 
 12815 00:15B6: 73 6B 74 6F  	db	$73,$6B,$74,$6F,$70,$56,$6F,$6C,$73,$57,
                    $69,$6E,$64,$6F,$77
       00:15BA: 70 56 6F 6C 
       00:15BE: 73 57 69 6E 
       00:15C2: 64 6F 77 
 12816 00:15C5: 50 72 6F 63  	db	$50,$72,$6F,$63,$3A,$3A,$46,$58,$5F,$4C,
                    $42,$55,$54,$54,$4F
       00:15C9: 3A 3A 46 58 
       00:15CD: 5F 4C 42 55 
       00:15D1: 54 54 4F 
 12817 00:15D4: 4E 5F 44 42  	db	$4E,$5F,$44,$42,$4C,$43,$4C,$49,$43,$4B,
                    $0D,$0A,$00,$48,$44
       00:15D8: 4C 43 4C 49 
       00:15DC: 43 4B 0D 0A 
       00:15E0: 00 48 44 
 12818 00:15E3: 3A 00 48 44  	db	$3A,$00,$48,$44,$3A,$5C,$00,$64,$65,$73,
                    $6B,$74,$6F,$70,$56
       00:15E7: 3A 5C 00 64 
  Mon Sep 27 2021  9:39                                                Page 266


       00:15EB: 65 73 6B 74 
       00:15EF: 6F 70 56 
 12819 00:15F2: 6F 6C 73 57  	db	$6F,$6C,$73,$57,$69,$6E,$64,$6F,$77,$50,
                    $72,$6F,$63,$3A,$70
       00:15F6: 69 6E 64 6F 
       00:15FA: 77 50 72 6F 
       00:15FE: 63 3A 70 
 12820 00:1601: 61 74 68 3A  	db	$61,$74,$68,$3A,$00,$45,$58,$45,$00,$64,
                    $65,$73,$6B,$74,$6F
       00:1605: 00 45 58 45 
       00:1609: 00 64 65 73 
       00:160D: 6B 74 6F 
 12821 00:1610: 70 56 6F 6C  	db	$70,$56,$6F,$6C,$73,$57,$69,$6E,$64,$6F,
                    $77,$50,$72,$6F,$63
       00:1614: 73 57 69 6E 
       00:1618: 64 6F 77 50 
       00:161C: 72 6F 63 
 12822 00:161F: 3A 3A 44 45  	db	$3A,$3A,$44,$45,$54,$45,$43,$54,$45,$44,
                    $20,$45,$58,$45,$0D
       00:1623: 54 45 43 54 
       00:1627: 45 44 20 45 
       00:162B: 58 45 0D 
 12823 00:162E: 0A 00 64 65  	db	$0A,$00,$64,$65,$73,$6B,$74,$6F,$70,$56,
                    $6F,$6C,$73,$57,$69
       00:1632: 73 6B 74 6F 
       00:1636: 70 56 6F 6C 
       00:163A: 73 57 69 
 12824 00:163D: 6E 64 6F 77  	db	$6E,$64,$6F,$77,$50,$72,$6F,$63,$3A,$66,
                    $5F,$72,$65,$61,$64
       00:1641: 50 72 6F 63 
       00:1645: 3A 66 5F 72 
       00:1649: 65 61 64 
 12825 00:164C: 3A 66 72 3A  	db	$3A,$66,$72,$3A,$00,$64,$65,$73,$6B,$74,
                    $6F,$70,$56,$6F,$6C
       00:1650: 00 64 65 73 
       00:1654: 6B 74 6F 70 
       00:1658: 56 6F 6C 
 12826 00:165B: 73 57 69 6E  	db	$73,$57,$69,$6E,$64,$6F,$77,$50,$72,$6F,
                    $63,$3A,$3A,$52,$45
       00:165F: 64 6F 77 50 
       00:1663: 72 6F 63 3A 
       00:1667: 3A 52 45 
 12827 00:166A: 41 44 20 45  	db	$41,$44,$20,$45,$58,$45,$20,$53,$69,$7A,
                    $65,$3A,$00,$64,$65
       00:166E: 58 45 20 53 
       00:1672: 69 7A 65 3A 
       00:1676: 00 64 65 
 12828 00:1679: 73 6B 74 6F  	db	$73,$6B,$74,$6F,$70,$56,$6F,$6C,$73,$57,
                    $69,$6E,$64,$6F,$77
       00:167D: 70 56 6F 6C 
       00:1681: 73 57 69 6E 
       00:1685: 64 6F 77 
 12829 00:1688: 50 72 6F 63  	db	$50,$72,$6F,$63,$3A,$3A,$44,$4C,$4C,$4D,
                    $41,$49,$4E,$20,$44
       00:168C: 3A 3A 44 4C 
       00:1690: 4C 4D 41 49 
       00:1694: 4E 20 44 
 12830 00:1697: 41 54 41 0D  	db	$41,$54,$41,$0D,$0A,$00,$4D,$45,$4D,$4F,
  Mon Sep 27 2021  9:39                                                Page 267


                    $52,$59,$20,$20,$44
       00:169B: 0A 00 4D 45 
       00:169F: 4D 4F 52 59 
       00:16A3: 20 20 44 
 12831 00:16A6: 41 54 41 3A  	db	$41,$54,$41,$3A,$00,$64,$65,$73,$6B,$74,
                    $6F,$70,$56,$6F,$6C
       00:16AA: 00 64 65 73 
       00:16AE: 6B 74 6F 70 
       00:16B2: 56 6F 6C 
 12832 00:16B5: 73 57 69 6E  	db	$73,$57,$69,$6E,$64,$6F,$77,$50,$72,$6F,
                    $63,$3A,$3A,$44,$4C
       00:16B9: 64 6F 77 50 
       00:16BD: 72 6F 63 3A 
       00:16C1: 3A 44 4C 
 12833 00:16C4: 4C 4D 41 49  	db	$4C,$4D,$41,$49,$4E,$20,$45,$78,$65,$63,
                    $75,$74,$65,$20,$44
       00:16C8: 4E 20 45 78 
       00:16CC: 65 63 75 74 
       00:16D0: 65 20 44 
 12834 00:16D3: 6C 6C 4D 61  	db	$6C,$6C,$4D,$61,$69,$6E,$28,$29,$0D,$0A,
                    $00,$2F,$00,$48,$44
       00:16D7: 69 6E 28 29 
       00:16DB: 0D 0A 00 2F 
       00:16DF: 00 48 44 
 12835 00:16E2: 52 00 64 65  	db	$52,$00,$64,$65,$73,$6B,$74,$6F,$70,$56,
                    $6F,$6C,$73,$57,$69
       00:16E6: 73 6B 74 6F 
       00:16EA: 70 56 6F 6C 
       00:16EE: 73 57 69 
 12836 00:16F1: 6E 64 6F 77  	db	$6E,$64,$6F,$77,$50,$72,$6F,$63,$3A,$3A,
                    $44,$45,$54,$45,$43
       00:16F5: 50 72 6F 63 
       00:16F9: 3A 3A 44 45 
       00:16FD: 54 45 43 
 12837 00:1700: 54 45 44 20  	db	$54,$45,$44,$20,$48,$44,$52,$0D,$0A,$00,
                    $64,$65,$73,$6B,$74
       00:1704: 48 44 52 0D 
       00:1708: 0A 00 64 65 
       00:170C: 73 6B 74 
 12838 00:170F: 6F 70 56 6F  	db	$6F,$70,$56,$6F,$6C,$73,$57,$69,$6E,$64,
                    $6F,$77,$50,$72,$6F
       00:1713: 6C 73 57 69 
       00:1717: 6E 64 6F 77 
       00:171B: 50 72 6F 
 12839 00:171E: 63 3A 66 5F  	db	$63,$3A,$66,$5F,$72,$65,$61,$64,$3A,$66,
                    $72,$3A,$00,$64,$65
       00:1722: 72 65 61 64 
       00:1726: 3A 66 72 3A 
       00:172A: 00 64 65 
 12840 00:172D: 73 6B 74 6F  	db	$73,$6B,$74,$6F,$70,$56,$6F,$6C,$73,$57,
                    $69,$6E,$64,$6F,$77
       00:1731: 70 56 6F 6C 
       00:1735: 73 57 69 6E 
       00:1739: 64 6F 77 
 12841 00:173C: 50 72 6F 63  	db	$50,$72,$6F,$63,$3A,$3A,$52,$45,$41,$44,
                    $20,$48,$44,$52,$20
       00:1740: 3A 3A 52 45 
       00:1744: 41 44 20 48 
  Mon Sep 27 2021  9:39                                                Page 268


       00:1748: 44 52 20 
 12842 00:174B: 53 69 7A 65  	db	$53,$69,$7A,$65,$3A,$0D,$0A,$00,$53,$45,
                    $47,$4D,$45,$4E,$54
       00:174F: 3A 0D 0A 00 
       00:1753: 53 45 47 4D 
       00:1757: 45 4E 54 
 12843 00:175A: 20 56 45 52  	db	$20,$56,$45,$52,$53,$49,$4F,$4E,$20,$4D,
                    $41,$4A,$4F,$52,$3A
       00:175E: 53 49 4F 4E 
       00:1762: 20 4D 41 4A 
       00:1766: 4F 52 3A 
 12844 00:1769: 00 53 45 47  	db	$00,$53,$45,$47,$4D,$45,$4E,$54,$20,$56,
                    $45,$52,$53,$49,$4F
       00:176D: 4D 45 4E 54 
       00:1771: 20 56 45 52 
       00:1775: 53 49 4F 
 12845 00:1778: 4E 20 4D 41  	db	$4E,$20,$4D,$41,$4A,$4F,$52,$3A,$00,$53,
                    $45,$47,$4D,$45,$4E
       00:177C: 4A 4F 52 3A 
       00:1780: 00 53 45 47 
       00:1784: 4D 45 4E 
 12846 00:1787: 54 20 48 45  	db	$54,$20,$48,$45,$41,$44,$45,$52,$20,$4C,
                    $45,$4E,$47,$54,$48
       00:178B: 41 44 45 52 
       00:178F: 20 4C 45 4E 
       00:1793: 47 54 48 
 12847 00:1796: 3A 00 53 45  	db	$3A,$00,$53,$45,$47,$4D,$45,$4E,$54,$20,
                    $53,$54,$41,$52,$54
       00:179A: 47 4D 45 4E 
       00:179E: 54 20 53 54 
       00:17A2: 41 52 54 
 12848 00:17A5: 20 41 44 44  	db	$20,$41,$44,$44,$52,$45,$53,$53,$3A,$00,
                    $53,$45,$47,$4D,$45
       00:17A9: 52 45 53 53 
       00:17AD: 3A 00 53 45 
       00:17B1: 47 4D 45 
 12849 00:17B4: 4E 54 20 45  	db	$4E,$54,$20,$45,$4E,$44,$20,$20,$20,$41,
                    $44,$44,$52,$45,$53
       00:17B8: 4E 44 20 20 
       00:17BC: 20 41 44 44 
       00:17C0: 52 45 53 
 12850 00:17C3: 53 3A 00 53  	db	$53,$3A,$00,$53,$45,$47,$4D,$45,$4E,$54,
                    $20,$53,$49,$5A,$45
       00:17C7: 45 47 4D 45 
       00:17CB: 4E 54 20 53 
       00:17CF: 49 5A 45 
 12851 00:17D2: 20 20 20 20  	db	$20,$20,$20,$20,$20,$20,$20,$20,$20,$3A,
                    $00,$53,$45,$47,$4D
       00:17D6: 20 20 20 20 
       00:17DA: 20 3A 00 53 
       00:17DE: 45 47 4D 
 12852 00:17E1: 45 4E 54 20  	db	$45,$4E,$54,$20,$45,$4E,$54,$52,$59,$20,
                    $41,$44,$44,$52,$45
       00:17E5: 45 4E 54 52 
       00:17E9: 59 20 41 44 
       00:17ED: 44 52 45 
 12853 00:17F0: 53 53 3A 00  	db	$53,$53,$3A,$00,$64,$65,$73,$6B,$74,$6F,
                    $70,$56,$6F,$6C,$73
  Mon Sep 27 2021  9:39                                                Page 269


       00:17F4: 64 65 73 6B 
       00:17F8: 74 6F 70 56 
       00:17FC: 6F 6C 73 
 12854 00:17FF: 57 69 6E 64  	db	$57,$69,$6E,$64,$6F,$77,$50,$72,$6F,$63,
                    $3A,$66,$5F,$6C,$73
       00:1803: 6F 77 50 72 
       00:1807: 6F 63 3A 66 
       00:180B: 5F 6C 73 
 12855 00:180E: 65 65 6B 28  	db	$65,$65,$6B,$28,$30,$29,$3A,$66,$72,$3A,
                    $00,$64,$65,$73,$6B
       00:1812: 30 29 3A 66 
       00:1816: 72 3A 00 64 
       00:181A: 65 73 6B 
 12856 00:181D: 74 6F 70 56  	db	$74,$6F,$70,$56,$6F,$6C,$73,$57,$69,$6E,
                    $64,$6F,$77,$50,$72
       00:1821: 6F 6C 73 57 
       00:1825: 69 6E 64 6F 
       00:1829: 77 50 72 
 12857 00:182C: 6F 63 3A 66  	db	$6F,$63,$3A,$66,$5F,$72,$65,$61,$64,$3A,
                    $66,$72,$3A,$00,$64
       00:1830: 5F 72 65 61 
       00:1834: 64 3A 66 72 
       00:1838: 3A 00 64 
 12858 00:183B: 65 73 6B 74  	db	$65,$73,$6B,$74,$6F,$70,$56,$6F,$6C,$73,
                    $57,$69,$6E,$64,$6F
       00:183F: 6F 70 56 6F 
       00:1843: 6C 73 57 69 
       00:1847: 6E 64 6F 
 12859 00:184A: 77 50 72 6F  	db	$77,$50,$72,$6F,$63,$3A,$3A,$52,$45,$2D,
                    $52,$45,$41,$44,$20
       00:184E: 63 3A 3A 52 
       00:1852: 45 2D 52 45 
       00:1856: 41 44 20 
 12860 00:1859: 48 44 52 20  	db	$48,$44,$52,$20,$53,$69,$7A,$65,$3A,$0D,
                    $0A,$00,$44,$41,$54
       00:185D: 53 69 7A 65 
       00:1861: 3A 0D 0A 00 
       00:1865: 44 41 54 
 12861 00:1868: 41 20 41 46  	db	$41,$20,$41,$46,$54,$45,$52,$20,$48,$45,
                    $41,$44,$45,$52,$3A
       00:186C: 54 45 52 20 
       00:1870: 48 45 41 44 
       00:1874: 45 52 3A 
 12862 00:1877: 00 46 58 41  	db	$00,$46,$58,$41,$00,$64,$65,$73,$6B,$74,
                    $6F,$70,$56,$6F,$6C
       00:187B: 00 64 65 73 
       00:187F: 6B 74 6F 70 
       00:1883: 56 6F 6C 
 12863 00:1886: 73 57 69 6E  	db	$73,$57,$69,$6E,$64,$6F,$77,$50,$72,$6F,
                    $63,$3A,$3A,$44,$45
       00:188A: 64 6F 77 50 
       00:188E: 72 6F 63 3A 
       00:1892: 3A 44 45 
 12864 00:1895: 54 45 43 54  	db	$54,$45,$43,$54,$45,$44,$20,$46,$58,$41,
                    $0D,$0A,$00,$74,$65
       00:1899: 45 44 20 46 
       00:189D: 58 41 0D 0A 
       00:18A1: 00 74 65 
  Mon Sep 27 2021  9:39                                                Page 270


 12865 00:18A4: 78 74 57 69  	db	$78,$74,$57,$69,$6E,$64,$6F,$77,$43,$6C,
                    $61,$73,$73,$00
       00:18A8: 6E 64 6F 77 
       00:18AC: 43 6C 61 73 
       00:18B0: 73 00 
 12866 00:18B2:              	ends
 12867                        	.line	766
 12868                        	.line	767
 12869                        	DTOP
 12870                        	xdef	~~selectRow
 12871                        	func
 12872                        	.function	767
 12873                        ~~selectRow:
 12874                        	longa	on
 12875                        	longi	on
 12876 09:3E2B: 3B           	tsc
 12877 09:3E2C: 38           	sec
 12878 09:3E2D: E9 0C 00     	sbc	#L257
 12879 09:3E30: 1B           	tcs
 12880 09:3E31: 0B           	phd
 12881 09:3E32: 5B           	tcd
 12882             00000004   pWin_0	set	4
 12883             00000008   row_0	set	8
 12884                        	.block	767
 12885             00000000   pnode_1	set	0
 12886             00000004   pinfo_1	set	4
 12887                        	.sym	pnode,0,138,1,32,2
 12888                        	.sym	pinfo,4,138,1,32,70
 12889                        	.sym	pWin,4,138,6,32,30
 12890                        	.sym	row,8,5,6,16
 12891 09:3E33: 64 05        	stz	<L258+pnode_1
 12892 09:3E35: 64 07        	stz	<L258+pnode_1+2
 12893                        	.line	771
 12894 09:3E37: D4 14        	pei	<L257+row_0
 12895 09:3E39: F4 xx xx     	pea	#^L256
 12896 09:3E3C: F4 xx xx     	pea	#<L256
 12897 09:3E3F: 22 xx xx xx  	jsl	~~k_debug_integer
 12898                        	.line	773
 12899 09:3E43: D4 14        	pei	<L257+row_0
 12900 09:3E45: A0 C5 01     	ldy	#$1c5
 12901 09:3E48: B7 10        	lda	[<L257+pWin_0],Y
 12902 09:3E4A: 85 01        	sta	<R0
 12903 09:3E4C: A0 C7 01     	ldy	#$1c7
 12904 09:3E4F: B7 10        	lda	[<L257+pWin_0],Y
 12905 09:3E51: 85 03        	sta	<R0+2
 12906 09:3E53: A0 16 00     	ldy	#$16
 12907 09:3E56: B7 01        	lda	[<R0],Y
 12908 09:3E58: 48           	pha
 12909 09:3E59: A0 14 00     	ldy	#$14
 12910 09:3E5C: B7 01        	lda	[<R0],Y
 12911 09:3E5E: 48           	pha
 12912 09:3E5F: 22 xx xx xx  	jsl	~~k_nodelist_getfirstnode
 12913 09:3E63: 85 01        	sta	<R0
 12914 09:3E65: 86 03        	stx	<R0+2
 12915 09:3E67: DA           	phx
 12916 09:3E68: 48           	pha
 12917 09:3E69: 22 xx xx xx  	jsl	~~k_nodelist_get
 12918 09:3E6D: 85 05        	sta	<L258+pnode_1
  Mon Sep 27 2021  9:39                                                Page 271


 12919 09:3E6F: 86 07        	stx	<L258+pnode_1+2
 12920                        	.line	774
 12921 09:3E71: A5 05        	lda	<L258+pnode_1
 12922 09:3E73: 05 07        	ora	<L258+pnode_1+2
 12923 09:3E75: D0 03        	bne	L260
 12924 09:3E77: 82 59 00     	brl	L10270
 12925                        L260:
 12926                        	.line	775
 12927                        	.line	776
 12928 09:3E7A: A0 02 00     	ldy	#$2
 12929 09:3E7D: B7 05        	lda	[<L258+pnode_1],Y
 12930 09:3E7F: A0 04 00     	ldy	#$4
 12931 09:3E82: 17 05        	ora	[<L258+pnode_1],Y
 12932 09:3E84: D0 03        	bne	L261
 12933 09:3E86: 82 4A 00     	brl	L10271
 12934                        L261:
 12935                        	.line	777
 12936                        	.line	778
 12937 09:3E89: A0 02 00     	ldy	#$2
 12938 09:3E8C: B7 05        	lda	[<L258+pnode_1],Y
 12939 09:3E8E: 85 09        	sta	<L258+pinfo_1
 12940 09:3E90: A0 04 00     	ldy	#$4
 12941 09:3E93: B7 05        	lda	[<L258+pnode_1],Y
 12942 09:3E95: 85 0B        	sta	<L258+pinfo_1+2
 12943                        	.line	780
 12944 09:3E97: 18           	clc
 12945 09:3E98: A9 16 00     	lda	#$16
 12946 09:3E9B: 65 09        	adc	<L258+pinfo_1
 12947 09:3E9D: 85 01        	sta	<R0
 12948 09:3E9F: A9 00 00     	lda	#$0
 12949 09:3EA2: 65 0B        	adc	<L258+pinfo_1+2
 12950 09:3EA4: 85 03        	sta	<R0+2
 12951 09:3EA6: D4 03        	pei	<R0+2
 12952 09:3EA8: D4 01        	pei	<R0
 12953 09:3EAA: F4 xx xx     	pea	#^L256+38
 12954 09:3EAD: F4 xx xx     	pea	#<L256+38
 12955 09:3EB0: 22 xx xx xx  	jsl	~~k_debug_strings
 12956                        	.line	782
 12957 09:3EB4: 18           	clc
 12958 09:3EB5: A9 16 00     	lda	#$16
 12959 09:3EB8: 65 09        	adc	<L258+pinfo_1
 12960 09:3EBA: 85 01        	sta	<R0
 12961 09:3EBC: A9 00 00     	lda	#$0
 12962 09:3EBF: 65 0B        	adc	<L258+pinfo_1+2
 12963 09:3EC1: 85 03        	sta	<R0+2
 12964 09:3EC3: D4 03        	pei	<R0+2
 12965 09:3EC5: D4 01        	pei	<R0
 12966 09:3EC7: 22 1D 40 09  	jsl	~~handleFileType
 12967 09:3ECB: 29 FF 00     	and	#$ff
 12968 09:3ECE: F0 03        	beq	L262
 12969 09:3ED0: 82 00 00     	brl	L10272
 12970                        L262:
 12971                        	.line	783
 12972                        	.line	787
 12973                        L10272:
 12974                        	.line	789
 12975                        L10271:
 12976                        	.line	790
  Mon Sep 27 2021  9:39                                                Page 272


 12977                        L10270:
 12978                        	.line	792
 12979                        L263:
 12980 09:3ED3: A5 0E        	lda	<L257+2
 12981 09:3ED5: 85 14        	sta	<L257+2+6
 12982 09:3ED7: A5 0D        	lda	<L257+1
 12983 09:3ED9: 85 13        	sta	<L257+1+6
 12984 09:3EDB: 2B           	pld
 12985 09:3EDC: 3B           	tsc
 12986 09:3EDD: 18           	clc
 12987 09:3EDE: 69 12 00     	adc	#L257+6
 12988 09:3EE1: 1B           	tcs
 12989 09:3EE2: 6B           	rtl
 12990                        	.endblock	792
 12991             0000000C   L257	equ	12
 12992             00000005   L258	equ	5
 12993 09:3EE3:              	ends
 12994                        	efunc
 12995                        	.endfunc	792,5,12
 12996                        	.line	792
 12997                        	data
 12998                        L256:
 12999 00:18B2: 64 65 73 6B  	db	$64,$65,$73,$6B,$74,$6F,$70,$56,$6F,$6C,
                    $73,$57,$69,$6E,$64
       00:18B6: 74 6F 70 56 
       00:18BA: 6F 6C 73 57 
       00:18BE: 69 6E 64 
 13000 00:18C1: 6F 77 50 72  	db	$6F,$77,$50,$72,$6F,$63,$3A,$3A,$73,$65,
                    $6C,$65,$63,$74,$52
       00:18C5: 6F 63 3A 3A 
       00:18C9: 73 65 6C 65 
       00:18CD: 63 74 52 
 13001 00:18D0: 6F 77 3A 72  	db	$6F,$77,$3A,$72,$6F,$77,$3A,$00,$64,$65,
                    $73,$6B,$74,$6F,$70
       00:18D4: 6F 77 3A 00 
       00:18D8: 64 65 73 6B 
       00:18DC: 74 6F 70 
 13002 00:18DF: 56 6F 6C 73  	db	$56,$6F,$6C,$73,$57,$69,$6E,$64,$6F,$77,
                    $50,$72,$6F,$63,$3A
       00:18E3: 57 69 6E 64 
       00:18E7: 6F 77 50 72 
       00:18EB: 6F 63 3A 
 13003 00:18EE: 3A 73 65 6C  	db	$3A,$73,$65,$6C,$65,$63,$74,$52,$6F,$77,
                    $3A,$66,$69,$6C,$65
       00:18F2: 65 63 74 52 
       00:18F6: 6F 77 3A 66 
       00:18FA: 69 6C 65 
 13004 00:18FD: 3A 00        	db	$3A,$00
 13005 00:18FF:              	ends
 13006                        	.line	794
 13007                        	.line	795
 13008                        	DTOP
 13009                        	xdef	~~highlightRow
 13010                        	func
 13011                        	.function	795
 13012                        ~~highlightRow:
 13013                        	longa	on
 13014                        	longi	on
  Mon Sep 27 2021  9:39                                                Page 273


 13015 09:3EE3: 3B           	tsc
 13016 09:3EE4: 38           	sec
 13017 09:3EE5: E9 0C 00     	sbc	#L265
 13018 09:3EE8: 1B           	tcs
 13019 09:3EE9: 0B           	phd
 13020 09:3EEA: 5B           	tcd
 13021             00000004   hWnd_0	set	4
 13022             00000008   pWin_0	set	8
 13023             0000000C   row_0	set	12
 13024                        	.block	795
 13025             00000000   pnode_1	set	0
 13026                        	.sym	pnode,0,138,1,32,2
 13027                        	.sym	hWnd,4,129,6,32
 13028                        	.sym	pWin,8,138,6,32,30
 13029                        	.sym	row,12,5,6,16
 13030 09:3EEB: 64 09        	stz	<L266+pnode_1
 13031 09:3EED: 64 0B        	stz	<L266+pnode_1+2
 13032                        	.line	798
 13033 09:3EEF: D4 18        	pei	<L265+row_0
 13034 09:3EF1: F4 xx xx     	pea	#^L264
 13035 09:3EF4: F4 xx xx     	pea	#<L264
 13036 09:3EF7: 22 xx xx xx  	jsl	~~k_debug_integer
 13037                        	.line	800
 13038 09:3EFB: D4 18        	pei	<L265+row_0
 13039 09:3EFD: A0 C5 01     	ldy	#$1c5
 13040 09:3F00: B7 14        	lda	[<L265+pWin_0],Y
 13041 09:3F02: 85 01        	sta	<R0
 13042 09:3F04: A0 C7 01     	ldy	#$1c7
 13043 09:3F07: B7 14        	lda	[<L265+pWin_0],Y
 13044 09:3F09: 85 03        	sta	<R0+2
 13045 09:3F0B: A0 16 00     	ldy	#$16
 13046 09:3F0E: B7 01        	lda	[<R0],Y
 13047 09:3F10: 48           	pha
 13048 09:3F11: A0 14 00     	ldy	#$14
 13049 09:3F14: B7 01        	lda	[<R0],Y
 13050 09:3F16: 48           	pha
 13051 09:3F17: 22 xx xx xx  	jsl	~~k_nodelist_getfirstnode
 13052 09:3F1B: 85 01        	sta	<R0
 13053 09:3F1D: 86 03        	stx	<R0+2
 13054 09:3F1F: DA           	phx
 13055 09:3F20: 48           	pha
 13056 09:3F21: 22 xx xx xx  	jsl	~~k_nodelist_get
 13057 09:3F25: 85 09        	sta	<L266+pnode_1
 13058 09:3F27: 86 0B        	stx	<L266+pnode_1+2
 13059                        	.line	801
 13060 09:3F29: A5 09        	lda	<L266+pnode_1
 13061 09:3F2B: 05 0B        	ora	<L266+pnode_1+2
 13062 09:3F2D: D0 03        	bne	L268
 13063 09:3F2F: 82 DB 00     	brl	L10273
 13064                        L268:
 13065                        	.line	802
 13066                        	.line	803
 13067 09:3F32: F4 04 00     	pea	#<$4
 13068 09:3F35: D4 12        	pei	<L265+hWnd_0+2
 13069 09:3F37: D4 10        	pei	<L265+hWnd_0
 13070 09:3F39: 22 xx xx xx  	jsl	~~k_user_GetWindowData
 13071 09:3F3D: 85 01        	sta	<R0
 13072 09:3F3F: 86 03        	stx	<R0+2
  Mon Sep 27 2021  9:39                                                Page 274


 13073 09:3F41: A5 01        	lda	<R0
 13074 09:3F43: A0 02 00     	ldy	#$2
 13075 09:3F46: D7 09        	cmp	[<L266+pnode_1],Y
 13076 09:3F48: D0 07        	bne	L269
 13077 09:3F4A: A5 03        	lda	<R0+2
 13078 09:3F4C: A0 04 00     	ldy	#$4
 13079 09:3F4F: D7 09        	cmp	[<L266+pnode_1],Y
 13080                        L269:
 13081 09:3F51: D0 03        	bne	L270
 13082 09:3F53: 82 B7 00     	brl	L10274
 13083                        L270:
 13084                        	.line	804
 13085                        	.line	805
 13086 09:3F56: A0 04 00     	ldy	#$4
 13087 09:3F59: B7 09        	lda	[<L266+pnode_1],Y
 13088 09:3F5B: 48           	pha
 13089 09:3F5C: A0 02 00     	ldy	#$2
 13090 09:3F5F: B7 09        	lda	[<L266+pnode_1],Y
 13091 09:3F61: 48           	pha
 13092 09:3F62: F4 04 00     	pea	#<$4
 13093 09:3F65: D4 12        	pei	<L265+hWnd_0+2
 13094 09:3F67: D4 10        	pei	<L265+hWnd_0
 13095 09:3F69: 22 xx xx xx  	jsl	~~k_user_SetWindowData
 13096                        	.line	810
 13097 09:3F6D: A0 9E 01     	ldy	#$19e
 13098 09:3F70: B7 14        	lda	[<L265+pWin_0],Y
 13099 09:3F72: 48           	pha
 13100 09:3F73: A0 B8 01     	ldy	#$1b8
 13101 09:3F76: B7 14        	lda	[<L265+pWin_0],Y
 13102 09:3F78: 48           	pha
 13103 09:3F79: A0 34 00     	ldy	#$34
 13104 09:3F7C: B7 14        	lda	[<L265+pWin_0],Y
 13105 09:3F7E: 48           	pha
 13106 09:3F7F: A0 32 00     	ldy	#$32
 13107 09:3F82: B7 14        	lda	[<L265+pWin_0],Y
 13108 09:3F84: 48           	pha
 13109 09:3F85: A0 00 00     	ldy	#$0
 13110 09:3F88: 5A           	phy
 13111 09:3F89: A0 2C 00     	ldy	#$2c
 13112 09:3F8C: B7 14        	lda	[<L265+pWin_0],Y
 13113 09:3F8E: 7A           	ply
 13114 09:3F8F: 2A           	rol	A
 13115 09:3F90: 6A           	ror	A
 13116 09:3F91: 10 01        	bpl	L271
 13117 09:3F93: 88           	dey
 13118                        L271:
 13119 09:3F94: 85 01        	sta	<R0
 13120 09:3F96: 84 03        	sty	<R0+2
 13121 09:3F98: D4 03        	pei	<R0+2
 13122 09:3F9A: D4 01        	pei	<R0
 13123 09:3F9C: A0 00 00     	ldy	#$0
 13124 09:3F9F: 5A           	phy
 13125 09:3FA0: A0 2A 00     	ldy	#$2a
 13126 09:3FA3: B7 14        	lda	[<L265+pWin_0],Y
 13127 09:3FA5: 7A           	ply
 13128 09:3FA6: 2A           	rol	A
 13129 09:3FA7: 6A           	ror	A
 13130 09:3FA8: 10 01        	bpl	L272
  Mon Sep 27 2021  9:39                                                Page 275


 13131 09:3FAA: 88           	dey
 13132                        L272:
 13133 09:3FAB: 85 05        	sta	<R1
 13134 09:3FAD: 84 07        	sty	<R1+2
 13135 09:3FAF: D4 07        	pei	<R1+2
 13136 09:3FB1: D4 05        	pei	<R1
 13137 09:3FB3: 22 xx xx xx  	jsl	~~k_vdma_fill_rect_ex
 13138                        	.line	818
 13139 09:3FB7: A0 C5 01     	ldy	#$1c5
 13140 09:3FBA: B7 14        	lda	[<L265+pWin_0],Y
 13141 09:3FBC: 85 01        	sta	<R0
 13142 09:3FBE: A0 C7 01     	ldy	#$1c7
 13143 09:3FC1: B7 14        	lda	[<L265+pWin_0],Y
 13144 09:3FC3: 85 03        	sta	<R0+2
 13145 09:3FC5: 22 xx xx xx  	jsl	~~k_font_getFontWidth
 13146 09:3FC9: A0 02 00     	ldy	#$2
 13147 09:3FCC: 97 01        	sta	[<R0],Y
 13148                        	.line	819
 13149 09:3FCE: A0 C5 01     	ldy	#$1c5
 13150 09:3FD1: B7 14        	lda	[<L265+pWin_0],Y
 13151 09:3FD3: 85 01        	sta	<R0
 13152 09:3FD5: A0 C7 01     	ldy	#$1c7
 13153 09:3FD8: B7 14        	lda	[<L265+pWin_0],Y
 13154 09:3FDA: 85 03        	sta	<R0+2
 13155 09:3FDC: 22 xx xx xx  	jsl	~~k_font_getFontHeight
 13156 09:3FE0: A0 04 00     	ldy	#$4
 13157 09:3FE3: 97 01        	sta	[<R0],Y
 13158                        	.line	823
 13159 09:3FE5: F4 09 00     	pea	#^~~foreach_render_file
 13160 09:3FE8: F4 C8 2B     	pea	#<~~foreach_render_file
 13161 09:3FEB: D4 16        	pei	<L265+pWin_0+2
 13162 09:3FED: D4 14        	pei	<L265+pWin_0
 13163 09:3FEF: A0 C5 01     	ldy	#$1c5
 13164 09:3FF2: B7 14        	lda	[<L265+pWin_0],Y
 13165 09:3FF4: 85 01        	sta	<R0
 13166 09:3FF6: A0 C7 01     	ldy	#$1c7
 13167 09:3FF9: B7 14        	lda	[<L265+pWin_0],Y
 13168 09:3FFB: 85 03        	sta	<R0+2
 13169 09:3FFD: A0 16 00     	ldy	#$16
 13170 09:4000: B7 01        	lda	[<R0],Y
 13171 09:4002: 48           	pha
 13172 09:4003: A0 14 00     	ldy	#$14
 13173 09:4006: B7 01        	lda	[<R0],Y
 13174 09:4008: 48           	pha
 13175 09:4009: 22 xx xx xx  	jsl	~~k_nodelist_foreach_listdata
 13176                        	.line	824
 13177                        L10274:
 13178                        	.line	826
 13179                        L10273:
 13180                        	.line	828
 13181                        L273:
 13182 09:400D: A5 0E        	lda	<L265+2
 13183 09:400F: 85 18        	sta	<L265+2+10
 13184 09:4011: A5 0D        	lda	<L265+1
 13185 09:4013: 85 17        	sta	<L265+1+10
 13186 09:4015: 2B           	pld
 13187 09:4016: 3B           	tsc
 13188 09:4017: 18           	clc
  Mon Sep 27 2021  9:39                                                Page 276


 13189 09:4018: 69 16 00     	adc	#L265+10
 13190 09:401B: 1B           	tcs
 13191 09:401C: 6B           	rtl
 13192                        	.endblock	828
 13193             0000000C   L265	equ	12
 13194             00000009   L266	equ	9
 13195 09:401D:              	ends
 13196                        	efunc
 13197                        	.endfunc	828,9,12
 13198                        	.line	828
 13199                        	data
 13200                        L264:
 13201 00:18FF: 64 65 73 6B  	db	$64,$65,$73,$6B,$74,$6F,$70,$56,$6F,$6C,
                    $73,$57,$69,$6E,$64
       00:1903: 74 6F 70 56 
       00:1907: 6F 6C 73 57 
       00:190B: 69 6E 64 
 13202 00:190E: 6F 77 50 72  	db	$6F,$77,$50,$72,$6F,$63,$3A,$3A,$68,$69,
                    $67,$68,$6C,$69,$67
       00:1912: 6F 63 3A 3A 
       00:1916: 68 69 67 68 
       00:191A: 6C 69 67 
 13203 00:191D: 68 74 52 6F  	db	$68,$74,$52,$6F,$77,$3A,$72,$6F,$77,$3A,
                    $00
       00:1921: 77 3A 72 6F 
       00:1925: 77 3A 00 
 13204 00:1928:              	ends
 13205                        	.line	830
 13206                        	.line	831
 13207                        	DTOP
 13208                        	xdef	~~handleFileType
 13209                        	func
 13210                        	.function	831
 13211                        ~~handleFileType:
 13212                        	longa	on
 13213                        	longi	on
 13214 09:401D: 3B           	tsc
 13215 09:401E: 38           	sec
 13216 09:401F: E9 05 00     	sbc	#L275
 13217 09:4022: 1B           	tcs
 13218 09:4023: 0B           	phd
 13219 09:4024: 5B           	tcd
 13220             00000004   fileName_0	set	4
 13221                        	.block	831
 13222             00000000   fxs_1	set	0
 13223             00000004   bRet_1	set	4
 13224                        	.sym	fxs,0,138,1,32,52
 13225                        	.sym	bRet,4,14,1,8
 13226                        	.sym	fileName,4,142,6,32
 13227 09:4025: 64 01        	stz	<L276+fxs_1
 13228 09:4027: 64 03        	stz	<L276+fxs_1+2
 13229 09:4029: E2 20        	sep	#$20
 13230                        	longa	off
 13231 09:402B: 64 05        	stz	<L276+bRet_1
 13232 09:402D: C2 20        	rep	#$20
 13233                        	longa	on
 13234                        	.line	835
 13235 09:402F: F4 xx xx     	pea	#^L274
  Mon Sep 27 2021  9:39                                                Page 277


 13236 09:4032: F4 xx xx     	pea	#<L274
 13237 09:4035: D4 0B        	pei	<L275+fileName_0+2
 13238 09:4037: D4 09        	pei	<L275+fileName_0
 13239 09:4039: 22 xx xx xx  	jsl	~~k_string_ends_with
 13240 09:403D: E2 20        	sep	#$20
 13241                        	longa	off
 13242 09:403F: 85 05        	sta	<L276+bRet_1
 13243 09:4041: C2 20        	rep	#$20
 13244                        	longa	on
 13245                        	.line	836
 13246 09:4043: A5 05        	lda	<L276+bRet_1
 13247 09:4045: 29 FF 00     	and	#$ff
 13248 09:4048: 48           	pha
 13249 09:4049: F4 xx xx     	pea	#^L274+4
 13250 09:404C: F4 xx xx     	pea	#<L274+4
 13251 09:404F: 22 xx xx xx  	jsl	~~k_debug_integer
 13252                        	.line	837
 13253 09:4053: A5 05        	lda	<L276+bRet_1
 13254 09:4055: 29 FF 00     	and	#$ff
 13255 09:4058: D0 03        	bne	L278
 13256 09:405A: 82 4E 00     	brl	L10275
 13257                        L278:
 13258                        	.line	838
 13259                        	.line	839
 13260 09:405D: F4 00 01     	pea	#<$100
 13261 09:4060: F4 xx xx     	pea	#^L274+12
 13262 09:4063: F4 xx xx     	pea	#<L274+12
 13263 09:4066: 22 xx xx xx  	jsl	~~k_fxstring_new
 13264 09:406A: 85 01        	sta	<L276+fxs_1
 13265 09:406C: 86 03        	stx	<L276+fxs_1+2
 13266                        	.line	841
 13267 09:406E: D4 0B        	pei	<L275+fileName_0+2
 13268 09:4070: D4 09        	pei	<L275+fileName_0
 13269 09:4072: D4 03        	pei	<L276+fxs_1+2
 13270 09:4074: D4 01        	pei	<L276+fxs_1
 13271 09:4076: 22 xx xx xx  	jsl	~~k_fxstring_add
 13272                        	.line	843
 13273 09:407A: A0 06 00     	ldy	#$6
 13274 09:407D: B7 01        	lda	[<L276+fxs_1],Y
 13275 09:407F: 48           	pha
 13276 09:4080: A0 04 00     	ldy	#$4
 13277 09:4083: B7 01        	lda	[<L276+fxs_1],Y
 13278 09:4085: 48           	pha
 13279 09:4086: F4 xx xx     	pea	#^L274+17
 13280 09:4089: F4 xx xx     	pea	#<L274+17
 13281 09:408C: 22 xx xx xx  	jsl	~~k_debug_strings
 13282                        	.line	845
 13283 09:4090: A0 06 00     	ldy	#$6
 13284 09:4093: B7 01        	lda	[<L276+fxs_1],Y
 13285 09:4095: 48           	pha
 13286 09:4096: A0 04 00     	ldy	#$4
 13287 09:4099: B7 01        	lda	[<L276+fxs_1],Y
 13288 09:409B: 48           	pha
 13289 09:409C: 22 xx xx xx  	jsl	~~k_user_CreateProcess
 13290                        	.line	847
 13291 09:40A0: D4 03        	pei	<L276+fxs_1+2
 13292 09:40A2: D4 01        	pei	<L276+fxs_1
 13293 09:40A4: 22 xx xx xx  	jsl	~~k_fxstring_free
  Mon Sep 27 2021  9:39                                                Page 278


 13294                        	.line	848
 13295 09:40A8: 82 16 00     	brl	L10276
 13296                        L10275:
 13297                        	.line	850
 13298                        	.line	851
 13299 09:40AB: F4 64 00     	pea	#<$64
 13300 09:40AE: F4 64 00     	pea	#<$64
 13301 09:40B1: F4 00 00     	pea	#<$0
 13302 09:40B4: F4 xx xx     	pea	#^L274+47
 13303 09:40B7: F4 xx xx     	pea	#<L274+47
 13304 09:40BA: F4 06 00     	pea	#<$6
 13305 09:40BD: 22 xx xx xx  	jsl	~~k_user_CreateMsgBox
 13306                        	.line	852
 13307                        L10276:
 13308                        	.line	853
 13309 09:40C1: A9 00 00     	lda	#$0
 13310                        L279:
 13311 09:40C4: A8           	tay
 13312 09:40C5: A5 07        	lda	<L275+2
 13313 09:40C7: 85 0B        	sta	<L275+2+4
 13314 09:40C9: A5 06        	lda	<L275+1
 13315 09:40CB: 85 0A        	sta	<L275+1+4
 13316 09:40CD: 2B           	pld
 13317 09:40CE: 3B           	tsc
 13318 09:40CF: 18           	clc
 13319 09:40D0: 69 09 00     	adc	#L275+4
 13320 09:40D3: 1B           	tcs
 13321 09:40D4: 98           	tya
 13322 09:40D5: 6B           	rtl
 13323                        	.line	854
 13324                        	.endblock	854
 13325             00000005   L275	equ	5
 13326             00000001   L276	equ	1
 13327 09:40D6:              	ends
 13328                        	efunc
 13329                        	.endfunc	854,1,5
 13330                        	.line	854
 13331                        	data
 13332                        L274:
 13333 00:1928: 46 58 41 00  	db	$46,$58,$41,$00,$49,$53,$20,$46,$58,$41,
                    $3A,$00,$48,$44,$3A
       00:192C: 49 53 20 46 
       00:1930: 58 41 3A 00 
       00:1934: 48 44 3A 
 13334 00:1937: 5C 00 68 61  	db	$5C,$00,$68,$61,$6E,$64,$6C,$65,$46,$69,
                    $6C,$65,$54,$79,$70
       00:193B: 6E 64 6C 65 
       00:193F: 46 69 6C 65 
       00:1943: 54 79 70 
 13335 00:1946: 65 3A 3A 44  	db	$65,$3A,$3A,$44,$45,$54,$45,$43,$54,$45,
                    $44,$20,$46,$58,$41
       00:194A: 45 54 45 43 
       00:194E: 54 45 44 20 
       00:1952: 46 58 41 
 13336 00:1955: 3A 00 43 61  	db	$3A,$00,$43,$61,$6E,$6E,$6F,$74,$20,$6F,
                    $70,$65,$6E,$20,$75
       00:1959: 6E 6E 6F 74 
       00:195D: 20 6F 70 65 
  Mon Sep 27 2021  9:39                                                Page 279


       00:1961: 6E 20 75 
 13337 00:1964: 6E 6B 6E 6F  	db	$6E,$6B,$6E,$6F,$77,$6E,$20,$66,$69,$6C,
                    $65,$20,$74,$79,$70
       00:1968: 77 6E 20 66 
       00:196C: 69 6C 65 20 
       00:1970: 74 79 70 
 13338 00:1973: 65 2E 00     	db	$65,$2E,$00
 13339 00:1976:              	ends
 13340                        	.line	854
 13341                        	.file	"G:\devprojects\c256Foenix\fxos\FXOSWork
                    space\FXOS-Beta\src\fxos_desktop_proc.c",1946
 13342                        ;
 13343                        	.line	1946
 13344                        	xref	~~AboutPaletteWindowProc
 13345                        	xref	~~k_dos_findfiles_to_nodes
 13346                        	xref	~~k_close_dos_device
 13347                        	xref	~~k_send_window_message
 13348                        	xref	~~k_attach_process_events
 13349                        	xref	~~debug_clickable_node
 13350                        	xref	~~debug_window_node
 13351                        	xref	~~_k_user_send_child_message
 13352                        	xref	~~k_switch_window_page
 13353                        	xref	~~listboxWindowProc
 13354                        	xref	~~DefWindowProc
 13355                        	xref	~~k_user_GetMouseClientPoint
 13356                        	xref	~~k_user_DrawWindowTextToPointWithFont
 13357                        	xref	~~k_user_CreateMsgBox
 13358                        	xref	~~k_user_CreateVerticalScrollBar
 13359                        	xref	~~k_user_CreateTextBox
 13360                        	xref	~~k_user_SendMenuAccelerator
 13361                        	xref	~~k_user_SetMenuState
 13362                        	xref	~~k_user_SetMenuItemAttribute
 13363                        	xref	~~k_user_AddMenuItem
 13364                        	xref	~~k_user_CreateMenuResource
 13365                        	xref	~~k_user_HighlightMenu
 13366                        	xref	~~k_user_SelectMenu
 13367                        	xref	~~k_user_CloseMenu
 13368                        	xref	~~k_user_CreateMenu
 13369                        	xref	~~k_user_setMousePointer
 13370                        	xref	~~k_user_getFontClass
 13371                        	xref	~~k_user_DestroyWindow
 13372                        	xref	~~k_user_CloseWindow
 13373                        	xref	~~k_user_GetWindowData
 13374                        	xref	~~k_user_SetWindowData
 13375                        	xref	~~k_user_CreateWindow
 13376                        	xref	~~k_user_CreateWindowClassEx
 13377                        	xref	~~k_user_CreateWindowClass
 13378                        	xref	~~k_user_getSystemMetric
 13379                        	xref	~~k_user_findWindow
 13380                        	xref	~~k_user_getDesktopWindow
 13381                        	xref	~~k_getHandleFromWindow
 13382                        	xref	~~k_getWindowFromHandle
 13383                        	xref	~~k_getWindowList
 13384                        	xref	~~k_getWindowHitList
 13385                        	xref	~~k_gui_init_mousepointer
 13386                        	xref	~~k_font_getFontWidth
 13387                        	xref	~~k_font_getFontHeight
 13388                        	xref	~~k_create_ui_window_class
  Mon Sep 27 2021  9:39                                                Page 280


 13389                        	xref	~~k_vdma_copy_address_ex
 13390                        	xref	~~k_vdma_fill_rect_ex
 13391                        	xref	~~k_put_winicon_point
 13392                        	xref	~~k_gui_DrawWidget
 13393                        	xref	~~k_gui_DrawText
 13394                        	xref	~~k_draw_text_point
 13395                        	xref	~~k_draw_rect
 13396                        	xref	~~k_draw_rect_slow
 13397                        	xref	~~defineGrayPalette
 13398                        	xref	~~setColors
 13399                        	xref	~~k_init_desktop
 13400                        	xref	~~k_gui_get_pixel_offset
 13401                        	xref	~~k_getUIGadgetColor
 13402                        	xref	~~k_getUIMenuColor
 13403                        	xref	~~k_getUIBackgroundColor
 13404                        	xref	~~k_mem_deallocate_heap
 13405                        	xref	~~k_mem_allocate_heap
 13406                        	xref	~~k_exec_enable_process_timer
 13407                        	xref	~~k_exec_get_current_process
 13408                        	xref	~~k_user_CreateProcess
 13409                        	xref	~~k_exec_set_process_foreground
 13410                        	xref	~~k_exec_launchProcess
 13411                        	xref	~~f_mount
 13412                        	xref	~~f_getlabel
 13413                        	xref	~~f_rename
 13414                        	xref	~~f_mkdir
 13415                        	xref	~~f_findnext
 13416                        	xref	~~f_findfirst
 13417                        	xref	~~f_readdir
 13418                        	xref	~~f_closedir
 13419                        	xref	~~f_opendir
 13420                        	xref	~~f_lseek
 13421                        	xref	~~f_read
 13422                        	xref	~~f_close
 13423                        	xref	~~f_open
 13424                        	xref	~~ObjectClicked
 13425                        	xref	~~k_user_DisableOSDebug
 13426                        	xref	~~k_user_EnableOSDebug
 13427                        	xref	~~k_user_IsOSDebug
 13428                        	xref	~~k_debug_nodelist_with_data
 13429                        	xref	~~k_debug_rect
 13430                        	xref	~~k_debug_nstrings
 13431                        	xref	~~k_debug_strings
 13432                        	xref	~~k_debug_message
 13433                        	xref	~~k_debug_hex
 13434                        	xref	~~k_debug_long
 13435                        	xref	~~k_debug_integer
 13436                        	xref	~~k_debug_pointer
 13437                        	xref	~~k_debug_char
 13438                        	xref	~~k_debug_string
 13439                        	xref	~~k_nodelist_foreach_listdata
 13440                        	xref	~~k_nodelist_getfirstnode
 13441                        	xref	~~k_nodelist_deallocate_list
 13442                        	xref	~~k_nodelist_get
 13443                        	xref	~~k_to_uppercase
 13444                        	xref	~~k_fxstring_ends_with
 13445                        	xref	~~k_string_copy_string
 13446                        	xref	~~k_string_ends_with
  Mon Sep 27 2021  9:39                                                Page 281


 13447                        	xref	~~k_longtosize
 13448                        	xref	~~k_longtodec
 13449                        	xref	~~k_replace_padding_until
 13450                        	xref	~~k_fxstring_as
 13451                        	xref	~~k_fxstring_add
 13452                        	xref	~~k_fxstring_free
 13453                        	xref	~~k_fxstring_new
 13454                        	xref	~~strlen
 13455                        	xref	~~strcpy
 13456                        	xref	~~strcmp
 13457                        	xref	~~strcat
 13458                        	xref	~~memset
 13459                        	udata
 13460                        	xdef	~~popupMessage
 13461                        ~~popupMessage
 13462 00:0000:              	ds	64
 13463 00:0040:              	ends
 13464                        	udata
 13465                        	xdef	~~_k_loadmodule
 13466                        ~~_k_loadmodule
 13467 00:0040:              	ds	20
 13468 00:0054:              	ends
 13469                        	.sym	~~foreach_render_file,~~foreach_render_f
                    ile,65,2,0
 13470                        	.sym	~~foreach_file,~~foreach_file,65,2,0
 13471                        	.sym	~~selectionChanged,~~selectionChanged,14
                    ,2,8
 13472                        	.sym	~~popupMessage,~~popupMessage,110,2,0,64
 13473                        	.sym	PVOLCONTENT,0,138,14,32,133
 13474                        	.sym	VOLCONTENT,0,10,14,320,133
 13475                        	.sym	~~handleFileType,~~handleFileType,78,2,0
 13476                        	.sym	~~selectRow,~~selectRow,65,2,0
 13477                        	.sym	~~highlightRow,~~highlightRow,65,2,0
 13478                        	.sym	DLLMAIN,0,641,14,32
 13479                        	.sym	~~_k_loadmodule,~~_k_loadmodule,10,2,160
                    ,58
 13480                        	.sym	FXWINMAIN,0,641,14,32
 13481                        	.sym	~~ConsoleWindowProc,~~ConsoleWindowProc,
                    78,2,0
 13482                        	.sym	~~k_createNewFile,~~k_createNewFile,65,2
                    ,0
 13483                        	.sym	~~testFileSystems,~~testFileSystems,65,2
                    ,0
 13484                        	.sym	~~testNewFolder,~~testNewFolder,65,2,0
 13485                        	.sym	~~testRename,~~testRename,65,2,0
 13486                        	.sym	~~testRelabel,~~testRelabel,65,2,0
 13487                        	.sym	~~AboutPaletteWindowProc,~~AboutPaletteW
                    indowProc,78,18,0
 13488                        	.sym	~~cIndexDebugWindow,~~cIndexDebugWindow,
                    16,3,16
 13489                        	.sym	~~_k_desktopMenuState,~~_k_desktopMenuSt
                    ate,10,3,128,132
 13490                        	.sym	PDESKTOP_MENU_STATE,0,138,14,32,132
 13491                        	.sym	DESKTOP_MENU_STATE,0,10,14,128,132
 13492                        	.sym	~~k_dos_findfiles_to_nodes,~~k_dos_findf
                    iles_to_nodes,1098,18,32,3
 13493                        	.sym	FILE,0,138,14,32,131
 13494                        	.sym	FILE_POINTER,0,10,14,112,131
  Mon Sep 27 2021  9:39                                                Page 282


 13495                        	.sym	~~k_close_dos_device,~~k_close_dos_devic
                    e,78,18,0
 13496                        	.sym	PDOSHANDLE,0,138,14,32,130
 13497                        	.sym	DOSHANDLE,0,10,14,80,130
 13498                        	.sym	PFXDOSDEVICE,0,138,14,32,128
 13499                        	.sym	FXDOSDEVICE,0,10,14,5744,128
 13500                        	.sym	DOSINITDEVICE,0,641,14,32
 13501                        	.sym	DOSSECTORWRITER,0,654,14,32
 13502                        	.sym	DOSSECTORREADER,0,654,14,32
 13503                        	.sym	PIDENTIFY_DEVICE_DATA,0,138,14,32,127
 13504                        	.sym	IDENTIFY_DEVICE_DATA,0,10,14,4096,127
 13505                        	.sym	PIDSECTOR,0,138,14,32,104
 13506                        	.sym	IDSECTOR,0,10,14,2048,104
 13507                        	.sym	PLFN,0,138,14,32,103
 13508                        	.sym	LFN,0,10,14,256,103
 13509                        	.sym	PFAT16ENTRYLONG,0,138,14,32,102
 13510                        	.sym	FAT16ENTRYLONG,0,10,14,288,102
 13511                        	.sym	PFAT16ENTRY,0,138,14,32,101
 13512                        	.sym	FAT16ENTRY,0,10,14,256,101
 13513                        	.sym	Fat16BootSector,0,10,14,4096,100
 13514                        	.sym	PPARTITIONTABLE,0,138,14,32,99
 13515                        	.sym	PARTITIONTABLE,0,10,14,128,99
 13516                        	.sym	PFATBOOTSECTOR,0,138,14,32,98
 13517                        	.sym	FATBOOTSECTOR,0,10,14,928,98
 13518                        	.sym	fat_BS_t,0,10,14,688,97
 13519                        	.sym	fat_extBS_16_t,0,10,14,192,96
 13520                        	.sym	PFAT32EXT,0,138,14,32,95
 13521                        	.sym	fat_extBS_32_t,0,10,14,416,95
 13522                        	.sym	P_FX_FAT_DIR_INFO,0,138,14,32,94
 13523                        	.sym	FX_FAT_DIR_INFO,0,10,14,256,94
 13524                        	.sym	PFILEINFO,0,138,14,32,93
 13525                        	.sym	FILEINFO,0,10,14,136,93
 13526                        	.sym	PDISKINFO,0,138,14,32,92
 13527                        	.sym	DISKINFO,0,10,14,416,92
 13528                        	.sym	PDIRENTRY,0,138,14,32,91
 13529                        	.sym	DIRENTRY,0,10,14,256,91
 13530                        	.sym	DRESULT,0,5,14,16
 13531                        	.sym	DSTATUS,0,14,14,8
 13532                        	.sym	~~desktopVolsWindowProc,~~desktopVolsWin
                    dowProc,78,2,0
 13533                        	.sym	~~preferencesWindowProc,~~preferencesWin
                    dowProc,78,2,0
 13534                        	.sym	~~TextWindowProc,~~TextWindowProc,78,2,0
 13535                        	.sym	~~k_user_DisplayVolWindow,~~k_user_Displ
                    ayVolWindow,65,2,0
 13536                        	.sym	~~DesktopWindowProc,~~DesktopWindowProc,
                    78,2,0
 13537                        	.sym	~~DesktopEnvironmentProc,~~DesktopEnviro
                    nmentProc,65,2,0
 13538                        	.sym	PTEXTVIEWDATA,0,138,14,32,90
 13539                        	.sym	TEXTVIEWDATA,0,10,14,32,90
 13540                        	.sym	HCLIP,0,138,14,32,89
 13541                        	.sym	PCLIPBOARD_DATA,0,138,14,32,89
 13542                        	.sym	CLIPBOARD_DATA,0,10,14,168,89
 13543                        	.sym	~~k_send_window_message,~~k_send_window_
                    message,78,18,0
 13544                        	.sym	~~k_attach_process_events,~~k_attach_pro
                    cess_events,69,18,0
  Mon Sep 27 2021  9:39                                                Page 283


 13545                        	.sym	PEVENTMANAGER,0,138,14,32,88
 13546                        	.sym	EVENTMANAGER,0,10,14,192,88
 13547                        	.sym	EV_RUN,0,656,14,32
 13548                        	.sym	EV_QUERY_METRIC,0,656,14,32
 13549                        	.sym	EV_CONFIGURE,0,656,14,32
 13550                        	.sym	EV_UNINIT,0,641,14,32
 13551                        	.sym	EV_INIT,0,8833,14,32
 13552                        	.sym	PMOUSE_MSG_STATE,0,138,14,32,87
 13553                        	.sym	MOUSE_MSG_STATE,0,10,14,184,87
 13554                        	.sym	PFXEVENTPROCESS,0,138,14,32,86
 13555                        	.sym	FXEVENTPROCESS,0,10,14,64,86
 13556                        	.sym	FXASYNCPROCESS,0,641,14,32
 13557                        	.sym	PMARSHALDATA,0,139,14,32,85
 13558                        	.sym	MARSHALDATA,0,11,14,32,85
 13559                        	.sym	FXIDLEPROCESS,0,641,14,32
 13560                        	.sym	FXEventProc,0,641,14,32
 13561                        	.sym	PMOUSEMSGDATA,0,138,14,32,84
 13562                        	.sym	MOUSEMSGDATA,0,10,14,64,84
 13563                        	.sym	MSGIRQ,0,5,14,16
 13564                        	.sym	MAINLOOPARGS,0,10,14,16,83
 13565                        	.sym	~~debug_clickable_node,~~debug_clickable
                    _node,65,18,0
 13566                        	.sym	~~debug_window_node,~~debug_window_node,
                    65,18,0
 13567                        	.sym	~~_k_user_send_child_message,~~_k_user_s
                    end_child_message,78,18,0
 13568                        	.sym	PEACHCHILD_MSG,0,138,14,32,82
 13569                        	.sym	EACHCHILD_MSG,0,10,14,64,82
 13570                        	.sym	~~k_switch_window_page,~~k_switch_window
                    _page,65,18,0
 13571                        	.sym	~~listboxWindowProc,~~listboxWindowProc,
                    78,18,0
 13572                        	.sym	~~DefWindowProc,~~DefWindowProc,78,18,0
 13573                        	.sym	~~k_user_GetMouseClientPoint,~~k_user_Ge
                    tMouseClientPoint,1098,18,32,22
 13574                        	.sym	~~k_user_DrawWindowTextToPointWithFont,~
                    ~k_user_DrawWindowTextToPointWithFont,80,18,0
 13575                        	.sym	~~k_user_CreateMsgBox,~~k_user_CreateMsg
                    Box,1098,18,32,30
 13576                        	.sym	PMSGBOX_DATA,0,138,14,32,81
 13577                        	.sym	MSGBOX_DATA,0,10,14,96,81
 13578                        	.sym	PDESKTOP_DATA,0,138,14,32,80
 13579                        	.sym	DESKTOP_DATA,0,10,14,64,80
 13580                        	.sym	~~k_user_CreateVerticalScrollBar,~~k_use
                    r_CreateVerticalScrollBar,1098,18,32,30
 13581                        	.sym	~~k_user_CreateTextBox,~~k_user_CreateTe
                    xtBox,1098,18,32,30
 13582                        	.sym	~~k_user_SendMenuAccelerator,~~k_user_Se
                    ndMenuAccelerator,1089,18,32
 13583                        	.sym	~~k_user_SetMenuState,~~k_user_SetMenuSt
                    ate,78,18,0
 13584                        	.sym	~~k_user_SetMenuItemAttribute,~~k_user_S
                    etMenuItemAttribute,65,18,0
 13585                        	.sym	~~k_user_AddMenuItem,~~k_user_AddMenuIte
                    m,1089,18,32
 13586                        	.sym	~~k_user_CreateMenuResource,~~k_user_Cre
                    ateMenuResource,1089,18,32
 13587                        	.sym	~~k_user_HighlightMenu,~~k_user_Highligh
  Mon Sep 27 2021  9:39                                                Page 284


                    tMenu,65,18,0
 13588                        	.sym	~~k_user_SelectMenu,~~k_user_SelectMenu,
                    65,18,0
 13589                        	.sym	~~k_user_CloseMenu,~~k_user_CloseMenu,65
                    ,18,0
 13590                        	.sym	~~k_user_CreateMenu,~~k_user_CreateMenu,
                    1098,18,32,30
 13591                        	.sym	~~k_user_setMousePointer,~~k_user_setMou
                    sePointer,1089,18,32
 13592                        	.sym	~~k_user_getFontClass,~~k_user_getFontCl
                    ass,1089,18,32
 13593                        	.sym	~~k_user_DestroyWindow,~~k_user_DestroyW
                    indow,78,18,0
 13594                        	.sym	~~k_user_CloseWindow,~~k_user_CloseWindo
                    w,78,18,0
 13595                        	.sym	~~k_user_GetWindowData,~~k_user_GetWindo
                    wData,1089,18,32
 13596                        	.sym	~~k_user_SetWindowData,~~k_user_SetWindo
                    wData,1089,18,32
 13597                        	.sym	~~k_user_CreateWindow,~~k_user_CreateWin
                    dow,1098,18,32,30
 13598                        	.sym	~~k_user_CreateWindowClassEx,~~k_user_Cr
                    eateWindowClassEx,1098,18,32,26
 13599                        	.sym	~~k_user_CreateWindowClass,~~k_user_Crea
                    teWindowClass,1098,18,32,26
 13600                        	.sym	~~k_user_getSystemMetric,~~k_user_getSys
                    temMetric,69,18,0
 13601                        	.sym	~~k_user_findWindow,~~k_user_findWindow,
                    1089,18,32
 13602                        	.sym	~~k_user_getDesktopWindow,~~k_user_getDe
                    sktopWindow,1089,18,32
 13603                        	.sym	~~k_getHandleFromWindow,~~k_getHandleFro
                    mWindow,1089,18,32
 13604                        	.sym	~~k_getWindowFromHandle,~~k_getWindowFro
                    mHandle,1098,18,32,30
 13605                        	.sym	~~k_getWindowList,~~k_getWindowList,1098
                    ,18,32,2
 13606                        	.sym	~~k_getWindowHitList,~~k_getWindowHitLis
                    t,1098,18,32,2
 13607                        	.sym	PWINDOWMANAGER,0,138,14,32,79
 13608                        	.sym	WINDOWMANAGER,0,10,14,160,79
 13609                        	.sym	WM_DOPROCS,0,641,14,32
 13610                        	.sym	WM_QUERY_METRIC,0,656,14,32
 13611                        	.sym	WM_CONFIGURE,0,656,14,32
 13612                        	.sym	WM_HANDLE_EVENT,0,8833,14,32
 13613                        	.sym	WM_EVENTS,0,641,14,32
 13614                        	.sym	~~k_gui_init_mousepointer,~~k_gui_init_m
                    ousepointer,65,18,0
 13615                        	.sym	~~k_font_getFontWidth,~~k_font_getFontWi
                    dth,80,18,0
 13616                        	.sym	~~k_font_getFontHeight,~~k_font_getFontH
                    eight,80,18,0
 13617                        	.sym	~~k_create_ui_window_class,~~k_create_ui
                    _window_class,1098,18,32,30
 13618                        	.sym	~~k_vdma_copy_address_ex,~~k_vdma_copy_a
                    ddress_ex,65,18,0
 13619                        	.sym	~~k_vdma_fill_rect_ex,~~k_vdma_fill_rect
                    _ex,65,18,0
  Mon Sep 27 2021  9:39                                                Page 285


 13620                        	.sym	~~k_put_winicon_point,~~k_put_winicon_po
                    int,69,18,0
 13621                        	.sym	~~k_gui_DrawWidget,~~k_gui_DrawWidget,69
                    ,18,0
 13622                        	.sym	~~k_gui_DrawText,~~k_gui_DrawText,69,18,
                    0
 13623                        	.sym	~~k_draw_text_point,~~k_draw_text_point,
                    69,18,0
 13624                        	.sym	~~k_draw_rect,~~k_draw_rect,65,18,0
 13625                        	.sym	~~k_draw_rect_slow,~~k_draw_rect_slow,65
                    ,18,0
 13626                        	.sym	~~defineGrayPalette,~~defineGrayPalette,
                    65,18,0
 13627                        	.sym	~~setColors,~~setColors,65,18,0
 13628                        	.sym	~~k_init_desktop,~~k_init_desktop,65,18,
                    0
 13629                        	.sym	~~k_gui_get_pixel_offset,~~k_gui_get_pix
                    el_offset,71,18,0
 13630                        	.sym	~~k_getUIGadgetColor,~~k_getUIGadgetColo
                    r,69,18,0
 13631                        	.sym	~~k_getUIMenuColor,~~k_getUIMenuColor,69
                    ,18,0
 13632                        	.sym	~~k_getUIBackgroundColor,~~k_getUIBackgr
                    oundColor,69,18,0
 13633                        	.sym	PCUR_PALETTE_MAP,0,138,14,32,78
 13634                        	.sym	CUR_PALETTE_MAP,0,10,14,400,78
 13635                        	.sym	PCLICKDETECTED,0,138,14,32,77
 13636                        	.sym	CLICKDETECTED,0,10,14,64,77
 13637                        	.sym	OBJECTCLICKED,0,641,14,32
 13638                        	.sym	PALLOCATIONHEADER,0,138,14,32,76
 13639                        	.sym	ALLOCATIONHEADER,0,10,14,80,76
 13640                        	.sym	PIPCPORT,0,138,14,32,75
 13641                        	.sym	IPCPORT,0,10,14,144,75
 13642                        	.sym	~~k_mem_deallocate_heap,~~k_mem_dealloca
                    te_heap,65,18,0
 13643                        	.sym	~~k_mem_allocate_heap,~~k_mem_allocate_h
                    eap,1089,18,32
 13644                        	.sym	MemoryCallback,0,641,14,32
 13645                        	.sym	PFXMEMORYMAP,0,138,14,32,74
 13646                        	.sym	FXMEMORYMAP,0,10,14,2072,74
 13647                        	.sym	UMM_HEAP_INFO,0,10,14,256,73
 13648                        	.sym	~~k_exec_enable_process_timer,~~k_exec_e
                    nable_process_timer,82,18,0
 13649                        	.sym	~~k_exec_get_current_process,~~k_exec_ge
                    t_current_process,1098,18,32,17
 13650                        	.sym	~~k_user_CreateProcess,~~k_user_CreatePr
                    ocess,1098,18,32,17
 13651                        	.sym	~~k_exec_set_process_foreground,~~k_exec
                    _set_process_foreground,65,18,0
 13652                        	.sym	~~k_exec_launchProcess,~~k_exec_launchPr
                    ocess,1098,18,32,17
 13653                        	.sym	PEXECUTIVE,0,138,14,32,72
 13654                        	.sym	EXECUTIVE,0,10,14,128,72
 13655                        	.sym	EX_QUERY_METRIC,0,656,14,32
 13656                        	.sym	EX_CONFIGURE,0,656,14,32
 13657                        	.sym	EX_UNINIT,0,641,14,32
 13658                        	.sym	EX_INIT,0,8833,14,32
 13659                        	.sym	~~f_mount,~~f_mount,69,18,0
  Mon Sep 27 2021  9:39                                                Page 286


 13660                        	.sym	~~f_getlabel,~~f_getlabel,69,18,0
 13661                        	.sym	~~f_rename,~~f_rename,69,18,0
 13662                        	.sym	~~f_mkdir,~~f_mkdir,69,18,0
 13663                        	.sym	~~f_findnext,~~f_findnext,69,18,0
 13664                        	.sym	~~f_findfirst,~~f_findfirst,69,18,0
 13665                        	.sym	~~f_readdir,~~f_readdir,69,18,0
 13666                        	.sym	~~f_closedir,~~f_closedir,69,18,0
 13667                        	.sym	~~f_opendir,~~f_opendir,69,18,0
 13668                        	.sym	~~f_lseek,~~f_lseek,69,18,0
 13669                        	.sym	~~f_read,~~f_read,69,18,0
 13670                        	.sym	~~f_close,~~f_close,69,18,0
 13671                        	.sym	~~f_open,~~f_open,69,18,0
 13672                        	.sym	FRESULT,0,5,14,16
 13673                        	.sym	MKFS_PARM,0,10,14,80,71
 13674                        	.sym	FILINFO,0,10,14,2224,70
 13675                        	.sym	DIR,0,10,14,416,69
 13676                        	.sym	FIL,0,10,14,4400,68
 13677                        	.sym	FFOBJID,0,10,14,128,67
 13678                        	.sym	FATFS,0,10,14,4504,66
 13679                        	.sym	LBA_t,0,18,14,32
 13680                        	.sym	FSIZE_t,0,18,14,32
 13681                        	.sym	TCHAR,0,14,14,8
 13682                        	.sym	~~ObjectClicked,~~ObjectClicked,65,18,0
 13683                        	.sym	PCOMMANDARGS,0,138,14,32,65
 13684                        	.sym	COMMANDARGS,0,10,14,64,65
 13685                        	.sym	PTOKENIZESTATE,0,133,14,32
 13686                        	.sym	TOKENIZESTATE,0,5,14,16
 13687                        	.sym	PTOKEN,0,138,14,32,64
 13688                        	.sym	TOKEN,0,10,14,64,64
 13689                        	.sym	PTOKENTYPE,0,133,14,32
 13690                        	.sym	TOKENTYPE,0,5,14,16
 13691                        	.sym	FXCommandHandler,0,656,14,32
 13692                        	.sym	PCONSOLECTX,0,138,14,32,63
 13693                        	.sym	CONSOLECTX,0,10,14,1144,63
 13694                        	.sym	PSPINNERCTX,0,138,14,32,62
 13695                        	.sym	SPINNERCTX,0,10,14,48,62
 13696                        	.sym	PIRQCHAIN,0,138,14,32,61
 13697                        	.sym	IRQCHAIN,0,10,14,128,61
 13698                        	.sym	DEVICEDRIVER_COMMAND,0,654,14,32
 13699                        	.sym	DEVICEDRIVER_UNLOAD,0,654,14,32
 13700                        	.sym	DEVICEDRIVER_WRITE,0,654,14,32
 13701                        	.sym	DEVICEDRIVER_READ,0,654,14,32
 13702                        	.sym	DEVICEDRIVER_LOAD,0,654,14,32
 13703                        	.sym	DEVICEDRIVER_IRQ,0,641,14,32
 13704                        	.sym	PFX_BLOCK_DEVICE_DRIVER,0,138,14,32,60
 13705                        	.sym	FX_BLOCK_DEVICE_DRIVER,0,10,14,808,60
 13706                        	.sym	GETDRIVERDEF,0,8842,14,32,59
 13707                        	.sym	PFX_DEVICE_DRIVER,0,138,14,32,59
 13708                        	.sym	FX_DEVICE_DRIVER,0,10,14,776,59
 13709                        	.sym	~~k_user_DisableOSDebug,~~k_user_Disable
                    OSDebug,65,18,0
 13710                        	.sym	~~k_user_EnableOSDebug,~~k_user_EnableOS
                    Debug,65,18,0
 13711                        	.sym	~~k_user_IsOSDebug,~~k_user_IsOSDebug,78
                    ,18,0
 13712                        	.sym	~~k_debug_nodelist_with_data,~~k_debug_n
                    odelist_with_data,65,18,0
 13713                        	.sym	~~k_debug_rect,~~k_debug_rect,65,18,0
  Mon Sep 27 2021  9:39                                                Page 287


 13714                        	.sym	~~k_debug_nstrings,~~k_debug_nstrings,65
                    ,18,0
 13715                        	.sym	~~k_debug_strings,~~k_debug_strings,65,1
                    8,0
 13716                        	.sym	~~k_debug_message,~~k_debug_message,65,1
                    8,0
 13717                        	.sym	~~k_debug_hex,~~k_debug_hex,65,18,0
 13718                        	.sym	~~k_debug_long,~~k_debug_long,65,18,0
 13719                        	.sym	~~k_debug_integer,~~k_debug_integer,65,1
                    8,0
 13720                        	.sym	~~k_debug_pointer,~~k_debug_pointer,65,1
                    8,0
 13721                        	.sym	~~k_debug_char,~~k_debug_char,65,18,0
 13722                        	.sym	~~k_debug_string,~~k_debug_string,65,18,
                    0
 13723                        	.sym	PSEGMENTHEADER,0,138,14,32,58
 13724                        	.sym	SEGMENTHEADER,0,10,14,160,58
 13725                        	.sym	PDEBUGBYTEBITS,0,138,14,32,57
 13726                        	.sym	DEBUGBYTEBITS,0,10,14,8,57
 13727                        	.sym	PFXENVIRONMENT,0,138,14,32,56
 13728                        	.sym	FXENVIRONMENT,0,10,14,96,56
 13729                        	.sym	PFXZEROPAGE,0,138,14,32,55
 13730                        	.sym	FXZEROPAGE,0,10,14,720,55
 13731                        	.sym	IRQBUFFER,0,10,14,32,54
 13732                        	.sym	KERNELTRAPCALL,0,641,14,32
 13733                        	.sym	PFXKERNEL_API_CALLTABLE,0,138,14,32,53
 13734                        	.sym	FXKERNEL_API_CALLTABLE,0,10,14,8192,53
 13735                        	.sym	~~k_nodelist_foreach_listdata,~~k_nodeli
                    st_foreach_listdata,65,18,0
 13736                        	.sym	FOREACHNODEUNTIL,0,654,14,32
 13737                        	.sym	FOREACHNODE,0,641,14,32
 13738                        	.sym	~~k_nodelist_getfirstnode,~~k_nodelist_g
                    etfirstnode,1098,18,32,2
 13739                        	.sym	~~k_nodelist_deallocate_list,~~k_nodelis
                    t_deallocate_list,65,18,0
 13740                        	.sym	~~k_nodelist_get,~~k_nodelist_get,1098,1
                    8,32,2
 13741                        	.sym	~~k_to_uppercase,~~k_to_uppercase,1102,1
                    8,32
 13742                        	.sym	~~k_fxstring_ends_with,~~k_fxstring_ends
                    _with,78,18,0
 13743                        	.sym	~~k_string_copy_string,~~k_string_copy_s
                    tring,1102,18,32
 13744                        	.sym	~~k_string_ends_with,~~k_string_ends_wit
                    h,78,18,0
 13745                        	.sym	~~k_longtosize,~~k_longtosize,1102,18,32
 13746                        	.sym	~~k_longtodec,~~k_longtodec,1102,18,32
 13747                        	.sym	~~k_replace_padding_until,~~k_replace_pa
                    dding_until,1102,18,32
 13748                        	.sym	~~k_fxstring_as,~~k_fxstring_as,1102,18,
                    32
 13749                        	.sym	~~k_fxstring_add,~~k_fxstring_add,1102,1
                    8,32
 13750                        	.sym	~~k_fxstring_free,~~k_fxstring_free,65,1
                    8,0
 13751                        	.sym	~~k_fxstring_new,~~k_fxstring_new,1098,1
                    8,32,52
 13752                        	.sym	PFXSTRING,0,138,14,32,52
  Mon Sep 27 2021  9:39                                                Page 288


 13753                        	.sym	FXSTRING,0,10,14,64,52
 13754                        	.sym	~~strlen,~~strlen,80,18,0
 13755                        	.sym	~~strcpy,~~strcpy,1102,18,32
 13756                        	.sym	~~strcmp,~~strcmp,69,18,0
 13757                        	.sym	~~strcat,~~strcat,1102,18,32
 13758                        	.sym	~~memset,~~memset,1089,18,32
 13759                        	.sym	Boolean_T,0,5,14,16
 13760                        	.sym	ldiv_t,0,10,14,64,50
 13761                        	.sym	div_t,0,10,14,32,49
 13762                        	.sym	wctype_t,0,16,14,16
 13763                        	.sym	wint_t,0,16,14,16
 13764                        	.sym	wchar_t,0,14,14,8
 13765                        	.sym	ptrdiff_t,0,7,14,32
 13766                        	.sym	size_t,0,16,14,16
 13767                        	.sym	PFXRFHEADER_STRING_ENTRY,0,138,14,32,48
 13768                        	.sym	FXRFHEADER_STRING_ENTRY,0,10,14,40,48
 13769                        	.sym	PFXRFHEADER_STRING,0,138,14,32,47
 13770                        	.sym	FXRFHEADER_STRING,0,10,14,32,47
 13771                        	.sym	PFXRFHEADER_FONT,0,138,14,32,46
 13772                        	.sym	FXRFHEADER_FONT,0,10,14,144,46
 13773                        	.sym	PFXRFHEADER,0,138,14,32,45
 13774                        	.sym	FXRFHEADER,0,10,14,72,45
 13775                        	.sym	PFXCOMBUFFER,0,138,14,32,44
 13776                        	.sym	FXCOMBUFFER,0,10,14,2080,44
 13777                        	.sym	PSUBMENULIST,0,138,14,32,43
 13778                        	.sym	SUBMENULIST,0,10,14,40,43
 13779                        	.sym	HSUBMENU,0,7,14,32
 13780                        	.sym	PSUBMENU,0,138,14,32,42
 13781                        	.sym	SUBMENU,0,10,14,64,42
 13782                        	.sym	MenuAction,0,641,14,32
 13783                        	.sym	PMENUANCHOR,0,138,14,32,41
 13784                        	.sym	MENUANCHOR,0,10,14,272,41
 13785                        	.sym	PMSGBOX,0,138,14,32,40
 13786                        	.sym	MSGBOX,0,10,14,144,40
 13787                        	.sym	PTEXTBOX,0,138,14,32,39
 13788                        	.sym	TEXTBOX,0,10,14,144,39
 13789                        	.sym	PLISTBOX,0,138,14,32,38
 13790                        	.sym	LISTBOX,0,10,14,240,38
 13791                        	.sym	PSCROLLBAR,0,138,14,32,37
 13792                        	.sym	SCROLLBAR,0,10,14,240,37
 13793                        	.sym	PBUTTON,0,138,14,32,36
 13794                        	.sym	BUTTON,0,10,14,96,36
 13795                        	.sym	PMENUDROPDOWNDATA,0,138,14,32,35
 13796                        	.sym	MENUDROPDOWNDATA,0,10,14,5152,35
 13797                        	.sym	PMENUTAG,0,138,14,32,34
 13798                        	.sym	MENUTAG,0,10,14,160,34
 13799                        	.sym	PMENU,0,138,14,32,33
 13800                        	.sym	MENU,0,10,14,280,33
 13801                        	.sym	HMENURESOURCE,0,129,14,32
 13802                        	.sym	FONTMETRIC,0,10,14,32,32
 13803                        	.sym	TITLE,0,142,14,32
 13804                        	.sym	PHANDLE,0,1153,14,32
 13805                        	.sym	HANDLE,0,129,14,32
 13806                        	.sym	PWINDOWEX,0,138,14,32,31
 13807                        	.sym	WINDOWEX,0,10,14,3880,31
 13808                        	.sym	PWINDOW,0,138,14,32,30
 13809                        	.sym	WINDOW,0,10,14,3904,30
 13810                        	.sym	PDRAGDATA,0,138,14,32,29
  Mon Sep 27 2021  9:39                                                Page 289


 13811                        	.sym	DRAGDATA,0,10,14,216,29
 13812                        	.sym	PNCCLICKABLE,0,138,14,32,28
 13813                        	.sym	NCCLICKABLE,0,10,14,136,28
 13814                        	.sym	HCLICKABLE,0,7,14,32
 13815                        	.sym	PCLICKABLE,0,138,14,32,27
 13816                        	.sym	CLICKABLE,0,10,14,152,27
 13817                        	.sym	PWNDCLASS,0,138,14,32,26
 13818                        	.sym	WNDCLASS,0,10,14,272,26
 13819                        	.sym	HBRUSH,0,129,14,32
 13820                        	.sym	HCURSOR,0,129,14,32
 13821                        	.sym	HICON,0,129,14,32
 13822                        	.sym	HINSTANCE,0,129,14,32
 13823                        	.sym	FXWndProc,0,654,14,32
 13824                        	.sym	PDRECT,0,138,14,32,25
 13825                        	.sym	DRECT,0,10,14,112,25
 13826                        	.sym	PRECTP,0,138,14,32,24
 13827                        	.sym	RECTP,0,10,14,96,24
 13828                        	.sym	PRECT,0,138,14,32,23
 13829                        	.sym	RECT,0,10,14,112,23
 13830                        	.sym	PPOINT,0,138,14,32,22
 13831                        	.sym	POINT,0,10,14,32,22
 13832                        	.sym	PFXPROPERTY,0,138,14,32,20
 13833                        	.sym	FXPROPERTY,0,10,14,384,20
 13834                        	.sym	PKEYSTATE,0,138,14,32,19
 13835                        	.sym	KEYSTATE,0,10,14,112,19
 13836                        	.sym	SCANCODE,0,14,14,8
 13837                        	.sym	KEYCODE,0,16,14,16
 13838                        	.sym	PFXPROCESSMESSAGE,0,138,14,32,18
 13839                        	.sym	FXPROCESSMESSAGE,0,10,14,112,18
 13840                        	.sym	PFXPROCESS,0,138,14,32,17
 13841                        	.sym	FXPROCESS,0,10,14,800,17
 13842                        	.sym	PDESKTOP_CONTROL,0,138,14,32,16
 13843                        	.sym	DESKTOP_CONTROL,0,10,14,392,16
 13844                        	.sym	PCONSOLE_CONTROL,0,138,14,32,15
 13845                        	.sym	CONSOLE_CONTROL,0,10,14,448,15
 13846                        	.sym	FXProcessProc,0,641,14,32
 13847                        	.sym	PFXCMDMESSAGE,0,138,14,32,14
 13848                        	.sym	FXCMDMESSAGE,0,10,14,312,14
 13849                        	.sym	PFXOSMESSAGE,0,138,14,32,13
 13850                        	.sym	FXOSMESSAGE,0,10,14,312,13
 13851                        	.sym	PINT_REGS,0,138,14,32,12
 13852                        	.sym	INT_REGS,0,10,14,104,12
 13853                        	.sym	TASK_STACK,0,10,14,32,11
 13854                        	.sym	TASK,0,10,14,48,10
 13855                        	.sym	PIRQDATA,0,138,14,32,9
 13856                        	.sym	IRQDATA,0,10,14,48,9
 13857                        	.sym	HMENU,0,129,14,32
 13858                        	.sym	HWND,0,129,14,32
 13859                        	.sym	MSGDATA,0,14,14,8
 13860                        	.sym	MSGDEST,0,18,14,32
 13861                        	.sym	MSGSRC,0,18,14,32
 13862                        	.sym	MSGTYPE,0,16,14,16
 13863                        	.sym	PROCESS_RESOURCE_LIST,0,138,14,32,3
 13864                        	.sym	PROCESS_TLS_LIST,0,138,14,32,3
 13865                        	.sym	SEMAPHORE_LIST,0,138,14,32,3
 13866                        	.sym	FILE_BLOCK_LIST,0,138,14,32,3
 13867                        	.sym	FILE_PATH_LIST,0,138,14,32,3
 13868                        	.sym	PROCEDURE_LIST,0,138,14,32,3
  Mon Sep 27 2021  9:39                                                Page 290


 13869                        	.sym	FILE_HANDLE,0,138,14,32,8
 13870                        	.sym	FILE_BLOCK,0,10,14,552,8
 13871                        	.sym	SEMAPHORE,0,10,14,16,7
 13872                        	.sym	PPROCESS_SIGNAL,0,138,14,32,6
 13873                        	.sym	PROCESS_SIGNAL,0,10,14,16,6
 13874                        	.sym	KRESULT,0,18,14,32
 13875                        	.sym	PKERNEL_ERROR,0,138,14,32,5
 13876                        	.sym	KERNEL_ERROR,0,10,14,32,5
 13877                        	.sym	PROCESS_STATUS,0,16,14,16
 13878                        	.sym	FILE_PATH_NAME,0,142,14,32
 13879                        	.sym	PROCESS_RESOURCE,0,129,14,32
 13880                        	.sym	PROCESS_TLS,0,129,14,32
 13881                        	.sym	PROCESS_CTX,0,129,14,32
 13882                        	.sym	USERID,0,16,14,16
 13883                        	.sym	PROCESS_ID,0,18,14,32
 13884                        	.sym	PROCESS_BANK,0,14,14,8
 13885                        	.sym	PFXQUEUE,0,138,14,32,4
 13886                        	.sym	FXQUEUE,0,10,14,80,4
 13887                        	.sym	PFXNODELIST,0,138,14,32,3
 13888                        	.sym	FXNODELIST,0,10,14,96,3
 13889                        	.sym	NodeListDeallocator,0,641,14,32
 13890                        	.sym	PFXNODE,0,138,14,32,2
 13891                        	.sym	FXNODE,0,10,14,384,2
 13892                        	.sym	PBYTEBITS,0,138,14,32,1
 13893                        	.sym	BYTEBITS,0,10,14,8,1
 13894                        	.sym	HRESULT,0,18,14,32
 13895                        	.sym	LPWCHAR,0,144,14,32
 13896                        	.sym	WCHAR,0,16,14,16
 13897                        	.sym	HSTRINGTABLE,0,129,14,32
 13898                        	.sym	HCOLOR,0,129,14,32
 13899                        	.sym	HFONT,0,129,14,32
 13900                        	.sym	HDC,0,129,14,32
 13901                        	.sym	HPOINTER,0,129,14,32
 13902                        	.sym	uint32_t,0,18,14,32
 13903                        	.sym	uint8_t,0,14,14,8
 13904                        	.sym	LPBOOL,0,142,14,32
 13905                        	.sym	BOOL,0,14,14,8
 13906                        	.sym	DWORD,0,18,14,32
 13907                        	.sym	ULONG,0,18,14,32
 13908                        	.sym	LPLONG,0,135,14,32
 13909                        	.sym	LONG,0,7,14,32
 13910                        	.sym	PUINT,0,144,14,32
 13911                        	.sym	USHORT,0,16,14,16
 13912                        	.sym	UINT,0,16,14,16
 13913                        	.sym	INT,0,5,14,16
 13914                        	.sym	WORD,0,5,14,16
 13915                        	.sym	PBYTE,0,142,14,32
 13916                        	.sym	BYTE,0,14,14,8
 13917                        	.sym	IOPORT,0,142,14,32
 13918                        	.sym	PUCHAR,0,142,14,32
 13919                        	.sym	UCHAR,0,14,14,8
 13920                        	.sym	LPWCSTR,0,142,14,32
 13921                        	.sym	LPCSTR,0,142,14,32
 13922                        	.sym	LPSTR,0,142,14,32
 13923                        	.sym	LPCHAR,0,142,14,32
 13924                        	.sym	CHAR,0,14,14,8
 13925                        	.sym	PUINT_32,0,146,14,32
 13926                        	.sym	UINT_32,0,18,14,32
  Mon Sep 27 2021  9:39                                                Page 291


 13927                        	.sym	PUINT_16,0,144,14,32
 13928                        	.sym	UINT_16,0,16,14,16
 13929                        	.sym	PUINT_8,0,142,14,32
 13930                        	.sym	UINT_8,0,14,14,8
 13931                        	.sym	LPVOID,0,129,14,32
 13932                        	.sym	VOID,0,1,14,32
 13933                        	end


      Lines assembled: 13933
      Errors: 0
